ARM GAS  /tmp/ccpRPygc.s 			page 1


   1              		.cpu cortex-m0
   2              		.eabi_attribute 20, 1
   3              		.eabi_attribute 21, 1
   4              		.eabi_attribute 23, 3
   5              		.eabi_attribute 24, 1
   6              		.eabi_attribute 25, 1
   7              		.eabi_attribute 26, 1
   8              		.eabi_attribute 30, 6
   9              		.eabi_attribute 34, 0
  10              		.eabi_attribute 18, 4
  11              		.file	"u8g_dev_ssd1306_128x32.c"
  12              		.text
  13              	.Ltext0:
  14              		.cfi_sections	.debug_frame
  15              		.section	.rodata.u8g_dev_ssd1306_128x32_adafruit1_init_seq,"a",%progbits
  16              		.align	2
  19              	u8g_dev_ssd1306_128x32_adafruit1_init_seq:
  20 0000 FF       		.byte	-1
  21 0001 D0       		.byte	-48
  22 0002 FF       		.byte	-1
  23 0003 E0       		.byte	-32
  24 0004 FF       		.byte	-1
  25 0005 C1       		.byte	-63
  26 0006 FF       		.byte	-1
  27 0007 D1       		.byte	-47
  28 0008 AE       		.byte	-82
  29 0009 D5       		.byte	-43
  30 000a 80       		.byte	-128
  31 000b A8       		.byte	-88
  32 000c 3F       		.byte	63
  33 000d D3       		.byte	-45
  34 000e 00       		.byte	0
  35 000f 40       		.byte	64
  36 0010 8D       		.byte	-115
  37 0011 10       		.byte	16
  38 0012 20       		.byte	32
  39 0013 00       		.byte	0
  40 0014 A1       		.byte	-95
  41 0015 C8       		.byte	-56
  42 0016 DA       		.byte	-38
  43 0017 12       		.byte	18
  44 0018 81       		.byte	-127
  45 0019 9F       		.byte	-97
  46 001a D9       		.byte	-39
  47 001b 22       		.byte	34
  48 001c DB       		.byte	-37
  49 001d 40       		.byte	64
  50 001e 2E       		.byte	46
  51 001f A4       		.byte	-92
  52 0020 A6       		.byte	-90
  53 0021 AF       		.byte	-81
  54 0022 FF       		.byte	-1
  55 0023 D0       		.byte	-48
  56 0024 FF       		.byte	-1
  57 0025 FE       		.byte	-2
  58              		.section	.rodata.u8g_dev_ssd1306_128x32_adafruit2_init_seq,"a",%progbits
  59              		.align	2
ARM GAS  /tmp/ccpRPygc.s 			page 2


  62              	u8g_dev_ssd1306_128x32_adafruit2_init_seq:
  63 0000 FF       		.byte	-1
  64 0001 D0       		.byte	-48
  65 0002 FF       		.byte	-1
  66 0003 E0       		.byte	-32
  67 0004 FF       		.byte	-1
  68 0005 C1       		.byte	-63
  69 0006 FF       		.byte	-1
  70 0007 D1       		.byte	-47
  71 0008 AE       		.byte	-82
  72 0009 D5       		.byte	-43
  73 000a 80       		.byte	-128
  74 000b A8       		.byte	-88
  75 000c 3F       		.byte	63
  76 000d D3       		.byte	-45
  77 000e 00       		.byte	0
  78 000f 40       		.byte	64
  79 0010 8D       		.byte	-115
  80 0011 14       		.byte	20
  81 0012 20       		.byte	32
  82 0013 00       		.byte	0
  83 0014 A1       		.byte	-95
  84 0015 C8       		.byte	-56
  85 0016 DA       		.byte	-38
  86 0017 12       		.byte	18
  87 0018 81       		.byte	-127
  88 0019 CF       		.byte	-49
  89 001a D9       		.byte	-39
  90 001b F1       		.byte	-15
  91 001c DB       		.byte	-37
  92 001d 40       		.byte	64
  93 001e 2E       		.byte	46
  94 001f A4       		.byte	-92
  95 0020 A6       		.byte	-90
  96 0021 AF       		.byte	-81
  97 0022 FF       		.byte	-1
  98 0023 D0       		.byte	-48
  99 0024 FF       		.byte	-1
 100 0025 FE       		.byte	-2
 101              		.section	.rodata.u8g_dev_ssd1306_128x32_adafruit3_init_seq,"a",%progbits
 102              		.align	2
 105              	u8g_dev_ssd1306_128x32_adafruit3_init_seq:
 106 0000 FF       		.byte	-1
 107 0001 D0       		.byte	-48
 108 0002 FF       		.byte	-1
 109 0003 E0       		.byte	-32
 110 0004 FF       		.byte	-1
 111 0005 C1       		.byte	-63
 112 0006 FF       		.byte	-1
 113 0007 D1       		.byte	-47
 114 0008 AE       		.byte	-82
 115 0009 D5       		.byte	-43
 116 000a 80       		.byte	-128
 117 000b A8       		.byte	-88
 118 000c 1F       		.byte	31
 119 000d D3       		.byte	-45
 120 000e 00       		.byte	0
ARM GAS  /tmp/ccpRPygc.s 			page 3


 121 000f 40       		.byte	64
 122 0010 8D       		.byte	-115
 123 0011 14       		.byte	20
 124 0012 20       		.byte	32
 125 0013 02       		.byte	2
 126 0014 A1       		.byte	-95
 127 0015 C8       		.byte	-56
 128 0016 DA       		.byte	-38
 129 0017 02       		.byte	2
 130 0018 81       		.byte	-127
 131 0019 CF       		.byte	-49
 132 001a D9       		.byte	-39
 133 001b F1       		.byte	-15
 134 001c DB       		.byte	-37
 135 001d 40       		.byte	64
 136 001e 2E       		.byte	46
 137 001f A4       		.byte	-92
 138 0020 A6       		.byte	-90
 139 0021 AF       		.byte	-81
 140 0022 FF       		.byte	-1
 141 0023 D0       		.byte	-48
 142 0024 FF       		.byte	-1
 143 0025 FE       		.byte	-2
 144              		.section	.rodata.u8g_dev_ssd1306_128x32_univision_init_seq,"a",%progbits
 145              		.align	2
 148              	u8g_dev_ssd1306_128x32_univision_init_seq:
 149 0000 FF       		.byte	-1
 150 0001 D0       		.byte	-48
 151 0002 FF       		.byte	-1
 152 0003 E0       		.byte	-32
 153 0004 FF       		.byte	-1
 154 0005 C1       		.byte	-63
 155 0006 FF       		.byte	-1
 156 0007 D1       		.byte	-47
 157 0008 AE       		.byte	-82
 158 0009 D5       		.byte	-43
 159 000a 80       		.byte	-128
 160 000b A8       		.byte	-88
 161 000c 3F       		.byte	63
 162 000d D3       		.byte	-45
 163 000e 00       		.byte	0
 164 000f 40       		.byte	64
 165 0010 8D       		.byte	-115
 166 0011 10       		.byte	16
 167 0012 A1       		.byte	-95
 168 0013 C8       		.byte	-56
 169 0014 DA       		.byte	-38
 170 0015 12       		.byte	18
 171 0016 81       		.byte	-127
 172 0017 9F       		.byte	-97
 173 0018 D9       		.byte	-39
 174 0019 22       		.byte	34
 175 001a DB       		.byte	-37
 176 001b 40       		.byte	64
 177 001c 22       		.byte	34
 178 001d 00       		.byte	0
 179 001e A4       		.byte	-92
ARM GAS  /tmp/ccpRPygc.s 			page 4


 180 001f A6       		.byte	-90
 181 0020 AF       		.byte	-81
 182 0021 FF       		.byte	-1
 183 0022 D0       		.byte	-48
 184 0023 FF       		.byte	-1
 185 0024 FE       		.byte	-2
 186              		.section	.rodata.u8g_dev_ssd1306_128x32_data_start,"a",%progbits
 187              		.align	2
 190              	u8g_dev_ssd1306_128x32_data_start:
 191 0000 FF       		.byte	-1
 192 0001 E0       		.byte	-32
 193 0002 FF       		.byte	-1
 194 0003 D1       		.byte	-47
 195 0004 10       		.byte	16
 196 0005 00       		.byte	0
 197 0006 FF       		.byte	-1
 198 0007 FE       		.byte	-2
 199              		.section	.rodata.u8g_dev_ssd13xx_sleep_on,"a",%progbits
 200              		.align	2
 203              	u8g_dev_ssd13xx_sleep_on:
 204 0000 FF       		.byte	-1
 205 0001 E0       		.byte	-32
 206 0002 FF       		.byte	-1
 207 0003 D1       		.byte	-47
 208 0004 AE       		.byte	-82
 209 0005 FF       		.byte	-1
 210 0006 D0       		.byte	-48
 211 0007 FF       		.byte	-1
 212 0008 FE       		.byte	-2
 213              		.section	.rodata.u8g_dev_ssd13xx_sleep_off,"a",%progbits
 214              		.align	2
 217              	u8g_dev_ssd13xx_sleep_off:
 218 0000 FF       		.byte	-1
 219 0001 E0       		.byte	-32
 220 0002 FF       		.byte	-1
 221 0003 D1       		.byte	-47
 222 0004 AF       		.byte	-81
 223 0005 FF       		.byte	-1
 224 0006 32       		.byte	50
 225 0007 FF       		.byte	-1
 226 0008 D0       		.byte	-48
 227 0009 FF       		.byte	-1
 228 000a FE       		.byte	-2
 229              		.section	.text.u8g_dev_ssd1306_128x32_fn,"ax",%progbits
 230              		.align	1
 231              		.global	u8g_dev_ssd1306_128x32_fn
 232              		.syntax unified
 233              		.code	16
 234              		.thumb_func
 235              		.fpu softvfp
 237              	u8g_dev_ssd1306_128x32_fn:
 238              	.LFB0:
 239              		.file 1 "Drivers/u8glib/src/u8g_dev_ssd1306_128x32.c"
   1:Drivers/u8glib/src/u8g_dev_ssd1306_128x32.c **** /*
   2:Drivers/u8glib/src/u8g_dev_ssd1306_128x32.c **** 
   3:Drivers/u8glib/src/u8g_dev_ssd1306_128x32.c ****   u8g_dev_ssd1306_128x32.c
   4:Drivers/u8glib/src/u8g_dev_ssd1306_128x32.c **** 
ARM GAS  /tmp/ccpRPygc.s 			page 5


   5:Drivers/u8glib/src/u8g_dev_ssd1306_128x32.c ****   Universal 8bit Graphics Library
   6:Drivers/u8glib/src/u8g_dev_ssd1306_128x32.c ****   
   7:Drivers/u8glib/src/u8g_dev_ssd1306_128x32.c ****   Copyright (c) 2011, olikraus@gmail.com
   8:Drivers/u8glib/src/u8g_dev_ssd1306_128x32.c ****   All rights reserved.
   9:Drivers/u8glib/src/u8g_dev_ssd1306_128x32.c **** 
  10:Drivers/u8glib/src/u8g_dev_ssd1306_128x32.c ****   Redistribution and use in source and binary forms, with or without modification, 
  11:Drivers/u8glib/src/u8g_dev_ssd1306_128x32.c ****   are permitted provided that the following conditions are met:
  12:Drivers/u8glib/src/u8g_dev_ssd1306_128x32.c **** 
  13:Drivers/u8glib/src/u8g_dev_ssd1306_128x32.c ****   * Redistributions of source code must retain the above copyright notice, this list 
  14:Drivers/u8glib/src/u8g_dev_ssd1306_128x32.c ****     of conditions and the following disclaimer.
  15:Drivers/u8glib/src/u8g_dev_ssd1306_128x32.c ****     
  16:Drivers/u8glib/src/u8g_dev_ssd1306_128x32.c ****   * Redistributions in binary form must reproduce the above copyright notice, this 
  17:Drivers/u8glib/src/u8g_dev_ssd1306_128x32.c ****     list of conditions and the following disclaimer in the documentation and/or other 
  18:Drivers/u8glib/src/u8g_dev_ssd1306_128x32.c ****     materials provided with the distribution.
  19:Drivers/u8glib/src/u8g_dev_ssd1306_128x32.c **** 
  20:Drivers/u8glib/src/u8g_dev_ssd1306_128x32.c ****   THIS SOFTWARE IS PROVIDED BY THE COPYRIGHT HOLDERS AND 
  21:Drivers/u8glib/src/u8g_dev_ssd1306_128x32.c ****   CONTRIBUTORS "AS IS" AND ANY EXPRESS OR IMPLIED WARRANTIES, 
  22:Drivers/u8glib/src/u8g_dev_ssd1306_128x32.c ****   INCLUDING, BUT NOT LIMITED TO, THE IMPLIED WARRANTIES OF 
  23:Drivers/u8glib/src/u8g_dev_ssd1306_128x32.c ****   MERCHANTABILITY AND FITNESS FOR A PARTICULAR PURPOSE ARE 
  24:Drivers/u8glib/src/u8g_dev_ssd1306_128x32.c ****   DISCLAIMED. IN NO EVENT SHALL THE COPYRIGHT HOLDER OR 
  25:Drivers/u8glib/src/u8g_dev_ssd1306_128x32.c ****   CONTRIBUTORS BE LIABLE FOR ANY DIRECT, INDIRECT, INCIDENTAL, 
  26:Drivers/u8glib/src/u8g_dev_ssd1306_128x32.c ****   SPECIAL, EXEMPLARY, OR CONSEQUENTIAL DAMAGES (INCLUDING, BUT 
  27:Drivers/u8glib/src/u8g_dev_ssd1306_128x32.c ****   NOT LIMITED TO, PROCUREMENT OF SUBSTITUTE GOODS OR SERVICES; 
  28:Drivers/u8glib/src/u8g_dev_ssd1306_128x32.c ****   LOSS OF USE, DATA, OR PROFITS; OR BUSINESS INTERRUPTION) HOWEVER 
  29:Drivers/u8glib/src/u8g_dev_ssd1306_128x32.c ****   CAUSED AND ON ANY THEORY OF LIABILITY, WHETHER IN CONTRACT, 
  30:Drivers/u8glib/src/u8g_dev_ssd1306_128x32.c ****   STRICT LIABILITY, OR TORT (INCLUDING NEGLIGENCE OR OTHERWISE) 
  31:Drivers/u8glib/src/u8g_dev_ssd1306_128x32.c ****   ARISING IN ANY WAY OUT OF THE USE OF THIS SOFTWARE, EVEN IF 
  32:Drivers/u8glib/src/u8g_dev_ssd1306_128x32.c ****   ADVISED OF THE POSSIBILITY OF SUCH DAMAGE.  
  33:Drivers/u8glib/src/u8g_dev_ssd1306_128x32.c **** 
  34:Drivers/u8glib/src/u8g_dev_ssd1306_128x32.c ****   
  35:Drivers/u8glib/src/u8g_dev_ssd1306_128x32.c ****   23 Feb 2013: Fixed, Issue 147
  36:Drivers/u8glib/src/u8g_dev_ssd1306_128x32.c **** 
  37:Drivers/u8glib/src/u8g_dev_ssd1306_128x32.c **** */
  38:Drivers/u8glib/src/u8g_dev_ssd1306_128x32.c **** 
  39:Drivers/u8glib/src/u8g_dev_ssd1306_128x32.c **** 
  40:Drivers/u8glib/src/u8g_dev_ssd1306_128x32.c **** #include "u8g.h"
  41:Drivers/u8glib/src/u8g_dev_ssd1306_128x32.c **** 
  42:Drivers/u8glib/src/u8g_dev_ssd1306_128x32.c **** #define WIDTH 128
  43:Drivers/u8glib/src/u8g_dev_ssd1306_128x32.c **** #define HEIGHT 32
  44:Drivers/u8glib/src/u8g_dev_ssd1306_128x32.c **** #define PAGE_HEIGHT 8
  45:Drivers/u8glib/src/u8g_dev_ssd1306_128x32.c **** 
  46:Drivers/u8glib/src/u8g_dev_ssd1306_128x32.c **** 
  47:Drivers/u8glib/src/u8g_dev_ssd1306_128x32.c **** /* init sequence adafruit 128x32 OLED (NOT TESTED) */
  48:Drivers/u8glib/src/u8g_dev_ssd1306_128x32.c **** static const uint8_t u8g_dev_ssd1306_128x32_adafruit1_init_seq[] PROGMEM = {
  49:Drivers/u8glib/src/u8g_dev_ssd1306_128x32.c ****   U8G_ESC_CS(0),        /* disable chip */
  50:Drivers/u8glib/src/u8g_dev_ssd1306_128x32.c ****   U8G_ESC_ADR(0),       /* instruction mode */
  51:Drivers/u8glib/src/u8g_dev_ssd1306_128x32.c ****   U8G_ESC_RST(1),       /* do reset low pulse with (1*16)+2 milliseconds */
  52:Drivers/u8glib/src/u8g_dev_ssd1306_128x32.c ****   U8G_ESC_CS(1),        /* enable chip */
  53:Drivers/u8glib/src/u8g_dev_ssd1306_128x32.c **** 
  54:Drivers/u8glib/src/u8g_dev_ssd1306_128x32.c ****   0x0ae,				/* display off, sleep mode */
  55:Drivers/u8glib/src/u8g_dev_ssd1306_128x32.c ****   0x0d5, 0x080,			/* clock divide ratio (0x00=1) and oscillator frequency (0x8) */
  56:Drivers/u8glib/src/u8g_dev_ssd1306_128x32.c ****   0x0a8, 0x03f,			/* */
  57:Drivers/u8glib/src/u8g_dev_ssd1306_128x32.c **** 
  58:Drivers/u8glib/src/u8g_dev_ssd1306_128x32.c ****   0x0d3, 0x000,			/*  */
  59:Drivers/u8glib/src/u8g_dev_ssd1306_128x32.c **** 
  60:Drivers/u8glib/src/u8g_dev_ssd1306_128x32.c ****   0x040,				/* start line */
  61:Drivers/u8glib/src/u8g_dev_ssd1306_128x32.c ****   
ARM GAS  /tmp/ccpRPygc.s 			page 6


  62:Drivers/u8glib/src/u8g_dev_ssd1306_128x32.c ****   0x08d, 0x010,			/* [1] charge pump setting (p62): 0x014 enable, 0x010 disable */
  63:Drivers/u8glib/src/u8g_dev_ssd1306_128x32.c **** 
  64:Drivers/u8glib/src/u8g_dev_ssd1306_128x32.c ****   0x020, 0x000,			/* */
  65:Drivers/u8glib/src/u8g_dev_ssd1306_128x32.c ****   0x0a1,				/* segment remap a0/a1*/
  66:Drivers/u8glib/src/u8g_dev_ssd1306_128x32.c ****   0x0c8,				/* c0: scan dir normal, c8: reverse */
  67:Drivers/u8glib/src/u8g_dev_ssd1306_128x32.c ****   0x0da, 0x012,			/* com pin HW config, sequential com pin config (bit 4), disable left/right remap
  68:Drivers/u8glib/src/u8g_dev_ssd1306_128x32.c ****   0x081, 0x09f,			/* [1] set contrast control */
  69:Drivers/u8glib/src/u8g_dev_ssd1306_128x32.c ****   0x0d9, 0x022,			/* [1] pre-charge period 0x022/f1*/
  70:Drivers/u8glib/src/u8g_dev_ssd1306_128x32.c ****   0x0db, 0x040,			/* vcomh deselect level */
  71:Drivers/u8glib/src/u8g_dev_ssd1306_128x32.c ****   
  72:Drivers/u8glib/src/u8g_dev_ssd1306_128x32.c ****   0x02e,				/* 2012-05-27: Deactivate scroll */ 
  73:Drivers/u8glib/src/u8g_dev_ssd1306_128x32.c ****   0x0a4,				/* output ram to display */
  74:Drivers/u8glib/src/u8g_dev_ssd1306_128x32.c ****   0x0a6,				/* none inverted normal display mode */
  75:Drivers/u8glib/src/u8g_dev_ssd1306_128x32.c ****   0x0af,				/* display on */
  76:Drivers/u8glib/src/u8g_dev_ssd1306_128x32.c **** 
  77:Drivers/u8glib/src/u8g_dev_ssd1306_128x32.c ****   U8G_ESC_CS(0),        /* disable chip */
  78:Drivers/u8glib/src/u8g_dev_ssd1306_128x32.c ****   U8G_ESC_END           /* end of sequence */
  79:Drivers/u8glib/src/u8g_dev_ssd1306_128x32.c **** };
  80:Drivers/u8glib/src/u8g_dev_ssd1306_128x32.c **** 
  81:Drivers/u8glib/src/u8g_dev_ssd1306_128x32.c **** 
  82:Drivers/u8glib/src/u8g_dev_ssd1306_128x32.c **** /* init sequence adafruit 128x32 OLED (NOT TESTED) */
  83:Drivers/u8glib/src/u8g_dev_ssd1306_128x32.c **** static const uint8_t u8g_dev_ssd1306_128x32_adafruit2_init_seq[] PROGMEM = {
  84:Drivers/u8glib/src/u8g_dev_ssd1306_128x32.c ****   U8G_ESC_CS(0),        /* disable chip */
  85:Drivers/u8glib/src/u8g_dev_ssd1306_128x32.c ****   U8G_ESC_ADR(0),       /* instruction mode */
  86:Drivers/u8glib/src/u8g_dev_ssd1306_128x32.c ****   U8G_ESC_RST(1),       /* do reset low pulse with (1*16)+2 milliseconds */
  87:Drivers/u8glib/src/u8g_dev_ssd1306_128x32.c ****   U8G_ESC_CS(1),        /* enable chip */
  88:Drivers/u8glib/src/u8g_dev_ssd1306_128x32.c **** 
  89:Drivers/u8glib/src/u8g_dev_ssd1306_128x32.c ****   0x0ae,				/* display off, sleep mode */
  90:Drivers/u8glib/src/u8g_dev_ssd1306_128x32.c ****   0x0d5, 0x080,			/* clock divide ratio (0x00=1) and oscillator frequency (0x8) */
  91:Drivers/u8glib/src/u8g_dev_ssd1306_128x32.c ****   0x0a8, 0x03f,			/* */
  92:Drivers/u8glib/src/u8g_dev_ssd1306_128x32.c **** 
  93:Drivers/u8glib/src/u8g_dev_ssd1306_128x32.c ****   0x0d3, 0x000,			/*  */
  94:Drivers/u8glib/src/u8g_dev_ssd1306_128x32.c **** 
  95:Drivers/u8glib/src/u8g_dev_ssd1306_128x32.c ****   0x040,				/* start line */
  96:Drivers/u8glib/src/u8g_dev_ssd1306_128x32.c ****   
  97:Drivers/u8glib/src/u8g_dev_ssd1306_128x32.c ****   0x08d, 0x014,			/* [2] charge pump setting (p62): 0x014 enable, 0x010 disable */
  98:Drivers/u8glib/src/u8g_dev_ssd1306_128x32.c **** 
  99:Drivers/u8glib/src/u8g_dev_ssd1306_128x32.c ****   0x020, 0x000,			/* */
 100:Drivers/u8glib/src/u8g_dev_ssd1306_128x32.c ****   0x0a1,				/* segment remap a0/a1*/
 101:Drivers/u8glib/src/u8g_dev_ssd1306_128x32.c ****   0x0c8,				/* c0: scan dir normal, c8: reverse */
 102:Drivers/u8glib/src/u8g_dev_ssd1306_128x32.c ****   0x0da, 0x012,			/* com pin HW config, sequential com pin config (bit 4), disable left/right remap
 103:Drivers/u8glib/src/u8g_dev_ssd1306_128x32.c ****   0x081, 0x0cf,			/* [2] set contrast control */
 104:Drivers/u8glib/src/u8g_dev_ssd1306_128x32.c ****   0x0d9, 0x0f1,			/* [2] pre-charge period 0x022/f1*/
 105:Drivers/u8glib/src/u8g_dev_ssd1306_128x32.c ****   0x0db, 0x040,			/* vcomh deselect level */
 106:Drivers/u8glib/src/u8g_dev_ssd1306_128x32.c ****   
 107:Drivers/u8glib/src/u8g_dev_ssd1306_128x32.c ****   0x02e,				/* 2012-05-27: Deactivate scroll */ 
 108:Drivers/u8glib/src/u8g_dev_ssd1306_128x32.c ****   0x0a4,				/* output ram to display */
 109:Drivers/u8glib/src/u8g_dev_ssd1306_128x32.c ****   0x0a6,				/* none inverted normal display mode */
 110:Drivers/u8glib/src/u8g_dev_ssd1306_128x32.c ****   0x0af,				/* display on */
 111:Drivers/u8glib/src/u8g_dev_ssd1306_128x32.c **** 
 112:Drivers/u8glib/src/u8g_dev_ssd1306_128x32.c ****   U8G_ESC_CS(0),        /* disable chip */
 113:Drivers/u8glib/src/u8g_dev_ssd1306_128x32.c ****   U8G_ESC_END           /* end of sequence */
 114:Drivers/u8glib/src/u8g_dev_ssd1306_128x32.c **** };
 115:Drivers/u8glib/src/u8g_dev_ssd1306_128x32.c **** 
 116:Drivers/u8glib/src/u8g_dev_ssd1306_128x32.c **** 
 117:Drivers/u8glib/src/u8g_dev_ssd1306_128x32.c **** /* init sequence adafruit 128x32 OLED (TESTED - WORKING 23.02.13), like adafruit3, but with page ad
 118:Drivers/u8glib/src/u8g_dev_ssd1306_128x32.c **** static const uint8_t u8g_dev_ssd1306_128x32_adafruit3_init_seq[] PROGMEM = {
ARM GAS  /tmp/ccpRPygc.s 			page 7


 119:Drivers/u8glib/src/u8g_dev_ssd1306_128x32.c ****   U8G_ESC_CS(0),        /* disable chip */
 120:Drivers/u8glib/src/u8g_dev_ssd1306_128x32.c ****   U8G_ESC_ADR(0),       /* instruction mode */
 121:Drivers/u8glib/src/u8g_dev_ssd1306_128x32.c ****   U8G_ESC_RST(1),		/* do reset low pulse with (1*16)+2 milliseconds */
 122:Drivers/u8glib/src/u8g_dev_ssd1306_128x32.c ****   U8G_ESC_CS(1),        /* enable chip */
 123:Drivers/u8glib/src/u8g_dev_ssd1306_128x32.c **** 
 124:Drivers/u8glib/src/u8g_dev_ssd1306_128x32.c ****   0x0ae,				/* display off, sleep mode */
 125:Drivers/u8glib/src/u8g_dev_ssd1306_128x32.c ****   0x0d5, 0x080,			/* clock divide ratio (0x00=1) and oscillator frequency (0x8) */
 126:Drivers/u8glib/src/u8g_dev_ssd1306_128x32.c ****   0x0a8, 0x01f,			/* Feb 23, 2013: 128x32 OLED: 0x01f,  128x32 OLED 0x03f */
 127:Drivers/u8glib/src/u8g_dev_ssd1306_128x32.c **** 
 128:Drivers/u8glib/src/u8g_dev_ssd1306_128x32.c ****   0x0d3, 0x000,			/*  */
 129:Drivers/u8glib/src/u8g_dev_ssd1306_128x32.c **** 
 130:Drivers/u8glib/src/u8g_dev_ssd1306_128x32.c ****   0x040,				/* start line */
 131:Drivers/u8glib/src/u8g_dev_ssd1306_128x32.c ****   
 132:Drivers/u8glib/src/u8g_dev_ssd1306_128x32.c ****   0x08d, 0x014,			/* [2] charge pump setting (p62): 0x014 enable, 0x010 disable */ 
 133:Drivers/u8glib/src/u8g_dev_ssd1306_128x32.c **** 
 134:Drivers/u8glib/src/u8g_dev_ssd1306_128x32.c ****   0x020, 0x002,			/* com pin HW config, sequential com pin config (bit 4), disable left/right remap
 135:Drivers/u8glib/src/u8g_dev_ssd1306_128x32.c ****   0x0a1,				/* segment remap a0/a1*/
 136:Drivers/u8glib/src/u8g_dev_ssd1306_128x32.c ****   0x0c8,				/* c0: scan dir normal, c8: reverse */
 137:Drivers/u8glib/src/u8g_dev_ssd1306_128x32.c ****   0x0da, 0x002,			/* com pin HW config, sequential com pin config (bit 4), disable left/right remap
 138:Drivers/u8glib/src/u8g_dev_ssd1306_128x32.c ****   0x081, 0x0cf,			/* [2] set contrast control */
 139:Drivers/u8glib/src/u8g_dev_ssd1306_128x32.c ****   0x0d9, 0x0f1,			/* [2] pre-charge period 0x022/f1*/
 140:Drivers/u8glib/src/u8g_dev_ssd1306_128x32.c ****   0x0db, 0x040,			/* vcomh deselect level */
 141:Drivers/u8glib/src/u8g_dev_ssd1306_128x32.c ****   
 142:Drivers/u8glib/src/u8g_dev_ssd1306_128x32.c ****   0x02e,				/* 2012-05-27: Deactivate scroll */ 
 143:Drivers/u8glib/src/u8g_dev_ssd1306_128x32.c ****   0x0a4,				/* output ram to display */
 144:Drivers/u8glib/src/u8g_dev_ssd1306_128x32.c ****   0x0a6,				/* none inverted normal display mode */
 145:Drivers/u8glib/src/u8g_dev_ssd1306_128x32.c ****   0x0af,				/* display on */
 146:Drivers/u8glib/src/u8g_dev_ssd1306_128x32.c **** 
 147:Drivers/u8glib/src/u8g_dev_ssd1306_128x32.c ****   U8G_ESC_CS(0),        /* disable chip */
 148:Drivers/u8glib/src/u8g_dev_ssd1306_128x32.c ****   U8G_ESC_END           /* end of sequence */
 149:Drivers/u8glib/src/u8g_dev_ssd1306_128x32.c **** };
 150:Drivers/u8glib/src/u8g_dev_ssd1306_128x32.c **** 
 151:Drivers/u8glib/src/u8g_dev_ssd1306_128x32.c **** 
 152:Drivers/u8glib/src/u8g_dev_ssd1306_128x32.c **** /* init sequence Univision datasheet (NOT TESTED) */
 153:Drivers/u8glib/src/u8g_dev_ssd1306_128x32.c **** static const uint8_t u8g_dev_ssd1306_128x32_univision_init_seq[] PROGMEM = {
 154:Drivers/u8glib/src/u8g_dev_ssd1306_128x32.c ****   U8G_ESC_CS(0),        /* disable chip */
 155:Drivers/u8glib/src/u8g_dev_ssd1306_128x32.c ****   U8G_ESC_ADR(0),       /* instruction mode */
 156:Drivers/u8glib/src/u8g_dev_ssd1306_128x32.c ****   U8G_ESC_RST(1),       /* do reset low pulse with (1*16)+2 milliseconds */
 157:Drivers/u8glib/src/u8g_dev_ssd1306_128x32.c ****   U8G_ESC_CS(1),        /* enable chip */
 158:Drivers/u8glib/src/u8g_dev_ssd1306_128x32.c **** 
 159:Drivers/u8glib/src/u8g_dev_ssd1306_128x32.c ****   0x0ae,				/* display off, sleep mode */
 160:Drivers/u8glib/src/u8g_dev_ssd1306_128x32.c ****   0x0d5, 0x080,			/* clock divide ratio (0x00=1) and oscillator frequency (0x8) */
 161:Drivers/u8glib/src/u8g_dev_ssd1306_128x32.c ****   0x0a8, 0x03f,			/* multiplex ratio */
 162:Drivers/u8glib/src/u8g_dev_ssd1306_128x32.c ****   0x0d3, 0x000,			/* display offset */
 163:Drivers/u8glib/src/u8g_dev_ssd1306_128x32.c ****   0x040,				/* start line */
 164:Drivers/u8glib/src/u8g_dev_ssd1306_128x32.c ****   0x08d, 0x010,			/* charge pump setting (p62): 0x014 enable, 0x010 disable */
 165:Drivers/u8glib/src/u8g_dev_ssd1306_128x32.c ****   0x0a1,				/* segment remap a0/a1*/
 166:Drivers/u8glib/src/u8g_dev_ssd1306_128x32.c ****   0x0c8,				/* c0: scan dir normal, c8: reverse */
 167:Drivers/u8glib/src/u8g_dev_ssd1306_128x32.c ****   0x0da, 0x012,			/* com pin HW config, sequential com pin config (bit 4), disable left/right remap
 168:Drivers/u8glib/src/u8g_dev_ssd1306_128x32.c ****   0x081, 0x09f,			/* set contrast control */
 169:Drivers/u8glib/src/u8g_dev_ssd1306_128x32.c ****   0x0d9, 0x022,			/* pre-charge period */
 170:Drivers/u8glib/src/u8g_dev_ssd1306_128x32.c ****   0x0db, 0x040,			/* vcomh deselect level */
 171:Drivers/u8glib/src/u8g_dev_ssd1306_128x32.c ****   0x022, 0x000,			/* page addressing mode WRONG: 3 byte cmd! */
 172:Drivers/u8glib/src/u8g_dev_ssd1306_128x32.c ****   0x0a4,				/* output ram to display */
 173:Drivers/u8glib/src/u8g_dev_ssd1306_128x32.c ****   0x0a6,				/* none inverted normal display mode */
 174:Drivers/u8glib/src/u8g_dev_ssd1306_128x32.c ****   0x0af,				/* display on */
 175:Drivers/u8glib/src/u8g_dev_ssd1306_128x32.c ****   U8G_ESC_CS(0),        /* disable chip */
ARM GAS  /tmp/ccpRPygc.s 			page 8


 176:Drivers/u8glib/src/u8g_dev_ssd1306_128x32.c ****   U8G_ESC_END           /* end of sequence */
 177:Drivers/u8glib/src/u8g_dev_ssd1306_128x32.c **** };
 178:Drivers/u8glib/src/u8g_dev_ssd1306_128x32.c **** 
 179:Drivers/u8glib/src/u8g_dev_ssd1306_128x32.c **** 
 180:Drivers/u8glib/src/u8g_dev_ssd1306_128x32.c **** /* select one init sequence here */
 181:Drivers/u8glib/src/u8g_dev_ssd1306_128x32.c **** //define u8g_dev_ssd1306_128x32_init_seq u8g_dev_ssd1306_128x32_univision_init_seq
 182:Drivers/u8glib/src/u8g_dev_ssd1306_128x32.c **** //define u8g_dev_ssd1306_128x32_init_seq u8g_dev_ssd1306_128x32_adafruit1_init_seq
 183:Drivers/u8glib/src/u8g_dev_ssd1306_128x32.c **** //define u8g_dev_ssd1306_128x32_init_seq u8g_dev_ssd1306_128x32_adafruit2_init_seq
 184:Drivers/u8glib/src/u8g_dev_ssd1306_128x32.c **** #define u8g_dev_ssd1306_128x32_init_seq u8g_dev_ssd1306_128x32_adafruit3_init_seq
 185:Drivers/u8glib/src/u8g_dev_ssd1306_128x32.c **** 
 186:Drivers/u8glib/src/u8g_dev_ssd1306_128x32.c **** 
 187:Drivers/u8glib/src/u8g_dev_ssd1306_128x32.c **** static const uint8_t u8g_dev_ssd1306_128x32_data_start[] PROGMEM = {
 188:Drivers/u8glib/src/u8g_dev_ssd1306_128x32.c ****   U8G_ESC_ADR(0),       /* instruction mode */
 189:Drivers/u8glib/src/u8g_dev_ssd1306_128x32.c ****   U8G_ESC_CS(1),        /* enable chip */
 190:Drivers/u8glib/src/u8g_dev_ssd1306_128x32.c ****   0x010,				/* set upper 4 bit of the col adr. to 0 */
 191:Drivers/u8glib/src/u8g_dev_ssd1306_128x32.c ****   0x000,				/* set lower 4 bit of the col adr. to 4  */
 192:Drivers/u8glib/src/u8g_dev_ssd1306_128x32.c ****   U8G_ESC_END           /* end of sequence */
 193:Drivers/u8glib/src/u8g_dev_ssd1306_128x32.c **** };
 194:Drivers/u8glib/src/u8g_dev_ssd1306_128x32.c **** 
 195:Drivers/u8glib/src/u8g_dev_ssd1306_128x32.c **** static const uint8_t u8g_dev_ssd13xx_sleep_on[] PROGMEM = {
 196:Drivers/u8glib/src/u8g_dev_ssd1306_128x32.c ****   U8G_ESC_ADR(0),           /* instruction mode */
 197:Drivers/u8glib/src/u8g_dev_ssd1306_128x32.c ****   U8G_ESC_CS(1),             /* enable chip */
 198:Drivers/u8glib/src/u8g_dev_ssd1306_128x32.c ****   0x0ae,		/* display off */      
 199:Drivers/u8glib/src/u8g_dev_ssd1306_128x32.c ****   U8G_ESC_CS(0),             /* disable chip, bugfix 12 nov 2014 */
 200:Drivers/u8glib/src/u8g_dev_ssd1306_128x32.c ****   U8G_ESC_END                /* end of sequence */
 201:Drivers/u8glib/src/u8g_dev_ssd1306_128x32.c **** };
 202:Drivers/u8glib/src/u8g_dev_ssd1306_128x32.c **** 
 203:Drivers/u8glib/src/u8g_dev_ssd1306_128x32.c **** static const uint8_t u8g_dev_ssd13xx_sleep_off[] PROGMEM = {
 204:Drivers/u8glib/src/u8g_dev_ssd1306_128x32.c ****   U8G_ESC_ADR(0),           /* instruction mode */
 205:Drivers/u8glib/src/u8g_dev_ssd1306_128x32.c ****   U8G_ESC_CS(1),             /* enable chip */
 206:Drivers/u8glib/src/u8g_dev_ssd1306_128x32.c ****   0x0af,		/* display on */      
 207:Drivers/u8glib/src/u8g_dev_ssd1306_128x32.c ****   U8G_ESC_DLY(50),       /* delay 50 ms */
 208:Drivers/u8glib/src/u8g_dev_ssd1306_128x32.c ****   U8G_ESC_CS(0),             /* disable chip, bugfix 12 nov 2014 */
 209:Drivers/u8glib/src/u8g_dev_ssd1306_128x32.c ****   U8G_ESC_END                /* end of sequence */
 210:Drivers/u8glib/src/u8g_dev_ssd1306_128x32.c **** };
 211:Drivers/u8glib/src/u8g_dev_ssd1306_128x32.c **** 
 212:Drivers/u8glib/src/u8g_dev_ssd1306_128x32.c **** uint8_t u8g_dev_ssd1306_128x32_fn(u8g_t *u8g, u8g_dev_t *dev, uint8_t msg, void *arg)
 213:Drivers/u8glib/src/u8g_dev_ssd1306_128x32.c **** {
 240              		.loc 1 213 0
 241              		.cfi_startproc
 242 0000 90B5     		push	{r4, r7, lr}
 243              	.LCFI0:
 244              		.cfi_def_cfa_offset 12
 245              		.cfi_offset 4, -12
 246              		.cfi_offset 7, -8
 247              		.cfi_offset 14, -4
 248 0002 87B0     		sub	sp, sp, #28
 249              	.LCFI1:
 250              		.cfi_def_cfa_offset 40
 251 0004 00AF     		add	r7, sp, #0
 252              	.LCFI2:
 253              		.cfi_def_cfa_register 7
 254 0006 F860     		str	r0, [r7, #12]
 255 0008 B960     		str	r1, [r7, #8]
 256 000a 3B60     		str	r3, [r7]
 257 000c FB1D     		adds	r3, r7, #7
 258 000e 1A70     		strb	r2, [r3]
ARM GAS  /tmp/ccpRPygc.s 			page 9


 214:Drivers/u8glib/src/u8g_dev_ssd1306_128x32.c ****   switch(msg)
 259              		.loc 1 214 0
 260 0010 FB1D     		adds	r3, r7, #7
 261 0012 1B78     		ldrb	r3, [r3]
 262 0014 0A3B     		subs	r3, r3, #10
 263 0016 0B2B     		cmp	r3, #11
 264 0018 4CD8     		bhi	.L2
 265 001a 9A00     		lsls	r2, r3, #2
 266 001c 2C4B     		ldr	r3, .L11
 267 001e D318     		adds	r3, r2, r3
 268 0020 1B68     		ldr	r3, [r3]
 269 0022 9F46     		mov	pc, r3
 270              		.section	.rodata.u8g_dev_ssd1306_128x32_fn,"a",%progbits
 271              		.align	2
 272              	.L4:
 273 0000 24000000 		.word	.L3
 274 0004 B4000000 		.word	.L2
 275 0008 B4000000 		.word	.L2
 276 000c B4000000 		.word	.L2
 277 0010 B4000000 		.word	.L2
 278 0014 B4000000 		.word	.L2
 279 0018 94000000 		.word	.L6
 280 001c A4000000 		.word	.L7
 281 0020 B4000000 		.word	.L2
 282 0024 B4000000 		.word	.L2
 283 0028 B4000000 		.word	.L2
 284 002c 3E000000 		.word	.L8
 285              		.section	.text.u8g_dev_ssd1306_128x32_fn
 286              	.L3:
 215:Drivers/u8glib/src/u8g_dev_ssd1306_128x32.c ****   {
 216:Drivers/u8glib/src/u8g_dev_ssd1306_128x32.c ****     case U8G_DEV_MSG_INIT:
 217:Drivers/u8glib/src/u8g_dev_ssd1306_128x32.c ****       u8g_InitCom(u8g, dev, U8G_SPI_CLK_CYCLE_300NS);
 287              		.loc 1 217 0
 288 0024 B968     		ldr	r1, [r7, #8]
 289 0026 FB68     		ldr	r3, [r7, #12]
 290 0028 0222     		movs	r2, #2
 291 002a 1800     		movs	r0, r3
 292 002c FFF7FEFF 		bl	u8g_InitCom
 218:Drivers/u8glib/src/u8g_dev_ssd1306_128x32.c ****       u8g_WriteEscSeqP(u8g, dev, u8g_dev_ssd1306_128x32_init_seq);
 293              		.loc 1 218 0
 294 0030 284A     		ldr	r2, .L11+4
 295 0032 B968     		ldr	r1, [r7, #8]
 296 0034 FB68     		ldr	r3, [r7, #12]
 297 0036 1800     		movs	r0, r3
 298 0038 FFF7FEFF 		bl	u8g_WriteEscSeqP
 219:Drivers/u8glib/src/u8g_dev_ssd1306_128x32.c ****       break;
 299              		.loc 1 219 0
 300 003c 3AE0     		b	.L2
 301              	.L8:
 302              	.LBB2:
 220:Drivers/u8glib/src/u8g_dev_ssd1306_128x32.c ****     case U8G_DEV_MSG_STOP:
 221:Drivers/u8glib/src/u8g_dev_ssd1306_128x32.c ****       break;
 222:Drivers/u8glib/src/u8g_dev_ssd1306_128x32.c ****     case U8G_DEV_MSG_PAGE_NEXT:
 223:Drivers/u8glib/src/u8g_dev_ssd1306_128x32.c ****       {
 224:Drivers/u8glib/src/u8g_dev_ssd1306_128x32.c ****         u8g_pb_t *pb = (u8g_pb_t *)(dev->dev_mem);
 303              		.loc 1 224 0
 304 003e BB68     		ldr	r3, [r7, #8]
ARM GAS  /tmp/ccpRPygc.s 			page 10


 305 0040 5B68     		ldr	r3, [r3, #4]
 306 0042 7B61     		str	r3, [r7, #20]
 225:Drivers/u8glib/src/u8g_dev_ssd1306_128x32.c ****         u8g_WriteEscSeqP(u8g, dev, u8g_dev_ssd1306_128x32_data_start);    
 307              		.loc 1 225 0
 308 0044 244A     		ldr	r2, .L11+8
 309 0046 B968     		ldr	r1, [r7, #8]
 310 0048 FB68     		ldr	r3, [r7, #12]
 311 004a 1800     		movs	r0, r3
 312 004c FFF7FEFF 		bl	u8g_WriteEscSeqP
 226:Drivers/u8glib/src/u8g_dev_ssd1306_128x32.c ****         u8g_WriteByte(u8g, dev, 0x0b0 | pb->p.page);	/* select current page (SSD1306) */
 313              		.loc 1 226 0
 314 0050 7B69     		ldr	r3, [r7, #20]
 315 0052 1B79     		ldrb	r3, [r3, #4]
 316 0054 5022     		movs	r2, #80
 317 0056 5242     		rsbs	r2, r2, #0
 318 0058 1343     		orrs	r3, r2
 319 005a DAB2     		uxtb	r2, r3
 320 005c B968     		ldr	r1, [r7, #8]
 321 005e FB68     		ldr	r3, [r7, #12]
 322 0060 1800     		movs	r0, r3
 323 0062 FFF7FEFF 		bl	u8g_WriteByte
 227:Drivers/u8glib/src/u8g_dev_ssd1306_128x32.c ****         u8g_SetAddress(u8g, dev, 1);					/* data mode */
 324              		.loc 1 227 0
 325 0066 B968     		ldr	r1, [r7, #8]
 326 0068 FB68     		ldr	r3, [r7, #12]
 327 006a 0122     		movs	r2, #1
 328 006c 1800     		movs	r0, r3
 329 006e FFF7FEFF 		bl	u8g_SetAddress
 228:Drivers/u8glib/src/u8g_dev_ssd1306_128x32.c ****         if ( u8g_pb_WriteBuffer(pb, u8g, dev) == 0 )
 330              		.loc 1 228 0
 331 0072 BA68     		ldr	r2, [r7, #8]
 332 0074 F968     		ldr	r1, [r7, #12]
 333 0076 7B69     		ldr	r3, [r7, #20]
 334 0078 1800     		movs	r0, r3
 335 007a FFF7FEFF 		bl	u8g_pb_WriteBuffer
 336 007e 031E     		subs	r3, r0, #0
 337 0080 01D1     		bne	.L9
 229:Drivers/u8glib/src/u8g_dev_ssd1306_128x32.c ****           return 0;
 338              		.loc 1 229 0
 339 0082 0023     		movs	r3, #0
 340 0084 1FE0     		b	.L10
 341              	.L9:
 230:Drivers/u8glib/src/u8g_dev_ssd1306_128x32.c ****         u8g_SetChipSelect(u8g, dev, 0);
 342              		.loc 1 230 0
 343 0086 B968     		ldr	r1, [r7, #8]
 344 0088 FB68     		ldr	r3, [r7, #12]
 345 008a 0022     		movs	r2, #0
 346 008c 1800     		movs	r0, r3
 347 008e FFF7FEFF 		bl	u8g_SetChipSelect
 348              	.LBE2:
 231:Drivers/u8glib/src/u8g_dev_ssd1306_128x32.c ****       }
 232:Drivers/u8glib/src/u8g_dev_ssd1306_128x32.c ****       break;
 349              		.loc 1 232 0
 350 0092 0FE0     		b	.L2
 351              	.L6:
 233:Drivers/u8glib/src/u8g_dev_ssd1306_128x32.c ****     case U8G_DEV_MSG_SLEEP_ON:
 234:Drivers/u8glib/src/u8g_dev_ssd1306_128x32.c ****       u8g_WriteEscSeqP(u8g, dev, u8g_dev_ssd13xx_sleep_on);    
ARM GAS  /tmp/ccpRPygc.s 			page 11


 352              		.loc 1 234 0
 353 0094 114A     		ldr	r2, .L11+12
 354 0096 B968     		ldr	r1, [r7, #8]
 355 0098 FB68     		ldr	r3, [r7, #12]
 356 009a 1800     		movs	r0, r3
 357 009c FFF7FEFF 		bl	u8g_WriteEscSeqP
 235:Drivers/u8glib/src/u8g_dev_ssd1306_128x32.c ****       return 1;
 358              		.loc 1 235 0
 359 00a0 0123     		movs	r3, #1
 360 00a2 10E0     		b	.L10
 361              	.L7:
 236:Drivers/u8glib/src/u8g_dev_ssd1306_128x32.c ****     case U8G_DEV_MSG_SLEEP_OFF:
 237:Drivers/u8glib/src/u8g_dev_ssd1306_128x32.c ****       u8g_WriteEscSeqP(u8g, dev, u8g_dev_ssd13xx_sleep_off);    
 362              		.loc 1 237 0
 363 00a4 0E4A     		ldr	r2, .L11+16
 364 00a6 B968     		ldr	r1, [r7, #8]
 365 00a8 FB68     		ldr	r3, [r7, #12]
 366 00aa 1800     		movs	r0, r3
 367 00ac FFF7FEFF 		bl	u8g_WriteEscSeqP
 238:Drivers/u8glib/src/u8g_dev_ssd1306_128x32.c ****       return 1;
 368              		.loc 1 238 0
 369 00b0 0123     		movs	r3, #1
 370 00b2 08E0     		b	.L10
 371              	.L2:
 239:Drivers/u8glib/src/u8g_dev_ssd1306_128x32.c **** }
 240:Drivers/u8glib/src/u8g_dev_ssd1306_128x32.c ****   
 241:Drivers/u8glib/src/u8g_dev_ssd1306_128x32.c ****   return u8g_dev_pb8v1_base_fn(u8g, dev, msg, arg);
 372              		.loc 1 241 0
 373 00b4 3C68     		ldr	r4, [r7]
 374 00b6 FB1D     		adds	r3, r7, #7
 375 00b8 1A78     		ldrb	r2, [r3]
 376 00ba B968     		ldr	r1, [r7, #8]
 377 00bc F868     		ldr	r0, [r7, #12]
 378 00be 2300     		movs	r3, r4
 379 00c0 FFF7FEFF 		bl	u8g_dev_pb8v1_base_fn
 380 00c4 0300     		movs	r3, r0
 381              	.L10:
 242:Drivers/u8glib/src/u8g_dev_ssd1306_128x32.c **** }
 382              		.loc 1 242 0
 383 00c6 1800     		movs	r0, r3
 384 00c8 BD46     		mov	sp, r7
 385 00ca 07B0     		add	sp, sp, #28
 386              		@ sp needed
 387 00cc 90BD     		pop	{r4, r7, pc}
 388              	.L12:
 389 00ce C046     		.align	2
 390              	.L11:
 391 00d0 00000000 		.word	.L4
 392 00d4 00000000 		.word	u8g_dev_ssd1306_128x32_adafruit3_init_seq
 393 00d8 00000000 		.word	u8g_dev_ssd1306_128x32_data_start
 394 00dc 00000000 		.word	u8g_dev_ssd13xx_sleep_on
 395 00e0 00000000 		.word	u8g_dev_ssd13xx_sleep_off
 396              		.cfi_endproc
 397              	.LFE0:
 399              		.section	.text.u8g_dev_ssd1306_128x32_2x_fn,"ax",%progbits
 400              		.align	1
 401              		.global	u8g_dev_ssd1306_128x32_2x_fn
ARM GAS  /tmp/ccpRPygc.s 			page 12


 402              		.syntax unified
 403              		.code	16
 404              		.thumb_func
 405              		.fpu softvfp
 407              	u8g_dev_ssd1306_128x32_2x_fn:
 408              	.LFB1:
 243:Drivers/u8glib/src/u8g_dev_ssd1306_128x32.c **** 
 244:Drivers/u8glib/src/u8g_dev_ssd1306_128x32.c **** uint8_t u8g_dev_ssd1306_128x32_2x_fn(u8g_t *u8g, u8g_dev_t *dev, uint8_t msg, void *arg)
 245:Drivers/u8glib/src/u8g_dev_ssd1306_128x32.c **** {
 409              		.loc 1 245 0
 410              		.cfi_startproc
 411 0000 90B5     		push	{r4, r7, lr}
 412              	.LCFI3:
 413              		.cfi_def_cfa_offset 12
 414              		.cfi_offset 4, -12
 415              		.cfi_offset 7, -8
 416              		.cfi_offset 14, -4
 417 0002 87B0     		sub	sp, sp, #28
 418              	.LCFI4:
 419              		.cfi_def_cfa_offset 40
 420 0004 00AF     		add	r7, sp, #0
 421              	.LCFI5:
 422              		.cfi_def_cfa_register 7
 423 0006 F860     		str	r0, [r7, #12]
 424 0008 B960     		str	r1, [r7, #8]
 425 000a 3B60     		str	r3, [r7]
 426 000c FB1D     		adds	r3, r7, #7
 427 000e 1A70     		strb	r2, [r3]
 246:Drivers/u8glib/src/u8g_dev_ssd1306_128x32.c ****   switch(msg)
 428              		.loc 1 246 0
 429 0010 FB1D     		adds	r3, r7, #7
 430 0012 1B78     		ldrb	r3, [r3]
 431 0014 0A3B     		subs	r3, r3, #10
 432 0016 0B2B     		cmp	r3, #11
 433 0018 00D9     		bls	.LCB175
 434 001a 7DE0     		b	.L14	@long jump
 435              	.LCB175:
 436 001c 9A00     		lsls	r2, r3, #2
 437 001e 454B     		ldr	r3, .L22
 438 0020 D318     		adds	r3, r2, r3
 439 0022 1B68     		ldr	r3, [r3]
 440 0024 9F46     		mov	pc, r3
 441              		.section	.rodata.u8g_dev_ssd1306_128x32_2x_fn,"a",%progbits
 442              		.align	2
 443              	.L16:
 444 0000 26000000 		.word	.L15
 445 0004 18010000 		.word	.L14
 446 0008 18010000 		.word	.L14
 447 000c 18010000 		.word	.L14
 448 0010 18010000 		.word	.L14
 449 0014 18010000 		.word	.L14
 450 0018 F8000000 		.word	.L18
 451 001c 08010000 		.word	.L19
 452 0020 18010000 		.word	.L14
 453 0024 18010000 		.word	.L14
 454 0028 18010000 		.word	.L14
 455 002c 40000000 		.word	.L20
ARM GAS  /tmp/ccpRPygc.s 			page 13


 456              		.section	.text.u8g_dev_ssd1306_128x32_2x_fn
 457              	.L15:
 247:Drivers/u8glib/src/u8g_dev_ssd1306_128x32.c ****   {
 248:Drivers/u8glib/src/u8g_dev_ssd1306_128x32.c ****     case U8G_DEV_MSG_INIT:
 249:Drivers/u8glib/src/u8g_dev_ssd1306_128x32.c ****       u8g_InitCom(u8g, dev, U8G_SPI_CLK_CYCLE_300NS);
 458              		.loc 1 249 0
 459 0026 B968     		ldr	r1, [r7, #8]
 460 0028 FB68     		ldr	r3, [r7, #12]
 461 002a 0222     		movs	r2, #2
 462 002c 1800     		movs	r0, r3
 463 002e FFF7FEFF 		bl	u8g_InitCom
 250:Drivers/u8glib/src/u8g_dev_ssd1306_128x32.c ****       u8g_WriteEscSeqP(u8g, dev, u8g_dev_ssd1306_128x32_init_seq);
 464              		.loc 1 250 0
 465 0032 414A     		ldr	r2, .L22+4
 466 0034 B968     		ldr	r1, [r7, #8]
 467 0036 FB68     		ldr	r3, [r7, #12]
 468 0038 1800     		movs	r0, r3
 469 003a FFF7FEFF 		bl	u8g_WriteEscSeqP
 251:Drivers/u8glib/src/u8g_dev_ssd1306_128x32.c ****       break;
 470              		.loc 1 251 0
 471 003e 6BE0     		b	.L14
 472              	.L20:
 473              	.LBB3:
 252:Drivers/u8glib/src/u8g_dev_ssd1306_128x32.c ****     case U8G_DEV_MSG_STOP:
 253:Drivers/u8glib/src/u8g_dev_ssd1306_128x32.c ****       break;
 254:Drivers/u8glib/src/u8g_dev_ssd1306_128x32.c ****     case U8G_DEV_MSG_PAGE_NEXT:
 255:Drivers/u8glib/src/u8g_dev_ssd1306_128x32.c ****       {
 256:Drivers/u8glib/src/u8g_dev_ssd1306_128x32.c ****         u8g_pb_t *pb = (u8g_pb_t *)(dev->dev_mem);
 474              		.loc 1 256 0
 475 0040 BB68     		ldr	r3, [r7, #8]
 476 0042 5B68     		ldr	r3, [r3, #4]
 477 0044 7B61     		str	r3, [r7, #20]
 257:Drivers/u8glib/src/u8g_dev_ssd1306_128x32.c **** 	
 258:Drivers/u8glib/src/u8g_dev_ssd1306_128x32.c ****         u8g_WriteEscSeqP(u8g, dev, u8g_dev_ssd1306_128x32_data_start);    
 478              		.loc 1 258 0
 479 0046 3D4A     		ldr	r2, .L22+8
 480 0048 B968     		ldr	r1, [r7, #8]
 481 004a FB68     		ldr	r3, [r7, #12]
 482 004c 1800     		movs	r0, r3
 483 004e FFF7FEFF 		bl	u8g_WriteEscSeqP
 259:Drivers/u8glib/src/u8g_dev_ssd1306_128x32.c ****         u8g_WriteByte(u8g, dev, 0x0b0 | (pb->p.page*2));	/* select current page (SSD1306) */
 484              		.loc 1 259 0
 485 0052 7B69     		ldr	r3, [r7, #20]
 486 0054 1B79     		ldrb	r3, [r3, #4]
 487 0056 DB18     		adds	r3, r3, r3
 488 0058 DBB2     		uxtb	r3, r3
 489 005a 5BB2     		sxtb	r3, r3
 490 005c 5022     		movs	r2, #80
 491 005e 5242     		rsbs	r2, r2, #0
 492 0060 1343     		orrs	r3, r2
 493 0062 5BB2     		sxtb	r3, r3
 494 0064 DAB2     		uxtb	r2, r3
 495 0066 B968     		ldr	r1, [r7, #8]
 496 0068 FB68     		ldr	r3, [r7, #12]
 497 006a 1800     		movs	r0, r3
 498 006c FFF7FEFF 		bl	u8g_WriteByte
 260:Drivers/u8glib/src/u8g_dev_ssd1306_128x32.c ****         u8g_SetAddress(u8g, dev, 1);					/* data mode */
ARM GAS  /tmp/ccpRPygc.s 			page 14


 499              		.loc 1 260 0
 500 0070 B968     		ldr	r1, [r7, #8]
 501 0072 FB68     		ldr	r3, [r7, #12]
 502 0074 0122     		movs	r2, #1
 503 0076 1800     		movs	r0, r3
 504 0078 FFF7FEFF 		bl	u8g_SetAddress
 261:Drivers/u8glib/src/u8g_dev_ssd1306_128x32.c **** 	u8g_WriteSequence(u8g, dev, pb->width, pb->buf); 
 505              		.loc 1 261 0
 506 007c 7B69     		ldr	r3, [r7, #20]
 507 007e 5A79     		ldrb	r2, [r3, #5]
 508 0080 7B69     		ldr	r3, [r7, #20]
 509 0082 9B68     		ldr	r3, [r3, #8]
 510 0084 B968     		ldr	r1, [r7, #8]
 511 0086 F868     		ldr	r0, [r7, #12]
 512 0088 FFF7FEFF 		bl	u8g_WriteSequence
 262:Drivers/u8glib/src/u8g_dev_ssd1306_128x32.c ****         u8g_SetChipSelect(u8g, dev, 0);
 513              		.loc 1 262 0
 514 008c B968     		ldr	r1, [r7, #8]
 515 008e FB68     		ldr	r3, [r7, #12]
 516 0090 0022     		movs	r2, #0
 517 0092 1800     		movs	r0, r3
 518 0094 FFF7FEFF 		bl	u8g_SetChipSelect
 263:Drivers/u8glib/src/u8g_dev_ssd1306_128x32.c **** 	
 264:Drivers/u8glib/src/u8g_dev_ssd1306_128x32.c ****         u8g_WriteEscSeqP(u8g, dev, u8g_dev_ssd1306_128x32_data_start);    
 519              		.loc 1 264 0
 520 0098 284A     		ldr	r2, .L22+8
 521 009a B968     		ldr	r1, [r7, #8]
 522 009c FB68     		ldr	r3, [r7, #12]
 523 009e 1800     		movs	r0, r3
 524 00a0 FFF7FEFF 		bl	u8g_WriteEscSeqP
 265:Drivers/u8glib/src/u8g_dev_ssd1306_128x32.c ****         u8g_WriteByte(u8g, dev, 0x0b0 | (pb->p.page*2+1));	/* select current page (SSD1306) */
 525              		.loc 1 265 0
 526 00a4 7B69     		ldr	r3, [r7, #20]
 527 00a6 1B79     		ldrb	r3, [r3, #4]
 528 00a8 DB18     		adds	r3, r3, r3
 529 00aa DBB2     		uxtb	r3, r3
 530 00ac 0133     		adds	r3, r3, #1
 531 00ae DBB2     		uxtb	r3, r3
 532 00b0 5BB2     		sxtb	r3, r3
 533 00b2 5022     		movs	r2, #80
 534 00b4 5242     		rsbs	r2, r2, #0
 535 00b6 1343     		orrs	r3, r2
 536 00b8 5BB2     		sxtb	r3, r3
 537 00ba DAB2     		uxtb	r2, r3
 538 00bc B968     		ldr	r1, [r7, #8]
 539 00be FB68     		ldr	r3, [r7, #12]
 540 00c0 1800     		movs	r0, r3
 541 00c2 FFF7FEFF 		bl	u8g_WriteByte
 266:Drivers/u8glib/src/u8g_dev_ssd1306_128x32.c ****         u8g_SetAddress(u8g, dev, 1);					/* data mode */
 542              		.loc 1 266 0
 543 00c6 B968     		ldr	r1, [r7, #8]
 544 00c8 FB68     		ldr	r3, [r7, #12]
 545 00ca 0122     		movs	r2, #1
 546 00cc 1800     		movs	r0, r3
 547 00ce FFF7FEFF 		bl	u8g_SetAddress
 267:Drivers/u8glib/src/u8g_dev_ssd1306_128x32.c **** 	u8g_WriteSequence(u8g, dev, pb->width, (uint8_t *)(pb->buf)+pb->width); 
 548              		.loc 1 267 0
ARM GAS  /tmp/ccpRPygc.s 			page 15


 549 00d2 7B69     		ldr	r3, [r7, #20]
 550 00d4 5C79     		ldrb	r4, [r3, #5]
 551 00d6 7B69     		ldr	r3, [r7, #20]
 552 00d8 9B68     		ldr	r3, [r3, #8]
 553 00da 7A69     		ldr	r2, [r7, #20]
 554 00dc 5279     		ldrb	r2, [r2, #5]
 555 00de 9B18     		adds	r3, r3, r2
 556 00e0 B968     		ldr	r1, [r7, #8]
 557 00e2 F868     		ldr	r0, [r7, #12]
 558 00e4 2200     		movs	r2, r4
 559 00e6 FFF7FEFF 		bl	u8g_WriteSequence
 268:Drivers/u8glib/src/u8g_dev_ssd1306_128x32.c ****         u8g_SetChipSelect(u8g, dev, 0);
 560              		.loc 1 268 0
 561 00ea B968     		ldr	r1, [r7, #8]
 562 00ec FB68     		ldr	r3, [r7, #12]
 563 00ee 0022     		movs	r2, #0
 564 00f0 1800     		movs	r0, r3
 565 00f2 FFF7FEFF 		bl	u8g_SetChipSelect
 566              	.LBE3:
 269:Drivers/u8glib/src/u8g_dev_ssd1306_128x32.c ****       }
 270:Drivers/u8glib/src/u8g_dev_ssd1306_128x32.c ****       break;
 567              		.loc 1 270 0
 568 00f6 0FE0     		b	.L14
 569              	.L18:
 271:Drivers/u8glib/src/u8g_dev_ssd1306_128x32.c ****     case U8G_DEV_MSG_SLEEP_ON:
 272:Drivers/u8glib/src/u8g_dev_ssd1306_128x32.c ****       u8g_WriteEscSeqP(u8g, dev, u8g_dev_ssd13xx_sleep_on);    
 570              		.loc 1 272 0
 571 00f8 114A     		ldr	r2, .L22+12
 572 00fa B968     		ldr	r1, [r7, #8]
 573 00fc FB68     		ldr	r3, [r7, #12]
 574 00fe 1800     		movs	r0, r3
 575 0100 FFF7FEFF 		bl	u8g_WriteEscSeqP
 273:Drivers/u8glib/src/u8g_dev_ssd1306_128x32.c ****       return 1;
 576              		.loc 1 273 0
 577 0104 0123     		movs	r3, #1
 578 0106 10E0     		b	.L21
 579              	.L19:
 274:Drivers/u8glib/src/u8g_dev_ssd1306_128x32.c ****     case U8G_DEV_MSG_SLEEP_OFF:
 275:Drivers/u8glib/src/u8g_dev_ssd1306_128x32.c ****       u8g_WriteEscSeqP(u8g, dev, u8g_dev_ssd13xx_sleep_off);    
 580              		.loc 1 275 0
 581 0108 0E4A     		ldr	r2, .L22+16
 582 010a B968     		ldr	r1, [r7, #8]
 583 010c FB68     		ldr	r3, [r7, #12]
 584 010e 1800     		movs	r0, r3
 585 0110 FFF7FEFF 		bl	u8g_WriteEscSeqP
 276:Drivers/u8glib/src/u8g_dev_ssd1306_128x32.c ****       return 1;
 586              		.loc 1 276 0
 587 0114 0123     		movs	r3, #1
 588 0116 08E0     		b	.L21
 589              	.L14:
 277:Drivers/u8glib/src/u8g_dev_ssd1306_128x32.c ****   }
 278:Drivers/u8glib/src/u8g_dev_ssd1306_128x32.c ****   return u8g_dev_pb16v1_base_fn(u8g, dev, msg, arg);
 590              		.loc 1 278 0
 591 0118 3C68     		ldr	r4, [r7]
 592 011a FB1D     		adds	r3, r7, #7
 593 011c 1A78     		ldrb	r2, [r3]
 594 011e B968     		ldr	r1, [r7, #8]
ARM GAS  /tmp/ccpRPygc.s 			page 16


 595 0120 F868     		ldr	r0, [r7, #12]
 596 0122 2300     		movs	r3, r4
 597 0124 FFF7FEFF 		bl	u8g_dev_pb16v1_base_fn
 598 0128 0300     		movs	r3, r0
 599              	.L21:
 279:Drivers/u8glib/src/u8g_dev_ssd1306_128x32.c **** }
 600              		.loc 1 279 0
 601 012a 1800     		movs	r0, r3
 602 012c BD46     		mov	sp, r7
 603 012e 07B0     		add	sp, sp, #28
 604              		@ sp needed
 605 0130 90BD     		pop	{r4, r7, pc}
 606              	.L23:
 607 0132 C046     		.align	2
 608              	.L22:
 609 0134 00000000 		.word	.L16
 610 0138 00000000 		.word	u8g_dev_ssd1306_128x32_adafruit3_init_seq
 611 013c 00000000 		.word	u8g_dev_ssd1306_128x32_data_start
 612 0140 00000000 		.word	u8g_dev_ssd13xx_sleep_on
 613 0144 00000000 		.word	u8g_dev_ssd13xx_sleep_off
 614              		.cfi_endproc
 615              	.LFE1:
 617              		.global	u8g_dev_ssd1306_128x32_sw_spi_buf
 618              		.section	.bss.u8g_dev_ssd1306_128x32_sw_spi_buf,"aw",%nobits
 619              		.align	2
 622              	u8g_dev_ssd1306_128x32_sw_spi_buf:
 623 0000 00000000 		.space	128
 623      00000000 
 623      00000000 
 623      00000000 
 623      00000000 
 624              		.global	u8g_dev_ssd1306_128x32_sw_spi_pb
 625              		.section	.data.u8g_dev_ssd1306_128x32_sw_spi_pb,"aw",%progbits
 626              		.align	2
 629              	u8g_dev_ssd1306_128x32_sw_spi_pb:
 630 0000 08       		.byte	8
 631 0001 20       		.byte	32
 632 0002 00       		.byte	0
 633 0003 00       		.byte	0
 634 0004 00       		.byte	0
 635 0005 80       		.byte	-128
 636 0006 0000     		.space	2
 637 0008 00000000 		.word	u8g_dev_ssd1306_128x32_sw_spi_buf
 638              		.global	u8g_dev_ssd1306_128x32_sw_spi
 639              		.section	.data.u8g_dev_ssd1306_128x32_sw_spi,"aw",%progbits
 640              		.align	2
 643              	u8g_dev_ssd1306_128x32_sw_spi:
 644 0000 00000000 		.word	u8g_dev_ssd1306_128x32_fn
 645 0004 00000000 		.word	u8g_dev_ssd1306_128x32_sw_spi_pb
 646 0008 00000000 		.word	u8g_com_null_fn
 647              		.global	u8g_dev_ssd1306_128x32_hw_spi_buf
 648              		.section	.bss.u8g_dev_ssd1306_128x32_hw_spi_buf,"aw",%nobits
 649              		.align	2
 652              	u8g_dev_ssd1306_128x32_hw_spi_buf:
 653 0000 00000000 		.space	128
 653      00000000 
 653      00000000 
ARM GAS  /tmp/ccpRPygc.s 			page 17


 653      00000000 
 653      00000000 
 654              		.global	u8g_dev_ssd1306_128x32_hw_spi_pb
 655              		.section	.data.u8g_dev_ssd1306_128x32_hw_spi_pb,"aw",%progbits
 656              		.align	2
 659              	u8g_dev_ssd1306_128x32_hw_spi_pb:
 660 0000 08       		.byte	8
 661 0001 20       		.byte	32
 662 0002 00       		.byte	0
 663 0003 00       		.byte	0
 664 0004 00       		.byte	0
 665 0005 80       		.byte	-128
 666 0006 0000     		.space	2
 667 0008 00000000 		.word	u8g_dev_ssd1306_128x32_hw_spi_buf
 668              		.global	u8g_dev_ssd1306_128x32_hw_spi
 669              		.section	.data.u8g_dev_ssd1306_128x32_hw_spi,"aw",%progbits
 670              		.align	2
 673              	u8g_dev_ssd1306_128x32_hw_spi:
 674 0000 00000000 		.word	u8g_dev_ssd1306_128x32_fn
 675 0004 00000000 		.word	u8g_dev_ssd1306_128x32_hw_spi_pb
 676 0008 00000000 		.word	u8g_com_null_fn
 677              		.global	u8g_dev_ssd1306_128x32_i2c_buf
 678              		.section	.bss.u8g_dev_ssd1306_128x32_i2c_buf,"aw",%nobits
 679              		.align	2
 682              	u8g_dev_ssd1306_128x32_i2c_buf:
 683 0000 00000000 		.space	128
 683      00000000 
 683      00000000 
 683      00000000 
 683      00000000 
 684              		.global	u8g_dev_ssd1306_128x32_i2c_pb
 685              		.section	.data.u8g_dev_ssd1306_128x32_i2c_pb,"aw",%progbits
 686              		.align	2
 689              	u8g_dev_ssd1306_128x32_i2c_pb:
 690 0000 08       		.byte	8
 691 0001 20       		.byte	32
 692 0002 00       		.byte	0
 693 0003 00       		.byte	0
 694 0004 00       		.byte	0
 695 0005 80       		.byte	-128
 696 0006 0000     		.space	2
 697 0008 00000000 		.word	u8g_dev_ssd1306_128x32_i2c_buf
 698              		.global	u8g_dev_ssd1306_128x32_i2c
 699              		.section	.data.u8g_dev_ssd1306_128x32_i2c,"aw",%progbits
 700              		.align	2
 703              	u8g_dev_ssd1306_128x32_i2c:
 704 0000 00000000 		.word	u8g_dev_ssd1306_128x32_fn
 705 0004 00000000 		.word	u8g_dev_ssd1306_128x32_i2c_pb
 706 0008 00000000 		.word	u8g_com_null_fn
 707              		.global	u8g_dev_ssd1306_128x32_2x_buf
 708              		.section	.bss.u8g_dev_ssd1306_128x32_2x_buf,"aw",%nobits
 709              		.align	2
 712              	u8g_dev_ssd1306_128x32_2x_buf:
 713 0000 00000000 		.space	256
 713      00000000 
 713      00000000 
 713      00000000 
ARM GAS  /tmp/ccpRPygc.s 			page 18


 713      00000000 
 714              		.global	u8g_dev_ssd1306_128x32_2x_pb
 715              		.section	.data.u8g_dev_ssd1306_128x32_2x_pb,"aw",%progbits
 716              		.align	2
 719              	u8g_dev_ssd1306_128x32_2x_pb:
 720 0000 10       		.byte	16
 721 0001 20       		.byte	32
 722 0002 00       		.byte	0
 723 0003 00       		.byte	0
 724 0004 00       		.byte	0
 725 0005 80       		.byte	-128
 726 0006 0000     		.space	2
 727 0008 00000000 		.word	u8g_dev_ssd1306_128x32_2x_buf
 728              		.global	u8g_dev_ssd1306_128x32_2x_sw_spi
 729              		.section	.data.u8g_dev_ssd1306_128x32_2x_sw_spi,"aw",%progbits
 730              		.align	2
 733              	u8g_dev_ssd1306_128x32_2x_sw_spi:
 734 0000 00000000 		.word	u8g_dev_ssd1306_128x32_2x_fn
 735 0004 00000000 		.word	u8g_dev_ssd1306_128x32_2x_pb
 736 0008 00000000 		.word	u8g_com_null_fn
 737              		.global	u8g_dev_ssd1306_128x32_2x_hw_spi
 738              		.section	.data.u8g_dev_ssd1306_128x32_2x_hw_spi,"aw",%progbits
 739              		.align	2
 742              	u8g_dev_ssd1306_128x32_2x_hw_spi:
 743 0000 00000000 		.word	u8g_dev_ssd1306_128x32_2x_fn
 744 0004 00000000 		.word	u8g_dev_ssd1306_128x32_2x_pb
 745 0008 00000000 		.word	u8g_com_null_fn
 746              		.global	u8g_dev_ssd1306_128x32_2x_i2c
 747              		.section	.data.u8g_dev_ssd1306_128x32_2x_i2c,"aw",%progbits
 748              		.align	2
 751              	u8g_dev_ssd1306_128x32_2x_i2c:
 752 0000 00000000 		.word	u8g_dev_ssd1306_128x32_2x_fn
 753 0004 00000000 		.word	u8g_dev_ssd1306_128x32_2x_pb
 754 0008 00000000 		.word	u8g_com_null_fn
 755              		.text
 756              	.Letext0:
 757              		.file 2 "/usr/arm-none-eabi/include/machine/_default_types.h"
 758              		.file 3 "/usr/arm-none-eabi/include/sys/_stdint.h"
 759              		.file 4 "Drivers/u8glib/inc/u8g.h"
ARM GAS  /tmp/ccpRPygc.s 			page 19

