ARM GAS  /tmp/ccgVeMHZ.s 			page 1


   1              		.cpu cortex-m0
   2              		.eabi_attribute 20, 1
   3              		.eabi_attribute 21, 1
   4              		.eabi_attribute 23, 3
   5              		.eabi_attribute 24, 1
   6              		.eabi_attribute 25, 1
   7              		.eabi_attribute 26, 1
   8              		.eabi_attribute 30, 6
   9              		.eabi_attribute 34, 0
  10              		.eabi_attribute 18, 4
  11              		.file	"u8g_pb8h1f.c"
  12              		.text
  13              	.Ltext0:
  14              		.cfi_sections	.debug_frame
  15              		.section	.text.u8g_pb8h1f_Init,"ax",%progbits
  16              		.align	1
  17              		.global	u8g_pb8h1f_Init
  18              		.syntax unified
  19              		.code	16
  20              		.thumb_func
  21              		.fpu softvfp
  23              	u8g_pb8h1f_Init:
  24              	.LFB0:
  25              		.file 1 "Drivers/u8glib/src/u8g_pb8h1f.c"
   1:Drivers/u8glib/src/u8g_pb8h1f.c **** /*
   2:Drivers/u8glib/src/u8g_pb8h1f.c **** 
   3:Drivers/u8glib/src/u8g_pb8h1f.c ****   u8g_pb8h1f.c
   4:Drivers/u8glib/src/u8g_pb8h1f.c ****   
   5:Drivers/u8glib/src/u8g_pb8h1f.c ****   8bit height monochrom (1 bit) page buffer
   6:Drivers/u8glib/src/u8g_pb8h1f.c ****   byte has horizontal orientation, same as u8g_pb8h1, but byte is flipped 
   7:Drivers/u8glib/src/u8g_pb8h1f.c **** 
   8:Drivers/u8glib/src/u8g_pb8h1f.c ****   Universal 8bit Graphics Library
   9:Drivers/u8glib/src/u8g_pb8h1f.c ****   
  10:Drivers/u8glib/src/u8g_pb8h1f.c ****   Copyright (c) 2011, olikraus@gmail.com
  11:Drivers/u8glib/src/u8g_pb8h1f.c ****   All rights reserved.
  12:Drivers/u8glib/src/u8g_pb8h1f.c **** 
  13:Drivers/u8glib/src/u8g_pb8h1f.c ****   Redistribution and use in source and binary forms, with or without modification, 
  14:Drivers/u8glib/src/u8g_pb8h1f.c ****   are permitted provided that the following conditions are met:
  15:Drivers/u8glib/src/u8g_pb8h1f.c **** 
  16:Drivers/u8glib/src/u8g_pb8h1f.c ****   * Redistributions of source code must retain the above copyright notice, this list 
  17:Drivers/u8glib/src/u8g_pb8h1f.c ****     of conditions and the following disclaimer.
  18:Drivers/u8glib/src/u8g_pb8h1f.c ****     
  19:Drivers/u8glib/src/u8g_pb8h1f.c ****   * Redistributions in binary form must reproduce the above copyright notice, this 
  20:Drivers/u8glib/src/u8g_pb8h1f.c ****     list of conditions and the following disclaimer in the documentation and/or other 
  21:Drivers/u8glib/src/u8g_pb8h1f.c ****     materials provided with the distribution.
  22:Drivers/u8glib/src/u8g_pb8h1f.c **** 
  23:Drivers/u8glib/src/u8g_pb8h1f.c ****   THIS SOFTWARE IS PROVIDED BY THE COPYRIGHT HOLDERS AND 
  24:Drivers/u8glib/src/u8g_pb8h1f.c ****   CONTRIBUTORS "AS IS" AND ANY EXPRESS OR IMPLIED WARRANTIES, 
  25:Drivers/u8glib/src/u8g_pb8h1f.c ****   INCLUDING, BUT NOT LIMITED TO, THE IMPLIED WARRANTIES OF 
  26:Drivers/u8glib/src/u8g_pb8h1f.c ****   MERCHANTABILITY AND FITNESS FOR A PARTICULAR PURPOSE ARE 
  27:Drivers/u8glib/src/u8g_pb8h1f.c ****   DISCLAIMED. IN NO EVENT SHALL THE COPYRIGHT HOLDER OR 
  28:Drivers/u8glib/src/u8g_pb8h1f.c ****   CONTRIBUTORS BE LIABLE FOR ANY DIRECT, INDIRECT, INCIDENTAL, 
  29:Drivers/u8glib/src/u8g_pb8h1f.c ****   SPECIAL, EXEMPLARY, OR CONSEQUENTIAL DAMAGES (INCLUDING, BUT 
  30:Drivers/u8glib/src/u8g_pb8h1f.c ****   NOT LIMITED TO, PROCUREMENT OF SUBSTITUTE GOODS OR SERVICES; 
  31:Drivers/u8glib/src/u8g_pb8h1f.c ****   LOSS OF USE, DATA, OR PROFITS; OR BUSINESS INTERRUPTION) HOWEVER 
  32:Drivers/u8glib/src/u8g_pb8h1f.c ****   CAUSED AND ON ANY THEORY OF LIABILITY, WHETHER IN CONTRACT, 
  33:Drivers/u8glib/src/u8g_pb8h1f.c ****   STRICT LIABILITY, OR TORT (INCLUDING NEGLIGENCE OR OTHERWISE) 
ARM GAS  /tmp/ccgVeMHZ.s 			page 2


  34:Drivers/u8glib/src/u8g_pb8h1f.c ****   ARISING IN ANY WAY OUT OF THE USE OF THIS SOFTWARE, EVEN IF 
  35:Drivers/u8glib/src/u8g_pb8h1f.c ****   ADVISED OF THE POSSIBILITY OF SUCH DAMAGE.  
  36:Drivers/u8glib/src/u8g_pb8h1f.c **** 
  37:Drivers/u8glib/src/u8g_pb8h1f.c **** 
  38:Drivers/u8glib/src/u8g_pb8h1f.c ****   total buffer size is limited to 256 bytes because of the calculation inside the set pixel procedu
  39:Drivers/u8glib/src/u8g_pb8h1f.c **** 
  40:Drivers/u8glib/src/u8g_pb8h1f.c **** 
  41:Drivers/u8glib/src/u8g_pb8h1f.c **** */
  42:Drivers/u8glib/src/u8g_pb8h1f.c **** 
  43:Drivers/u8glib/src/u8g_pb8h1f.c **** #include "u8g.h"
  44:Drivers/u8glib/src/u8g_pb8h1f.c **** #include <string.h>
  45:Drivers/u8glib/src/u8g_pb8h1f.c **** 
  46:Drivers/u8glib/src/u8g_pb8h1f.c **** 
  47:Drivers/u8glib/src/u8g_pb8h1f.c **** void u8g_pb8h1f_Init(u8g_pb_t *b, void *buf, u8g_uint_t width) U8G_NOINLINE;
  48:Drivers/u8glib/src/u8g_pb8h1f.c **** void u8g_pb8h1f_set_pixel(u8g_pb_t *b, u8g_uint_t x, u8g_uint_t y, uint8_t color_index) U8G_NOINLIN
  49:Drivers/u8glib/src/u8g_pb8h1f.c **** void u8g_pb8h1f_SetPixel(u8g_pb_t *b, const u8g_dev_arg_pixel_t * const arg_pixel) U8G_NOINLINE ;
  50:Drivers/u8glib/src/u8g_pb8h1f.c **** void u8g_pb8h1f_Set8PixelStd(u8g_pb_t *b, u8g_dev_arg_pixel_t *arg_pixel) U8G_NOINLINE;
  51:Drivers/u8glib/src/u8g_pb8h1f.c **** uint8_t u8g_dev_pb8h1f_base_fn(u8g_t *u8g, u8g_dev_t *dev, uint8_t msg, void *arg);
  52:Drivers/u8glib/src/u8g_pb8h1f.c **** 
  53:Drivers/u8glib/src/u8g_pb8h1f.c **** 
  54:Drivers/u8glib/src/u8g_pb8h1f.c **** void u8g_pb8h1f_Init(u8g_pb_t *b, void *buf, u8g_uint_t width)
  55:Drivers/u8glib/src/u8g_pb8h1f.c **** {
  26              		.loc 1 55 0
  27              		.cfi_startproc
  28 0000 80B5     		push	{r7, lr}
  29              	.LCFI0:
  30              		.cfi_def_cfa_offset 8
  31              		.cfi_offset 7, -8
  32              		.cfi_offset 14, -4
  33 0002 84B0     		sub	sp, sp, #16
  34              	.LCFI1:
  35              		.cfi_def_cfa_offset 24
  36 0004 00AF     		add	r7, sp, #0
  37              	.LCFI2:
  38              		.cfi_def_cfa_register 7
  39 0006 F860     		str	r0, [r7, #12]
  40 0008 B960     		str	r1, [r7, #8]
  41 000a FB1D     		adds	r3, r7, #7
  42 000c 1A70     		strb	r2, [r3]
  56:Drivers/u8glib/src/u8g_pb8h1f.c ****   b->buf = buf;
  43              		.loc 1 56 0
  44 000e FB68     		ldr	r3, [r7, #12]
  45 0010 BA68     		ldr	r2, [r7, #8]
  46 0012 9A60     		str	r2, [r3, #8]
  57:Drivers/u8glib/src/u8g_pb8h1f.c ****   b->width = width;
  47              		.loc 1 57 0
  48 0014 FB68     		ldr	r3, [r7, #12]
  49 0016 FA1D     		adds	r2, r7, #7
  50 0018 1278     		ldrb	r2, [r2]
  51 001a 5A71     		strb	r2, [r3, #5]
  58:Drivers/u8glib/src/u8g_pb8h1f.c ****   u8g_pb_Clear(b);
  52              		.loc 1 58 0
  53 001c FB68     		ldr	r3, [r7, #12]
  54 001e 1800     		movs	r0, r3
  55 0020 FFF7FEFF 		bl	u8g_pb_Clear
  59:Drivers/u8glib/src/u8g_pb8h1f.c **** }
  56              		.loc 1 59 0
ARM GAS  /tmp/ccgVeMHZ.s 			page 3


  57 0024 C046     		nop
  58 0026 BD46     		mov	sp, r7
  59 0028 04B0     		add	sp, sp, #16
  60              		@ sp needed
  61 002a 80BD     		pop	{r7, pc}
  62              		.cfi_endproc
  63              	.LFE0:
  65              		.section	.text.u8g_pb8h1f_set_pixel,"ax",%progbits
  66              		.align	1
  67              		.global	u8g_pb8h1f_set_pixel
  68              		.syntax unified
  69              		.code	16
  70              		.thumb_func
  71              		.fpu softvfp
  73              	u8g_pb8h1f_set_pixel:
  74              	.LFB1:
  60:Drivers/u8glib/src/u8g_pb8h1f.c **** 
  61:Drivers/u8glib/src/u8g_pb8h1f.c **** /* limitation: total buffer must not exceed 256 bytes, 20 nov 2012: extended to >256 bytes */
  62:Drivers/u8glib/src/u8g_pb8h1f.c **** void u8g_pb8h1f_set_pixel(u8g_pb_t *b, u8g_uint_t x, u8g_uint_t y, uint8_t color_index)
  63:Drivers/u8glib/src/u8g_pb8h1f.c **** {
  75              		.loc 1 63 0
  76              		.cfi_startproc
  77 0000 90B5     		push	{r4, r7, lr}
  78              	.LCFI3:
  79              		.cfi_def_cfa_offset 12
  80              		.cfi_offset 4, -12
  81              		.cfi_offset 7, -8
  82              		.cfi_offset 14, -4
  83 0002 85B0     		sub	sp, sp, #20
  84              	.LCFI4:
  85              		.cfi_def_cfa_offset 32
  86 0004 00AF     		add	r7, sp, #0
  87              	.LCFI5:
  88              		.cfi_def_cfa_register 7
  89 0006 7860     		str	r0, [r7, #4]
  90 0008 0C00     		movs	r4, r1
  91 000a 1000     		movs	r0, r2
  92 000c 1900     		movs	r1, r3
  93 000e FB1C     		adds	r3, r7, #3
  94 0010 221C     		adds	r2, r4, #0
  95 0012 1A70     		strb	r2, [r3]
  96 0014 BB1C     		adds	r3, r7, #2
  97 0016 021C     		adds	r2, r0, #0
  98 0018 1A70     		strb	r2, [r3]
  99 001a 7B1C     		adds	r3, r7, #1
 100 001c 0A1C     		adds	r2, r1, #0
 101 001e 1A70     		strb	r2, [r3]
  64:Drivers/u8glib/src/u8g_pb8h1f.c ****   /*register uint8_t mask, tmp;*/
  65:Drivers/u8glib/src/u8g_pb8h1f.c ****   register uint8_t mask; 
  66:Drivers/u8glib/src/u8g_pb8h1f.c ****   register u8g_uint_t tmp;
  67:Drivers/u8glib/src/u8g_pb8h1f.c ****   uint8_t *ptr = b->buf;
 102              		.loc 1 67 0
 103 0020 7B68     		ldr	r3, [r7, #4]
 104 0022 9B68     		ldr	r3, [r3, #8]
 105 0024 FB60     		str	r3, [r7, #12]
  68:Drivers/u8glib/src/u8g_pb8h1f.c ****   
  69:Drivers/u8glib/src/u8g_pb8h1f.c ****   y -= b->p.page_y0;
ARM GAS  /tmp/ccgVeMHZ.s 			page 4


 106              		.loc 1 69 0
 107 0026 7B68     		ldr	r3, [r7, #4]
 108 0028 9A78     		ldrb	r2, [r3, #2]
 109 002a BB1C     		adds	r3, r7, #2
 110 002c B91C     		adds	r1, r7, #2
 111 002e 0978     		ldrb	r1, [r1]
 112 0030 8A1A     		subs	r2, r1, r2
 113 0032 1A70     		strb	r2, [r3]
  70:Drivers/u8glib/src/u8g_pb8h1f.c ****   tmp = b->width >> 3;
 114              		.loc 1 70 0
 115 0034 7B68     		ldr	r3, [r7, #4]
 116 0036 5B79     		ldrb	r3, [r3, #5]
 117 0038 DB08     		lsrs	r3, r3, #3
 118 003a DCB2     		uxtb	r4, r3
  71:Drivers/u8glib/src/u8g_pb8h1f.c ****   tmp *= (uint8_t)y;
 119              		.loc 1 71 0
 120 003c BB1C     		adds	r3, r7, #2
 121 003e 1B78     		ldrb	r3, [r3]
 122 0040 6343     		muls	r3, r4
 123 0042 DCB2     		uxtb	r4, r3
  72:Drivers/u8glib/src/u8g_pb8h1f.c ****   ptr += tmp;
 124              		.loc 1 72 0
 125 0044 2200     		movs	r2, r4
 126 0046 FB68     		ldr	r3, [r7, #12]
 127 0048 9B18     		adds	r3, r3, r2
 128 004a FB60     		str	r3, [r7, #12]
  73:Drivers/u8glib/src/u8g_pb8h1f.c ****   
  74:Drivers/u8glib/src/u8g_pb8h1f.c ****   mask = 1;
 129              		.loc 1 74 0
 130 004c 0124     		movs	r4, #1
  75:Drivers/u8glib/src/u8g_pb8h1f.c ****   mask <<= x & 7;
 131              		.loc 1 75 0
 132 004e 2100     		movs	r1, r4
 133 0050 FB1C     		adds	r3, r7, #3
 134 0052 1B78     		ldrb	r3, [r3]
 135 0054 0722     		movs	r2, #7
 136 0056 1340     		ands	r3, r2
 137 0058 9940     		lsls	r1, r1, r3
 138 005a 0B00     		movs	r3, r1
 139 005c DCB2     		uxtb	r4, r3
  76:Drivers/u8glib/src/u8g_pb8h1f.c ****   x >>= 3;
 140              		.loc 1 76 0
 141 005e FB1C     		adds	r3, r7, #3
 142 0060 FA1C     		adds	r2, r7, #3
 143 0062 1278     		ldrb	r2, [r2]
 144 0064 D208     		lsrs	r2, r2, #3
 145 0066 1A70     		strb	r2, [r3]
  77:Drivers/u8glib/src/u8g_pb8h1f.c ****   ptr += x;
 146              		.loc 1 77 0
 147 0068 FB1C     		adds	r3, r7, #3
 148 006a 1B78     		ldrb	r3, [r3]
 149 006c FA68     		ldr	r2, [r7, #12]
 150 006e D318     		adds	r3, r2, r3
 151 0070 FB60     		str	r3, [r7, #12]
  78:Drivers/u8glib/src/u8g_pb8h1f.c ****   if ( color_index )
 152              		.loc 1 78 0
 153 0072 7B1C     		adds	r3, r7, #1
ARM GAS  /tmp/ccgVeMHZ.s 			page 5


 154 0074 1B78     		ldrb	r3, [r3]
 155 0076 002B     		cmp	r3, #0
 156 0078 06D0     		beq	.L3
  79:Drivers/u8glib/src/u8g_pb8h1f.c ****   {
  80:Drivers/u8glib/src/u8g_pb8h1f.c ****     *ptr |= mask;
 157              		.loc 1 80 0
 158 007a FB68     		ldr	r3, [r7, #12]
 159 007c 1B78     		ldrb	r3, [r3]
 160 007e 2343     		orrs	r3, r4
 161 0080 DAB2     		uxtb	r2, r3
 162 0082 FB68     		ldr	r3, [r7, #12]
 163 0084 1A70     		strb	r2, [r3]
  81:Drivers/u8glib/src/u8g_pb8h1f.c ****   }
  82:Drivers/u8glib/src/u8g_pb8h1f.c ****   else
  83:Drivers/u8glib/src/u8g_pb8h1f.c ****   {
  84:Drivers/u8glib/src/u8g_pb8h1f.c ****     mask ^=0xff;
  85:Drivers/u8glib/src/u8g_pb8h1f.c ****     *ptr &= mask;
  86:Drivers/u8glib/src/u8g_pb8h1f.c ****   }
  87:Drivers/u8glib/src/u8g_pb8h1f.c **** }
 164              		.loc 1 87 0
 165 0086 07E0     		b	.L5
 166              	.L3:
  84:Drivers/u8glib/src/u8g_pb8h1f.c ****     *ptr &= mask;
 167              		.loc 1 84 0
 168 0088 E343     		mvns	r3, r4
 169 008a DCB2     		uxtb	r4, r3
  85:Drivers/u8glib/src/u8g_pb8h1f.c ****   }
 170              		.loc 1 85 0
 171 008c FB68     		ldr	r3, [r7, #12]
 172 008e 1B78     		ldrb	r3, [r3]
 173 0090 2340     		ands	r3, r4
 174 0092 DAB2     		uxtb	r2, r3
 175 0094 FB68     		ldr	r3, [r7, #12]
 176 0096 1A70     		strb	r2, [r3]
 177              	.L5:
 178              		.loc 1 87 0
 179 0098 C046     		nop
 180 009a BD46     		mov	sp, r7
 181 009c 05B0     		add	sp, sp, #20
 182              		@ sp needed
 183 009e 90BD     		pop	{r4, r7, pc}
 184              		.cfi_endproc
 185              	.LFE1:
 187              		.section	.text.u8g_pb8h1f_SetPixel,"ax",%progbits
 188              		.align	1
 189              		.global	u8g_pb8h1f_SetPixel
 190              		.syntax unified
 191              		.code	16
 192              		.thumb_func
 193              		.fpu softvfp
 195              	u8g_pb8h1f_SetPixel:
 196              	.LFB2:
  88:Drivers/u8glib/src/u8g_pb8h1f.c **** 
  89:Drivers/u8glib/src/u8g_pb8h1f.c **** 
  90:Drivers/u8glib/src/u8g_pb8h1f.c **** void u8g_pb8h1f_SetPixel(u8g_pb_t *b, const u8g_dev_arg_pixel_t * const arg_pixel)
  91:Drivers/u8glib/src/u8g_pb8h1f.c **** {
 197              		.loc 1 91 0
ARM GAS  /tmp/ccgVeMHZ.s 			page 6


 198              		.cfi_startproc
 199 0000 80B5     		push	{r7, lr}
 200              	.LCFI6:
 201              		.cfi_def_cfa_offset 8
 202              		.cfi_offset 7, -8
 203              		.cfi_offset 14, -4
 204 0002 82B0     		sub	sp, sp, #8
 205              	.LCFI7:
 206              		.cfi_def_cfa_offset 16
 207 0004 00AF     		add	r7, sp, #0
 208              	.LCFI8:
 209              		.cfi_def_cfa_register 7
 210 0006 7860     		str	r0, [r7, #4]
 211 0008 3960     		str	r1, [r7]
  92:Drivers/u8glib/src/u8g_pb8h1f.c ****   if ( arg_pixel->y < b->p.page_y0 )
 212              		.loc 1 92 0
 213 000a 3B68     		ldr	r3, [r7]
 214 000c 5A78     		ldrb	r2, [r3, #1]
 215 000e 7B68     		ldr	r3, [r7, #4]
 216 0010 9B78     		ldrb	r3, [r3, #2]
 217 0012 9A42     		cmp	r2, r3
 218 0014 15D3     		bcc	.L11
  93:Drivers/u8glib/src/u8g_pb8h1f.c ****     return;
  94:Drivers/u8glib/src/u8g_pb8h1f.c ****   if ( arg_pixel->y > b->p.page_y1 )
 219              		.loc 1 94 0
 220 0016 3B68     		ldr	r3, [r7]
 221 0018 5A78     		ldrb	r2, [r3, #1]
 222 001a 7B68     		ldr	r3, [r7, #4]
 223 001c DB78     		ldrb	r3, [r3, #3]
 224 001e 9A42     		cmp	r2, r3
 225 0020 11D8     		bhi	.L12
  95:Drivers/u8glib/src/u8g_pb8h1f.c ****     return;
  96:Drivers/u8glib/src/u8g_pb8h1f.c ****   if ( arg_pixel->x >= b->width )
 226              		.loc 1 96 0
 227 0022 3B68     		ldr	r3, [r7]
 228 0024 1A78     		ldrb	r2, [r3]
 229 0026 7B68     		ldr	r3, [r7, #4]
 230 0028 5B79     		ldrb	r3, [r3, #5]
 231 002a 9A42     		cmp	r2, r3
 232 002c 0DD2     		bcs	.L13
  97:Drivers/u8glib/src/u8g_pb8h1f.c ****     return;
  98:Drivers/u8glib/src/u8g_pb8h1f.c ****   u8g_pb8h1f_set_pixel(b, arg_pixel->x, arg_pixel->y, arg_pixel->color);
 233              		.loc 1 98 0
 234 002e 3B68     		ldr	r3, [r7]
 235 0030 1978     		ldrb	r1, [r3]
 236 0032 3B68     		ldr	r3, [r7]
 237 0034 5A78     		ldrb	r2, [r3, #1]
 238 0036 3B68     		ldr	r3, [r7]
 239 0038 1B79     		ldrb	r3, [r3, #4]
 240 003a 7868     		ldr	r0, [r7, #4]
 241 003c FFF7FEFF 		bl	u8g_pb8h1f_set_pixel
 242 0040 04E0     		b	.L6
 243              	.L11:
  93:Drivers/u8glib/src/u8g_pb8h1f.c ****   if ( arg_pixel->y > b->p.page_y1 )
 244              		.loc 1 93 0
 245 0042 C046     		nop
 246 0044 02E0     		b	.L6
ARM GAS  /tmp/ccgVeMHZ.s 			page 7


 247              	.L12:
  95:Drivers/u8glib/src/u8g_pb8h1f.c ****     return;
 248              		.loc 1 95 0
 249 0046 C046     		nop
 250 0048 00E0     		b	.L6
 251              	.L13:
  97:Drivers/u8glib/src/u8g_pb8h1f.c ****     return;
 252              		.loc 1 97 0
 253 004a C046     		nop
 254              	.L6:
  99:Drivers/u8glib/src/u8g_pb8h1f.c **** }
 255              		.loc 1 99 0
 256 004c BD46     		mov	sp, r7
 257 004e 02B0     		add	sp, sp, #8
 258              		@ sp needed
 259 0050 80BD     		pop	{r7, pc}
 260              		.cfi_endproc
 261              	.LFE2:
 263              		.section	.text.u8g_pb8h1f_Set8PixelStd,"ax",%progbits
 264              		.align	1
 265              		.global	u8g_pb8h1f_Set8PixelStd
 266              		.syntax unified
 267              		.code	16
 268              		.thumb_func
 269              		.fpu softvfp
 271              	u8g_pb8h1f_Set8PixelStd:
 272              	.LFB3:
 100:Drivers/u8glib/src/u8g_pb8h1f.c **** 
 101:Drivers/u8glib/src/u8g_pb8h1f.c **** void u8g_pb8h1f_Set8PixelStd(u8g_pb_t *b, u8g_dev_arg_pixel_t *arg_pixel)
 102:Drivers/u8glib/src/u8g_pb8h1f.c **** {
 273              		.loc 1 102 0
 274              		.cfi_startproc
 275 0000 90B5     		push	{r4, r7, lr}
 276              	.LCFI9:
 277              		.cfi_def_cfa_offset 12
 278              		.cfi_offset 4, -12
 279              		.cfi_offset 7, -8
 280              		.cfi_offset 14, -4
 281 0002 83B0     		sub	sp, sp, #12
 282              	.LCFI10:
 283              		.cfi_def_cfa_offset 24
 284 0004 00AF     		add	r7, sp, #0
 285              	.LCFI11:
 286              		.cfi_def_cfa_register 7
 287 0006 7860     		str	r0, [r7, #4]
 288 0008 3960     		str	r1, [r7]
 103:Drivers/u8glib/src/u8g_pb8h1f.c ****   register uint8_t pixel = arg_pixel->pixel;
 289              		.loc 1 103 0
 290 000a 3B68     		ldr	r3, [r7]
 291 000c 9C78     		ldrb	r4, [r3, #2]
 292              	.L22:
 104:Drivers/u8glib/src/u8g_pb8h1f.c ****   do
 105:Drivers/u8glib/src/u8g_pb8h1f.c ****   {
 106:Drivers/u8glib/src/u8g_pb8h1f.c ****     if ( pixel & 128 )
 293              		.loc 1 106 0
 294 000e 63B2     		sxtb	r3, r4
 295 0010 002B     		cmp	r3, #0
ARM GAS  /tmp/ccgVeMHZ.s 			page 8


 296 0012 05DA     		bge	.L15
 107:Drivers/u8glib/src/u8g_pb8h1f.c ****     {
 108:Drivers/u8glib/src/u8g_pb8h1f.c ****       u8g_pb8h1f_SetPixel(b, arg_pixel);
 297              		.loc 1 108 0
 298 0014 3A68     		ldr	r2, [r7]
 299 0016 7B68     		ldr	r3, [r7, #4]
 300 0018 1100     		movs	r1, r2
 301 001a 1800     		movs	r0, r3
 302 001c FFF7FEFF 		bl	u8g_pb8h1f_SetPixel
 303              	.L15:
 109:Drivers/u8glib/src/u8g_pb8h1f.c ****     }
 110:Drivers/u8glib/src/u8g_pb8h1f.c ****     switch( arg_pixel->dir )
 304              		.loc 1 110 0
 305 0020 3B68     		ldr	r3, [r7]
 306 0022 DB78     		ldrb	r3, [r3, #3]
 307 0024 012B     		cmp	r3, #1
 308 0026 0FD0     		beq	.L17
 309 0028 02DC     		bgt	.L18
 310 002a 002B     		cmp	r3, #0
 311 002c 05D0     		beq	.L19
 312 002e 20E0     		b	.L16
 313              	.L18:
 314 0030 022B     		cmp	r3, #2
 315 0032 10D0     		beq	.L20
 316 0034 032B     		cmp	r3, #3
 317 0036 15D0     		beq	.L21
 318 0038 1BE0     		b	.L16
 319              	.L19:
 111:Drivers/u8glib/src/u8g_pb8h1f.c ****     {
 112:Drivers/u8glib/src/u8g_pb8h1f.c ****       case 0: arg_pixel->x++; break;
 320              		.loc 1 112 0
 321 003a 3B68     		ldr	r3, [r7]
 322 003c 1B78     		ldrb	r3, [r3]
 323 003e 0133     		adds	r3, r3, #1
 324 0040 DAB2     		uxtb	r2, r3
 325 0042 3B68     		ldr	r3, [r7]
 326 0044 1A70     		strb	r2, [r3]
 327 0046 14E0     		b	.L16
 328              	.L17:
 113:Drivers/u8glib/src/u8g_pb8h1f.c ****       case 1: arg_pixel->y++; break;
 329              		.loc 1 113 0
 330 0048 3B68     		ldr	r3, [r7]
 331 004a 5B78     		ldrb	r3, [r3, #1]
 332 004c 0133     		adds	r3, r3, #1
 333 004e DAB2     		uxtb	r2, r3
 334 0050 3B68     		ldr	r3, [r7]
 335 0052 5A70     		strb	r2, [r3, #1]
 336 0054 0DE0     		b	.L16
 337              	.L20:
 114:Drivers/u8glib/src/u8g_pb8h1f.c ****       case 2: arg_pixel->x--; break;
 338              		.loc 1 114 0
 339 0056 3B68     		ldr	r3, [r7]
 340 0058 1B78     		ldrb	r3, [r3]
 341 005a 013B     		subs	r3, r3, #1
 342 005c DAB2     		uxtb	r2, r3
 343 005e 3B68     		ldr	r3, [r7]
 344 0060 1A70     		strb	r2, [r3]
ARM GAS  /tmp/ccgVeMHZ.s 			page 9


 345 0062 06E0     		b	.L16
 346              	.L21:
 115:Drivers/u8glib/src/u8g_pb8h1f.c ****       case 3: arg_pixel->y--; break;
 347              		.loc 1 115 0
 348 0064 3B68     		ldr	r3, [r7]
 349 0066 5B78     		ldrb	r3, [r3, #1]
 350 0068 013B     		subs	r3, r3, #1
 351 006a DAB2     		uxtb	r2, r3
 352 006c 3B68     		ldr	r3, [r7]
 353 006e 5A70     		strb	r2, [r3, #1]
 354 0070 C046     		nop
 355              	.L16:
 116:Drivers/u8glib/src/u8g_pb8h1f.c ****     }
 117:Drivers/u8glib/src/u8g_pb8h1f.c ****     pixel <<= 1;
 356              		.loc 1 117 0
 357 0072 231C     		adds	r3, r4, #0
 358 0074 DB18     		adds	r3, r3, r3
 359 0076 DCB2     		uxtb	r4, r3
 118:Drivers/u8glib/src/u8g_pb8h1f.c ****   } while( pixel != 0  );
 360              		.loc 1 118 0
 361 0078 002C     		cmp	r4, #0
 362 007a C8D1     		bne	.L22
 119:Drivers/u8glib/src/u8g_pb8h1f.c **** }
 363              		.loc 1 119 0
 364 007c C046     		nop
 365 007e BD46     		mov	sp, r7
 366 0080 03B0     		add	sp, sp, #12
 367              		@ sp needed
 368 0082 90BD     		pop	{r4, r7, pc}
 369              		.cfi_endproc
 370              	.LFE3:
 372              		.section	.text.u8g_pb8h1f_Set8PixelOpt2,"ax",%progbits
 373              		.align	1
 374              		.global	u8g_pb8h1f_Set8PixelOpt2
 375              		.syntax unified
 376              		.code	16
 377              		.thumb_func
 378              		.fpu softvfp
 380              	u8g_pb8h1f_Set8PixelOpt2:
 381              	.LFB4:
 120:Drivers/u8glib/src/u8g_pb8h1f.c **** 
 121:Drivers/u8glib/src/u8g_pb8h1f.c **** void u8g_pb8h1f_Set8PixelOpt2(u8g_pb_t *b, u8g_dev_arg_pixel_t *arg_pixel)
 122:Drivers/u8glib/src/u8g_pb8h1f.c **** {
 382              		.loc 1 122 0
 383              		.cfi_startproc
 384 0000 90B5     		push	{r4, r7, lr}
 385              	.LCFI12:
 386              		.cfi_def_cfa_offset 12
 387              		.cfi_offset 4, -12
 388              		.cfi_offset 7, -8
 389              		.cfi_offset 14, -4
 390 0002 85B0     		sub	sp, sp, #20
 391              	.LCFI13:
 392              		.cfi_def_cfa_offset 32
 393 0004 00AF     		add	r7, sp, #0
 394              	.LCFI14:
 395              		.cfi_def_cfa_register 7
ARM GAS  /tmp/ccgVeMHZ.s 			page 10


 396 0006 7860     		str	r0, [r7, #4]
 397 0008 3960     		str	r1, [r7]
 123:Drivers/u8glib/src/u8g_pb8h1f.c ****   register uint8_t pixel = arg_pixel->pixel;
 398              		.loc 1 123 0
 399 000a 3B68     		ldr	r3, [r7]
 400 000c 9C78     		ldrb	r4, [r3, #2]
 124:Drivers/u8glib/src/u8g_pb8h1f.c ****   u8g_uint_t dx = 0;
 401              		.loc 1 124 0
 402 000e 0F23     		movs	r3, #15
 403 0010 FB18     		adds	r3, r7, r3
 404 0012 0022     		movs	r2, #0
 405 0014 1A70     		strb	r2, [r3]
 125:Drivers/u8glib/src/u8g_pb8h1f.c ****   u8g_uint_t dy = 0;
 406              		.loc 1 125 0
 407 0016 0E23     		movs	r3, #14
 408 0018 FB18     		adds	r3, r7, r3
 409 001a 0022     		movs	r2, #0
 410 001c 1A70     		strb	r2, [r3]
 126:Drivers/u8glib/src/u8g_pb8h1f.c ****   
 127:Drivers/u8glib/src/u8g_pb8h1f.c ****   switch( arg_pixel->dir )
 411              		.loc 1 127 0
 412 001e 3B68     		ldr	r3, [r7]
 413 0020 DB78     		ldrb	r3, [r3, #3]
 414 0022 012B     		cmp	r3, #1
 415 0024 10D0     		beq	.L25
 416 0026 02DC     		bgt	.L26
 417 0028 002B     		cmp	r3, #0
 418 002a 05D0     		beq	.L27
 419 002c 24E0     		b	.L24
 420              	.L26:
 421 002e 022B     		cmp	r3, #2
 422 0030 12D0     		beq	.L28
 423 0032 032B     		cmp	r3, #3
 424 0034 18D0     		beq	.L29
 425 0036 1FE0     		b	.L24
 426              	.L27:
 128:Drivers/u8glib/src/u8g_pb8h1f.c ****   {
 129:Drivers/u8glib/src/u8g_pb8h1f.c ****     case 0: dx++; break;
 427              		.loc 1 129 0
 428 0038 0F23     		movs	r3, #15
 429 003a FB18     		adds	r3, r7, r3
 430 003c 1A78     		ldrb	r2, [r3]
 431 003e 0F23     		movs	r3, #15
 432 0040 FB18     		adds	r3, r7, r3
 433 0042 0132     		adds	r2, r2, #1
 434 0044 1A70     		strb	r2, [r3]
 435 0046 17E0     		b	.L24
 436              	.L25:
 130:Drivers/u8glib/src/u8g_pb8h1f.c ****     case 1: dy++; break;
 437              		.loc 1 130 0
 438 0048 0E23     		movs	r3, #14
 439 004a FB18     		adds	r3, r7, r3
 440 004c 1A78     		ldrb	r2, [r3]
 441 004e 0E23     		movs	r3, #14
 442 0050 FB18     		adds	r3, r7, r3
 443 0052 0132     		adds	r2, r2, #1
 444 0054 1A70     		strb	r2, [r3]
ARM GAS  /tmp/ccgVeMHZ.s 			page 11


 445 0056 0FE0     		b	.L24
 446              	.L28:
 131:Drivers/u8glib/src/u8g_pb8h1f.c ****     case 2: dx--; break;
 447              		.loc 1 131 0
 448 0058 0F23     		movs	r3, #15
 449 005a FB18     		adds	r3, r7, r3
 450 005c 1A78     		ldrb	r2, [r3]
 451 005e 0F23     		movs	r3, #15
 452 0060 FB18     		adds	r3, r7, r3
 453 0062 013A     		subs	r2, r2, #1
 454 0064 1A70     		strb	r2, [r3]
 455 0066 07E0     		b	.L24
 456              	.L29:
 132:Drivers/u8glib/src/u8g_pb8h1f.c ****     case 3: dy--; break;
 457              		.loc 1 132 0
 458 0068 0E23     		movs	r3, #14
 459 006a FB18     		adds	r3, r7, r3
 460 006c 1A78     		ldrb	r2, [r3]
 461 006e 0E23     		movs	r3, #14
 462 0070 FB18     		adds	r3, r7, r3
 463 0072 013A     		subs	r2, r2, #1
 464 0074 1A70     		strb	r2, [r3]
 465 0076 C046     		nop
 466              	.L24:
 133:Drivers/u8glib/src/u8g_pb8h1f.c ****   }
 134:Drivers/u8glib/src/u8g_pb8h1f.c ****   
 135:Drivers/u8glib/src/u8g_pb8h1f.c ****   do
 136:Drivers/u8glib/src/u8g_pb8h1f.c ****   {
 137:Drivers/u8glib/src/u8g_pb8h1f.c ****     if ( pixel & 128 )
 467              		.loc 1 137 0
 468 0078 63B2     		sxtb	r3, r4
 469 007a 002B     		cmp	r3, #0
 470 007c 05DA     		bge	.L30
 138:Drivers/u8glib/src/u8g_pb8h1f.c ****       u8g_pb8h1f_SetPixel(b, arg_pixel);
 471              		.loc 1 138 0
 472 007e 3A68     		ldr	r2, [r7]
 473 0080 7B68     		ldr	r3, [r7, #4]
 474 0082 1100     		movs	r1, r2
 475 0084 1800     		movs	r0, r3
 476 0086 FFF7FEFF 		bl	u8g_pb8h1f_SetPixel
 477              	.L30:
 139:Drivers/u8glib/src/u8g_pb8h1f.c ****     arg_pixel->x += dx;
 478              		.loc 1 139 0
 479 008a 3B68     		ldr	r3, [r7]
 480 008c 1A78     		ldrb	r2, [r3]
 481 008e 0F23     		movs	r3, #15
 482 0090 FB18     		adds	r3, r7, r3
 483 0092 1B78     		ldrb	r3, [r3]
 484 0094 D318     		adds	r3, r2, r3
 485 0096 DAB2     		uxtb	r2, r3
 486 0098 3B68     		ldr	r3, [r7]
 487 009a 1A70     		strb	r2, [r3]
 140:Drivers/u8glib/src/u8g_pb8h1f.c ****     arg_pixel->y += dy;
 488              		.loc 1 140 0
 489 009c 3B68     		ldr	r3, [r7]
 490 009e 5A78     		ldrb	r2, [r3, #1]
 491 00a0 0E23     		movs	r3, #14
ARM GAS  /tmp/ccgVeMHZ.s 			page 12


 492 00a2 FB18     		adds	r3, r7, r3
 493 00a4 1B78     		ldrb	r3, [r3]
 494 00a6 D318     		adds	r3, r2, r3
 495 00a8 DAB2     		uxtb	r2, r3
 496 00aa 3B68     		ldr	r3, [r7]
 497 00ac 5A70     		strb	r2, [r3, #1]
 141:Drivers/u8glib/src/u8g_pb8h1f.c ****     pixel <<= 1;
 498              		.loc 1 141 0
 499 00ae 231C     		adds	r3, r4, #0
 500 00b0 DB18     		adds	r3, r3, r3
 501 00b2 DCB2     		uxtb	r4, r3
 502 00b4 0F23     		movs	r3, #15
 503 00b6 FB18     		adds	r3, r7, r3
 504 00b8 0F22     		movs	r2, #15
 505 00ba BA18     		adds	r2, r7, r2
 506 00bc 1278     		ldrb	r2, [r2]
 507 00be 1A70     		strb	r2, [r3]
 508 00c0 0E23     		movs	r3, #14
 509 00c2 FB18     		adds	r3, r7, r3
 510 00c4 0E22     		movs	r2, #14
 511 00c6 BA18     		adds	r2, r7, r2
 512 00c8 1278     		ldrb	r2, [r2]
 513 00ca 1A70     		strb	r2, [r3]
 142:Drivers/u8glib/src/u8g_pb8h1f.c ****   } while( pixel != 0  );  
 514              		.loc 1 142 0
 515 00cc 002C     		cmp	r4, #0
 516 00ce D3D1     		bne	.L24
 143:Drivers/u8glib/src/u8g_pb8h1f.c **** }
 517              		.loc 1 143 0
 518 00d0 C046     		nop
 519 00d2 BD46     		mov	sp, r7
 520 00d4 05B0     		add	sp, sp, #20
 521              		@ sp needed
 522 00d6 90BD     		pop	{r4, r7, pc}
 523              		.cfi_endproc
 524              	.LFE4:
 526              		.section	.text.u8g_dev_pb8h1f_base_fn,"ax",%progbits
 527              		.align	1
 528              		.global	u8g_dev_pb8h1f_base_fn
 529              		.syntax unified
 530              		.code	16
 531              		.thumb_func
 532              		.fpu softvfp
 534              	u8g_dev_pb8h1f_base_fn:
 535              	.LFB5:
 144:Drivers/u8glib/src/u8g_pb8h1f.c **** 
 145:Drivers/u8glib/src/u8g_pb8h1f.c **** 
 146:Drivers/u8glib/src/u8g_pb8h1f.c **** uint8_t u8g_dev_pb8h1f_base_fn(u8g_t *u8g, u8g_dev_t *dev, uint8_t msg, void *arg)
 147:Drivers/u8glib/src/u8g_pb8h1f.c **** {
 536              		.loc 1 147 0
 537              		.cfi_startproc
 538 0000 80B5     		push	{r7, lr}
 539              	.LCFI15:
 540              		.cfi_def_cfa_offset 8
 541              		.cfi_offset 7, -8
 542              		.cfi_offset 14, -4
 543 0002 86B0     		sub	sp, sp, #24
ARM GAS  /tmp/ccgVeMHZ.s 			page 13


 544              	.LCFI16:
 545              		.cfi_def_cfa_offset 32
 546 0004 00AF     		add	r7, sp, #0
 547              	.LCFI17:
 548              		.cfi_def_cfa_register 7
 549 0006 F860     		str	r0, [r7, #12]
 550 0008 B960     		str	r1, [r7, #8]
 551 000a 3B60     		str	r3, [r7]
 552 000c FB1D     		adds	r3, r7, #7
 553 000e 1A70     		strb	r2, [r3]
 148:Drivers/u8glib/src/u8g_pb8h1f.c ****   u8g_pb_t *pb = (u8g_pb_t *)(dev->dev_mem);
 554              		.loc 1 148 0
 555 0010 BB68     		ldr	r3, [r7, #8]
 556 0012 5B68     		ldr	r3, [r3, #4]
 557 0014 7B61     		str	r3, [r7, #20]
 149:Drivers/u8glib/src/u8g_pb8h1f.c ****   switch(msg)
 558              		.loc 1 149 0
 559 0016 FB1D     		adds	r3, r7, #7
 560 0018 1B78     		ldrb	r3, [r3]
 561 001a 0A3B     		subs	r3, r3, #10
 562 001c 3E2B     		cmp	r3, #62
 563 001e 44D8     		bhi	.L32
 564 0020 9A00     		lsls	r2, r3, #2
 565 0022 244B     		ldr	r3, .L50
 566 0024 D318     		adds	r3, r2, r3
 567 0026 1B68     		ldr	r3, [r3]
 568 0028 9F46     		mov	pc, r3
 569              		.section	.rodata.u8g_dev_pb8h1f_base_fn,"a",%progbits
 570              		.align	2
 571              	.L34:
 572 0000 AA000000 		.word	.L32
 573 0004 AA000000 		.word	.L32
 574 0008 AA000000 		.word	.L32
 575 000c AA000000 		.word	.L32
 576 0010 AA000000 		.word	.L32
 577 0014 AA000000 		.word	.L32
 578 0018 AA000000 		.word	.L32
 579 001c AA000000 		.word	.L32
 580 0020 AA000000 		.word	.L32
 581 0024 AA000000 		.word	.L32
 582 0028 56000000 		.word	.L36
 583 002c 68000000 		.word	.L37
 584 0030 AA000000 		.word	.L32
 585 0034 82000000 		.word	.L38
 586 0038 AA000000 		.word	.L32
 587 003c AA000000 		.word	.L32
 588 0040 AA000000 		.word	.L32
 589 0044 AA000000 		.word	.L32
 590 0048 AA000000 		.word	.L32
 591 004c AA000000 		.word	.L32
 592 0050 AA000000 		.word	.L32
 593 0054 AA000000 		.word	.L32
 594 0058 AA000000 		.word	.L32
 595 005c AA000000 		.word	.L32
 596 0060 AA000000 		.word	.L32
 597 0064 AA000000 		.word	.L32
 598 0068 AA000000 		.word	.L32
ARM GAS  /tmp/ccgVeMHZ.s 			page 14


 599 006c AA000000 		.word	.L32
 600 0070 AA000000 		.word	.L32
 601 0074 AA000000 		.word	.L32
 602 0078 AA000000 		.word	.L32
 603 007c AA000000 		.word	.L32
 604 0080 AA000000 		.word	.L32
 605 0084 AA000000 		.word	.L32
 606 0088 AA000000 		.word	.L32
 607 008c AA000000 		.word	.L32
 608 0090 AA000000 		.word	.L32
 609 0094 AA000000 		.word	.L32
 610 0098 AA000000 		.word	.L32
 611 009c AA000000 		.word	.L32
 612 00a0 48000000 		.word	.L39
 613 00a4 AA000000 		.word	.L32
 614 00a8 AA000000 		.word	.L32
 615 00ac AA000000 		.word	.L32
 616 00b0 AA000000 		.word	.L32
 617 00b4 AA000000 		.word	.L32
 618 00b8 AA000000 		.word	.L32
 619 00bc AA000000 		.word	.L32
 620 00c0 AA000000 		.word	.L32
 621 00c4 2A000000 		.word	.L40
 622 00c8 AA000000 		.word	.L32
 623 00cc AA000000 		.word	.L32
 624 00d0 AA000000 		.word	.L32
 625 00d4 AA000000 		.word	.L32
 626 00d8 AA000000 		.word	.L32
 627 00dc AA000000 		.word	.L32
 628 00e0 AA000000 		.word	.L32
 629 00e4 AA000000 		.word	.L32
 630 00e8 AA000000 		.word	.L32
 631 00ec AA000000 		.word	.L32
 632 00f0 90000000 		.word	.L43
 633 00f4 9A000000 		.word	.L44
 634 00f8 A4000000 		.word	.L45
 635              		.section	.text.u8g_dev_pb8h1f_base_fn
 636              	.L40:
 150:Drivers/u8glib/src/u8g_pb8h1f.c ****   {
 151:Drivers/u8glib/src/u8g_pb8h1f.c ****     case U8G_DEV_MSG_SET_8PIXEL:
 152:Drivers/u8glib/src/u8g_pb8h1f.c ****       if ( u8g_pb_Is8PixelVisible(pb, (u8g_dev_arg_pixel_t *)arg) )
 637              		.loc 1 152 0
 638 002a 3A68     		ldr	r2, [r7]
 639 002c 7B69     		ldr	r3, [r7, #20]
 640 002e 1100     		movs	r1, r2
 641 0030 1800     		movs	r0, r3
 642 0032 FFF7FEFF 		bl	u8g_pb_Is8PixelVisible
 643 0036 031E     		subs	r3, r0, #0
 644 0038 36D0     		beq	.L49
 153:Drivers/u8glib/src/u8g_pb8h1f.c ****         u8g_pb8h1f_Set8PixelOpt2(pb, (u8g_dev_arg_pixel_t *)arg);
 645              		.loc 1 153 0
 646 003a 3A68     		ldr	r2, [r7]
 647 003c 7B69     		ldr	r3, [r7, #20]
 648 003e 1100     		movs	r1, r2
 649 0040 1800     		movs	r0, r3
 650 0042 FFF7FEFF 		bl	u8g_pb8h1f_Set8PixelOpt2
 154:Drivers/u8glib/src/u8g_pb8h1f.c ****       break;
ARM GAS  /tmp/ccgVeMHZ.s 			page 15


 651              		.loc 1 154 0
 652 0046 2FE0     		b	.L49
 653              	.L39:
 155:Drivers/u8glib/src/u8g_pb8h1f.c ****     case U8G_DEV_MSG_SET_PIXEL:
 156:Drivers/u8glib/src/u8g_pb8h1f.c ****       u8g_pb8h1f_SetPixel(pb, (u8g_dev_arg_pixel_t *)arg);
 654              		.loc 1 156 0
 655 0048 3A68     		ldr	r2, [r7]
 656 004a 7B69     		ldr	r3, [r7, #20]
 657 004c 1100     		movs	r1, r2
 658 004e 1800     		movs	r0, r3
 659 0050 FFF7FEFF 		bl	u8g_pb8h1f_SetPixel
 157:Drivers/u8glib/src/u8g_pb8h1f.c ****       break;
 660              		.loc 1 157 0
 661 0054 29E0     		b	.L32
 662              	.L36:
 158:Drivers/u8glib/src/u8g_pb8h1f.c ****     case U8G_DEV_MSG_INIT:
 159:Drivers/u8glib/src/u8g_pb8h1f.c ****       break;
 160:Drivers/u8glib/src/u8g_pb8h1f.c ****     case U8G_DEV_MSG_STOP:
 161:Drivers/u8glib/src/u8g_pb8h1f.c ****       break;
 162:Drivers/u8glib/src/u8g_pb8h1f.c ****     case U8G_DEV_MSG_PAGE_FIRST:
 163:Drivers/u8glib/src/u8g_pb8h1f.c ****       u8g_pb_Clear(pb);
 663              		.loc 1 163 0
 664 0056 7B69     		ldr	r3, [r7, #20]
 665 0058 1800     		movs	r0, r3
 666 005a FFF7FEFF 		bl	u8g_pb_Clear
 164:Drivers/u8glib/src/u8g_pb8h1f.c ****       u8g_page_First(&(pb->p));
 667              		.loc 1 164 0
 668 005e 7B69     		ldr	r3, [r7, #20]
 669 0060 1800     		movs	r0, r3
 670 0062 FFF7FEFF 		bl	u8g_page_First
 165:Drivers/u8glib/src/u8g_pb8h1f.c ****       break;
 671              		.loc 1 165 0
 672 0066 20E0     		b	.L32
 673              	.L37:
 166:Drivers/u8glib/src/u8g_pb8h1f.c ****     case U8G_DEV_MSG_PAGE_NEXT:
 167:Drivers/u8glib/src/u8g_pb8h1f.c ****       if ( u8g_page_Next(&(pb->p)) == 0 )
 674              		.loc 1 167 0
 675 0068 7B69     		ldr	r3, [r7, #20]
 676 006a 1800     		movs	r0, r3
 677 006c FFF7FEFF 		bl	u8g_page_Next
 678 0070 031E     		subs	r3, r0, #0
 679 0072 01D1     		bne	.L47
 168:Drivers/u8glib/src/u8g_pb8h1f.c ****         return 0;
 680              		.loc 1 168 0
 681 0074 0023     		movs	r3, #0
 682 0076 19E0     		b	.L48
 683              	.L47:
 169:Drivers/u8glib/src/u8g_pb8h1f.c ****       u8g_pb_Clear(pb);
 684              		.loc 1 169 0
 685 0078 7B69     		ldr	r3, [r7, #20]
 686 007a 1800     		movs	r0, r3
 687 007c FFF7FEFF 		bl	u8g_pb_Clear
 170:Drivers/u8glib/src/u8g_pb8h1f.c ****       break;
 688              		.loc 1 170 0
 689 0080 13E0     		b	.L32
 690              	.L38:
 171:Drivers/u8glib/src/u8g_pb8h1f.c **** #ifdef U8G_DEV_MSG_IS_BBX_INTERSECTION
ARM GAS  /tmp/ccgVeMHZ.s 			page 16


 172:Drivers/u8glib/src/u8g_pb8h1f.c ****     case U8G_DEV_MSG_IS_BBX_INTERSECTION:
 173:Drivers/u8glib/src/u8g_pb8h1f.c ****       return u8g_pb_IsIntersection(pb, (u8g_dev_arg_bbx_t *)arg);
 174:Drivers/u8glib/src/u8g_pb8h1f.c **** #endif
 175:Drivers/u8glib/src/u8g_pb8h1f.c ****     case U8G_DEV_MSG_GET_PAGE_BOX:
 176:Drivers/u8glib/src/u8g_pb8h1f.c ****       u8g_pb_GetPageBox(pb, (u8g_box_t *)arg);
 691              		.loc 1 176 0
 692 0082 3A68     		ldr	r2, [r7]
 693 0084 7B69     		ldr	r3, [r7, #20]
 694 0086 1100     		movs	r1, r2
 695 0088 1800     		movs	r0, r3
 696 008a FFF7FEFF 		bl	u8g_pb_GetPageBox
 177:Drivers/u8glib/src/u8g_pb8h1f.c ****       break;
 697              		.loc 1 177 0
 698 008e 0CE0     		b	.L32
 699              	.L43:
 178:Drivers/u8glib/src/u8g_pb8h1f.c ****     case U8G_DEV_MSG_GET_WIDTH:
 179:Drivers/u8glib/src/u8g_pb8h1f.c ****       *((u8g_uint_t *)arg) = pb->width;
 700              		.loc 1 179 0
 701 0090 7B69     		ldr	r3, [r7, #20]
 702 0092 5A79     		ldrb	r2, [r3, #5]
 703 0094 3B68     		ldr	r3, [r7]
 704 0096 1A70     		strb	r2, [r3]
 180:Drivers/u8glib/src/u8g_pb8h1f.c ****       break;
 705              		.loc 1 180 0
 706 0098 07E0     		b	.L32
 707              	.L44:
 181:Drivers/u8glib/src/u8g_pb8h1f.c ****     case U8G_DEV_MSG_GET_HEIGHT:
 182:Drivers/u8glib/src/u8g_pb8h1f.c ****       *((u8g_uint_t *)arg) = pb->p.total_height;
 708              		.loc 1 182 0
 709 009a 7B69     		ldr	r3, [r7, #20]
 710 009c 5A78     		ldrb	r2, [r3, #1]
 711 009e 3B68     		ldr	r3, [r7]
 712 00a0 1A70     		strb	r2, [r3]
 183:Drivers/u8glib/src/u8g_pb8h1f.c ****       break;
 713              		.loc 1 183 0
 714 00a2 02E0     		b	.L32
 715              	.L45:
 184:Drivers/u8glib/src/u8g_pb8h1f.c ****     case U8G_DEV_MSG_SET_COLOR_ENTRY:
 185:Drivers/u8glib/src/u8g_pb8h1f.c ****       break;
 186:Drivers/u8glib/src/u8g_pb8h1f.c ****     case U8G_DEV_MSG_SET_XY_CB:
 187:Drivers/u8glib/src/u8g_pb8h1f.c ****       break;
 188:Drivers/u8glib/src/u8g_pb8h1f.c ****     case U8G_DEV_MSG_GET_MODE:
 189:Drivers/u8glib/src/u8g_pb8h1f.c ****       return U8G_MODE_BW;
 716              		.loc 1 189 0
 717 00a4 0123     		movs	r3, #1
 718 00a6 01E0     		b	.L48
 719              	.L49:
 154:Drivers/u8glib/src/u8g_pb8h1f.c ****     case U8G_DEV_MSG_SET_PIXEL:
 720              		.loc 1 154 0
 721 00a8 C046     		nop
 722              	.L32:
 190:Drivers/u8glib/src/u8g_pb8h1f.c ****   }
 191:Drivers/u8glib/src/u8g_pb8h1f.c ****   return 1;
 723              		.loc 1 191 0
 724 00aa 0123     		movs	r3, #1
 725              	.L48:
 192:Drivers/u8glib/src/u8g_pb8h1f.c **** }
ARM GAS  /tmp/ccgVeMHZ.s 			page 17


 726              		.loc 1 192 0
 727 00ac 1800     		movs	r0, r3
 728 00ae BD46     		mov	sp, r7
 729 00b0 06B0     		add	sp, sp, #24
 730              		@ sp needed
 731 00b2 80BD     		pop	{r7, pc}
 732              	.L51:
 733              		.align	2
 734              	.L50:
 735 00b4 00000000 		.word	.L34
 736              		.cfi_endproc
 737              	.LFE5:
 739              		.text
 740              	.Letext0:
 741              		.file 2 "/usr/arm-none-eabi/include/machine/_default_types.h"
 742              		.file 3 "/usr/arm-none-eabi/include/sys/_stdint.h"
 743              		.file 4 "Drivers/u8glib/inc/u8g.h"
 744              		.file 5 "/usr/arm-none-eabi/include/sys/lock.h"
 745              		.file 6 "/usr/arm-none-eabi/include/sys/_types.h"
 746              		.file 7 "/usr/lib/gcc/arm-none-eabi/6.2.0/include/stddef.h"
 747              		.file 8 "/usr/arm-none-eabi/include/sys/reent.h"
ARM GAS  /tmp/ccgVeMHZ.s 			page 18

