ARM GAS  /tmp/ccxKl5M2.s 			page 1


   1              		.cpu cortex-m0
   2              		.eabi_attribute 20, 1
   3              		.eabi_attribute 21, 1
   4              		.eabi_attribute 23, 3
   5              		.eabi_attribute 24, 1
   6              		.eabi_attribute 25, 1
   7              		.eabi_attribute 26, 1
   8              		.eabi_attribute 30, 6
   9              		.eabi_attribute 34, 0
  10              		.eabi_attribute 18, 4
  11              		.file	"u8g_font.c"
  12              		.text
  13              	.Ltext0:
  14              		.cfi_sections	.debug_frame
  15              		.section	.text.u8g_font_get_byte,"ax",%progbits
  16              		.align	1
  17              		.syntax unified
  18              		.code	16
  19              		.thumb_func
  20              		.fpu softvfp
  22              	u8g_font_get_byte:
  23              	.LFB0:
  24              		.file 1 "Drivers/u8glib/src/u8g_font.c"
   1:Drivers/u8glib/src/u8g_font.c **** /*
   2:Drivers/u8glib/src/u8g_font.c **** 
   3:Drivers/u8glib/src/u8g_font.c ****   u8g_font.c
   4:Drivers/u8glib/src/u8g_font.c ****   
   5:Drivers/u8glib/src/u8g_font.c ****   U8G Font High Level Interface
   6:Drivers/u8glib/src/u8g_font.c **** 
   7:Drivers/u8glib/src/u8g_font.c ****   Universal 8bit Graphics Library
   8:Drivers/u8glib/src/u8g_font.c ****   
   9:Drivers/u8glib/src/u8g_font.c ****   Copyright (c) 2011, olikraus@gmail.com
  10:Drivers/u8glib/src/u8g_font.c ****   All rights reserved.
  11:Drivers/u8glib/src/u8g_font.c **** 
  12:Drivers/u8glib/src/u8g_font.c ****   Redistribution and use in source and binary forms, with or without modification, 
  13:Drivers/u8glib/src/u8g_font.c ****   are permitted provided that the following conditions are met:
  14:Drivers/u8glib/src/u8g_font.c **** 
  15:Drivers/u8glib/src/u8g_font.c ****   * Redistributions of source code must retain the above copyright notice, this list 
  16:Drivers/u8glib/src/u8g_font.c ****     of conditions and the following disclaimer.
  17:Drivers/u8glib/src/u8g_font.c ****     
  18:Drivers/u8glib/src/u8g_font.c ****   * Redistributions in binary form must reproduce the above copyright notice, this 
  19:Drivers/u8glib/src/u8g_font.c ****     list of conditions and the following disclaimer in the documentation and/or other 
  20:Drivers/u8glib/src/u8g_font.c ****     materials provided with the distribution.
  21:Drivers/u8glib/src/u8g_font.c **** 
  22:Drivers/u8glib/src/u8g_font.c ****   THIS SOFTWARE IS PROVIDED BY THE COPYRIGHT HOLDERS AND 
  23:Drivers/u8glib/src/u8g_font.c ****   CONTRIBUTORS "AS IS" AND ANY EXPRESS OR IMPLIED WARRANTIES, 
  24:Drivers/u8glib/src/u8g_font.c ****   INCLUDING, BUT NOT LIMITED TO, THE IMPLIED WARRANTIES OF 
  25:Drivers/u8glib/src/u8g_font.c ****   MERCHANTABILITY AND FITNESS FOR A PARTICULAR PURPOSE ARE 
  26:Drivers/u8glib/src/u8g_font.c ****   DISCLAIMED. IN NO EVENT SHALL THE COPYRIGHT HOLDER OR 
  27:Drivers/u8glib/src/u8g_font.c ****   CONTRIBUTORS BE LIABLE FOR ANY DIRECT, INDIRECT, INCIDENTAL, 
  28:Drivers/u8glib/src/u8g_font.c ****   SPECIAL, EXEMPLARY, OR CONSEQUENTIAL DAMAGES (INCLUDING, BUT 
  29:Drivers/u8glib/src/u8g_font.c ****   NOT LIMITED TO, PROCUREMENT OF SUBSTITUTE GOODS OR SERVICES; 
  30:Drivers/u8glib/src/u8g_font.c ****   LOSS OF USE, DATA, OR PROFITS; OR BUSINESS INTERRUPTION) HOWEVER 
  31:Drivers/u8glib/src/u8g_font.c ****   CAUSED AND ON ANY THEORY OF LIABILITY, WHETHER IN CONTRACT, 
  32:Drivers/u8glib/src/u8g_font.c ****   STRICT LIABILITY, OR TORT (INCLUDING NEGLIGENCE OR OTHERWISE) 
  33:Drivers/u8glib/src/u8g_font.c ****   ARISING IN ANY WAY OUT OF THE USE OF THIS SOFTWARE, EVEN IF 
  34:Drivers/u8glib/src/u8g_font.c ****   ADVISED OF THE POSSIBILITY OF SUCH DAMAGE.  
ARM GAS  /tmp/ccxKl5M2.s 			page 2


  35:Drivers/u8glib/src/u8g_font.c ****   
  36:Drivers/u8glib/src/u8g_font.c **** */
  37:Drivers/u8glib/src/u8g_font.c **** 
  38:Drivers/u8glib/src/u8g_font.c **** #include "u8g.h"
  39:Drivers/u8glib/src/u8g_font.c **** 
  40:Drivers/u8glib/src/u8g_font.c **** /* font api */
  41:Drivers/u8glib/src/u8g_font.c **** 
  42:Drivers/u8glib/src/u8g_font.c **** /* pointer to the start adress of the glyph, points to progmem area */
  43:Drivers/u8glib/src/u8g_font.c **** typedef void * u8g_glyph_t;
  44:Drivers/u8glib/src/u8g_font.c **** 
  45:Drivers/u8glib/src/u8g_font.c **** /* size of the font data structure, there is no struct or class... */
  46:Drivers/u8glib/src/u8g_font.c **** #define U8G_FONT_DATA_STRUCT_SIZE 17
  47:Drivers/u8glib/src/u8g_font.c **** 
  48:Drivers/u8glib/src/u8g_font.c **** /*
  49:Drivers/u8glib/src/u8g_font.c ****   ... instead the fields of the font data structure are accessed directly by offset 
  50:Drivers/u8glib/src/u8g_font.c ****   font information 
  51:Drivers/u8glib/src/u8g_font.c ****   offset
  52:Drivers/u8glib/src/u8g_font.c ****   0             font format
  53:Drivers/u8glib/src/u8g_font.c ****   1             FONTBOUNDINGBOX width           unsigned
  54:Drivers/u8glib/src/u8g_font.c ****   2             FONTBOUNDINGBOX height          unsigned
  55:Drivers/u8glib/src/u8g_font.c ****   3             FONTBOUNDINGBOX x-offset         signed
  56:Drivers/u8glib/src/u8g_font.c ****   4             FONTBOUNDINGBOX y-offset        signed
  57:Drivers/u8glib/src/u8g_font.c ****   5             capital A height                                unsigned
  58:Drivers/u8glib/src/u8g_font.c ****   6             start 'A'
  59:Drivers/u8glib/src/u8g_font.c ****   8             start 'a'
  60:Drivers/u8glib/src/u8g_font.c ****   10            encoding start
  61:Drivers/u8glib/src/u8g_font.c ****   11            encoding end
  62:Drivers/u8glib/src/u8g_font.c ****   12            descent 'g'                     negative: below baseline
  63:Drivers/u8glib/src/u8g_font.c ****   13            font max ascent
  64:Drivers/u8glib/src/u8g_font.c ****   14            font min decent             negative: below baseline 
  65:Drivers/u8glib/src/u8g_font.c ****   15            font xascent
  66:Drivers/u8glib/src/u8g_font.c ****   16            font xdecent             negative: below baseline 
  67:Drivers/u8glib/src/u8g_font.c ****   
  68:Drivers/u8glib/src/u8g_font.c **** */
  69:Drivers/u8glib/src/u8g_font.c **** 
  70:Drivers/u8glib/src/u8g_font.c **** /* use case: What is the width and the height of the minimal box into which string s fints? */
  71:Drivers/u8glib/src/u8g_font.c **** void u8g_font_GetStrSize(const void *font, const char *s, u8g_uint_t *width, u8g_uint_t *height);
  72:Drivers/u8glib/src/u8g_font.c **** void u8g_font_GetStrSizeP(const void *font, const char *s, u8g_uint_t *width, u8g_uint_t *height);
  73:Drivers/u8glib/src/u8g_font.c **** 
  74:Drivers/u8glib/src/u8g_font.c **** /* use case: lower left edge of a minimal box is known, what is the correct x, y position for the s
  75:Drivers/u8glib/src/u8g_font.c **** void u8g_font_AdjustXYToDraw(const void *font, const char *s, u8g_uint_t *x, u8g_uint_t *y);
  76:Drivers/u8glib/src/u8g_font.c **** void u8g_font_AdjustXYToDrawP(const void *font, const char *s, u8g_uint_t *x, u8g_uint_t *y);
  77:Drivers/u8glib/src/u8g_font.c **** 
  78:Drivers/u8glib/src/u8g_font.c **** /* use case: Baseline origin known, return minimal box */
  79:Drivers/u8glib/src/u8g_font.c **** void u8g_font_GetStrMinBox(u8g_t *u8g, const void *font, const char *s, u8g_uint_t *x, u8g_uint_t *
  80:Drivers/u8glib/src/u8g_font.c **** 
  81:Drivers/u8glib/src/u8g_font.c **** /* procedures */
  82:Drivers/u8glib/src/u8g_font.c **** 
  83:Drivers/u8glib/src/u8g_font.c **** /*========================================================================*/
  84:Drivers/u8glib/src/u8g_font.c **** /* low level byte and word access */
  85:Drivers/u8glib/src/u8g_font.c **** 
  86:Drivers/u8glib/src/u8g_font.c **** /* removed NOINLINE, because it leads to smaller code, might also be faster */
  87:Drivers/u8glib/src/u8g_font.c **** //static uint8_t u8g_font_get_byte(const u8g_fntpgm_uint8_t *font, uint8_t offset) U8G_NOINLINE;
  88:Drivers/u8glib/src/u8g_font.c **** static uint8_t u8g_font_get_byte(const u8g_fntpgm_uint8_t *font, uint8_t offset)
  89:Drivers/u8glib/src/u8g_font.c **** {
  25              		.loc 1 89 0
  26              		.cfi_startproc
ARM GAS  /tmp/ccxKl5M2.s 			page 3


  27 0000 80B5     		push	{r7, lr}
  28              	.LCFI0:
  29              		.cfi_def_cfa_offset 8
  30              		.cfi_offset 7, -8
  31              		.cfi_offset 14, -4
  32 0002 82B0     		sub	sp, sp, #8
  33              	.LCFI1:
  34              		.cfi_def_cfa_offset 16
  35 0004 00AF     		add	r7, sp, #0
  36              	.LCFI2:
  37              		.cfi_def_cfa_register 7
  38 0006 7860     		str	r0, [r7, #4]
  39 0008 0A00     		movs	r2, r1
  40 000a FB1C     		adds	r3, r7, #3
  41 000c 1A70     		strb	r2, [r3]
  90:Drivers/u8glib/src/u8g_font.c ****   font += offset;
  42              		.loc 1 90 0
  43 000e FB1C     		adds	r3, r7, #3
  44 0010 1B78     		ldrb	r3, [r3]
  45 0012 7A68     		ldr	r2, [r7, #4]
  46 0014 D318     		adds	r3, r2, r3
  47 0016 7B60     		str	r3, [r7, #4]
  91:Drivers/u8glib/src/u8g_font.c ****   return u8g_pgm_read( (u8g_pgm_uint8_t *)font );  
  48              		.loc 1 91 0
  49 0018 7B68     		ldr	r3, [r7, #4]
  50 001a 1B78     		ldrb	r3, [r3]
  92:Drivers/u8glib/src/u8g_font.c **** }
  51              		.loc 1 92 0
  52 001c 1800     		movs	r0, r3
  53 001e BD46     		mov	sp, r7
  54 0020 02B0     		add	sp, sp, #8
  55              		@ sp needed
  56 0022 80BD     		pop	{r7, pc}
  57              		.cfi_endproc
  58              	.LFE0:
  60              		.section	.text.u8g_font_get_word,"ax",%progbits
  61              		.align	1
  62              		.syntax unified
  63              		.code	16
  64              		.thumb_func
  65              		.fpu softvfp
  67              	u8g_font_get_word:
  68              	.LFB1:
  93:Drivers/u8glib/src/u8g_font.c **** 
  94:Drivers/u8glib/src/u8g_font.c **** static uint16_t u8g_font_get_word(const u8g_fntpgm_uint8_t *font, uint8_t offset) U8G_NOINLINE; 
  95:Drivers/u8glib/src/u8g_font.c **** static uint16_t u8g_font_get_word(const u8g_fntpgm_uint8_t *font, uint8_t offset)
  96:Drivers/u8glib/src/u8g_font.c **** {
  69              		.loc 1 96 0
  70              		.cfi_startproc
  71 0000 80B5     		push	{r7, lr}
  72              	.LCFI3:
  73              		.cfi_def_cfa_offset 8
  74              		.cfi_offset 7, -8
  75              		.cfi_offset 14, -4
  76 0002 84B0     		sub	sp, sp, #16
  77              	.LCFI4:
  78              		.cfi_def_cfa_offset 24
ARM GAS  /tmp/ccxKl5M2.s 			page 4


  79 0004 00AF     		add	r7, sp, #0
  80              	.LCFI5:
  81              		.cfi_def_cfa_register 7
  82 0006 7860     		str	r0, [r7, #4]
  83 0008 0A00     		movs	r2, r1
  84 000a FB1C     		adds	r3, r7, #3
  85 000c 1A70     		strb	r2, [r3]
  97:Drivers/u8glib/src/u8g_font.c ****     uint16_t pos;
  98:Drivers/u8glib/src/u8g_font.c ****     font += offset;
  86              		.loc 1 98 0
  87 000e FB1C     		adds	r3, r7, #3
  88 0010 1B78     		ldrb	r3, [r3]
  89 0012 7A68     		ldr	r2, [r7, #4]
  90 0014 D318     		adds	r3, r2, r3
  91 0016 7B60     		str	r3, [r7, #4]
  99:Drivers/u8glib/src/u8g_font.c ****     pos = u8g_pgm_read( (u8g_pgm_uint8_t *)font );
  92              		.loc 1 99 0
  93 0018 7B68     		ldr	r3, [r7, #4]
  94 001a 1A78     		ldrb	r2, [r3]
  95 001c 0E23     		movs	r3, #14
  96 001e FB18     		adds	r3, r7, r3
  97 0020 1A80     		strh	r2, [r3]
 100:Drivers/u8glib/src/u8g_font.c ****     font++;
  98              		.loc 1 100 0
  99 0022 7B68     		ldr	r3, [r7, #4]
 100 0024 0133     		adds	r3, r3, #1
 101 0026 7B60     		str	r3, [r7, #4]
 101:Drivers/u8glib/src/u8g_font.c ****     pos <<= 8;
 102              		.loc 1 101 0
 103 0028 0E23     		movs	r3, #14
 104 002a FB18     		adds	r3, r7, r3
 105 002c 0E22     		movs	r2, #14
 106 002e BA18     		adds	r2, r7, r2
 107 0030 1288     		ldrh	r2, [r2]
 108 0032 1202     		lsls	r2, r2, #8
 109 0034 1A80     		strh	r2, [r3]
 102:Drivers/u8glib/src/u8g_font.c ****     pos += u8g_pgm_read( (u8g_pgm_uint8_t *)font);
 110              		.loc 1 102 0
 111 0036 7B68     		ldr	r3, [r7, #4]
 112 0038 1B78     		ldrb	r3, [r3]
 113 003a 99B2     		uxth	r1, r3
 114 003c 0E23     		movs	r3, #14
 115 003e FB18     		adds	r3, r7, r3
 116 0040 0E22     		movs	r2, #14
 117 0042 BA18     		adds	r2, r7, r2
 118 0044 1288     		ldrh	r2, [r2]
 119 0046 8A18     		adds	r2, r1, r2
 120 0048 1A80     		strh	r2, [r3]
 103:Drivers/u8glib/src/u8g_font.c ****     return pos;
 121              		.loc 1 103 0
 122 004a 0E23     		movs	r3, #14
 123 004c FB18     		adds	r3, r7, r3
 124 004e 1B88     		ldrh	r3, [r3]
 104:Drivers/u8glib/src/u8g_font.c **** }
 125              		.loc 1 104 0
 126 0050 1800     		movs	r0, r3
 127 0052 BD46     		mov	sp, r7
ARM GAS  /tmp/ccxKl5M2.s 			page 5


 128 0054 04B0     		add	sp, sp, #16
 129              		@ sp needed
 130 0056 80BD     		pop	{r7, pc}
 131              		.cfi_endproc
 132              	.LFE1:
 134              		.section	.text.u8g_font_GetFormat,"ax",%progbits
 135              		.align	1
 136              		.syntax unified
 137              		.code	16
 138              		.thumb_func
 139              		.fpu softvfp
 141              	u8g_font_GetFormat:
 142              	.LFB2:
 105:Drivers/u8glib/src/u8g_font.c **** 
 106:Drivers/u8glib/src/u8g_font.c **** /*========================================================================*/
 107:Drivers/u8glib/src/u8g_font.c **** /* direct access on the font */
 108:Drivers/u8glib/src/u8g_font.c **** 
 109:Drivers/u8glib/src/u8g_font.c **** static uint8_t u8g_font_GetFormat(const u8g_fntpgm_uint8_t *font) U8G_NOINLINE;
 110:Drivers/u8glib/src/u8g_font.c **** static uint8_t u8g_font_GetFormat(const u8g_fntpgm_uint8_t *font)
 111:Drivers/u8glib/src/u8g_font.c **** {
 143              		.loc 1 111 0
 144              		.cfi_startproc
 145 0000 80B5     		push	{r7, lr}
 146              	.LCFI6:
 147              		.cfi_def_cfa_offset 8
 148              		.cfi_offset 7, -8
 149              		.cfi_offset 14, -4
 150 0002 82B0     		sub	sp, sp, #8
 151              	.LCFI7:
 152              		.cfi_def_cfa_offset 16
 153 0004 00AF     		add	r7, sp, #0
 154              	.LCFI8:
 155              		.cfi_def_cfa_register 7
 156 0006 7860     		str	r0, [r7, #4]
 112:Drivers/u8glib/src/u8g_font.c ****   return u8g_font_get_byte(font, 0);
 157              		.loc 1 112 0
 158 0008 7B68     		ldr	r3, [r7, #4]
 159 000a 0021     		movs	r1, #0
 160 000c 1800     		movs	r0, r3
 161 000e FFF7FEFF 		bl	u8g_font_get_byte
 162 0012 0300     		movs	r3, r0
 113:Drivers/u8glib/src/u8g_font.c **** }
 163              		.loc 1 113 0
 164 0014 1800     		movs	r0, r3
 165 0016 BD46     		mov	sp, r7
 166 0018 02B0     		add	sp, sp, #8
 167              		@ sp needed
 168 001a 80BD     		pop	{r7, pc}
 169              		.cfi_endproc
 170              	.LFE2:
 172              		.section	.text.u8g_font_GetFontGlyphStructureSize,"ax",%progbits
 173              		.align	1
 174              		.syntax unified
 175              		.code	16
 176              		.thumb_func
 177              		.fpu softvfp
 179              	u8g_font_GetFontGlyphStructureSize:
ARM GAS  /tmp/ccxKl5M2.s 			page 6


 180              	.LFB3:
 114:Drivers/u8glib/src/u8g_font.c **** 
 115:Drivers/u8glib/src/u8g_font.c **** static uint8_t u8g_font_GetFontGlyphStructureSize(const u8g_fntpgm_uint8_t *font) U8G_NOINLINE;
 116:Drivers/u8glib/src/u8g_font.c **** static uint8_t u8g_font_GetFontGlyphStructureSize(const u8g_fntpgm_uint8_t *font)
 117:Drivers/u8glib/src/u8g_font.c **** {
 181              		.loc 1 117 0
 182              		.cfi_startproc
 183 0000 80B5     		push	{r7, lr}
 184              	.LCFI9:
 185              		.cfi_def_cfa_offset 8
 186              		.cfi_offset 7, -8
 187              		.cfi_offset 14, -4
 188 0002 82B0     		sub	sp, sp, #8
 189              	.LCFI10:
 190              		.cfi_def_cfa_offset 16
 191 0004 00AF     		add	r7, sp, #0
 192              	.LCFI11:
 193              		.cfi_def_cfa_register 7
 194 0006 7860     		str	r0, [r7, #4]
 118:Drivers/u8glib/src/u8g_font.c ****   switch(u8g_font_GetFormat(font))
 195              		.loc 1 118 0
 196 0008 7B68     		ldr	r3, [r7, #4]
 197 000a 1800     		movs	r0, r3
 198 000c FFF7FEFF 		bl	u8g_font_GetFormat
 199 0010 0300     		movs	r3, r0
 200 0012 012B     		cmp	r3, #1
 201 0014 05D0     		beq	.L9
 202 0016 022B     		cmp	r3, #2
 203 0018 05D0     		beq	.L10
 204 001a 002B     		cmp	r3, #0
 205 001c 05D1     		bne	.L13
 119:Drivers/u8glib/src/u8g_font.c ****   {
 120:Drivers/u8glib/src/u8g_font.c ****     case 0: return 6;
 206              		.loc 1 120 0
 207 001e 0623     		movs	r3, #6
 208 0020 04E0     		b	.L12
 209              	.L9:
 121:Drivers/u8glib/src/u8g_font.c ****     case 1: return 3;
 210              		.loc 1 121 0
 211 0022 0323     		movs	r3, #3
 212 0024 02E0     		b	.L12
 213              	.L10:
 122:Drivers/u8glib/src/u8g_font.c ****     case 2: return 6;
 214              		.loc 1 122 0
 215 0026 0623     		movs	r3, #6
 216 0028 00E0     		b	.L12
 217              	.L13:
 123:Drivers/u8glib/src/u8g_font.c ****   }
 124:Drivers/u8glib/src/u8g_font.c ****   return 3;
 218              		.loc 1 124 0
 219 002a 0323     		movs	r3, #3
 220              	.L12:
 125:Drivers/u8glib/src/u8g_font.c **** }
 221              		.loc 1 125 0
 222 002c 1800     		movs	r0, r3
 223 002e BD46     		mov	sp, r7
 224 0030 02B0     		add	sp, sp, #8
ARM GAS  /tmp/ccxKl5M2.s 			page 7


 225              		@ sp needed
 226 0032 80BD     		pop	{r7, pc}
 227              		.cfi_endproc
 228              	.LFE3:
 230              		.section	.text.u8g_font_GetBBXWidth,"ax",%progbits
 231              		.align	1
 232              		.syntax unified
 233              		.code	16
 234              		.thumb_func
 235              		.fpu softvfp
 237              	u8g_font_GetBBXWidth:
 238              	.LFB4:
 126:Drivers/u8glib/src/u8g_font.c **** 
 127:Drivers/u8glib/src/u8g_font.c **** static uint8_t u8g_font_GetBBXWidth(const void *font)
 128:Drivers/u8glib/src/u8g_font.c **** {
 239              		.loc 1 128 0
 240              		.cfi_startproc
 241 0000 80B5     		push	{r7, lr}
 242              	.LCFI12:
 243              		.cfi_def_cfa_offset 8
 244              		.cfi_offset 7, -8
 245              		.cfi_offset 14, -4
 246 0002 82B0     		sub	sp, sp, #8
 247              	.LCFI13:
 248              		.cfi_def_cfa_offset 16
 249 0004 00AF     		add	r7, sp, #0
 250              	.LCFI14:
 251              		.cfi_def_cfa_register 7
 252 0006 7860     		str	r0, [r7, #4]
 129:Drivers/u8glib/src/u8g_font.c ****   return u8g_font_get_byte(font, 1);
 253              		.loc 1 129 0
 254 0008 7B68     		ldr	r3, [r7, #4]
 255 000a 0121     		movs	r1, #1
 256 000c 1800     		movs	r0, r3
 257 000e FFF7FEFF 		bl	u8g_font_get_byte
 258 0012 0300     		movs	r3, r0
 130:Drivers/u8glib/src/u8g_font.c **** }
 259              		.loc 1 130 0
 260 0014 1800     		movs	r0, r3
 261 0016 BD46     		mov	sp, r7
 262 0018 02B0     		add	sp, sp, #8
 263              		@ sp needed
 264 001a 80BD     		pop	{r7, pc}
 265              		.cfi_endproc
 266              	.LFE4:
 268              		.section	.text.u8g_font_GetBBXHeight,"ax",%progbits
 269              		.align	1
 270              		.syntax unified
 271              		.code	16
 272              		.thumb_func
 273              		.fpu softvfp
 275              	u8g_font_GetBBXHeight:
 276              	.LFB5:
 131:Drivers/u8glib/src/u8g_font.c **** 
 132:Drivers/u8glib/src/u8g_font.c **** static uint8_t u8g_font_GetBBXHeight(const void *font)
 133:Drivers/u8glib/src/u8g_font.c **** {
 277              		.loc 1 133 0
ARM GAS  /tmp/ccxKl5M2.s 			page 8


 278              		.cfi_startproc
 279 0000 80B5     		push	{r7, lr}
 280              	.LCFI15:
 281              		.cfi_def_cfa_offset 8
 282              		.cfi_offset 7, -8
 283              		.cfi_offset 14, -4
 284 0002 82B0     		sub	sp, sp, #8
 285              	.LCFI16:
 286              		.cfi_def_cfa_offset 16
 287 0004 00AF     		add	r7, sp, #0
 288              	.LCFI17:
 289              		.cfi_def_cfa_register 7
 290 0006 7860     		str	r0, [r7, #4]
 134:Drivers/u8glib/src/u8g_font.c ****   return u8g_font_get_byte(font, 2);
 291              		.loc 1 134 0
 292 0008 7B68     		ldr	r3, [r7, #4]
 293 000a 0221     		movs	r1, #2
 294 000c 1800     		movs	r0, r3
 295 000e FFF7FEFF 		bl	u8g_font_get_byte
 296 0012 0300     		movs	r3, r0
 135:Drivers/u8glib/src/u8g_font.c **** }
 297              		.loc 1 135 0
 298 0014 1800     		movs	r0, r3
 299 0016 BD46     		mov	sp, r7
 300 0018 02B0     		add	sp, sp, #8
 301              		@ sp needed
 302 001a 80BD     		pop	{r7, pc}
 303              		.cfi_endproc
 304              	.LFE5:
 306              		.section	.text.u8g_font_GetBBXOffX,"ax",%progbits
 307              		.align	1
 308              		.syntax unified
 309              		.code	16
 310              		.thumb_func
 311              		.fpu softvfp
 313              	u8g_font_GetBBXOffX:
 314              	.LFB6:
 136:Drivers/u8glib/src/u8g_font.c **** 
 137:Drivers/u8glib/src/u8g_font.c **** static int8_t u8g_font_GetBBXOffX(const void *font)
 138:Drivers/u8glib/src/u8g_font.c **** {
 315              		.loc 1 138 0
 316              		.cfi_startproc
 317 0000 80B5     		push	{r7, lr}
 318              	.LCFI18:
 319              		.cfi_def_cfa_offset 8
 320              		.cfi_offset 7, -8
 321              		.cfi_offset 14, -4
 322 0002 82B0     		sub	sp, sp, #8
 323              	.LCFI19:
 324              		.cfi_def_cfa_offset 16
 325 0004 00AF     		add	r7, sp, #0
 326              	.LCFI20:
 327              		.cfi_def_cfa_register 7
 328 0006 7860     		str	r0, [r7, #4]
 139:Drivers/u8glib/src/u8g_font.c ****   return u8g_font_get_byte(font, 3);
 329              		.loc 1 139 0
 330 0008 7B68     		ldr	r3, [r7, #4]
ARM GAS  /tmp/ccxKl5M2.s 			page 9


 331 000a 0321     		movs	r1, #3
 332 000c 1800     		movs	r0, r3
 333 000e FFF7FEFF 		bl	u8g_font_get_byte
 334 0012 0300     		movs	r3, r0
 335 0014 5BB2     		sxtb	r3, r3
 140:Drivers/u8glib/src/u8g_font.c **** }
 336              		.loc 1 140 0
 337 0016 1800     		movs	r0, r3
 338 0018 BD46     		mov	sp, r7
 339 001a 02B0     		add	sp, sp, #8
 340              		@ sp needed
 341 001c 80BD     		pop	{r7, pc}
 342              		.cfi_endproc
 343              	.LFE6:
 345              		.section	.text.u8g_font_GetBBXOffY,"ax",%progbits
 346              		.align	1
 347              		.syntax unified
 348              		.code	16
 349              		.thumb_func
 350              		.fpu softvfp
 352              	u8g_font_GetBBXOffY:
 353              	.LFB7:
 141:Drivers/u8glib/src/u8g_font.c **** 
 142:Drivers/u8glib/src/u8g_font.c **** static int8_t u8g_font_GetBBXOffY(const void *font)
 143:Drivers/u8glib/src/u8g_font.c **** {
 354              		.loc 1 143 0
 355              		.cfi_startproc
 356 0000 80B5     		push	{r7, lr}
 357              	.LCFI21:
 358              		.cfi_def_cfa_offset 8
 359              		.cfi_offset 7, -8
 360              		.cfi_offset 14, -4
 361 0002 82B0     		sub	sp, sp, #8
 362              	.LCFI22:
 363              		.cfi_def_cfa_offset 16
 364 0004 00AF     		add	r7, sp, #0
 365              	.LCFI23:
 366              		.cfi_def_cfa_register 7
 367 0006 7860     		str	r0, [r7, #4]
 144:Drivers/u8glib/src/u8g_font.c ****   return u8g_font_get_byte(font, 4);
 368              		.loc 1 144 0
 369 0008 7B68     		ldr	r3, [r7, #4]
 370 000a 0421     		movs	r1, #4
 371 000c 1800     		movs	r0, r3
 372 000e FFF7FEFF 		bl	u8g_font_get_byte
 373 0012 0300     		movs	r3, r0
 374 0014 5BB2     		sxtb	r3, r3
 145:Drivers/u8glib/src/u8g_font.c **** }
 375              		.loc 1 145 0
 376 0016 1800     		movs	r0, r3
 377 0018 BD46     		mov	sp, r7
 378 001a 02B0     		add	sp, sp, #8
 379              		@ sp needed
 380 001c 80BD     		pop	{r7, pc}
 381              		.cfi_endproc
 382              	.LFE7:
 384              		.section	.text.u8g_font_GetCapitalAHeight,"ax",%progbits
ARM GAS  /tmp/ccxKl5M2.s 			page 10


 385              		.align	1
 386              		.global	u8g_font_GetCapitalAHeight
 387              		.syntax unified
 388              		.code	16
 389              		.thumb_func
 390              		.fpu softvfp
 392              	u8g_font_GetCapitalAHeight:
 393              	.LFB8:
 146:Drivers/u8glib/src/u8g_font.c **** 
 147:Drivers/u8glib/src/u8g_font.c **** uint8_t u8g_font_GetCapitalAHeight(const void *font)
 148:Drivers/u8glib/src/u8g_font.c **** {
 394              		.loc 1 148 0
 395              		.cfi_startproc
 396 0000 80B5     		push	{r7, lr}
 397              	.LCFI24:
 398              		.cfi_def_cfa_offset 8
 399              		.cfi_offset 7, -8
 400              		.cfi_offset 14, -4
 401 0002 82B0     		sub	sp, sp, #8
 402              	.LCFI25:
 403              		.cfi_def_cfa_offset 16
 404 0004 00AF     		add	r7, sp, #0
 405              	.LCFI26:
 406              		.cfi_def_cfa_register 7
 407 0006 7860     		str	r0, [r7, #4]
 149:Drivers/u8glib/src/u8g_font.c ****   return u8g_font_get_byte(font, 5);
 408              		.loc 1 149 0
 409 0008 7B68     		ldr	r3, [r7, #4]
 410 000a 0521     		movs	r1, #5
 411 000c 1800     		movs	r0, r3
 412 000e FFF7FEFF 		bl	u8g_font_get_byte
 413 0012 0300     		movs	r3, r0
 150:Drivers/u8glib/src/u8g_font.c **** }
 414              		.loc 1 150 0
 415 0014 1800     		movs	r0, r3
 416 0016 BD46     		mov	sp, r7
 417 0018 02B0     		add	sp, sp, #8
 418              		@ sp needed
 419 001a 80BD     		pop	{r7, pc}
 420              		.cfi_endproc
 421              	.LFE8:
 423              		.section	.text.u8g_font_GetEncoding65Pos,"ax",%progbits
 424              		.align	1
 425              		.global	u8g_font_GetEncoding65Pos
 426              		.syntax unified
 427              		.code	16
 428              		.thumb_func
 429              		.fpu softvfp
 431              	u8g_font_GetEncoding65Pos:
 432              	.LFB9:
 151:Drivers/u8glib/src/u8g_font.c **** 
 152:Drivers/u8glib/src/u8g_font.c **** uint16_t u8g_font_GetEncoding65Pos(const void *font) U8G_NOINLINE;
 153:Drivers/u8glib/src/u8g_font.c **** uint16_t u8g_font_GetEncoding65Pos(const void *font)
 154:Drivers/u8glib/src/u8g_font.c **** {
 433              		.loc 1 154 0
 434              		.cfi_startproc
 435 0000 80B5     		push	{r7, lr}
ARM GAS  /tmp/ccxKl5M2.s 			page 11


 436              	.LCFI27:
 437              		.cfi_def_cfa_offset 8
 438              		.cfi_offset 7, -8
 439              		.cfi_offset 14, -4
 440 0002 82B0     		sub	sp, sp, #8
 441              	.LCFI28:
 442              		.cfi_def_cfa_offset 16
 443 0004 00AF     		add	r7, sp, #0
 444              	.LCFI29:
 445              		.cfi_def_cfa_register 7
 446 0006 7860     		str	r0, [r7, #4]
 155:Drivers/u8glib/src/u8g_font.c ****     return u8g_font_get_word(font, 6);
 447              		.loc 1 155 0
 448 0008 7B68     		ldr	r3, [r7, #4]
 449 000a 0621     		movs	r1, #6
 450 000c 1800     		movs	r0, r3
 451 000e FFF7FEFF 		bl	u8g_font_get_word
 452 0012 0300     		movs	r3, r0
 156:Drivers/u8glib/src/u8g_font.c **** }
 453              		.loc 1 156 0
 454 0014 1800     		movs	r0, r3
 455 0016 BD46     		mov	sp, r7
 456 0018 02B0     		add	sp, sp, #8
 457              		@ sp needed
 458 001a 80BD     		pop	{r7, pc}
 459              		.cfi_endproc
 460              	.LFE9:
 462              		.section	.text.u8g_font_GetEncoding97Pos,"ax",%progbits
 463              		.align	1
 464              		.global	u8g_font_GetEncoding97Pos
 465              		.syntax unified
 466              		.code	16
 467              		.thumb_func
 468              		.fpu softvfp
 470              	u8g_font_GetEncoding97Pos:
 471              	.LFB10:
 157:Drivers/u8glib/src/u8g_font.c **** 
 158:Drivers/u8glib/src/u8g_font.c **** uint16_t u8g_font_GetEncoding97Pos(const void *font) U8G_NOINLINE;
 159:Drivers/u8glib/src/u8g_font.c **** uint16_t u8g_font_GetEncoding97Pos(const void *font)
 160:Drivers/u8glib/src/u8g_font.c **** {
 472              		.loc 1 160 0
 473              		.cfi_startproc
 474 0000 80B5     		push	{r7, lr}
 475              	.LCFI30:
 476              		.cfi_def_cfa_offset 8
 477              		.cfi_offset 7, -8
 478              		.cfi_offset 14, -4
 479 0002 82B0     		sub	sp, sp, #8
 480              	.LCFI31:
 481              		.cfi_def_cfa_offset 16
 482 0004 00AF     		add	r7, sp, #0
 483              	.LCFI32:
 484              		.cfi_def_cfa_register 7
 485 0006 7860     		str	r0, [r7, #4]
 161:Drivers/u8glib/src/u8g_font.c ****     return u8g_font_get_word(font, 8);
 486              		.loc 1 161 0
 487 0008 7B68     		ldr	r3, [r7, #4]
ARM GAS  /tmp/ccxKl5M2.s 			page 12


 488 000a 0821     		movs	r1, #8
 489 000c 1800     		movs	r0, r3
 490 000e FFF7FEFF 		bl	u8g_font_get_word
 491 0012 0300     		movs	r3, r0
 162:Drivers/u8glib/src/u8g_font.c **** }
 492              		.loc 1 162 0
 493 0014 1800     		movs	r0, r3
 494 0016 BD46     		mov	sp, r7
 495 0018 02B0     		add	sp, sp, #8
 496              		@ sp needed
 497 001a 80BD     		pop	{r7, pc}
 498              		.cfi_endproc
 499              	.LFE10:
 501              		.section	.text.u8g_font_GetFontStartEncoding,"ax",%progbits
 502              		.align	1
 503              		.global	u8g_font_GetFontStartEncoding
 504              		.syntax unified
 505              		.code	16
 506              		.thumb_func
 507              		.fpu softvfp
 509              	u8g_font_GetFontStartEncoding:
 510              	.LFB11:
 163:Drivers/u8glib/src/u8g_font.c **** 
 164:Drivers/u8glib/src/u8g_font.c **** uint8_t u8g_font_GetFontStartEncoding(const void *font)
 165:Drivers/u8glib/src/u8g_font.c **** {
 511              		.loc 1 165 0
 512              		.cfi_startproc
 513 0000 80B5     		push	{r7, lr}
 514              	.LCFI33:
 515              		.cfi_def_cfa_offset 8
 516              		.cfi_offset 7, -8
 517              		.cfi_offset 14, -4
 518 0002 82B0     		sub	sp, sp, #8
 519              	.LCFI34:
 520              		.cfi_def_cfa_offset 16
 521 0004 00AF     		add	r7, sp, #0
 522              	.LCFI35:
 523              		.cfi_def_cfa_register 7
 524 0006 7860     		str	r0, [r7, #4]
 166:Drivers/u8glib/src/u8g_font.c ****   return u8g_font_get_byte(font, 10);
 525              		.loc 1 166 0
 526 0008 7B68     		ldr	r3, [r7, #4]
 527 000a 0A21     		movs	r1, #10
 528 000c 1800     		movs	r0, r3
 529 000e FFF7FEFF 		bl	u8g_font_get_byte
 530 0012 0300     		movs	r3, r0
 167:Drivers/u8glib/src/u8g_font.c **** }
 531              		.loc 1 167 0
 532 0014 1800     		movs	r0, r3
 533 0016 BD46     		mov	sp, r7
 534 0018 02B0     		add	sp, sp, #8
 535              		@ sp needed
 536 001a 80BD     		pop	{r7, pc}
 537              		.cfi_endproc
 538              	.LFE11:
 540              		.section	.text.u8g_font_GetFontEndEncoding,"ax",%progbits
 541              		.align	1
ARM GAS  /tmp/ccxKl5M2.s 			page 13


 542              		.global	u8g_font_GetFontEndEncoding
 543              		.syntax unified
 544              		.code	16
 545              		.thumb_func
 546              		.fpu softvfp
 548              	u8g_font_GetFontEndEncoding:
 549              	.LFB12:
 168:Drivers/u8glib/src/u8g_font.c **** 
 169:Drivers/u8glib/src/u8g_font.c **** uint8_t u8g_font_GetFontEndEncoding(const void *font)
 170:Drivers/u8glib/src/u8g_font.c **** {
 550              		.loc 1 170 0
 551              		.cfi_startproc
 552 0000 80B5     		push	{r7, lr}
 553              	.LCFI36:
 554              		.cfi_def_cfa_offset 8
 555              		.cfi_offset 7, -8
 556              		.cfi_offset 14, -4
 557 0002 82B0     		sub	sp, sp, #8
 558              	.LCFI37:
 559              		.cfi_def_cfa_offset 16
 560 0004 00AF     		add	r7, sp, #0
 561              	.LCFI38:
 562              		.cfi_def_cfa_register 7
 563 0006 7860     		str	r0, [r7, #4]
 171:Drivers/u8glib/src/u8g_font.c ****   return u8g_font_get_byte(font, 11);
 564              		.loc 1 171 0
 565 0008 7B68     		ldr	r3, [r7, #4]
 566 000a 0B21     		movs	r1, #11
 567 000c 1800     		movs	r0, r3
 568 000e FFF7FEFF 		bl	u8g_font_get_byte
 569 0012 0300     		movs	r3, r0
 172:Drivers/u8glib/src/u8g_font.c **** }
 570              		.loc 1 172 0
 571 0014 1800     		movs	r0, r3
 572 0016 BD46     		mov	sp, r7
 573 0018 02B0     		add	sp, sp, #8
 574              		@ sp needed
 575 001a 80BD     		pop	{r7, pc}
 576              		.cfi_endproc
 577              	.LFE12:
 579              		.section	.text.u8g_font_GetLowerGDescent,"ax",%progbits
 580              		.align	1
 581              		.global	u8g_font_GetLowerGDescent
 582              		.syntax unified
 583              		.code	16
 584              		.thumb_func
 585              		.fpu softvfp
 587              	u8g_font_GetLowerGDescent:
 588              	.LFB13:
 173:Drivers/u8glib/src/u8g_font.c **** 
 174:Drivers/u8glib/src/u8g_font.c **** int8_t u8g_font_GetLowerGDescent(const void *font)
 175:Drivers/u8glib/src/u8g_font.c **** {
 589              		.loc 1 175 0
 590              		.cfi_startproc
 591 0000 80B5     		push	{r7, lr}
 592              	.LCFI39:
 593              		.cfi_def_cfa_offset 8
ARM GAS  /tmp/ccxKl5M2.s 			page 14


 594              		.cfi_offset 7, -8
 595              		.cfi_offset 14, -4
 596 0002 82B0     		sub	sp, sp, #8
 597              	.LCFI40:
 598              		.cfi_def_cfa_offset 16
 599 0004 00AF     		add	r7, sp, #0
 600              	.LCFI41:
 601              		.cfi_def_cfa_register 7
 602 0006 7860     		str	r0, [r7, #4]
 176:Drivers/u8glib/src/u8g_font.c ****   return u8g_font_get_byte(font, 12);
 603              		.loc 1 176 0
 604 0008 7B68     		ldr	r3, [r7, #4]
 605 000a 0C21     		movs	r1, #12
 606 000c 1800     		movs	r0, r3
 607 000e FFF7FEFF 		bl	u8g_font_get_byte
 608 0012 0300     		movs	r3, r0
 609 0014 5BB2     		sxtb	r3, r3
 177:Drivers/u8glib/src/u8g_font.c **** }
 610              		.loc 1 177 0
 611 0016 1800     		movs	r0, r3
 612 0018 BD46     		mov	sp, r7
 613 001a 02B0     		add	sp, sp, #8
 614              		@ sp needed
 615 001c 80BD     		pop	{r7, pc}
 616              		.cfi_endproc
 617              	.LFE13:
 619              		.section	.text.u8g_font_GetFontAscent,"ax",%progbits
 620              		.align	1
 621              		.global	u8g_font_GetFontAscent
 622              		.syntax unified
 623              		.code	16
 624              		.thumb_func
 625              		.fpu softvfp
 627              	u8g_font_GetFontAscent:
 628              	.LFB14:
 178:Drivers/u8glib/src/u8g_font.c **** 
 179:Drivers/u8glib/src/u8g_font.c **** int8_t u8g_font_GetFontAscent(const void *font)
 180:Drivers/u8glib/src/u8g_font.c **** {
 629              		.loc 1 180 0
 630              		.cfi_startproc
 631 0000 80B5     		push	{r7, lr}
 632              	.LCFI42:
 633              		.cfi_def_cfa_offset 8
 634              		.cfi_offset 7, -8
 635              		.cfi_offset 14, -4
 636 0002 82B0     		sub	sp, sp, #8
 637              	.LCFI43:
 638              		.cfi_def_cfa_offset 16
 639 0004 00AF     		add	r7, sp, #0
 640              	.LCFI44:
 641              		.cfi_def_cfa_register 7
 642 0006 7860     		str	r0, [r7, #4]
 181:Drivers/u8glib/src/u8g_font.c ****   return u8g_font_get_byte(font, 13);
 643              		.loc 1 181 0
 644 0008 7B68     		ldr	r3, [r7, #4]
 645 000a 0D21     		movs	r1, #13
 646 000c 1800     		movs	r0, r3
ARM GAS  /tmp/ccxKl5M2.s 			page 15


 647 000e FFF7FEFF 		bl	u8g_font_get_byte
 648 0012 0300     		movs	r3, r0
 649 0014 5BB2     		sxtb	r3, r3
 182:Drivers/u8glib/src/u8g_font.c **** }
 650              		.loc 1 182 0
 651 0016 1800     		movs	r0, r3
 652 0018 BD46     		mov	sp, r7
 653 001a 02B0     		add	sp, sp, #8
 654              		@ sp needed
 655 001c 80BD     		pop	{r7, pc}
 656              		.cfi_endproc
 657              	.LFE14:
 659              		.section	.text.u8g_font_GetFontDescent,"ax",%progbits
 660              		.align	1
 661              		.global	u8g_font_GetFontDescent
 662              		.syntax unified
 663              		.code	16
 664              		.thumb_func
 665              		.fpu softvfp
 667              	u8g_font_GetFontDescent:
 668              	.LFB15:
 183:Drivers/u8glib/src/u8g_font.c **** 
 184:Drivers/u8glib/src/u8g_font.c **** int8_t u8g_font_GetFontDescent(const void *font)
 185:Drivers/u8glib/src/u8g_font.c **** {
 669              		.loc 1 185 0
 670              		.cfi_startproc
 671 0000 80B5     		push	{r7, lr}
 672              	.LCFI45:
 673              		.cfi_def_cfa_offset 8
 674              		.cfi_offset 7, -8
 675              		.cfi_offset 14, -4
 676 0002 82B0     		sub	sp, sp, #8
 677              	.LCFI46:
 678              		.cfi_def_cfa_offset 16
 679 0004 00AF     		add	r7, sp, #0
 680              	.LCFI47:
 681              		.cfi_def_cfa_register 7
 682 0006 7860     		str	r0, [r7, #4]
 186:Drivers/u8glib/src/u8g_font.c ****   return u8g_font_get_byte(font, 14);
 683              		.loc 1 186 0
 684 0008 7B68     		ldr	r3, [r7, #4]
 685 000a 0E21     		movs	r1, #14
 686 000c 1800     		movs	r0, r3
 687 000e FFF7FEFF 		bl	u8g_font_get_byte
 688 0012 0300     		movs	r3, r0
 689 0014 5BB2     		sxtb	r3, r3
 187:Drivers/u8glib/src/u8g_font.c **** }
 690              		.loc 1 187 0
 691 0016 1800     		movs	r0, r3
 692 0018 BD46     		mov	sp, r7
 693 001a 02B0     		add	sp, sp, #8
 694              		@ sp needed
 695 001c 80BD     		pop	{r7, pc}
 696              		.cfi_endproc
 697              	.LFE15:
 699              		.section	.text.u8g_font_GetFontXAscent,"ax",%progbits
 700              		.align	1
ARM GAS  /tmp/ccxKl5M2.s 			page 16


 701              		.global	u8g_font_GetFontXAscent
 702              		.syntax unified
 703              		.code	16
 704              		.thumb_func
 705              		.fpu softvfp
 707              	u8g_font_GetFontXAscent:
 708              	.LFB16:
 188:Drivers/u8glib/src/u8g_font.c **** 
 189:Drivers/u8glib/src/u8g_font.c **** int8_t u8g_font_GetFontXAscent(const void *font)
 190:Drivers/u8glib/src/u8g_font.c **** {
 709              		.loc 1 190 0
 710              		.cfi_startproc
 711 0000 80B5     		push	{r7, lr}
 712              	.LCFI48:
 713              		.cfi_def_cfa_offset 8
 714              		.cfi_offset 7, -8
 715              		.cfi_offset 14, -4
 716 0002 82B0     		sub	sp, sp, #8
 717              	.LCFI49:
 718              		.cfi_def_cfa_offset 16
 719 0004 00AF     		add	r7, sp, #0
 720              	.LCFI50:
 721              		.cfi_def_cfa_register 7
 722 0006 7860     		str	r0, [r7, #4]
 191:Drivers/u8glib/src/u8g_font.c ****   return u8g_font_get_byte(font, 15);
 723              		.loc 1 191 0
 724 0008 7B68     		ldr	r3, [r7, #4]
 725 000a 0F21     		movs	r1, #15
 726 000c 1800     		movs	r0, r3
 727 000e FFF7FEFF 		bl	u8g_font_get_byte
 728 0012 0300     		movs	r3, r0
 729 0014 5BB2     		sxtb	r3, r3
 192:Drivers/u8glib/src/u8g_font.c **** }
 730              		.loc 1 192 0
 731 0016 1800     		movs	r0, r3
 732 0018 BD46     		mov	sp, r7
 733 001a 02B0     		add	sp, sp, #8
 734              		@ sp needed
 735 001c 80BD     		pop	{r7, pc}
 736              		.cfi_endproc
 737              	.LFE16:
 739              		.section	.text.u8g_font_GetFontXDescent,"ax",%progbits
 740              		.align	1
 741              		.global	u8g_font_GetFontXDescent
 742              		.syntax unified
 743              		.code	16
 744              		.thumb_func
 745              		.fpu softvfp
 747              	u8g_font_GetFontXDescent:
 748              	.LFB17:
 193:Drivers/u8glib/src/u8g_font.c **** 
 194:Drivers/u8glib/src/u8g_font.c **** int8_t u8g_font_GetFontXDescent(const void *font)
 195:Drivers/u8glib/src/u8g_font.c **** {
 749              		.loc 1 195 0
 750              		.cfi_startproc
 751 0000 80B5     		push	{r7, lr}
 752              	.LCFI51:
ARM GAS  /tmp/ccxKl5M2.s 			page 17


 753              		.cfi_def_cfa_offset 8
 754              		.cfi_offset 7, -8
 755              		.cfi_offset 14, -4
 756 0002 82B0     		sub	sp, sp, #8
 757              	.LCFI52:
 758              		.cfi_def_cfa_offset 16
 759 0004 00AF     		add	r7, sp, #0
 760              	.LCFI53:
 761              		.cfi_def_cfa_register 7
 762 0006 7860     		str	r0, [r7, #4]
 196:Drivers/u8glib/src/u8g_font.c ****   return u8g_font_get_byte(font, 16);
 763              		.loc 1 196 0
 764 0008 7B68     		ldr	r3, [r7, #4]
 765 000a 1021     		movs	r1, #16
 766 000c 1800     		movs	r0, r3
 767 000e FFF7FEFF 		bl	u8g_font_get_byte
 768 0012 0300     		movs	r3, r0
 769 0014 5BB2     		sxtb	r3, r3
 197:Drivers/u8glib/src/u8g_font.c **** }
 770              		.loc 1 197 0
 771 0016 1800     		movs	r0, r3
 772 0018 BD46     		mov	sp, r7
 773 001a 02B0     		add	sp, sp, #8
 774              		@ sp needed
 775 001c 80BD     		pop	{r7, pc}
 776              		.cfi_endproc
 777              	.LFE17:
 779              		.section	.text.u8g_font_GetGlyphDataStart,"ax",%progbits
 780              		.align	1
 781              		.syntax unified
 782              		.code	16
 783              		.thumb_func
 784              		.fpu softvfp
 786              	u8g_font_GetGlyphDataStart:
 787              	.LFB18:
 198:Drivers/u8glib/src/u8g_font.c **** 
 199:Drivers/u8glib/src/u8g_font.c **** 
 200:Drivers/u8glib/src/u8g_font.c **** /* return the data start for a font and the glyph pointer */
 201:Drivers/u8glib/src/u8g_font.c **** static uint8_t *u8g_font_GetGlyphDataStart(const void *font, u8g_glyph_t g)
 202:Drivers/u8glib/src/u8g_font.c **** {
 788              		.loc 1 202 0
 789              		.cfi_startproc
 790 0000 80B5     		push	{r7, lr}
 791              	.LCFI54:
 792              		.cfi_def_cfa_offset 8
 793              		.cfi_offset 7, -8
 794              		.cfi_offset 14, -4
 795 0002 82B0     		sub	sp, sp, #8
 796              	.LCFI55:
 797              		.cfi_def_cfa_offset 16
 798 0004 00AF     		add	r7, sp, #0
 799              	.LCFI56:
 800              		.cfi_def_cfa_register 7
 801 0006 7860     		str	r0, [r7, #4]
 802 0008 3960     		str	r1, [r7]
 203:Drivers/u8glib/src/u8g_font.c ****   return ((u8g_fntpgm_uint8_t *)g) + u8g_font_GetFontGlyphStructureSize(font);
 803              		.loc 1 203 0
ARM GAS  /tmp/ccxKl5M2.s 			page 18


 804 000a 7B68     		ldr	r3, [r7, #4]
 805 000c 1800     		movs	r0, r3
 806 000e FFF7FEFF 		bl	u8g_font_GetFontGlyphStructureSize
 807 0012 0300     		movs	r3, r0
 808 0014 1A00     		movs	r2, r3
 809 0016 3B68     		ldr	r3, [r7]
 810 0018 9B18     		adds	r3, r3, r2
 204:Drivers/u8glib/src/u8g_font.c **** }
 811              		.loc 1 204 0
 812 001a 1800     		movs	r0, r3
 813 001c BD46     		mov	sp, r7
 814 001e 02B0     		add	sp, sp, #8
 815              		@ sp needed
 816 0020 80BD     		pop	{r7, pc}
 817              		.cfi_endproc
 818              	.LFE18:
 820              		.section	.text.u8g_font_GetSize,"ax",%progbits
 821              		.align	1
 822              		.global	u8g_font_GetSize
 823              		.syntax unified
 824              		.code	16
 825              		.thumb_func
 826              		.fpu softvfp
 828              	u8g_font_GetSize:
 829              	.LFB19:
 205:Drivers/u8glib/src/u8g_font.c **** 
 206:Drivers/u8glib/src/u8g_font.c **** /* calculate the overall length of the font, only used to create the picture for the google wiki */
 207:Drivers/u8glib/src/u8g_font.c **** size_t u8g_font_GetSize(const void *font)
 208:Drivers/u8glib/src/u8g_font.c **** {
 830              		.loc 1 208 0
 831              		.cfi_startproc
 832 0000 90B5     		push	{r4, r7, lr}
 833              	.LCFI57:
 834              		.cfi_def_cfa_offset 12
 835              		.cfi_offset 4, -12
 836              		.cfi_offset 7, -8
 837              		.cfi_offset 14, -4
 838 0002 87B0     		sub	sp, sp, #28
 839              	.LCFI58:
 840              		.cfi_def_cfa_offset 40
 841 0004 00AF     		add	r7, sp, #0
 842              	.LCFI59:
 843              		.cfi_def_cfa_register 7
 844 0006 7860     		str	r0, [r7, #4]
 209:Drivers/u8glib/src/u8g_font.c ****   uint8_t *p = (uint8_t *)(font);
 845              		.loc 1 209 0
 846 0008 7B68     		ldr	r3, [r7, #4]
 847 000a 7B61     		str	r3, [r7, #20]
 210:Drivers/u8glib/src/u8g_font.c ****   uint8_t font_format = u8g_font_GetFormat(font);
 848              		.loc 1 210 0
 849 000c 1123     		movs	r3, #17
 850 000e FC18     		adds	r4, r7, r3
 851 0010 7B68     		ldr	r3, [r7, #4]
 852 0012 1800     		movs	r0, r3
 853 0014 FFF7FEFF 		bl	u8g_font_GetFormat
 854 0018 0300     		movs	r3, r0
 855 001a 2370     		strb	r3, [r4]
ARM GAS  /tmp/ccxKl5M2.s 			page 19


 211:Drivers/u8glib/src/u8g_font.c ****   uint8_t data_structure_size = u8g_font_GetFontGlyphStructureSize(font);
 856              		.loc 1 211 0
 857 001c 1023     		movs	r3, #16
 858 001e FC18     		adds	r4, r7, r3
 859 0020 7B68     		ldr	r3, [r7, #4]
 860 0022 1800     		movs	r0, r3
 861 0024 FFF7FEFF 		bl	u8g_font_GetFontGlyphStructureSize
 862 0028 0300     		movs	r3, r0
 863 002a 2370     		strb	r3, [r4]
 212:Drivers/u8glib/src/u8g_font.c ****   uint8_t start, end;
 213:Drivers/u8glib/src/u8g_font.c ****   uint8_t i;
 214:Drivers/u8glib/src/u8g_font.c ****   uint8_t mask = 255;
 864              		.loc 1 214 0
 865 002c 1223     		movs	r3, #18
 866 002e FB18     		adds	r3, r7, r3
 867 0030 FF22     		movs	r2, #255
 868 0032 1A70     		strb	r2, [r3]
 215:Drivers/u8glib/src/u8g_font.c ****   
 216:Drivers/u8glib/src/u8g_font.c ****   start = u8g_font_GetFontStartEncoding(font);
 869              		.loc 1 216 0
 870 0034 0F23     		movs	r3, #15
 871 0036 FC18     		adds	r4, r7, r3
 872 0038 7B68     		ldr	r3, [r7, #4]
 873 003a 1800     		movs	r0, r3
 874 003c FFF7FEFF 		bl	u8g_font_GetFontStartEncoding
 875 0040 0300     		movs	r3, r0
 876 0042 2370     		strb	r3, [r4]
 217:Drivers/u8glib/src/u8g_font.c ****   end = u8g_font_GetFontEndEncoding(font);
 877              		.loc 1 217 0
 878 0044 0E23     		movs	r3, #14
 879 0046 FC18     		adds	r4, r7, r3
 880 0048 7B68     		ldr	r3, [r7, #4]
 881 004a 1800     		movs	r0, r3
 882 004c FFF7FEFF 		bl	u8g_font_GetFontEndEncoding
 883 0050 0300     		movs	r3, r0
 884 0052 2370     		strb	r3, [r4]
 218:Drivers/u8glib/src/u8g_font.c **** 
 219:Drivers/u8glib/src/u8g_font.c ****   if ( font_format == 1 )
 885              		.loc 1 219 0
 886 0054 1123     		movs	r3, #17
 887 0056 FB18     		adds	r3, r7, r3
 888 0058 1B78     		ldrb	r3, [r3]
 889 005a 012B     		cmp	r3, #1
 890 005c 03D1     		bne	.L45
 220:Drivers/u8glib/src/u8g_font.c ****     mask = 15;
 891              		.loc 1 220 0
 892 005e 1223     		movs	r3, #18
 893 0060 FB18     		adds	r3, r7, r3
 894 0062 0F22     		movs	r2, #15
 895 0064 1A70     		strb	r2, [r3]
 896              	.L45:
 221:Drivers/u8glib/src/u8g_font.c **** 
 222:Drivers/u8glib/src/u8g_font.c ****   p += U8G_FONT_DATA_STRUCT_SIZE;       /* skip font general information */  
 897              		.loc 1 222 0
 898 0066 7B69     		ldr	r3, [r7, #20]
 899 0068 1133     		adds	r3, r3, #17
 900 006a 7B61     		str	r3, [r7, #20]
ARM GAS  /tmp/ccxKl5M2.s 			page 20


 223:Drivers/u8glib/src/u8g_font.c **** 
 224:Drivers/u8glib/src/u8g_font.c ****   i = start;  
 901              		.loc 1 224 0
 902 006c 1323     		movs	r3, #19
 903 006e FB18     		adds	r3, r7, r3
 904 0070 0F22     		movs	r2, #15
 905 0072 BA18     		adds	r2, r7, r2
 906 0074 1278     		ldrb	r2, [r2]
 907 0076 1A70     		strb	r2, [r3]
 908              	.L50:
 225:Drivers/u8glib/src/u8g_font.c ****   for(;;)
 226:Drivers/u8glib/src/u8g_font.c ****   {
 227:Drivers/u8glib/src/u8g_font.c ****     if ( u8g_pgm_read((u8g_pgm_uint8_t *)(p)) == 255 )
 909              		.loc 1 227 0
 910 0078 7B69     		ldr	r3, [r7, #20]
 911 007a 1B78     		ldrb	r3, [r3]
 912 007c FF2B     		cmp	r3, #255
 913 007e 03D1     		bne	.L46
 228:Drivers/u8glib/src/u8g_font.c ****     {
 229:Drivers/u8glib/src/u8g_font.c ****       p += 1;
 914              		.loc 1 229 0
 915 0080 7B69     		ldr	r3, [r7, #20]
 916 0082 0133     		adds	r3, r3, #1
 917 0084 7B61     		str	r3, [r7, #20]
 918 0086 11E0     		b	.L47
 919              	.L46:
 230:Drivers/u8glib/src/u8g_font.c ****     }
 231:Drivers/u8glib/src/u8g_font.c ****     else
 232:Drivers/u8glib/src/u8g_font.c ****     {
 233:Drivers/u8glib/src/u8g_font.c ****       p += u8g_pgm_read( ((u8g_pgm_uint8_t *)(p)) + 2 ) & mask;
 920              		.loc 1 233 0
 921 0088 7B69     		ldr	r3, [r7, #20]
 922 008a 0233     		adds	r3, r3, #2
 923 008c 1B78     		ldrb	r3, [r3]
 924 008e 1222     		movs	r2, #18
 925 0090 BA18     		adds	r2, r7, r2
 926 0092 1278     		ldrb	r2, [r2]
 927 0094 1340     		ands	r3, r2
 928 0096 DBB2     		uxtb	r3, r3
 929 0098 1A00     		movs	r2, r3
 930 009a 7B69     		ldr	r3, [r7, #20]
 931 009c 9B18     		adds	r3, r3, r2
 932 009e 7B61     		str	r3, [r7, #20]
 234:Drivers/u8glib/src/u8g_font.c ****       p += data_structure_size;
 933              		.loc 1 234 0
 934 00a0 1023     		movs	r3, #16
 935 00a2 FB18     		adds	r3, r7, r3
 936 00a4 1B78     		ldrb	r3, [r3]
 937 00a6 7A69     		ldr	r2, [r7, #20]
 938 00a8 D318     		adds	r3, r2, r3
 939 00aa 7B61     		str	r3, [r7, #20]
 940              	.L47:
 235:Drivers/u8glib/src/u8g_font.c ****     }
 236:Drivers/u8glib/src/u8g_font.c ****     if ( i == end )
 941              		.loc 1 236 0
 942 00ac 1323     		movs	r3, #19
 943 00ae FA18     		adds	r2, r7, r3
ARM GAS  /tmp/ccxKl5M2.s 			page 21


 944 00b0 0E23     		movs	r3, #14
 945 00b2 FB18     		adds	r3, r7, r3
 946 00b4 1278     		ldrb	r2, [r2]
 947 00b6 1B78     		ldrb	r3, [r3]
 948 00b8 9A42     		cmp	r2, r3
 949 00ba 07D0     		beq	.L53
 237:Drivers/u8glib/src/u8g_font.c ****       break;
 238:Drivers/u8glib/src/u8g_font.c ****     i++;
 950              		.loc 1 238 0
 951 00bc 1323     		movs	r3, #19
 952 00be FB18     		adds	r3, r7, r3
 953 00c0 1A78     		ldrb	r2, [r3]
 954 00c2 1323     		movs	r3, #19
 955 00c4 FB18     		adds	r3, r7, r3
 956 00c6 0132     		adds	r2, r2, #1
 957 00c8 1A70     		strb	r2, [r3]
 227:Drivers/u8glib/src/u8g_font.c ****     {
 958              		.loc 1 227 0
 959 00ca D5E7     		b	.L50
 960              	.L53:
 237:Drivers/u8glib/src/u8g_font.c ****       break;
 961              		.loc 1 237 0
 962 00cc C046     		nop
 239:Drivers/u8glib/src/u8g_font.c ****   }
 240:Drivers/u8glib/src/u8g_font.c ****     
 241:Drivers/u8glib/src/u8g_font.c ****   return p - (uint8_t *)font;
 963              		.loc 1 241 0
 964 00ce 7A69     		ldr	r2, [r7, #20]
 965 00d0 7B68     		ldr	r3, [r7, #4]
 966 00d2 D31A     		subs	r3, r2, r3
 242:Drivers/u8glib/src/u8g_font.c **** }
 967              		.loc 1 242 0
 968 00d4 1800     		movs	r0, r3
 969 00d6 BD46     		mov	sp, r7
 970 00d8 07B0     		add	sp, sp, #28
 971              		@ sp needed
 972 00da 90BD     		pop	{r4, r7, pc}
 973              		.cfi_endproc
 974              	.LFE19:
 976              		.section	.text.u8g_GetFontBBXWidth,"ax",%progbits
 977              		.align	1
 978              		.global	u8g_GetFontBBXWidth
 979              		.syntax unified
 980              		.code	16
 981              		.thumb_func
 982              		.fpu softvfp
 984              	u8g_GetFontBBXWidth:
 985              	.LFB20:
 243:Drivers/u8glib/src/u8g_font.c **** 
 244:Drivers/u8glib/src/u8g_font.c **** /*========================================================================*/
 245:Drivers/u8glib/src/u8g_font.c **** /* u8g interface, font access */
 246:Drivers/u8glib/src/u8g_font.c **** 
 247:Drivers/u8glib/src/u8g_font.c **** uint8_t u8g_GetFontBBXWidth(u8g_t *u8g)
 248:Drivers/u8glib/src/u8g_font.c **** {
 986              		.loc 1 248 0
 987              		.cfi_startproc
 988 0000 80B5     		push	{r7, lr}
ARM GAS  /tmp/ccxKl5M2.s 			page 22


 989              	.LCFI60:
 990              		.cfi_def_cfa_offset 8
 991              		.cfi_offset 7, -8
 992              		.cfi_offset 14, -4
 993 0002 82B0     		sub	sp, sp, #8
 994              	.LCFI61:
 995              		.cfi_def_cfa_offset 16
 996 0004 00AF     		add	r7, sp, #0
 997              	.LCFI62:
 998              		.cfi_def_cfa_register 7
 999 0006 7860     		str	r0, [r7, #4]
 249:Drivers/u8glib/src/u8g_font.c ****   return u8g_font_GetBBXWidth(u8g->font);
 1000              		.loc 1 249 0
 1001 0008 7B68     		ldr	r3, [r7, #4]
 1002 000a 9B68     		ldr	r3, [r3, #8]
 1003 000c 1800     		movs	r0, r3
 1004 000e FFF7FEFF 		bl	u8g_font_GetBBXWidth
 1005 0012 0300     		movs	r3, r0
 250:Drivers/u8glib/src/u8g_font.c **** }
 1006              		.loc 1 250 0
 1007 0014 1800     		movs	r0, r3
 1008 0016 BD46     		mov	sp, r7
 1009 0018 02B0     		add	sp, sp, #8
 1010              		@ sp needed
 1011 001a 80BD     		pop	{r7, pc}
 1012              		.cfi_endproc
 1013              	.LFE20:
 1015              		.section	.text.u8g_GetFontBBXHeight,"ax",%progbits
 1016              		.align	1
 1017              		.global	u8g_GetFontBBXHeight
 1018              		.syntax unified
 1019              		.code	16
 1020              		.thumb_func
 1021              		.fpu softvfp
 1023              	u8g_GetFontBBXHeight:
 1024              	.LFB21:
 251:Drivers/u8glib/src/u8g_font.c **** 
 252:Drivers/u8glib/src/u8g_font.c **** uint8_t u8g_GetFontBBXHeight(u8g_t *u8g)
 253:Drivers/u8glib/src/u8g_font.c **** {
 1025              		.loc 1 253 0
 1026              		.cfi_startproc
 1027 0000 80B5     		push	{r7, lr}
 1028              	.LCFI63:
 1029              		.cfi_def_cfa_offset 8
 1030              		.cfi_offset 7, -8
 1031              		.cfi_offset 14, -4
 1032 0002 82B0     		sub	sp, sp, #8
 1033              	.LCFI64:
 1034              		.cfi_def_cfa_offset 16
 1035 0004 00AF     		add	r7, sp, #0
 1036              	.LCFI65:
 1037              		.cfi_def_cfa_register 7
 1038 0006 7860     		str	r0, [r7, #4]
 254:Drivers/u8glib/src/u8g_font.c ****   return u8g_font_GetBBXHeight(u8g->font);
 1039              		.loc 1 254 0
 1040 0008 7B68     		ldr	r3, [r7, #4]
 1041 000a 9B68     		ldr	r3, [r3, #8]
ARM GAS  /tmp/ccxKl5M2.s 			page 23


 1042 000c 1800     		movs	r0, r3
 1043 000e FFF7FEFF 		bl	u8g_font_GetBBXHeight
 1044 0012 0300     		movs	r3, r0
 255:Drivers/u8glib/src/u8g_font.c **** }
 1045              		.loc 1 255 0
 1046 0014 1800     		movs	r0, r3
 1047 0016 BD46     		mov	sp, r7
 1048 0018 02B0     		add	sp, sp, #8
 1049              		@ sp needed
 1050 001a 80BD     		pop	{r7, pc}
 1051              		.cfi_endproc
 1052              	.LFE21:
 1054              		.section	.text.u8g_GetFontBBXOffX,"ax",%progbits
 1055              		.align	1
 1056              		.global	u8g_GetFontBBXOffX
 1057              		.syntax unified
 1058              		.code	16
 1059              		.thumb_func
 1060              		.fpu softvfp
 1062              	u8g_GetFontBBXOffX:
 1063              	.LFB22:
 256:Drivers/u8glib/src/u8g_font.c **** 
 257:Drivers/u8glib/src/u8g_font.c **** int8_t u8g_GetFontBBXOffX(u8g_t *u8g) U8G_NOINLINE;
 258:Drivers/u8glib/src/u8g_font.c **** int8_t u8g_GetFontBBXOffX(u8g_t *u8g)
 259:Drivers/u8glib/src/u8g_font.c **** {
 1064              		.loc 1 259 0
 1065              		.cfi_startproc
 1066 0000 80B5     		push	{r7, lr}
 1067              	.LCFI66:
 1068              		.cfi_def_cfa_offset 8
 1069              		.cfi_offset 7, -8
 1070              		.cfi_offset 14, -4
 1071 0002 82B0     		sub	sp, sp, #8
 1072              	.LCFI67:
 1073              		.cfi_def_cfa_offset 16
 1074 0004 00AF     		add	r7, sp, #0
 1075              	.LCFI68:
 1076              		.cfi_def_cfa_register 7
 1077 0006 7860     		str	r0, [r7, #4]
 260:Drivers/u8glib/src/u8g_font.c ****   return u8g_font_GetBBXOffX(u8g->font);
 1078              		.loc 1 260 0
 1079 0008 7B68     		ldr	r3, [r7, #4]
 1080 000a 9B68     		ldr	r3, [r3, #8]
 1081 000c 1800     		movs	r0, r3
 1082 000e FFF7FEFF 		bl	u8g_font_GetBBXOffX
 1083 0012 0300     		movs	r3, r0
 261:Drivers/u8glib/src/u8g_font.c **** }
 1084              		.loc 1 261 0
 1085 0014 1800     		movs	r0, r3
 1086 0016 BD46     		mov	sp, r7
 1087 0018 02B0     		add	sp, sp, #8
 1088              		@ sp needed
 1089 001a 80BD     		pop	{r7, pc}
 1090              		.cfi_endproc
 1091              	.LFE22:
 1093              		.section	.text.u8g_GetFontBBXOffY,"ax",%progbits
 1094              		.align	1
ARM GAS  /tmp/ccxKl5M2.s 			page 24


 1095              		.global	u8g_GetFontBBXOffY
 1096              		.syntax unified
 1097              		.code	16
 1098              		.thumb_func
 1099              		.fpu softvfp
 1101              	u8g_GetFontBBXOffY:
 1102              	.LFB23:
 262:Drivers/u8glib/src/u8g_font.c **** 
 263:Drivers/u8glib/src/u8g_font.c **** int8_t u8g_GetFontBBXOffY(u8g_t *u8g) U8G_NOINLINE;
 264:Drivers/u8glib/src/u8g_font.c **** int8_t u8g_GetFontBBXOffY(u8g_t *u8g)
 265:Drivers/u8glib/src/u8g_font.c **** {
 1103              		.loc 1 265 0
 1104              		.cfi_startproc
 1105 0000 80B5     		push	{r7, lr}
 1106              	.LCFI69:
 1107              		.cfi_def_cfa_offset 8
 1108              		.cfi_offset 7, -8
 1109              		.cfi_offset 14, -4
 1110 0002 82B0     		sub	sp, sp, #8
 1111              	.LCFI70:
 1112              		.cfi_def_cfa_offset 16
 1113 0004 00AF     		add	r7, sp, #0
 1114              	.LCFI71:
 1115              		.cfi_def_cfa_register 7
 1116 0006 7860     		str	r0, [r7, #4]
 266:Drivers/u8glib/src/u8g_font.c ****   return u8g_font_GetBBXOffY(u8g->font);
 1117              		.loc 1 266 0
 1118 0008 7B68     		ldr	r3, [r7, #4]
 1119 000a 9B68     		ldr	r3, [r3, #8]
 1120 000c 1800     		movs	r0, r3
 1121 000e FFF7FEFF 		bl	u8g_font_GetBBXOffY
 1122 0012 0300     		movs	r3, r0
 267:Drivers/u8glib/src/u8g_font.c **** }
 1123              		.loc 1 267 0
 1124 0014 1800     		movs	r0, r3
 1125 0016 BD46     		mov	sp, r7
 1126 0018 02B0     		add	sp, sp, #8
 1127              		@ sp needed
 1128 001a 80BD     		pop	{r7, pc}
 1129              		.cfi_endproc
 1130              	.LFE23:
 1132              		.section	.text.u8g_GetFontCapitalAHeight,"ax",%progbits
 1133              		.align	1
 1134              		.global	u8g_GetFontCapitalAHeight
 1135              		.syntax unified
 1136              		.code	16
 1137              		.thumb_func
 1138              		.fpu softvfp
 1140              	u8g_GetFontCapitalAHeight:
 1141              	.LFB24:
 268:Drivers/u8glib/src/u8g_font.c **** 
 269:Drivers/u8glib/src/u8g_font.c **** uint8_t u8g_GetFontCapitalAHeight(u8g_t *u8g) U8G_NOINLINE; 
 270:Drivers/u8glib/src/u8g_font.c **** uint8_t u8g_GetFontCapitalAHeight(u8g_t *u8g)
 271:Drivers/u8glib/src/u8g_font.c **** {
 1142              		.loc 1 271 0
 1143              		.cfi_startproc
 1144 0000 80B5     		push	{r7, lr}
ARM GAS  /tmp/ccxKl5M2.s 			page 25


 1145              	.LCFI72:
 1146              		.cfi_def_cfa_offset 8
 1147              		.cfi_offset 7, -8
 1148              		.cfi_offset 14, -4
 1149 0002 82B0     		sub	sp, sp, #8
 1150              	.LCFI73:
 1151              		.cfi_def_cfa_offset 16
 1152 0004 00AF     		add	r7, sp, #0
 1153              	.LCFI74:
 1154              		.cfi_def_cfa_register 7
 1155 0006 7860     		str	r0, [r7, #4]
 272:Drivers/u8glib/src/u8g_font.c ****   return u8g_font_GetCapitalAHeight(u8g->font);
 1156              		.loc 1 272 0
 1157 0008 7B68     		ldr	r3, [r7, #4]
 1158 000a 9B68     		ldr	r3, [r3, #8]
 1159 000c 1800     		movs	r0, r3
 1160 000e FFF7FEFF 		bl	u8g_font_GetCapitalAHeight
 1161 0012 0300     		movs	r3, r0
 273:Drivers/u8glib/src/u8g_font.c **** }
 1162              		.loc 1 273 0
 1163 0014 1800     		movs	r0, r3
 1164 0016 BD46     		mov	sp, r7
 1165 0018 02B0     		add	sp, sp, #8
 1166              		@ sp needed
 1167 001a 80BD     		pop	{r7, pc}
 1168              		.cfi_endproc
 1169              	.LFE24:
 1171              		.section	.text.u8g_CopyGlyphDataToCache,"ax",%progbits
 1172              		.align	1
 1173              		.syntax unified
 1174              		.code	16
 1175              		.thumb_func
 1176              		.fpu softvfp
 1178              	u8g_CopyGlyphDataToCache:
 1179              	.LFB25:
 274:Drivers/u8glib/src/u8g_font.c **** 
 275:Drivers/u8glib/src/u8g_font.c **** /*========================================================================*/
 276:Drivers/u8glib/src/u8g_font.c **** /* glyph handling */
 277:Drivers/u8glib/src/u8g_font.c **** 
 278:Drivers/u8glib/src/u8g_font.c **** static void u8g_CopyGlyphDataToCache(u8g_t *u8g, u8g_glyph_t g)
 279:Drivers/u8glib/src/u8g_font.c **** {
 1180              		.loc 1 279 0
 1181              		.cfi_startproc
 1182 0000 80B5     		push	{r7, lr}
 1183              	.LCFI75:
 1184              		.cfi_def_cfa_offset 8
 1185              		.cfi_offset 7, -8
 1186              		.cfi_offset 14, -4
 1187 0002 84B0     		sub	sp, sp, #16
 1188              	.LCFI76:
 1189              		.cfi_def_cfa_offset 24
 1190 0004 00AF     		add	r7, sp, #0
 1191              	.LCFI77:
 1192              		.cfi_def_cfa_register 7
 1193 0006 7860     		str	r0, [r7, #4]
 1194 0008 3960     		str	r1, [r7]
 280:Drivers/u8glib/src/u8g_font.c ****   uint8_t tmp;
ARM GAS  /tmp/ccxKl5M2.s 			page 26


 281:Drivers/u8glib/src/u8g_font.c ****   switch( u8g_font_GetFormat(u8g->font) )
 1195              		.loc 1 281 0
 1196 000a 7B68     		ldr	r3, [r7, #4]
 1197 000c 9B68     		ldr	r3, [r3, #8]
 1198 000e 1800     		movs	r0, r3
 1199 0010 FFF7FEFF 		bl	u8g_font_GetFormat
 1200 0014 031E     		subs	r3, r0, #0
 1201 0016 01D0     		beq	.L66
 1202 0018 022B     		cmp	r3, #2
 1203 001a 1BD1     		bne	.L68
 1204              	.L66:
 282:Drivers/u8glib/src/u8g_font.c ****   {
 283:Drivers/u8glib/src/u8g_font.c ****     case 0:
 284:Drivers/u8glib/src/u8g_font.c ****     case 2:
 285:Drivers/u8glib/src/u8g_font.c ****   /*
 286:Drivers/u8glib/src/u8g_font.c ****     format 0
 287:Drivers/u8glib/src/u8g_font.c ****     glyph information 
 288:Drivers/u8glib/src/u8g_font.c ****     offset
 289:Drivers/u8glib/src/u8g_font.c ****     0             BBX width                                       unsigned
 290:Drivers/u8glib/src/u8g_font.c ****     1             BBX height                                      unsigned
 291:Drivers/u8glib/src/u8g_font.c ****     2             data size                                          unsigned    (BBX width + 7)/8 
 292:Drivers/u8glib/src/u8g_font.c ****     3             DWIDTH                                          signed
 293:Drivers/u8glib/src/u8g_font.c ****     4             BBX xoffset                                    signed
 294:Drivers/u8glib/src/u8g_font.c ****     5             BBX yoffset                                    signed
 295:Drivers/u8glib/src/u8g_font.c ****   byte 0 == 255 indicates empty glyph
 296:Drivers/u8glib/src/u8g_font.c ****   */
 297:Drivers/u8glib/src/u8g_font.c ****       u8g->glyph_width =  u8g_pgm_read( ((u8g_pgm_uint8_t *)g) + 0 );
 1205              		.loc 1 297 0
 1206 001c 3B68     		ldr	r3, [r7]
 1207 001e 1A78     		ldrb	r2, [r3]
 1208 0020 7B68     		ldr	r3, [r7, #4]
 1209 0022 DA77     		strb	r2, [r3, #31]
 298:Drivers/u8glib/src/u8g_font.c ****       u8g->glyph_height =  u8g_pgm_read( ((u8g_pgm_uint8_t *)g) + 1 );
 1210              		.loc 1 298 0
 1211 0024 3B68     		ldr	r3, [r7]
 1212 0026 5978     		ldrb	r1, [r3, #1]
 1213 0028 7B68     		ldr	r3, [r7, #4]
 1214 002a 2022     		movs	r2, #32
 1215 002c 9954     		strb	r1, [r3, r2]
 299:Drivers/u8glib/src/u8g_font.c ****       u8g->glyph_dx =  u8g_pgm_read( ((u8g_pgm_uint8_t *)g) + 3 );
 1216              		.loc 1 299 0
 1217 002e 3B68     		ldr	r3, [r7]
 1218 0030 0333     		adds	r3, r3, #3
 1219 0032 1B78     		ldrb	r3, [r3]
 1220 0034 5AB2     		sxtb	r2, r3
 1221 0036 7B68     		ldr	r3, [r7, #4]
 1222 0038 1A77     		strb	r2, [r3, #28]
 300:Drivers/u8glib/src/u8g_font.c ****       u8g->glyph_x =  u8g_pgm_read( ((u8g_pgm_uint8_t *)g) + 4 );
 1223              		.loc 1 300 0
 1224 003a 3B68     		ldr	r3, [r7]
 1225 003c 0433     		adds	r3, r3, #4
 1226 003e 1B78     		ldrb	r3, [r3]
 1227 0040 5AB2     		sxtb	r2, r3
 1228 0042 7B68     		ldr	r3, [r7, #4]
 1229 0044 5A77     		strb	r2, [r3, #29]
 301:Drivers/u8glib/src/u8g_font.c ****       u8g->glyph_y =  u8g_pgm_read( ((u8g_pgm_uint8_t *)g) + 5 );
 1230              		.loc 1 301 0
ARM GAS  /tmp/ccxKl5M2.s 			page 27


 1231 0046 3B68     		ldr	r3, [r7]
 1232 0048 0533     		adds	r3, r3, #5
 1233 004a 1B78     		ldrb	r3, [r3]
 1234 004c 5AB2     		sxtb	r2, r3
 1235 004e 7B68     		ldr	r3, [r7, #4]
 1236 0050 9A77     		strb	r2, [r3, #30]
 302:Drivers/u8glib/src/u8g_font.c ****       break;
 1237              		.loc 1 302 0
 1238 0052 50E0     		b	.L67
 1239              	.L68:
 303:Drivers/u8glib/src/u8g_font.c ****     case 1:
 304:Drivers/u8glib/src/u8g_font.c ****     default:
 305:Drivers/u8glib/src/u8g_font.c ****       /*
 306:Drivers/u8glib/src/u8g_font.c **** format 1
 307:Drivers/u8glib/src/u8g_font.c ****   0             BBX xoffset                                    signed   --> upper 4 Bit
 308:Drivers/u8glib/src/u8g_font.c ****   0             BBX yoffset                                    signed --> lower 4 Bit
 309:Drivers/u8glib/src/u8g_font.c ****   1             BBX width                                       unsigned --> upper 4 Bit
 310:Drivers/u8glib/src/u8g_font.c ****   1             BBX height                                      unsigned --> lower 4 Bit
 311:Drivers/u8glib/src/u8g_font.c ****   2             data size                                           unsigned -(BBX width + 7)/8 * B
 312:Drivers/u8glib/src/u8g_font.c ****   2             DWIDTH                                          signed --> upper  4 Bit
 313:Drivers/u8glib/src/u8g_font.c ****   byte 0 == 255 indicates empty glyph
 314:Drivers/u8glib/src/u8g_font.c ****       */
 315:Drivers/u8glib/src/u8g_font.c ****     
 316:Drivers/u8glib/src/u8g_font.c ****       tmp = u8g_pgm_read( ((u8g_pgm_uint8_t *)g) + 0 );
 1240              		.loc 1 316 0
 1241 0054 0F23     		movs	r3, #15
 1242 0056 FB18     		adds	r3, r7, r3
 1243 0058 3A68     		ldr	r2, [r7]
 1244 005a 1278     		ldrb	r2, [r2]
 1245 005c 1A70     		strb	r2, [r3]
 317:Drivers/u8glib/src/u8g_font.c ****       u8g->glyph_y =  tmp & 15;
 1246              		.loc 1 317 0
 1247 005e 0F23     		movs	r3, #15
 1248 0060 FB18     		adds	r3, r7, r3
 1249 0062 1B78     		ldrb	r3, [r3]
 1250 0064 5BB2     		sxtb	r3, r3
 1251 0066 0F22     		movs	r2, #15
 1252 0068 1340     		ands	r3, r2
 1253 006a 5AB2     		sxtb	r2, r3
 1254 006c 7B68     		ldr	r3, [r7, #4]
 1255 006e 9A77     		strb	r2, [r3, #30]
 318:Drivers/u8glib/src/u8g_font.c ****       u8g->glyph_y-=2;
 1256              		.loc 1 318 0
 1257 0070 7B68     		ldr	r3, [r7, #4]
 1258 0072 9B7F     		ldrb	r3, [r3, #30]
 1259 0074 5BB2     		sxtb	r3, r3
 1260 0076 DBB2     		uxtb	r3, r3
 1261 0078 023B     		subs	r3, r3, #2
 1262 007a DBB2     		uxtb	r3, r3
 1263 007c 5AB2     		sxtb	r2, r3
 1264 007e 7B68     		ldr	r3, [r7, #4]
 1265 0080 9A77     		strb	r2, [r3, #30]
 319:Drivers/u8glib/src/u8g_font.c ****       tmp >>= 4;
 1266              		.loc 1 319 0
 1267 0082 0F23     		movs	r3, #15
 1268 0084 FB18     		adds	r3, r7, r3
 1269 0086 0F22     		movs	r2, #15
ARM GAS  /tmp/ccxKl5M2.s 			page 28


 1270 0088 BA18     		adds	r2, r7, r2
 1271 008a 1278     		ldrb	r2, [r2]
 1272 008c 1209     		lsrs	r2, r2, #4
 1273 008e 1A70     		strb	r2, [r3]
 320:Drivers/u8glib/src/u8g_font.c ****       u8g->glyph_x =  tmp;
 1274              		.loc 1 320 0
 1275 0090 0F23     		movs	r3, #15
 1276 0092 FB18     		adds	r3, r7, r3
 1277 0094 0022     		movs	r2, #0
 1278 0096 9A56     		ldrsb	r2, [r3, r2]
 1279 0098 7B68     		ldr	r3, [r7, #4]
 1280 009a 5A77     		strb	r2, [r3, #29]
 321:Drivers/u8glib/src/u8g_font.c ****     
 322:Drivers/u8glib/src/u8g_font.c ****       tmp = u8g_pgm_read( ((u8g_pgm_uint8_t *)g) + 1 );
 1281              		.loc 1 322 0
 1282 009c 0F23     		movs	r3, #15
 1283 009e FB18     		adds	r3, r7, r3
 1284 00a0 3A68     		ldr	r2, [r7]
 1285 00a2 5278     		ldrb	r2, [r2, #1]
 1286 00a4 1A70     		strb	r2, [r3]
 323:Drivers/u8glib/src/u8g_font.c ****       u8g->glyph_height =  tmp & 15;
 1287              		.loc 1 323 0
 1288 00a6 0F23     		movs	r3, #15
 1289 00a8 FB18     		adds	r3, r7, r3
 1290 00aa 1B78     		ldrb	r3, [r3]
 1291 00ac 0F22     		movs	r2, #15
 1292 00ae 1340     		ands	r3, r2
 1293 00b0 D9B2     		uxtb	r1, r3
 1294 00b2 7B68     		ldr	r3, [r7, #4]
 1295 00b4 2022     		movs	r2, #32
 1296 00b6 9954     		strb	r1, [r3, r2]
 324:Drivers/u8glib/src/u8g_font.c ****       tmp >>= 4;
 1297              		.loc 1 324 0
 1298 00b8 0F23     		movs	r3, #15
 1299 00ba FB18     		adds	r3, r7, r3
 1300 00bc 0F22     		movs	r2, #15
 1301 00be BA18     		adds	r2, r7, r2
 1302 00c0 1278     		ldrb	r2, [r2]
 1303 00c2 1209     		lsrs	r2, r2, #4
 1304 00c4 1A70     		strb	r2, [r3]
 325:Drivers/u8glib/src/u8g_font.c ****       u8g->glyph_width =  tmp;
 1305              		.loc 1 325 0
 1306 00c6 7B68     		ldr	r3, [r7, #4]
 1307 00c8 0F22     		movs	r2, #15
 1308 00ca BA18     		adds	r2, r7, r2
 1309 00cc 1278     		ldrb	r2, [r2]
 1310 00ce DA77     		strb	r2, [r3, #31]
 326:Drivers/u8glib/src/u8g_font.c ****       
 327:Drivers/u8glib/src/u8g_font.c ****       tmp = u8g_pgm_read( ((u8g_pgm_uint8_t *)g) + 2 );
 1311              		.loc 1 327 0
 1312 00d0 0F23     		movs	r3, #15
 1313 00d2 FB18     		adds	r3, r7, r3
 1314 00d4 3A68     		ldr	r2, [r7]
 1315 00d6 9278     		ldrb	r2, [r2, #2]
 1316 00d8 1A70     		strb	r2, [r3]
 328:Drivers/u8glib/src/u8g_font.c ****       tmp >>= 4;
 1317              		.loc 1 328 0
ARM GAS  /tmp/ccxKl5M2.s 			page 29


 1318 00da 0F23     		movs	r3, #15
 1319 00dc FB18     		adds	r3, r7, r3
 1320 00de 0F22     		movs	r2, #15
 1321 00e0 BA18     		adds	r2, r7, r2
 1322 00e2 1278     		ldrb	r2, [r2]
 1323 00e4 1209     		lsrs	r2, r2, #4
 1324 00e6 1A70     		strb	r2, [r3]
 329:Drivers/u8glib/src/u8g_font.c ****       u8g->glyph_dx = tmp;
 1325              		.loc 1 329 0
 1326 00e8 0F23     		movs	r3, #15
 1327 00ea FB18     		adds	r3, r7, r3
 1328 00ec 0022     		movs	r2, #0
 1329 00ee 9A56     		ldrsb	r2, [r3, r2]
 1330 00f0 7B68     		ldr	r3, [r7, #4]
 1331 00f2 1A77     		strb	r2, [r3, #28]
 330:Drivers/u8glib/src/u8g_font.c ****     
 331:Drivers/u8glib/src/u8g_font.c ****       
 332:Drivers/u8glib/src/u8g_font.c ****       break;
 1332              		.loc 1 332 0
 1333 00f4 C046     		nop
 1334              	.L67:
 333:Drivers/u8glib/src/u8g_font.c ****   }
 334:Drivers/u8glib/src/u8g_font.c **** }
 1335              		.loc 1 334 0
 1336 00f6 C046     		nop
 1337 00f8 BD46     		mov	sp, r7
 1338 00fa 04B0     		add	sp, sp, #16
 1339              		@ sp needed
 1340 00fc 80BD     		pop	{r7, pc}
 1341              		.cfi_endproc
 1342              	.LFE25:
 1344              		.section	.text.u8g_FillEmptyGlyphCache,"ax",%progbits
 1345              		.align	1
 1346              		.syntax unified
 1347              		.code	16
 1348              		.thumb_func
 1349              		.fpu softvfp
 1351              	u8g_FillEmptyGlyphCache:
 1352              	.LFB26:
 335:Drivers/u8glib/src/u8g_font.c **** 
 336:Drivers/u8glib/src/u8g_font.c **** //void u8g_FillEmptyGlyphCache(u8g_t *u8g) U8G_NOINLINE;
 337:Drivers/u8glib/src/u8g_font.c **** static void u8g_FillEmptyGlyphCache(u8g_t *u8g)
 338:Drivers/u8glib/src/u8g_font.c **** {
 1353              		.loc 1 338 0
 1354              		.cfi_startproc
 1355 0000 80B5     		push	{r7, lr}
 1356              	.LCFI78:
 1357              		.cfi_def_cfa_offset 8
 1358              		.cfi_offset 7, -8
 1359              		.cfi_offset 14, -4
 1360 0002 82B0     		sub	sp, sp, #8
 1361              	.LCFI79:
 1362              		.cfi_def_cfa_offset 16
 1363 0004 00AF     		add	r7, sp, #0
 1364              	.LCFI80:
 1365              		.cfi_def_cfa_register 7
 1366 0006 7860     		str	r0, [r7, #4]
ARM GAS  /tmp/ccxKl5M2.s 			page 30


 339:Drivers/u8glib/src/u8g_font.c ****   u8g->glyph_dx = 0;
 1367              		.loc 1 339 0
 1368 0008 7B68     		ldr	r3, [r7, #4]
 1369 000a 0022     		movs	r2, #0
 1370 000c 1A77     		strb	r2, [r3, #28]
 340:Drivers/u8glib/src/u8g_font.c ****   u8g->glyph_width = 0;
 1371              		.loc 1 340 0
 1372 000e 7B68     		ldr	r3, [r7, #4]
 1373 0010 0022     		movs	r2, #0
 1374 0012 DA77     		strb	r2, [r3, #31]
 341:Drivers/u8glib/src/u8g_font.c ****   u8g->glyph_height = 0;
 1375              		.loc 1 341 0
 1376 0014 7B68     		ldr	r3, [r7, #4]
 1377 0016 2022     		movs	r2, #32
 1378 0018 0021     		movs	r1, #0
 1379 001a 9954     		strb	r1, [r3, r2]
 342:Drivers/u8glib/src/u8g_font.c ****   u8g->glyph_x = 0;
 1380              		.loc 1 342 0
 1381 001c 7B68     		ldr	r3, [r7, #4]
 1382 001e 0022     		movs	r2, #0
 1383 0020 5A77     		strb	r2, [r3, #29]
 343:Drivers/u8glib/src/u8g_font.c ****   u8g->glyph_y = 0;
 1384              		.loc 1 343 0
 1385 0022 7B68     		ldr	r3, [r7, #4]
 1386 0024 0022     		movs	r2, #0
 1387 0026 9A77     		strb	r2, [r3, #30]
 344:Drivers/u8glib/src/u8g_font.c **** }
 1388              		.loc 1 344 0
 1389 0028 C046     		nop
 1390 002a BD46     		mov	sp, r7
 1391 002c 02B0     		add	sp, sp, #8
 1392              		@ sp needed
 1393 002e 80BD     		pop	{r7, pc}
 1394              		.cfi_endproc
 1395              	.LFE26:
 1397              		.section	.text.u8g_GetGlyph,"ax",%progbits
 1398              		.align	1
 1399              		.global	u8g_GetGlyph
 1400              		.syntax unified
 1401              		.code	16
 1402              		.thumb_func
 1403              		.fpu softvfp
 1405              	u8g_GetGlyph:
 1406              	.LFB27:
 345:Drivers/u8glib/src/u8g_font.c **** 
 346:Drivers/u8glib/src/u8g_font.c **** /*
 347:Drivers/u8glib/src/u8g_font.c ****   Find (with some speed optimization) and return a pointer to the glyph data structure
 348:Drivers/u8glib/src/u8g_font.c ****   Also uncompress (format 1) and copy the content of the data structure to the u8g structure
 349:Drivers/u8glib/src/u8g_font.c **** */
 350:Drivers/u8glib/src/u8g_font.c **** u8g_glyph_t u8g_GetGlyph(u8g_t *u8g, uint8_t requested_encoding)
 351:Drivers/u8glib/src/u8g_font.c **** {
 1407              		.loc 1 351 0
 1408              		.cfi_startproc
 1409 0000 90B5     		push	{r4, r7, lr}
 1410              	.LCFI81:
 1411              		.cfi_def_cfa_offset 12
 1412              		.cfi_offset 4, -12
ARM GAS  /tmp/ccxKl5M2.s 			page 31


 1413              		.cfi_offset 7, -8
 1414              		.cfi_offset 14, -4
 1415 0002 87B0     		sub	sp, sp, #28
 1416              	.LCFI82:
 1417              		.cfi_def_cfa_offset 40
 1418 0004 00AF     		add	r7, sp, #0
 1419              	.LCFI83:
 1420              		.cfi_def_cfa_register 7
 1421 0006 7860     		str	r0, [r7, #4]
 1422 0008 0A00     		movs	r2, r1
 1423 000a FB1C     		adds	r3, r7, #3
 1424 000c 1A70     		strb	r2, [r3]
 352:Drivers/u8glib/src/u8g_font.c ****   uint8_t *p = (uint8_t *)(u8g->font);
 1425              		.loc 1 352 0
 1426 000e 7B68     		ldr	r3, [r7, #4]
 1427 0010 9B68     		ldr	r3, [r3, #8]
 1428 0012 7B61     		str	r3, [r7, #20]
 353:Drivers/u8glib/src/u8g_font.c ****   uint8_t font_format = u8g_font_GetFormat(u8g->font);
 1429              		.loc 1 353 0
 1430 0014 7B68     		ldr	r3, [r7, #4]
 1431 0016 9B68     		ldr	r3, [r3, #8]
 1432 0018 1022     		movs	r2, #16
 1433 001a BC18     		adds	r4, r7, r2
 1434 001c 1800     		movs	r0, r3
 1435 001e FFF7FEFF 		bl	u8g_font_GetFormat
 1436 0022 0300     		movs	r3, r0
 1437 0024 2370     		strb	r3, [r4]
 354:Drivers/u8glib/src/u8g_font.c ****   uint8_t data_structure_size = u8g_font_GetFontGlyphStructureSize(u8g->font);
 1438              		.loc 1 354 0
 1439 0026 7B68     		ldr	r3, [r7, #4]
 1440 0028 9B68     		ldr	r3, [r3, #8]
 1441 002a 0F22     		movs	r2, #15
 1442 002c BC18     		adds	r4, r7, r2
 1443 002e 1800     		movs	r0, r3
 1444 0030 FFF7FEFF 		bl	u8g_font_GetFontGlyphStructureSize
 1445 0034 0300     		movs	r3, r0
 1446 0036 2370     		strb	r3, [r4]
 355:Drivers/u8glib/src/u8g_font.c ****   uint8_t start, end;
 356:Drivers/u8glib/src/u8g_font.c ****   uint16_t pos;
 357:Drivers/u8glib/src/u8g_font.c ****   uint8_t i;
 358:Drivers/u8glib/src/u8g_font.c ****   uint8_t mask = 255;
 1447              		.loc 1 358 0
 1448 0038 1123     		movs	r3, #17
 1449 003a FB18     		adds	r3, r7, r3
 1450 003c FF22     		movs	r2, #255
 1451 003e 1A70     		strb	r2, [r3]
 359:Drivers/u8glib/src/u8g_font.c **** 
 360:Drivers/u8glib/src/u8g_font.c ****   if ( font_format == 1 )
 1452              		.loc 1 360 0
 1453 0040 1023     		movs	r3, #16
 1454 0042 FB18     		adds	r3, r7, r3
 1455 0044 1B78     		ldrb	r3, [r3]
 1456 0046 012B     		cmp	r3, #1
 1457 0048 03D1     		bne	.L71
 361:Drivers/u8glib/src/u8g_font.c ****     mask = 15;
 1458              		.loc 1 361 0
 1459 004a 1123     		movs	r3, #17
ARM GAS  /tmp/ccxKl5M2.s 			page 32


 1460 004c FB18     		adds	r3, r7, r3
 1461 004e 0F22     		movs	r2, #15
 1462 0050 1A70     		strb	r2, [r3]
 1463              	.L71:
 362:Drivers/u8glib/src/u8g_font.c ****   
 363:Drivers/u8glib/src/u8g_font.c ****   start = u8g_font_GetFontStartEncoding(u8g->font);
 1464              		.loc 1 363 0
 1465 0052 7B68     		ldr	r3, [r7, #4]
 1466 0054 9B68     		ldr	r3, [r3, #8]
 1467 0056 1322     		movs	r2, #19
 1468 0058 BC18     		adds	r4, r7, r2
 1469 005a 1800     		movs	r0, r3
 1470 005c FFF7FEFF 		bl	u8g_font_GetFontStartEncoding
 1471 0060 0300     		movs	r3, r0
 1472 0062 2370     		strb	r3, [r4]
 364:Drivers/u8glib/src/u8g_font.c ****   end = u8g_font_GetFontEndEncoding(u8g->font);
 1473              		.loc 1 364 0
 1474 0064 7B68     		ldr	r3, [r7, #4]
 1475 0066 9B68     		ldr	r3, [r3, #8]
 1476 0068 0E22     		movs	r2, #14
 1477 006a BC18     		adds	r4, r7, r2
 1478 006c 1800     		movs	r0, r3
 1479 006e FFF7FEFF 		bl	u8g_font_GetFontEndEncoding
 1480 0072 0300     		movs	r3, r0
 1481 0074 2370     		strb	r3, [r4]
 365:Drivers/u8glib/src/u8g_font.c **** 
 366:Drivers/u8glib/src/u8g_font.c ****   pos = u8g_font_GetEncoding97Pos(u8g->font);
 1482              		.loc 1 366 0
 1483 0076 7B68     		ldr	r3, [r7, #4]
 1484 0078 9B68     		ldr	r3, [r3, #8]
 1485 007a 0C22     		movs	r2, #12
 1486 007c BC18     		adds	r4, r7, r2
 1487 007e 1800     		movs	r0, r3
 1488 0080 FFF7FEFF 		bl	u8g_font_GetEncoding97Pos
 1489 0084 0300     		movs	r3, r0
 1490 0086 2380     		strh	r3, [r4]
 367:Drivers/u8glib/src/u8g_font.c ****   if ( requested_encoding >= 97 && pos > 0 )
 1491              		.loc 1 367 0
 1492 0088 FB1C     		adds	r3, r7, #3
 1493 008a 1B78     		ldrb	r3, [r3]
 1494 008c 602B     		cmp	r3, #96
 1495 008e 0FD9     		bls	.L72
 1496              		.loc 1 367 0 is_stmt 0 discriminator 1
 1497 0090 0C23     		movs	r3, #12
 1498 0092 FB18     		adds	r3, r7, r3
 1499 0094 1B88     		ldrh	r3, [r3]
 1500 0096 002B     		cmp	r3, #0
 1501 0098 0AD0     		beq	.L72
 368:Drivers/u8glib/src/u8g_font.c ****   {
 369:Drivers/u8glib/src/u8g_font.c ****     p+= pos;
 1502              		.loc 1 369 0 is_stmt 1
 1503 009a 0C23     		movs	r3, #12
 1504 009c FB18     		adds	r3, r7, r3
 1505 009e 1B88     		ldrh	r3, [r3]
 1506 00a0 7A69     		ldr	r2, [r7, #20]
 1507 00a2 D318     		adds	r3, r2, r3
 1508 00a4 7B61     		str	r3, [r7, #20]
ARM GAS  /tmp/ccxKl5M2.s 			page 33


 370:Drivers/u8glib/src/u8g_font.c ****     start = 97;
 1509              		.loc 1 370 0
 1510 00a6 1323     		movs	r3, #19
 1511 00a8 FB18     		adds	r3, r7, r3
 1512 00aa 6122     		movs	r2, #97
 1513 00ac 1A70     		strb	r2, [r3]
 1514 00ae 1FE0     		b	.L73
 1515              	.L72:
 371:Drivers/u8glib/src/u8g_font.c ****   }
 372:Drivers/u8glib/src/u8g_font.c ****   else 
 373:Drivers/u8glib/src/u8g_font.c ****   {
 374:Drivers/u8glib/src/u8g_font.c ****     pos = u8g_font_GetEncoding65Pos(u8g->font);
 1516              		.loc 1 374 0
 1517 00b0 7B68     		ldr	r3, [r7, #4]
 1518 00b2 9B68     		ldr	r3, [r3, #8]
 1519 00b4 0C22     		movs	r2, #12
 1520 00b6 BC18     		adds	r4, r7, r2
 1521 00b8 1800     		movs	r0, r3
 1522 00ba FFF7FEFF 		bl	u8g_font_GetEncoding65Pos
 1523 00be 0300     		movs	r3, r0
 1524 00c0 2380     		strh	r3, [r4]
 375:Drivers/u8glib/src/u8g_font.c ****     if ( requested_encoding >= 65 && pos > 0 )
 1525              		.loc 1 375 0
 1526 00c2 FB1C     		adds	r3, r7, #3
 1527 00c4 1B78     		ldrb	r3, [r3]
 1528 00c6 402B     		cmp	r3, #64
 1529 00c8 0FD9     		bls	.L74
 1530              		.loc 1 375 0 is_stmt 0 discriminator 1
 1531 00ca 0C23     		movs	r3, #12
 1532 00cc FB18     		adds	r3, r7, r3
 1533 00ce 1B88     		ldrh	r3, [r3]
 1534 00d0 002B     		cmp	r3, #0
 1535 00d2 0AD0     		beq	.L74
 376:Drivers/u8glib/src/u8g_font.c ****     {
 377:Drivers/u8glib/src/u8g_font.c ****       p+= pos;
 1536              		.loc 1 377 0 is_stmt 1
 1537 00d4 0C23     		movs	r3, #12
 1538 00d6 FB18     		adds	r3, r7, r3
 1539 00d8 1B88     		ldrh	r3, [r3]
 1540 00da 7A69     		ldr	r2, [r7, #20]
 1541 00dc D318     		adds	r3, r2, r3
 1542 00de 7B61     		str	r3, [r7, #20]
 378:Drivers/u8glib/src/u8g_font.c ****       start = 65;
 1543              		.loc 1 378 0
 1544 00e0 1323     		movs	r3, #19
 1545 00e2 FB18     		adds	r3, r7, r3
 1546 00e4 4122     		movs	r2, #65
 1547 00e6 1A70     		strb	r2, [r3]
 1548 00e8 02E0     		b	.L73
 1549              	.L74:
 379:Drivers/u8glib/src/u8g_font.c ****     }
 380:Drivers/u8glib/src/u8g_font.c ****     else
 381:Drivers/u8glib/src/u8g_font.c ****       p += U8G_FONT_DATA_STRUCT_SIZE;       /* skip font general information */  
 1550              		.loc 1 381 0
 1551 00ea 7B69     		ldr	r3, [r7, #20]
 1552 00ec 1133     		adds	r3, r3, #17
 1553 00ee 7B61     		str	r3, [r7, #20]
ARM GAS  /tmp/ccxKl5M2.s 			page 34


 1554              	.L73:
 382:Drivers/u8glib/src/u8g_font.c ****   }
 383:Drivers/u8glib/src/u8g_font.c ****   
 384:Drivers/u8glib/src/u8g_font.c ****   if ( requested_encoding > end )
 1555              		.loc 1 384 0
 1556 00f0 FA1C     		adds	r2, r7, #3
 1557 00f2 0E23     		movs	r3, #14
 1558 00f4 FB18     		adds	r3, r7, r3
 1559 00f6 1278     		ldrb	r2, [r2]
 1560 00f8 1B78     		ldrb	r3, [r3]
 1561 00fa 9A42     		cmp	r2, r3
 1562 00fc 05D9     		bls	.L75
 385:Drivers/u8glib/src/u8g_font.c ****   {
 386:Drivers/u8glib/src/u8g_font.c ****     u8g_FillEmptyGlyphCache(u8g);
 1563              		.loc 1 386 0
 1564 00fe 7B68     		ldr	r3, [r7, #4]
 1565 0100 1800     		movs	r0, r3
 1566 0102 FFF7FEFF 		bl	u8g_FillEmptyGlyphCache
 387:Drivers/u8glib/src/u8g_font.c ****     return NULL;                      /* not found */
 1567              		.loc 1 387 0
 1568 0106 0023     		movs	r3, #0
 1569 0108 4CE0     		b	.L76
 1570              	.L75:
 388:Drivers/u8glib/src/u8g_font.c ****   }
 389:Drivers/u8glib/src/u8g_font.c ****   
 390:Drivers/u8glib/src/u8g_font.c ****   i = start;
 1571              		.loc 1 390 0
 1572 010a 1223     		movs	r3, #18
 1573 010c FB18     		adds	r3, r7, r3
 1574 010e 1322     		movs	r2, #19
 1575 0110 BA18     		adds	r2, r7, r2
 1576 0112 1278     		ldrb	r2, [r2]
 1577 0114 1A70     		strb	r2, [r3]
 391:Drivers/u8glib/src/u8g_font.c ****   if ( i <= end )
 1578              		.loc 1 391 0
 1579 0116 1223     		movs	r3, #18
 1580 0118 FA18     		adds	r2, r7, r3
 1581 011a 0E23     		movs	r3, #14
 1582 011c FB18     		adds	r3, r7, r3
 1583 011e 1278     		ldrb	r2, [r2]
 1584 0120 1B78     		ldrb	r3, [r3]
 1585 0122 9A42     		cmp	r2, r3
 1586 0124 39D8     		bhi	.L77
 1587              	.L82:
 392:Drivers/u8glib/src/u8g_font.c ****   {
 393:Drivers/u8glib/src/u8g_font.c ****     for(;;)
 394:Drivers/u8glib/src/u8g_font.c ****     {
 395:Drivers/u8glib/src/u8g_font.c ****       if ( u8g_pgm_read((u8g_pgm_uint8_t *)(p)) == 255 )
 1588              		.loc 1 395 0
 1589 0126 7B69     		ldr	r3, [r7, #20]
 1590 0128 1B78     		ldrb	r3, [r3]
 1591 012a FF2B     		cmp	r3, #255
 1592 012c 03D1     		bne	.L78
 396:Drivers/u8glib/src/u8g_font.c ****       {
 397:Drivers/u8glib/src/u8g_font.c ****         p += 1;
 1593              		.loc 1 397 0
 1594 012e 7B69     		ldr	r3, [r7, #20]
ARM GAS  /tmp/ccxKl5M2.s 			page 35


 1595 0130 0133     		adds	r3, r3, #1
 1596 0132 7B61     		str	r3, [r7, #20]
 1597 0134 20E0     		b	.L79
 1598              	.L78:
 398:Drivers/u8glib/src/u8g_font.c ****       }
 399:Drivers/u8glib/src/u8g_font.c ****       else
 400:Drivers/u8glib/src/u8g_font.c ****       {
 401:Drivers/u8glib/src/u8g_font.c ****         if ( i == requested_encoding )
 1599              		.loc 1 401 0
 1600 0136 1223     		movs	r3, #18
 1601 0138 FA18     		adds	r2, r7, r3
 1602 013a FB1C     		adds	r3, r7, #3
 1603 013c 1278     		ldrb	r2, [r2]
 1604 013e 1B78     		ldrb	r3, [r3]
 1605 0140 9A42     		cmp	r2, r3
 1606 0142 07D1     		bne	.L80
 402:Drivers/u8glib/src/u8g_font.c ****         {
 403:Drivers/u8glib/src/u8g_font.c ****           u8g_CopyGlyphDataToCache(u8g, p);
 1607              		.loc 1 403 0
 1608 0144 7A69     		ldr	r2, [r7, #20]
 1609 0146 7B68     		ldr	r3, [r7, #4]
 1610 0148 1100     		movs	r1, r2
 1611 014a 1800     		movs	r0, r3
 1612 014c FFF7FEFF 		bl	u8g_CopyGlyphDataToCache
 404:Drivers/u8glib/src/u8g_font.c ****           return p;
 1613              		.loc 1 404 0
 1614 0150 7B69     		ldr	r3, [r7, #20]
 1615 0152 27E0     		b	.L76
 1616              	.L80:
 405:Drivers/u8glib/src/u8g_font.c ****         }
 406:Drivers/u8glib/src/u8g_font.c ****         p += u8g_pgm_read( ((u8g_pgm_uint8_t *)(p)) + 2 ) & mask;
 1617              		.loc 1 406 0
 1618 0154 7B69     		ldr	r3, [r7, #20]
 1619 0156 0233     		adds	r3, r3, #2
 1620 0158 1B78     		ldrb	r3, [r3]
 1621 015a 1122     		movs	r2, #17
 1622 015c BA18     		adds	r2, r7, r2
 1623 015e 1278     		ldrb	r2, [r2]
 1624 0160 1340     		ands	r3, r2
 1625 0162 DBB2     		uxtb	r3, r3
 1626 0164 1A00     		movs	r2, r3
 1627 0166 7B69     		ldr	r3, [r7, #20]
 1628 0168 9B18     		adds	r3, r3, r2
 1629 016a 7B61     		str	r3, [r7, #20]
 407:Drivers/u8glib/src/u8g_font.c ****         p += data_structure_size;
 1630              		.loc 1 407 0
 1631 016c 0F23     		movs	r3, #15
 1632 016e FB18     		adds	r3, r7, r3
 1633 0170 1B78     		ldrb	r3, [r3]
 1634 0172 7A69     		ldr	r2, [r7, #20]
 1635 0174 D318     		adds	r3, r2, r3
 1636 0176 7B61     		str	r3, [r7, #20]
 1637              	.L79:
 408:Drivers/u8glib/src/u8g_font.c ****       }
 409:Drivers/u8glib/src/u8g_font.c ****       if ( i == end )
 1638              		.loc 1 409 0
 1639 0178 1223     		movs	r3, #18
ARM GAS  /tmp/ccxKl5M2.s 			page 36


 1640 017a FA18     		adds	r2, r7, r3
 1641 017c 0E23     		movs	r3, #14
 1642 017e FB18     		adds	r3, r7, r3
 1643 0180 1278     		ldrb	r2, [r2]
 1644 0182 1B78     		ldrb	r3, [r3]
 1645 0184 9A42     		cmp	r2, r3
 1646 0186 07D0     		beq	.L83
 410:Drivers/u8glib/src/u8g_font.c ****         break;
 411:Drivers/u8glib/src/u8g_font.c ****       i++;
 1647              		.loc 1 411 0
 1648 0188 1223     		movs	r3, #18
 1649 018a FB18     		adds	r3, r7, r3
 1650 018c 1A78     		ldrb	r2, [r3]
 1651 018e 1223     		movs	r3, #18
 1652 0190 FB18     		adds	r3, r7, r3
 1653 0192 0132     		adds	r2, r2, #1
 1654 0194 1A70     		strb	r2, [r3]
 395:Drivers/u8glib/src/u8g_font.c ****       {
 1655              		.loc 1 395 0
 1656 0196 C6E7     		b	.L82
 1657              	.L83:
 410:Drivers/u8glib/src/u8g_font.c ****         break;
 1658              		.loc 1 410 0
 1659 0198 C046     		nop
 1660              	.L77:
 412:Drivers/u8glib/src/u8g_font.c ****     }
 413:Drivers/u8glib/src/u8g_font.c ****   }
 414:Drivers/u8glib/src/u8g_font.c ****   
 415:Drivers/u8glib/src/u8g_font.c ****   u8g_FillEmptyGlyphCache(u8g);
 1661              		.loc 1 415 0
 1662 019a 7B68     		ldr	r3, [r7, #4]
 1663 019c 1800     		movs	r0, r3
 1664 019e FFF7FEFF 		bl	u8g_FillEmptyGlyphCache
 416:Drivers/u8glib/src/u8g_font.c ****     
 417:Drivers/u8glib/src/u8g_font.c ****   return NULL;
 1665              		.loc 1 417 0
 1666 01a2 0023     		movs	r3, #0
 1667              	.L76:
 418:Drivers/u8glib/src/u8g_font.c **** }
 1668              		.loc 1 418 0
 1669 01a4 1800     		movs	r0, r3
 1670 01a6 BD46     		mov	sp, r7
 1671 01a8 07B0     		add	sp, sp, #28
 1672              		@ sp needed
 1673 01aa 90BD     		pop	{r4, r7, pc}
 1674              		.cfi_endproc
 1675              	.LFE27:
 1677              		.section	.text.u8g_IsGlyph,"ax",%progbits
 1678              		.align	1
 1679              		.global	u8g_IsGlyph
 1680              		.syntax unified
 1681              		.code	16
 1682              		.thumb_func
 1683              		.fpu softvfp
 1685              	u8g_IsGlyph:
 1686              	.LFB28:
 419:Drivers/u8glib/src/u8g_font.c **** 
ARM GAS  /tmp/ccxKl5M2.s 			page 37


 420:Drivers/u8glib/src/u8g_font.c **** uint8_t u8g_IsGlyph(u8g_t *u8g, uint8_t requested_encoding)
 421:Drivers/u8glib/src/u8g_font.c **** {
 1687              		.loc 1 421 0
 1688              		.cfi_startproc
 1689 0000 80B5     		push	{r7, lr}
 1690              	.LCFI84:
 1691              		.cfi_def_cfa_offset 8
 1692              		.cfi_offset 7, -8
 1693              		.cfi_offset 14, -4
 1694 0002 82B0     		sub	sp, sp, #8
 1695              	.LCFI85:
 1696              		.cfi_def_cfa_offset 16
 1697 0004 00AF     		add	r7, sp, #0
 1698              	.LCFI86:
 1699              		.cfi_def_cfa_register 7
 1700 0006 7860     		str	r0, [r7, #4]
 1701 0008 0A00     		movs	r2, r1
 1702 000a FB1C     		adds	r3, r7, #3
 1703 000c 1A70     		strb	r2, [r3]
 422:Drivers/u8glib/src/u8g_font.c ****   if ( u8g_GetGlyph(u8g, requested_encoding) != NULL )
 1704              		.loc 1 422 0
 1705 000e FB1C     		adds	r3, r7, #3
 1706 0010 1A78     		ldrb	r2, [r3]
 1707 0012 7B68     		ldr	r3, [r7, #4]
 1708 0014 1100     		movs	r1, r2
 1709 0016 1800     		movs	r0, r3
 1710 0018 FFF7FEFF 		bl	u8g_GetGlyph
 1711 001c 031E     		subs	r3, r0, #0
 1712 001e 01D0     		beq	.L85
 423:Drivers/u8glib/src/u8g_font.c ****     return 1;
 1713              		.loc 1 423 0
 1714 0020 0123     		movs	r3, #1
 1715 0022 00E0     		b	.L86
 1716              	.L85:
 424:Drivers/u8glib/src/u8g_font.c ****   return 0;
 1717              		.loc 1 424 0
 1718 0024 0023     		movs	r3, #0
 1719              	.L86:
 425:Drivers/u8glib/src/u8g_font.c **** }
 1720              		.loc 1 425 0
 1721 0026 1800     		movs	r0, r3
 1722 0028 BD46     		mov	sp, r7
 1723 002a 02B0     		add	sp, sp, #8
 1724              		@ sp needed
 1725 002c 80BD     		pop	{r7, pc}
 1726              		.cfi_endproc
 1727              	.LFE28:
 1729              		.section	.text.u8g_GetGlyphDeltaX,"ax",%progbits
 1730              		.align	1
 1731              		.global	u8g_GetGlyphDeltaX
 1732              		.syntax unified
 1733              		.code	16
 1734              		.thumb_func
 1735              		.fpu softvfp
 1737              	u8g_GetGlyphDeltaX:
 1738              	.LFB29:
 426:Drivers/u8glib/src/u8g_font.c **** 
ARM GAS  /tmp/ccxKl5M2.s 			page 38


 427:Drivers/u8glib/src/u8g_font.c **** int8_t u8g_GetGlyphDeltaX(u8g_t *u8g, uint8_t requested_encoding)
 428:Drivers/u8glib/src/u8g_font.c **** {
 1739              		.loc 1 428 0
 1740              		.cfi_startproc
 1741 0000 80B5     		push	{r7, lr}
 1742              	.LCFI87:
 1743              		.cfi_def_cfa_offset 8
 1744              		.cfi_offset 7, -8
 1745              		.cfi_offset 14, -4
 1746 0002 82B0     		sub	sp, sp, #8
 1747              	.LCFI88:
 1748              		.cfi_def_cfa_offset 16
 1749 0004 00AF     		add	r7, sp, #0
 1750              	.LCFI89:
 1751              		.cfi_def_cfa_register 7
 1752 0006 7860     		str	r0, [r7, #4]
 1753 0008 0A00     		movs	r2, r1
 1754 000a FB1C     		adds	r3, r7, #3
 1755 000c 1A70     		strb	r2, [r3]
 429:Drivers/u8glib/src/u8g_font.c ****   if ( u8g_GetGlyph(u8g, requested_encoding) == NULL )
 1756              		.loc 1 429 0
 1757 000e FB1C     		adds	r3, r7, #3
 1758 0010 1A78     		ldrb	r2, [r3]
 1759 0012 7B68     		ldr	r3, [r7, #4]
 1760 0014 1100     		movs	r1, r2
 1761 0016 1800     		movs	r0, r3
 1762 0018 FFF7FEFF 		bl	u8g_GetGlyph
 1763 001c 031E     		subs	r3, r0, #0
 1764 001e 01D1     		bne	.L88
 430:Drivers/u8glib/src/u8g_font.c ****     return 0;  /* should never happen, so return something */
 1765              		.loc 1 430 0
 1766 0020 0023     		movs	r3, #0
 1767 0022 02E0     		b	.L89
 1768              	.L88:
 431:Drivers/u8glib/src/u8g_font.c ****   return u8g->glyph_dx;
 1769              		.loc 1 431 0
 1770 0024 7B68     		ldr	r3, [r7, #4]
 1771 0026 1B7F     		ldrb	r3, [r3, #28]
 1772 0028 5BB2     		sxtb	r3, r3
 1773              	.L89:
 432:Drivers/u8glib/src/u8g_font.c **** }
 1774              		.loc 1 432 0
 1775 002a 1800     		movs	r0, r3
 1776 002c BD46     		mov	sp, r7
 1777 002e 02B0     		add	sp, sp, #8
 1778              		@ sp needed
 1779 0030 80BD     		pop	{r7, pc}
 1780              		.cfi_endproc
 1781              	.LFE29:
 1783              		.section	.text.u8g_draw_glyph,"ax",%progbits
 1784              		.align	1
 1785              		.global	u8g_draw_glyph
 1786              		.syntax unified
 1787              		.code	16
 1788              		.thumb_func
 1789              		.fpu softvfp
 1791              	u8g_draw_glyph:
ARM GAS  /tmp/ccxKl5M2.s 			page 39


 1792              	.LFB30:
 433:Drivers/u8glib/src/u8g_font.c **** 
 434:Drivers/u8glib/src/u8g_font.c **** 
 435:Drivers/u8glib/src/u8g_font.c **** /*========================================================================*/
 436:Drivers/u8glib/src/u8g_font.c **** /* glyph drawing procedures */
 437:Drivers/u8glib/src/u8g_font.c **** 
 438:Drivers/u8glib/src/u8g_font.c **** #ifdef OBSOLETE
 439:Drivers/u8glib/src/u8g_font.c **** /*
 440:Drivers/u8glib/src/u8g_font.c ****   Draw a glyph
 441:Drivers/u8glib/src/u8g_font.c ****   x,y: left baseline position of the glyph
 442:Drivers/u8glib/src/u8g_font.c **** */
 443:Drivers/u8glib/src/u8g_font.c **** int8_t u8g_DrawGlyphDir(u8g_t *u8g, u8g_uint_t x, u8g_uint_t y, uint8_t dir, uint8_t encoding)
 444:Drivers/u8glib/src/u8g_font.c **** {
 445:Drivers/u8glib/src/u8g_font.c ****   u8g_glyph_t g;
 446:Drivers/u8glib/src/u8g_font.c ****   uint8_t w, h, i, j;
 447:Drivers/u8glib/src/u8g_font.c ****   const u8g_pgm_uint8_t *data;
 448:Drivers/u8glib/src/u8g_font.c ****   uint8_t bytes_per_line;
 449:Drivers/u8glib/src/u8g_font.c ****   u8g_uint_t ix, iy;
 450:Drivers/u8glib/src/u8g_font.c **** 
 451:Drivers/u8glib/src/u8g_font.c ****   g = u8g_GetGlyph(u8g, encoding);
 452:Drivers/u8glib/src/u8g_font.c ****   if ( g == NULL  )
 453:Drivers/u8glib/src/u8g_font.c ****     return 0;
 454:Drivers/u8glib/src/u8g_font.c ****   w = u8g->glyph_width;
 455:Drivers/u8glib/src/u8g_font.c ****   h = u8g->glyph_height;
 456:Drivers/u8glib/src/u8g_font.c **** 
 457:Drivers/u8glib/src/u8g_font.c ****   bytes_per_line = w;
 458:Drivers/u8glib/src/u8g_font.c ****   bytes_per_line += 7;
 459:Drivers/u8glib/src/u8g_font.c ****   bytes_per_line /= 8;
 460:Drivers/u8glib/src/u8g_font.c ****   
 461:Drivers/u8glib/src/u8g_font.c ****   data = u8g_font_GetGlyphDataStart(u8g->font, g);
 462:Drivers/u8glib/src/u8g_font.c **** 
 463:Drivers/u8glib/src/u8g_font.c ****   switch(dir)
 464:Drivers/u8glib/src/u8g_font.c ****   {
 465:Drivers/u8glib/src/u8g_font.c ****     case 0:
 466:Drivers/u8glib/src/u8g_font.c ****       x += u8g->glyph_x;
 467:Drivers/u8glib/src/u8g_font.c ****       y -= u8g->glyph_y;
 468:Drivers/u8glib/src/u8g_font.c ****       y--;
 469:Drivers/u8glib/src/u8g_font.c ****       //u8g_DrawFrame(u8g, x, y-h+1, w, h);
 470:Drivers/u8glib/src/u8g_font.c ****       if ( u8g_IsBBXIntersection(u8g, x, y-h+1, w, h) == 0 )
 471:Drivers/u8glib/src/u8g_font.c ****         return u8g->glyph_dx;
 472:Drivers/u8glib/src/u8g_font.c ****       
 473:Drivers/u8glib/src/u8g_font.c ****       iy = y;
 474:Drivers/u8glib/src/u8g_font.c ****       iy -= h;
 475:Drivers/u8glib/src/u8g_font.c ****       iy++;
 476:Drivers/u8glib/src/u8g_font.c ****       
 477:Drivers/u8glib/src/u8g_font.c ****       for( j = 0; j < h; j++ )
 478:Drivers/u8glib/src/u8g_font.c ****       {
 479:Drivers/u8glib/src/u8g_font.c ****         ix = x;
 480:Drivers/u8glib/src/u8g_font.c ****         for( i = 0; i < bytes_per_line; i++ )
 481:Drivers/u8glib/src/u8g_font.c ****         {
 482:Drivers/u8glib/src/u8g_font.c ****           u8g_Draw8Pixel(u8g, ix, iy, dir, u8g_pgm_read(data));
 483:Drivers/u8glib/src/u8g_font.c ****           data++;
 484:Drivers/u8glib/src/u8g_font.c ****           ix+=8;
 485:Drivers/u8glib/src/u8g_font.c ****         }
 486:Drivers/u8glib/src/u8g_font.c ****         iy++;
 487:Drivers/u8glib/src/u8g_font.c ****       }
 488:Drivers/u8glib/src/u8g_font.c ****       break;
ARM GAS  /tmp/ccxKl5M2.s 			page 40


 489:Drivers/u8glib/src/u8g_font.c ****     case 1:
 490:Drivers/u8glib/src/u8g_font.c ****       x += u8g->glyph_y;
 491:Drivers/u8glib/src/u8g_font.c ****       x++;
 492:Drivers/u8glib/src/u8g_font.c ****       y += u8g->glyph_x;
 493:Drivers/u8glib/src/u8g_font.c ****       //printf("enc %d, dir %d, x %d, y %d, w %d, h %d\n", encoding, dir, x, y, w, h);
 494:Drivers/u8glib/src/u8g_font.c ****       //u8g_DrawFrame(u8g, x, y, h, w);
 495:Drivers/u8glib/src/u8g_font.c ****       if ( u8g_IsBBXIntersection(u8g, x, y, h, w) == 0 )
 496:Drivers/u8glib/src/u8g_font.c ****         return u8g->glyph_dx;
 497:Drivers/u8glib/src/u8g_font.c ****       
 498:Drivers/u8glib/src/u8g_font.c ****       ix = x;
 499:Drivers/u8glib/src/u8g_font.c ****       ix += h;
 500:Drivers/u8glib/src/u8g_font.c ****       ix--;
 501:Drivers/u8glib/src/u8g_font.c ****       for( j = 0; j < h; j++ )
 502:Drivers/u8glib/src/u8g_font.c ****       {
 503:Drivers/u8glib/src/u8g_font.c ****         iy = y;
 504:Drivers/u8glib/src/u8g_font.c ****         for( i = 0; i < bytes_per_line; i++ )
 505:Drivers/u8glib/src/u8g_font.c ****         {
 506:Drivers/u8glib/src/u8g_font.c ****           u8g_Draw8Pixel(u8g, ix, iy, dir, u8g_pgm_read(data));
 507:Drivers/u8glib/src/u8g_font.c ****           data++;
 508:Drivers/u8glib/src/u8g_font.c ****           iy+=8;
 509:Drivers/u8glib/src/u8g_font.c ****         }
 510:Drivers/u8glib/src/u8g_font.c ****         ix--;
 511:Drivers/u8glib/src/u8g_font.c ****       }
 512:Drivers/u8glib/src/u8g_font.c ****       break;
 513:Drivers/u8glib/src/u8g_font.c ****     case 2:
 514:Drivers/u8glib/src/u8g_font.c ****       x -= u8g->glyph_x;
 515:Drivers/u8glib/src/u8g_font.c ****       y += u8g->glyph_y;
 516:Drivers/u8glib/src/u8g_font.c ****       y++;
 517:Drivers/u8glib/src/u8g_font.c ****       if ( u8g_IsBBXIntersection(u8g, x-w-1, y, w, h) == 0 )
 518:Drivers/u8glib/src/u8g_font.c ****         return u8g->glyph_dx;
 519:Drivers/u8glib/src/u8g_font.c ****       
 520:Drivers/u8glib/src/u8g_font.c ****       iy = y;
 521:Drivers/u8glib/src/u8g_font.c ****       iy += h;
 522:Drivers/u8glib/src/u8g_font.c ****       iy--;
 523:Drivers/u8glib/src/u8g_font.c ****       for( j = 0; j < h; j++ )
 524:Drivers/u8glib/src/u8g_font.c ****       {
 525:Drivers/u8glib/src/u8g_font.c ****         ix = x;
 526:Drivers/u8glib/src/u8g_font.c ****         for( i = 0; i < bytes_per_line; i++ )
 527:Drivers/u8glib/src/u8g_font.c ****         {
 528:Drivers/u8glib/src/u8g_font.c ****           u8g_Draw8Pixel(u8g, ix, iy, dir, u8g_pgm_read(data));
 529:Drivers/u8glib/src/u8g_font.c ****           data++;
 530:Drivers/u8glib/src/u8g_font.c ****           ix-=8;
 531:Drivers/u8glib/src/u8g_font.c ****         }
 532:Drivers/u8glib/src/u8g_font.c ****         iy--;
 533:Drivers/u8glib/src/u8g_font.c ****       }
 534:Drivers/u8glib/src/u8g_font.c ****       break;
 535:Drivers/u8glib/src/u8g_font.c ****     case 3:
 536:Drivers/u8glib/src/u8g_font.c ****       x -= u8g->glyph_y;
 537:Drivers/u8glib/src/u8g_font.c ****       x--;
 538:Drivers/u8glib/src/u8g_font.c ****       y -= u8g->glyph_x;
 539:Drivers/u8glib/src/u8g_font.c ****       
 540:Drivers/u8glib/src/u8g_font.c ****       if ( u8g_IsBBXIntersection(u8g, x-h-1, y-w-1, h, w) == 0 )
 541:Drivers/u8glib/src/u8g_font.c ****         return u8g->glyph_dx;
 542:Drivers/u8glib/src/u8g_font.c ****       
 543:Drivers/u8glib/src/u8g_font.c ****       ix = x;
 544:Drivers/u8glib/src/u8g_font.c ****       ix -= h;
 545:Drivers/u8glib/src/u8g_font.c ****       ix++;
ARM GAS  /tmp/ccxKl5M2.s 			page 41


 546:Drivers/u8glib/src/u8g_font.c ****       
 547:Drivers/u8glib/src/u8g_font.c ****       for( j = 0; j < h; j++ )
 548:Drivers/u8glib/src/u8g_font.c ****       {
 549:Drivers/u8glib/src/u8g_font.c ****         iy = y;
 550:Drivers/u8glib/src/u8g_font.c ****         for( i = 0; i < bytes_per_line; i++ )
 551:Drivers/u8glib/src/u8g_font.c ****         {
 552:Drivers/u8glib/src/u8g_font.c ****           u8g_Draw8Pixel(u8g, ix, iy, dir, u8g_pgm_read(data));
 553:Drivers/u8glib/src/u8g_font.c ****           data++;
 554:Drivers/u8glib/src/u8g_font.c ****           iy-=8;
 555:Drivers/u8glib/src/u8g_font.c ****         }
 556:Drivers/u8glib/src/u8g_font.c ****         ix++;
 557:Drivers/u8glib/src/u8g_font.c ****       }
 558:Drivers/u8glib/src/u8g_font.c ****       break;    
 559:Drivers/u8glib/src/u8g_font.c ****   }
 560:Drivers/u8glib/src/u8g_font.c ****   return u8g->glyph_dx;
 561:Drivers/u8glib/src/u8g_font.c **** }
 562:Drivers/u8glib/src/u8g_font.c **** #endif
 563:Drivers/u8glib/src/u8g_font.c **** 
 564:Drivers/u8glib/src/u8g_font.c **** int8_t u8g_draw_glyph(u8g_t *u8g, u8g_uint_t x, u8g_uint_t y, uint8_t encoding)
 565:Drivers/u8glib/src/u8g_font.c **** {
 1793              		.loc 1 565 0
 1794              		.cfi_startproc
 1795 0000 90B5     		push	{r4, r7, lr}
 1796              	.LCFI90:
 1797              		.cfi_def_cfa_offset 12
 1798              		.cfi_offset 4, -12
 1799              		.cfi_offset 7, -8
 1800              		.cfi_offset 14, -4
 1801 0002 89B0     		sub	sp, sp, #36
 1802              	.LCFI91:
 1803              		.cfi_def_cfa_offset 48
 1804 0004 02AF     		add	r7, sp, #8
 1805              	.LCFI92:
 1806              		.cfi_def_cfa 7, 40
 1807 0006 7860     		str	r0, [r7, #4]
 1808 0008 0C00     		movs	r4, r1
 1809 000a 1000     		movs	r0, r2
 1810 000c 1900     		movs	r1, r3
 1811 000e FB1C     		adds	r3, r7, #3
 1812 0010 221C     		adds	r2, r4, #0
 1813 0012 1A70     		strb	r2, [r3]
 1814 0014 BB1C     		adds	r3, r7, #2
 1815 0016 021C     		adds	r2, r0, #0
 1816 0018 1A70     		strb	r2, [r3]
 1817 001a 7B1C     		adds	r3, r7, #1
 1818 001c 0A1C     		adds	r2, r1, #0
 1819 001e 1A70     		strb	r2, [r3]
 1820              	.LBB2:
 566:Drivers/u8glib/src/u8g_font.c ****   const u8g_pgm_uint8_t *data;
 567:Drivers/u8glib/src/u8g_font.c ****   uint8_t w, h;
 568:Drivers/u8glib/src/u8g_font.c ****   uint8_t i, j;
 569:Drivers/u8glib/src/u8g_font.c ****   u8g_uint_t ix, iy;
 570:Drivers/u8glib/src/u8g_font.c **** 
 571:Drivers/u8glib/src/u8g_font.c ****   {
 572:Drivers/u8glib/src/u8g_font.c ****     u8g_glyph_t g = u8g_GetGlyph(u8g, encoding);
 1821              		.loc 1 572 0
 1822 0020 7B1C     		adds	r3, r7, #1
ARM GAS  /tmp/ccxKl5M2.s 			page 42


 1823 0022 1A78     		ldrb	r2, [r3]
 1824 0024 7B68     		ldr	r3, [r7, #4]
 1825 0026 1100     		movs	r1, r2
 1826 0028 1800     		movs	r0, r3
 1827 002a FFF7FEFF 		bl	u8g_GetGlyph
 1828 002e 0300     		movs	r3, r0
 1829 0030 FB60     		str	r3, [r7, #12]
 573:Drivers/u8glib/src/u8g_font.c ****     if ( g == NULL  )
 1830              		.loc 1 573 0
 1831 0032 FB68     		ldr	r3, [r7, #12]
 1832 0034 002B     		cmp	r3, #0
 1833 0036 01D1     		bne	.L91
 574:Drivers/u8glib/src/u8g_font.c ****       return 0;
 1834              		.loc 1 574 0
 1835 0038 0023     		movs	r3, #0
 1836 003a B9E0     		b	.L92
 1837              	.L91:
 575:Drivers/u8glib/src/u8g_font.c ****     data = u8g_font_GetGlyphDataStart(u8g->font, g);
 1838              		.loc 1 575 0
 1839 003c 7B68     		ldr	r3, [r7, #4]
 1840 003e 9B68     		ldr	r3, [r3, #8]
 1841 0040 FA68     		ldr	r2, [r7, #12]
 1842 0042 1100     		movs	r1, r2
 1843 0044 1800     		movs	r0, r3
 1844 0046 FFF7FEFF 		bl	u8g_font_GetGlyphDataStart
 1845 004a 0300     		movs	r3, r0
 1846 004c 7B61     		str	r3, [r7, #20]
 1847              	.LBE2:
 576:Drivers/u8glib/src/u8g_font.c ****   }
 577:Drivers/u8glib/src/u8g_font.c ****   
 578:Drivers/u8glib/src/u8g_font.c ****   w = u8g->glyph_width;
 1848              		.loc 1 578 0
 1849 004e 0B23     		movs	r3, #11
 1850 0050 FB18     		adds	r3, r7, r3
 1851 0052 7A68     		ldr	r2, [r7, #4]
 1852 0054 D27F     		ldrb	r2, [r2, #31]
 1853 0056 1A70     		strb	r2, [r3]
 579:Drivers/u8glib/src/u8g_font.c ****   h = u8g->glyph_height;
 1854              		.loc 1 579 0
 1855 0058 0A23     		movs	r3, #10
 1856 005a FB18     		adds	r3, r7, r3
 1857 005c 7A68     		ldr	r2, [r7, #4]
 1858 005e 2021     		movs	r1, #32
 1859 0060 525C     		ldrb	r2, [r2, r1]
 1860 0062 1A70     		strb	r2, [r3]
 580:Drivers/u8glib/src/u8g_font.c ****   
 581:Drivers/u8glib/src/u8g_font.c ****   x += u8g->glyph_x;
 1861              		.loc 1 581 0
 1862 0064 7B68     		ldr	r3, [r7, #4]
 1863 0066 5B7F     		ldrb	r3, [r3, #29]
 1864 0068 5BB2     		sxtb	r3, r3
 1865 006a D9B2     		uxtb	r1, r3
 1866 006c FB1C     		adds	r3, r7, #3
 1867 006e FA1C     		adds	r2, r7, #3
 1868 0070 1278     		ldrb	r2, [r2]
 1869 0072 8A18     		adds	r2, r1, r2
 1870 0074 1A70     		strb	r2, [r3]
ARM GAS  /tmp/ccxKl5M2.s 			page 43


 582:Drivers/u8glib/src/u8g_font.c ****   y -= u8g->glyph_y;
 1871              		.loc 1 582 0
 1872 0076 7B68     		ldr	r3, [r7, #4]
 1873 0078 9B7F     		ldrb	r3, [r3, #30]
 1874 007a 5BB2     		sxtb	r3, r3
 1875 007c DAB2     		uxtb	r2, r3
 1876 007e BB1C     		adds	r3, r7, #2
 1877 0080 B91C     		adds	r1, r7, #2
 1878 0082 0978     		ldrb	r1, [r1]
 1879 0084 8A1A     		subs	r2, r1, r2
 1880 0086 1A70     		strb	r2, [r3]
 583:Drivers/u8glib/src/u8g_font.c ****   y--;
 1881              		.loc 1 583 0
 1882 0088 BB1C     		adds	r3, r7, #2
 1883 008a 1A78     		ldrb	r2, [r3]
 1884 008c BB1C     		adds	r3, r7, #2
 1885 008e 013A     		subs	r2, r2, #1
 1886 0090 1A70     		strb	r2, [r3]
 584:Drivers/u8glib/src/u8g_font.c ****   
 585:Drivers/u8glib/src/u8g_font.c ****   if ( u8g_IsBBXIntersection(u8g, x, y-h+1, w, h) == 0 )
 1887              		.loc 1 585 0
 1888 0092 BA1C     		adds	r2, r7, #2
 1889 0094 0A23     		movs	r3, #10
 1890 0096 FB18     		adds	r3, r7, r3
 1891 0098 1278     		ldrb	r2, [r2]
 1892 009a 1B78     		ldrb	r3, [r3]
 1893 009c D31A     		subs	r3, r2, r3
 1894 009e DBB2     		uxtb	r3, r3
 1895 00a0 0133     		adds	r3, r3, #1
 1896 00a2 DAB2     		uxtb	r2, r3
 1897 00a4 0B23     		movs	r3, #11
 1898 00a6 FB18     		adds	r3, r7, r3
 1899 00a8 1C78     		ldrb	r4, [r3]
 1900 00aa FB1C     		adds	r3, r7, #3
 1901 00ac 1978     		ldrb	r1, [r3]
 1902 00ae 7868     		ldr	r0, [r7, #4]
 1903 00b0 0A23     		movs	r3, #10
 1904 00b2 FB18     		adds	r3, r7, r3
 1905 00b4 1B78     		ldrb	r3, [r3]
 1906 00b6 0093     		str	r3, [sp]
 1907 00b8 2300     		movs	r3, r4
 1908 00ba FFF7FEFF 		bl	u8g_IsBBXIntersection
 1909 00be 031E     		subs	r3, r0, #0
 1910 00c0 03D1     		bne	.L93
 586:Drivers/u8glib/src/u8g_font.c ****     return u8g->glyph_dx;
 1911              		.loc 1 586 0
 1912 00c2 7B68     		ldr	r3, [r7, #4]
 1913 00c4 1B7F     		ldrb	r3, [r3, #28]
 1914 00c6 5BB2     		sxtb	r3, r3
 1915 00c8 72E0     		b	.L92
 1916              	.L93:
 587:Drivers/u8glib/src/u8g_font.c **** 
 588:Drivers/u8glib/src/u8g_font.c ****   /* now, w is reused as bytes per line */
 589:Drivers/u8glib/src/u8g_font.c ****   w += 7;
 1917              		.loc 1 589 0
 1918 00ca 0B23     		movs	r3, #11
 1919 00cc FB18     		adds	r3, r7, r3
ARM GAS  /tmp/ccxKl5M2.s 			page 44


 1920 00ce 0B22     		movs	r2, #11
 1921 00d0 BA18     		adds	r2, r7, r2
 1922 00d2 1278     		ldrb	r2, [r2]
 1923 00d4 0732     		adds	r2, r2, #7
 1924 00d6 1A70     		strb	r2, [r3]
 590:Drivers/u8glib/src/u8g_font.c ****   w /= 8;
 1925              		.loc 1 590 0
 1926 00d8 0B23     		movs	r3, #11
 1927 00da FB18     		adds	r3, r7, r3
 1928 00dc 0B22     		movs	r2, #11
 1929 00de BA18     		adds	r2, r7, r2
 1930 00e0 1278     		ldrb	r2, [r2]
 1931 00e2 D208     		lsrs	r2, r2, #3
 1932 00e4 1A70     		strb	r2, [r3]
 591:Drivers/u8glib/src/u8g_font.c ****   
 592:Drivers/u8glib/src/u8g_font.c ****   iy = y;
 1933              		.loc 1 592 0
 1934 00e6 1023     		movs	r3, #16
 1935 00e8 FB18     		adds	r3, r7, r3
 1936 00ea BA1C     		adds	r2, r7, #2
 1937 00ec 1278     		ldrb	r2, [r2]
 1938 00ee 1A70     		strb	r2, [r3]
 593:Drivers/u8glib/src/u8g_font.c ****   iy -= h;
 1939              		.loc 1 593 0
 1940 00f0 1023     		movs	r3, #16
 1941 00f2 FB18     		adds	r3, r7, r3
 1942 00f4 1022     		movs	r2, #16
 1943 00f6 B918     		adds	r1, r7, r2
 1944 00f8 0A22     		movs	r2, #10
 1945 00fa BA18     		adds	r2, r7, r2
 1946 00fc 0978     		ldrb	r1, [r1]
 1947 00fe 1278     		ldrb	r2, [r2]
 1948 0100 8A1A     		subs	r2, r1, r2
 1949 0102 1A70     		strb	r2, [r3]
 594:Drivers/u8glib/src/u8g_font.c ****   iy++;
 1950              		.loc 1 594 0
 1951 0104 1023     		movs	r3, #16
 1952 0106 FB18     		adds	r3, r7, r3
 1953 0108 1A78     		ldrb	r2, [r3]
 1954 010a 1023     		movs	r3, #16
 1955 010c FB18     		adds	r3, r7, r3
 1956 010e 0132     		adds	r2, r2, #1
 1957 0110 1A70     		strb	r2, [r3]
 595:Drivers/u8glib/src/u8g_font.c **** 
 596:Drivers/u8glib/src/u8g_font.c ****   for( j = 0; j < h; j++ )
 1958              		.loc 1 596 0
 1959 0112 1223     		movs	r3, #18
 1960 0114 FB18     		adds	r3, r7, r3
 1961 0116 0022     		movs	r2, #0
 1962 0118 1A70     		strb	r2, [r3]
 1963 011a 3EE0     		b	.L94
 1964              	.L97:
 597:Drivers/u8glib/src/u8g_font.c ****   {
 598:Drivers/u8glib/src/u8g_font.c ****     ix = x;
 1965              		.loc 1 598 0
 1966 011c 1123     		movs	r3, #17
 1967 011e FB18     		adds	r3, r7, r3
ARM GAS  /tmp/ccxKl5M2.s 			page 45


 1968 0120 FA1C     		adds	r2, r7, #3
 1969 0122 1278     		ldrb	r2, [r2]
 1970 0124 1A70     		strb	r2, [r3]
 599:Drivers/u8glib/src/u8g_font.c ****     for( i = 0; i < w; i++ )
 1971              		.loc 1 599 0
 1972 0126 1323     		movs	r3, #19
 1973 0128 FB18     		adds	r3, r7, r3
 1974 012a 0022     		movs	r2, #0
 1975 012c 1A70     		strb	r2, [r3]
 1976 012e 1EE0     		b	.L95
 1977              	.L96:
 600:Drivers/u8glib/src/u8g_font.c ****     {
 601:Drivers/u8glib/src/u8g_font.c ****       u8g_Draw8Pixel(u8g, ix, iy, 0, u8g_pgm_read(data));
 1978              		.loc 1 601 0 discriminator 3
 1979 0130 7B69     		ldr	r3, [r7, #20]
 1980 0132 1B78     		ldrb	r3, [r3]
 1981 0134 1022     		movs	r2, #16
 1982 0136 BA18     		adds	r2, r7, r2
 1983 0138 1478     		ldrb	r4, [r2]
 1984 013a 1122     		movs	r2, #17
 1985 013c BA18     		adds	r2, r7, r2
 1986 013e 1178     		ldrb	r1, [r2]
 1987 0140 7868     		ldr	r0, [r7, #4]
 1988 0142 0093     		str	r3, [sp]
 1989 0144 0023     		movs	r3, #0
 1990 0146 2200     		movs	r2, r4
 1991 0148 FFF7FEFF 		bl	u8g_Draw8Pixel
 602:Drivers/u8glib/src/u8g_font.c ****       data++;
 1992              		.loc 1 602 0 discriminator 3
 1993 014c 7B69     		ldr	r3, [r7, #20]
 1994 014e 0133     		adds	r3, r3, #1
 1995 0150 7B61     		str	r3, [r7, #20]
 603:Drivers/u8glib/src/u8g_font.c ****       ix+=8;
 1996              		.loc 1 603 0 discriminator 3
 1997 0152 1123     		movs	r3, #17
 1998 0154 FB18     		adds	r3, r7, r3
 1999 0156 1122     		movs	r2, #17
 2000 0158 BA18     		adds	r2, r7, r2
 2001 015a 1278     		ldrb	r2, [r2]
 2002 015c 0832     		adds	r2, r2, #8
 2003 015e 1A70     		strb	r2, [r3]
 599:Drivers/u8glib/src/u8g_font.c ****     {
 2004              		.loc 1 599 0 discriminator 3
 2005 0160 1323     		movs	r3, #19
 2006 0162 FB18     		adds	r3, r7, r3
 2007 0164 1A78     		ldrb	r2, [r3]
 2008 0166 1323     		movs	r3, #19
 2009 0168 FB18     		adds	r3, r7, r3
 2010 016a 0132     		adds	r2, r2, #1
 2011 016c 1A70     		strb	r2, [r3]
 2012              	.L95:
 599:Drivers/u8glib/src/u8g_font.c ****     {
 2013              		.loc 1 599 0 is_stmt 0 discriminator 1
 2014 016e 1323     		movs	r3, #19
 2015 0170 FA18     		adds	r2, r7, r3
 2016 0172 0B23     		movs	r3, #11
 2017 0174 FB18     		adds	r3, r7, r3
ARM GAS  /tmp/ccxKl5M2.s 			page 46


 2018 0176 1278     		ldrb	r2, [r2]
 2019 0178 1B78     		ldrb	r3, [r3]
 2020 017a 9A42     		cmp	r2, r3
 2021 017c D8D3     		bcc	.L96
 604:Drivers/u8glib/src/u8g_font.c ****     }
 605:Drivers/u8glib/src/u8g_font.c ****     iy++;
 2022              		.loc 1 605 0 is_stmt 1 discriminator 2
 2023 017e 1023     		movs	r3, #16
 2024 0180 FB18     		adds	r3, r7, r3
 2025 0182 1A78     		ldrb	r2, [r3]
 2026 0184 1023     		movs	r3, #16
 2027 0186 FB18     		adds	r3, r7, r3
 2028 0188 0132     		adds	r2, r2, #1
 2029 018a 1A70     		strb	r2, [r3]
 596:Drivers/u8glib/src/u8g_font.c ****   {
 2030              		.loc 1 596 0 discriminator 2
 2031 018c 1223     		movs	r3, #18
 2032 018e FB18     		adds	r3, r7, r3
 2033 0190 1A78     		ldrb	r2, [r3]
 2034 0192 1223     		movs	r3, #18
 2035 0194 FB18     		adds	r3, r7, r3
 2036 0196 0132     		adds	r2, r2, #1
 2037 0198 1A70     		strb	r2, [r3]
 2038              	.L94:
 596:Drivers/u8glib/src/u8g_font.c ****   {
 2039              		.loc 1 596 0 is_stmt 0 discriminator 1
 2040 019a 1223     		movs	r3, #18
 2041 019c FA18     		adds	r2, r7, r3
 2042 019e 0A23     		movs	r3, #10
 2043 01a0 FB18     		adds	r3, r7, r3
 2044 01a2 1278     		ldrb	r2, [r2]
 2045 01a4 1B78     		ldrb	r3, [r3]
 2046 01a6 9A42     		cmp	r2, r3
 2047 01a8 B8D3     		bcc	.L97
 606:Drivers/u8glib/src/u8g_font.c ****   }
 607:Drivers/u8glib/src/u8g_font.c ****   return u8g->glyph_dx;
 2048              		.loc 1 607 0 is_stmt 1
 2049 01aa 7B68     		ldr	r3, [r7, #4]
 2050 01ac 1B7F     		ldrb	r3, [r3, #28]
 2051 01ae 5BB2     		sxtb	r3, r3
 2052              	.L92:
 608:Drivers/u8glib/src/u8g_font.c **** }
 2053              		.loc 1 608 0
 2054 01b0 1800     		movs	r0, r3
 2055 01b2 BD46     		mov	sp, r7
 2056 01b4 07B0     		add	sp, sp, #28
 2057              		@ sp needed
 2058 01b6 90BD     		pop	{r4, r7, pc}
 2059              		.cfi_endproc
 2060              	.LFE30:
 2062              		.section	.text.u8g_DrawGlyph,"ax",%progbits
 2063              		.align	1
 2064              		.global	u8g_DrawGlyph
 2065              		.syntax unified
 2066              		.code	16
 2067              		.thumb_func
 2068              		.fpu softvfp
ARM GAS  /tmp/ccxKl5M2.s 			page 47


 2070              	u8g_DrawGlyph:
 2071              	.LFB31:
 609:Drivers/u8glib/src/u8g_font.c **** 
 610:Drivers/u8glib/src/u8g_font.c **** int8_t u8g_DrawGlyph(u8g_t *u8g, u8g_uint_t x, u8g_uint_t y, uint8_t encoding)
 611:Drivers/u8glib/src/u8g_font.c **** {
 2072              		.loc 1 611 0
 2073              		.cfi_startproc
 2074 0000 90B5     		push	{r4, r7, lr}
 2075              	.LCFI93:
 2076              		.cfi_def_cfa_offset 12
 2077              		.cfi_offset 4, -12
 2078              		.cfi_offset 7, -8
 2079              		.cfi_offset 14, -4
 2080 0002 83B0     		sub	sp, sp, #12
 2081              	.LCFI94:
 2082              		.cfi_def_cfa_offset 24
 2083 0004 00AF     		add	r7, sp, #0
 2084              	.LCFI95:
 2085              		.cfi_def_cfa_register 7
 2086 0006 7860     		str	r0, [r7, #4]
 2087 0008 0C00     		movs	r4, r1
 2088 000a 1000     		movs	r0, r2
 2089 000c 1900     		movs	r1, r3
 2090 000e FB1C     		adds	r3, r7, #3
 2091 0010 221C     		adds	r2, r4, #0
 2092 0012 1A70     		strb	r2, [r3]
 2093 0014 BB1C     		adds	r3, r7, #2
 2094 0016 021C     		adds	r2, r0, #0
 2095 0018 1A70     		strb	r2, [r3]
 2096 001a 7B1C     		adds	r3, r7, #1
 2097 001c 0A1C     		adds	r2, r1, #0
 2098 001e 1A70     		strb	r2, [r3]
 612:Drivers/u8glib/src/u8g_font.c ****   y += u8g->font_calc_vref(u8g);
 2099              		.loc 1 612 0
 2100 0020 7B68     		ldr	r3, [r7, #4]
 2101 0022 5B6A     		ldr	r3, [r3, #36]
 2102 0024 7A68     		ldr	r2, [r7, #4]
 2103 0026 1000     		movs	r0, r2
 2104 0028 9847     		blx	r3
 2105              	.LVL0:
 2106 002a 0300     		movs	r3, r0
 2107 002c 1900     		movs	r1, r3
 2108 002e BB1C     		adds	r3, r7, #2
 2109 0030 BA1C     		adds	r2, r7, #2
 2110 0032 1278     		ldrb	r2, [r2]
 2111 0034 8A18     		adds	r2, r1, r2
 2112 0036 1A70     		strb	r2, [r3]
 613:Drivers/u8glib/src/u8g_font.c ****   return u8g_draw_glyph(u8g, x, y, encoding);
 2113              		.loc 1 613 0
 2114 0038 7B1C     		adds	r3, r7, #1
 2115 003a 1C78     		ldrb	r4, [r3]
 2116 003c BB1C     		adds	r3, r7, #2
 2117 003e 1A78     		ldrb	r2, [r3]
 2118 0040 FB1C     		adds	r3, r7, #3
 2119 0042 1978     		ldrb	r1, [r3]
 2120 0044 7868     		ldr	r0, [r7, #4]
 2121 0046 2300     		movs	r3, r4
ARM GAS  /tmp/ccxKl5M2.s 			page 48


 2122 0048 FFF7FEFF 		bl	u8g_draw_glyph
 2123 004c 0300     		movs	r3, r0
 614:Drivers/u8glib/src/u8g_font.c **** }
 2124              		.loc 1 614 0
 2125 004e 1800     		movs	r0, r3
 2126 0050 BD46     		mov	sp, r7
 2127 0052 03B0     		add	sp, sp, #12
 2128              		@ sp needed
 2129 0054 90BD     		pop	{r4, r7, pc}
 2130              		.cfi_endproc
 2131              	.LFE31:
 2133              		.section	.text.u8g_draw_glyph90,"ax",%progbits
 2134              		.align	1
 2135              		.global	u8g_draw_glyph90
 2136              		.syntax unified
 2137              		.code	16
 2138              		.thumb_func
 2139              		.fpu softvfp
 2141              	u8g_draw_glyph90:
 2142              	.LFB32:
 615:Drivers/u8glib/src/u8g_font.c **** 
 616:Drivers/u8glib/src/u8g_font.c **** int8_t u8g_draw_glyph90(u8g_t *u8g, u8g_uint_t x, u8g_uint_t y, uint8_t encoding)
 617:Drivers/u8glib/src/u8g_font.c **** {
 2143              		.loc 1 617 0
 2144              		.cfi_startproc
 2145 0000 90B5     		push	{r4, r7, lr}
 2146              	.LCFI96:
 2147              		.cfi_def_cfa_offset 12
 2148              		.cfi_offset 4, -12
 2149              		.cfi_offset 7, -8
 2150              		.cfi_offset 14, -4
 2151 0002 89B0     		sub	sp, sp, #36
 2152              	.LCFI97:
 2153              		.cfi_def_cfa_offset 48
 2154 0004 02AF     		add	r7, sp, #8
 2155              	.LCFI98:
 2156              		.cfi_def_cfa 7, 40
 2157 0006 7860     		str	r0, [r7, #4]
 2158 0008 0C00     		movs	r4, r1
 2159 000a 1000     		movs	r0, r2
 2160 000c 1900     		movs	r1, r3
 2161 000e FB1C     		adds	r3, r7, #3
 2162 0010 221C     		adds	r2, r4, #0
 2163 0012 1A70     		strb	r2, [r3]
 2164 0014 BB1C     		adds	r3, r7, #2
 2165 0016 021C     		adds	r2, r0, #0
 2166 0018 1A70     		strb	r2, [r3]
 2167 001a 7B1C     		adds	r3, r7, #1
 2168 001c 0A1C     		adds	r2, r1, #0
 2169 001e 1A70     		strb	r2, [r3]
 2170              	.LBB3:
 618:Drivers/u8glib/src/u8g_font.c ****   const u8g_pgm_uint8_t *data;
 619:Drivers/u8glib/src/u8g_font.c ****   uint8_t w, h;
 620:Drivers/u8glib/src/u8g_font.c ****   uint8_t i, j;
 621:Drivers/u8glib/src/u8g_font.c ****   u8g_uint_t ix, iy;
 622:Drivers/u8glib/src/u8g_font.c **** 
 623:Drivers/u8glib/src/u8g_font.c ****   {
ARM GAS  /tmp/ccxKl5M2.s 			page 49


 624:Drivers/u8glib/src/u8g_font.c ****     u8g_glyph_t g = u8g_GetGlyph(u8g, encoding);
 2171              		.loc 1 624 0
 2172 0020 7B1C     		adds	r3, r7, #1
 2173 0022 1A78     		ldrb	r2, [r3]
 2174 0024 7B68     		ldr	r3, [r7, #4]
 2175 0026 1100     		movs	r1, r2
 2176 0028 1800     		movs	r0, r3
 2177 002a FFF7FEFF 		bl	u8g_GetGlyph
 2178 002e 0300     		movs	r3, r0
 2179 0030 FB60     		str	r3, [r7, #12]
 625:Drivers/u8glib/src/u8g_font.c ****     if ( g == NULL  )
 2180              		.loc 1 625 0
 2181 0032 FB68     		ldr	r3, [r7, #12]
 2182 0034 002B     		cmp	r3, #0
 2183 0036 01D1     		bne	.L101
 626:Drivers/u8glib/src/u8g_font.c ****       return 0;
 2184              		.loc 1 626 0
 2185 0038 0023     		movs	r3, #0
 2186 003a B2E0     		b	.L102
 2187              	.L101:
 627:Drivers/u8glib/src/u8g_font.c ****     data = u8g_font_GetGlyphDataStart(u8g->font, g);
 2188              		.loc 1 627 0
 2189 003c 7B68     		ldr	r3, [r7, #4]
 2190 003e 9B68     		ldr	r3, [r3, #8]
 2191 0040 FA68     		ldr	r2, [r7, #12]
 2192 0042 1100     		movs	r1, r2
 2193 0044 1800     		movs	r0, r3
 2194 0046 FFF7FEFF 		bl	u8g_font_GetGlyphDataStart
 2195 004a 0300     		movs	r3, r0
 2196 004c 7B61     		str	r3, [r7, #20]
 2197              	.LBE3:
 628:Drivers/u8glib/src/u8g_font.c ****   }
 629:Drivers/u8glib/src/u8g_font.c ****   
 630:Drivers/u8glib/src/u8g_font.c ****   w = u8g->glyph_width;
 2198              		.loc 1 630 0
 2199 004e 0B23     		movs	r3, #11
 2200 0050 FB18     		adds	r3, r7, r3
 2201 0052 7A68     		ldr	r2, [r7, #4]
 2202 0054 D27F     		ldrb	r2, [r2, #31]
 2203 0056 1A70     		strb	r2, [r3]
 631:Drivers/u8glib/src/u8g_font.c ****   h = u8g->glyph_height;
 2204              		.loc 1 631 0
 2205 0058 0A23     		movs	r3, #10
 2206 005a FB18     		adds	r3, r7, r3
 2207 005c 7A68     		ldr	r2, [r7, #4]
 2208 005e 2021     		movs	r1, #32
 2209 0060 525C     		ldrb	r2, [r2, r1]
 2210 0062 1A70     		strb	r2, [r3]
 632:Drivers/u8glib/src/u8g_font.c ****   
 633:Drivers/u8glib/src/u8g_font.c ****   x += u8g->glyph_y;
 2211              		.loc 1 633 0
 2212 0064 7B68     		ldr	r3, [r7, #4]
 2213 0066 9B7F     		ldrb	r3, [r3, #30]
 2214 0068 5BB2     		sxtb	r3, r3
 2215 006a D9B2     		uxtb	r1, r3
 2216 006c FB1C     		adds	r3, r7, #3
 2217 006e FA1C     		adds	r2, r7, #3
ARM GAS  /tmp/ccxKl5M2.s 			page 50


 2218 0070 1278     		ldrb	r2, [r2]
 2219 0072 8A18     		adds	r2, r1, r2
 2220 0074 1A70     		strb	r2, [r3]
 634:Drivers/u8glib/src/u8g_font.c ****   x++;
 2221              		.loc 1 634 0
 2222 0076 FB1C     		adds	r3, r7, #3
 2223 0078 1A78     		ldrb	r2, [r3]
 2224 007a FB1C     		adds	r3, r7, #3
 2225 007c 0132     		adds	r2, r2, #1
 2226 007e 1A70     		strb	r2, [r3]
 635:Drivers/u8glib/src/u8g_font.c ****   y += u8g->glyph_x;
 2227              		.loc 1 635 0
 2228 0080 7B68     		ldr	r3, [r7, #4]
 2229 0082 5B7F     		ldrb	r3, [r3, #29]
 2230 0084 5BB2     		sxtb	r3, r3
 2231 0086 D9B2     		uxtb	r1, r3
 2232 0088 BB1C     		adds	r3, r7, #2
 2233 008a BA1C     		adds	r2, r7, #2
 2234 008c 1278     		ldrb	r2, [r2]
 2235 008e 8A18     		adds	r2, r1, r2
 2236 0090 1A70     		strb	r2, [r3]
 636:Drivers/u8glib/src/u8g_font.c ****   
 637:Drivers/u8glib/src/u8g_font.c ****   if ( u8g_IsBBXIntersection(u8g, x, y, h, w) == 0 )
 2237              		.loc 1 637 0
 2238 0092 0A23     		movs	r3, #10
 2239 0094 FB18     		adds	r3, r7, r3
 2240 0096 1C78     		ldrb	r4, [r3]
 2241 0098 BB1C     		adds	r3, r7, #2
 2242 009a 1A78     		ldrb	r2, [r3]
 2243 009c FB1C     		adds	r3, r7, #3
 2244 009e 1978     		ldrb	r1, [r3]
 2245 00a0 7868     		ldr	r0, [r7, #4]
 2246 00a2 0B23     		movs	r3, #11
 2247 00a4 FB18     		adds	r3, r7, r3
 2248 00a6 1B78     		ldrb	r3, [r3]
 2249 00a8 0093     		str	r3, [sp]
 2250 00aa 2300     		movs	r3, r4
 2251 00ac FFF7FEFF 		bl	u8g_IsBBXIntersection
 2252 00b0 031E     		subs	r3, r0, #0
 2253 00b2 03D1     		bne	.L103
 638:Drivers/u8glib/src/u8g_font.c ****     return u8g->glyph_dx;
 2254              		.loc 1 638 0
 2255 00b4 7B68     		ldr	r3, [r7, #4]
 2256 00b6 1B7F     		ldrb	r3, [r3, #28]
 2257 00b8 5BB2     		sxtb	r3, r3
 2258 00ba 72E0     		b	.L102
 2259              	.L103:
 639:Drivers/u8glib/src/u8g_font.c **** 
 640:Drivers/u8glib/src/u8g_font.c ****   /* now, w is reused as bytes per line */
 641:Drivers/u8glib/src/u8g_font.c ****   w += 7;
 2260              		.loc 1 641 0
 2261 00bc 0B23     		movs	r3, #11
 2262 00be FB18     		adds	r3, r7, r3
 2263 00c0 0B22     		movs	r2, #11
 2264 00c2 BA18     		adds	r2, r7, r2
 2265 00c4 1278     		ldrb	r2, [r2]
 2266 00c6 0732     		adds	r2, r2, #7
ARM GAS  /tmp/ccxKl5M2.s 			page 51


 2267 00c8 1A70     		strb	r2, [r3]
 642:Drivers/u8glib/src/u8g_font.c ****   w /= 8;
 2268              		.loc 1 642 0
 2269 00ca 0B23     		movs	r3, #11
 2270 00cc FB18     		adds	r3, r7, r3
 2271 00ce 0B22     		movs	r2, #11
 2272 00d0 BA18     		adds	r2, r7, r2
 2273 00d2 1278     		ldrb	r2, [r2]
 2274 00d4 D208     		lsrs	r2, r2, #3
 2275 00d6 1A70     		strb	r2, [r3]
 643:Drivers/u8glib/src/u8g_font.c ****   
 644:Drivers/u8glib/src/u8g_font.c ****   ix = x;
 2276              		.loc 1 644 0
 2277 00d8 1123     		movs	r3, #17
 2278 00da FB18     		adds	r3, r7, r3
 2279 00dc FA1C     		adds	r2, r7, #3
 2280 00de 1278     		ldrb	r2, [r2]
 2281 00e0 1A70     		strb	r2, [r3]
 645:Drivers/u8glib/src/u8g_font.c ****   ix += h;
 2282              		.loc 1 645 0
 2283 00e2 1123     		movs	r3, #17
 2284 00e4 FB18     		adds	r3, r7, r3
 2285 00e6 1122     		movs	r2, #17
 2286 00e8 B918     		adds	r1, r7, r2
 2287 00ea 0A22     		movs	r2, #10
 2288 00ec BA18     		adds	r2, r7, r2
 2289 00ee 0978     		ldrb	r1, [r1]
 2290 00f0 1278     		ldrb	r2, [r2]
 2291 00f2 8A18     		adds	r2, r1, r2
 2292 00f4 1A70     		strb	r2, [r3]
 646:Drivers/u8glib/src/u8g_font.c ****   ix--;
 2293              		.loc 1 646 0
 2294 00f6 1123     		movs	r3, #17
 2295 00f8 FB18     		adds	r3, r7, r3
 2296 00fa 1A78     		ldrb	r2, [r3]
 2297 00fc 1123     		movs	r3, #17
 2298 00fe FB18     		adds	r3, r7, r3
 2299 0100 013A     		subs	r2, r2, #1
 2300 0102 1A70     		strb	r2, [r3]
 647:Drivers/u8glib/src/u8g_font.c ****   for( j = 0; j < h; j++ )
 2301              		.loc 1 647 0
 2302 0104 1223     		movs	r3, #18
 2303 0106 FB18     		adds	r3, r7, r3
 2304 0108 0022     		movs	r2, #0
 2305 010a 1A70     		strb	r2, [r3]
 2306 010c 3EE0     		b	.L104
 2307              	.L107:
 648:Drivers/u8glib/src/u8g_font.c ****   {
 649:Drivers/u8glib/src/u8g_font.c ****     iy = y;
 2308              		.loc 1 649 0
 2309 010e 1023     		movs	r3, #16
 2310 0110 FB18     		adds	r3, r7, r3
 2311 0112 BA1C     		adds	r2, r7, #2
 2312 0114 1278     		ldrb	r2, [r2]
 2313 0116 1A70     		strb	r2, [r3]
 650:Drivers/u8glib/src/u8g_font.c ****     for( i = 0; i < w; i++ )
 2314              		.loc 1 650 0
ARM GAS  /tmp/ccxKl5M2.s 			page 52


 2315 0118 1323     		movs	r3, #19
 2316 011a FB18     		adds	r3, r7, r3
 2317 011c 0022     		movs	r2, #0
 2318 011e 1A70     		strb	r2, [r3]
 2319 0120 1EE0     		b	.L105
 2320              	.L106:
 651:Drivers/u8glib/src/u8g_font.c ****     {
 652:Drivers/u8glib/src/u8g_font.c ****       u8g_Draw8Pixel(u8g, ix, iy, 1, u8g_pgm_read(data));
 2321              		.loc 1 652 0 discriminator 3
 2322 0122 7B69     		ldr	r3, [r7, #20]
 2323 0124 1B78     		ldrb	r3, [r3]
 2324 0126 1022     		movs	r2, #16
 2325 0128 BA18     		adds	r2, r7, r2
 2326 012a 1478     		ldrb	r4, [r2]
 2327 012c 1122     		movs	r2, #17
 2328 012e BA18     		adds	r2, r7, r2
 2329 0130 1178     		ldrb	r1, [r2]
 2330 0132 7868     		ldr	r0, [r7, #4]
 2331 0134 0093     		str	r3, [sp]
 2332 0136 0123     		movs	r3, #1
 2333 0138 2200     		movs	r2, r4
 2334 013a FFF7FEFF 		bl	u8g_Draw8Pixel
 653:Drivers/u8glib/src/u8g_font.c ****       data++;
 2335              		.loc 1 653 0 discriminator 3
 2336 013e 7B69     		ldr	r3, [r7, #20]
 2337 0140 0133     		adds	r3, r3, #1
 2338 0142 7B61     		str	r3, [r7, #20]
 654:Drivers/u8glib/src/u8g_font.c ****       iy+=8;
 2339              		.loc 1 654 0 discriminator 3
 2340 0144 1023     		movs	r3, #16
 2341 0146 FB18     		adds	r3, r7, r3
 2342 0148 1022     		movs	r2, #16
 2343 014a BA18     		adds	r2, r7, r2
 2344 014c 1278     		ldrb	r2, [r2]
 2345 014e 0832     		adds	r2, r2, #8
 2346 0150 1A70     		strb	r2, [r3]
 650:Drivers/u8glib/src/u8g_font.c ****     {
 2347              		.loc 1 650 0 discriminator 3
 2348 0152 1323     		movs	r3, #19
 2349 0154 FB18     		adds	r3, r7, r3
 2350 0156 1A78     		ldrb	r2, [r3]
 2351 0158 1323     		movs	r3, #19
 2352 015a FB18     		adds	r3, r7, r3
 2353 015c 0132     		adds	r2, r2, #1
 2354 015e 1A70     		strb	r2, [r3]
 2355              	.L105:
 650:Drivers/u8glib/src/u8g_font.c ****     {
 2356              		.loc 1 650 0 is_stmt 0 discriminator 1
 2357 0160 1323     		movs	r3, #19
 2358 0162 FA18     		adds	r2, r7, r3
 2359 0164 0B23     		movs	r3, #11
 2360 0166 FB18     		adds	r3, r7, r3
 2361 0168 1278     		ldrb	r2, [r2]
 2362 016a 1B78     		ldrb	r3, [r3]
 2363 016c 9A42     		cmp	r2, r3
 2364 016e D8D3     		bcc	.L106
 655:Drivers/u8glib/src/u8g_font.c ****     }
ARM GAS  /tmp/ccxKl5M2.s 			page 53


 656:Drivers/u8glib/src/u8g_font.c ****     ix--;
 2365              		.loc 1 656 0 is_stmt 1 discriminator 2
 2366 0170 1123     		movs	r3, #17
 2367 0172 FB18     		adds	r3, r7, r3
 2368 0174 1A78     		ldrb	r2, [r3]
 2369 0176 1123     		movs	r3, #17
 2370 0178 FB18     		adds	r3, r7, r3
 2371 017a 013A     		subs	r2, r2, #1
 2372 017c 1A70     		strb	r2, [r3]
 647:Drivers/u8glib/src/u8g_font.c ****   {
 2373              		.loc 1 647 0 discriminator 2
 2374 017e 1223     		movs	r3, #18
 2375 0180 FB18     		adds	r3, r7, r3
 2376 0182 1A78     		ldrb	r2, [r3]
 2377 0184 1223     		movs	r3, #18
 2378 0186 FB18     		adds	r3, r7, r3
 2379 0188 0132     		adds	r2, r2, #1
 2380 018a 1A70     		strb	r2, [r3]
 2381              	.L104:
 647:Drivers/u8glib/src/u8g_font.c ****   {
 2382              		.loc 1 647 0 is_stmt 0 discriminator 1
 2383 018c 1223     		movs	r3, #18
 2384 018e FA18     		adds	r2, r7, r3
 2385 0190 0A23     		movs	r3, #10
 2386 0192 FB18     		adds	r3, r7, r3
 2387 0194 1278     		ldrb	r2, [r2]
 2388 0196 1B78     		ldrb	r3, [r3]
 2389 0198 9A42     		cmp	r2, r3
 2390 019a B8D3     		bcc	.L107
 657:Drivers/u8glib/src/u8g_font.c ****   }
 658:Drivers/u8glib/src/u8g_font.c ****   return u8g->glyph_dx;
 2391              		.loc 1 658 0 is_stmt 1
 2392 019c 7B68     		ldr	r3, [r7, #4]
 2393 019e 1B7F     		ldrb	r3, [r3, #28]
 2394 01a0 5BB2     		sxtb	r3, r3
 2395              	.L102:
 659:Drivers/u8glib/src/u8g_font.c **** }
 2396              		.loc 1 659 0
 2397 01a2 1800     		movs	r0, r3
 2398 01a4 BD46     		mov	sp, r7
 2399 01a6 07B0     		add	sp, sp, #28
 2400              		@ sp needed
 2401 01a8 90BD     		pop	{r4, r7, pc}
 2402              		.cfi_endproc
 2403              	.LFE32:
 2405              		.section	.text.u8g_DrawGlyph90,"ax",%progbits
 2406              		.align	1
 2407              		.global	u8g_DrawGlyph90
 2408              		.syntax unified
 2409              		.code	16
 2410              		.thumb_func
 2411              		.fpu softvfp
 2413              	u8g_DrawGlyph90:
 2414              	.LFB33:
 660:Drivers/u8glib/src/u8g_font.c **** 
 661:Drivers/u8glib/src/u8g_font.c **** int8_t u8g_DrawGlyph90(u8g_t *u8g, u8g_uint_t x, u8g_uint_t y, uint8_t encoding)
 662:Drivers/u8glib/src/u8g_font.c **** {
ARM GAS  /tmp/ccxKl5M2.s 			page 54


 2415              		.loc 1 662 0
 2416              		.cfi_startproc
 2417 0000 90B5     		push	{r4, r7, lr}
 2418              	.LCFI99:
 2419              		.cfi_def_cfa_offset 12
 2420              		.cfi_offset 4, -12
 2421              		.cfi_offset 7, -8
 2422              		.cfi_offset 14, -4
 2423 0002 83B0     		sub	sp, sp, #12
 2424              	.LCFI100:
 2425              		.cfi_def_cfa_offset 24
 2426 0004 00AF     		add	r7, sp, #0
 2427              	.LCFI101:
 2428              		.cfi_def_cfa_register 7
 2429 0006 7860     		str	r0, [r7, #4]
 2430 0008 0C00     		movs	r4, r1
 2431 000a 1000     		movs	r0, r2
 2432 000c 1900     		movs	r1, r3
 2433 000e FB1C     		adds	r3, r7, #3
 2434 0010 221C     		adds	r2, r4, #0
 2435 0012 1A70     		strb	r2, [r3]
 2436 0014 BB1C     		adds	r3, r7, #2
 2437 0016 021C     		adds	r2, r0, #0
 2438 0018 1A70     		strb	r2, [r3]
 2439 001a 7B1C     		adds	r3, r7, #1
 2440 001c 0A1C     		adds	r2, r1, #0
 2441 001e 1A70     		strb	r2, [r3]
 663:Drivers/u8glib/src/u8g_font.c ****   x -= u8g->font_calc_vref(u8g);
 2442              		.loc 1 663 0
 2443 0020 7B68     		ldr	r3, [r7, #4]
 2444 0022 5B6A     		ldr	r3, [r3, #36]
 2445 0024 7A68     		ldr	r2, [r7, #4]
 2446 0026 1000     		movs	r0, r2
 2447 0028 9847     		blx	r3
 2448              	.LVL1:
 2449 002a 0300     		movs	r3, r0
 2450 002c 1900     		movs	r1, r3
 2451 002e FB1C     		adds	r3, r7, #3
 2452 0030 FA1C     		adds	r2, r7, #3
 2453 0032 1278     		ldrb	r2, [r2]
 2454 0034 521A     		subs	r2, r2, r1
 2455 0036 1A70     		strb	r2, [r3]
 664:Drivers/u8glib/src/u8g_font.c ****   return u8g_draw_glyph90(u8g, x, y, encoding);
 2456              		.loc 1 664 0
 2457 0038 7B1C     		adds	r3, r7, #1
 2458 003a 1C78     		ldrb	r4, [r3]
 2459 003c BB1C     		adds	r3, r7, #2
 2460 003e 1A78     		ldrb	r2, [r3]
 2461 0040 FB1C     		adds	r3, r7, #3
 2462 0042 1978     		ldrb	r1, [r3]
 2463 0044 7868     		ldr	r0, [r7, #4]
 2464 0046 2300     		movs	r3, r4
 2465 0048 FFF7FEFF 		bl	u8g_draw_glyph90
 2466 004c 0300     		movs	r3, r0
 665:Drivers/u8glib/src/u8g_font.c **** }
 2467              		.loc 1 665 0
 2468 004e 1800     		movs	r0, r3
ARM GAS  /tmp/ccxKl5M2.s 			page 55


 2469 0050 BD46     		mov	sp, r7
 2470 0052 03B0     		add	sp, sp, #12
 2471              		@ sp needed
 2472 0054 90BD     		pop	{r4, r7, pc}
 2473              		.cfi_endproc
 2474              	.LFE33:
 2476              		.section	.text.u8g_draw_glyph180,"ax",%progbits
 2477              		.align	1
 2478              		.global	u8g_draw_glyph180
 2479              		.syntax unified
 2480              		.code	16
 2481              		.thumb_func
 2482              		.fpu softvfp
 2484              	u8g_draw_glyph180:
 2485              	.LFB34:
 666:Drivers/u8glib/src/u8g_font.c **** 
 667:Drivers/u8glib/src/u8g_font.c **** 
 668:Drivers/u8glib/src/u8g_font.c **** int8_t u8g_draw_glyph180(u8g_t *u8g, u8g_uint_t x, u8g_uint_t y, uint8_t encoding)
 669:Drivers/u8glib/src/u8g_font.c **** {
 2486              		.loc 1 669 0
 2487              		.cfi_startproc
 2488 0000 90B5     		push	{r4, r7, lr}
 2489              	.LCFI102:
 2490              		.cfi_def_cfa_offset 12
 2491              		.cfi_offset 4, -12
 2492              		.cfi_offset 7, -8
 2493              		.cfi_offset 14, -4
 2494 0002 89B0     		sub	sp, sp, #36
 2495              	.LCFI103:
 2496              		.cfi_def_cfa_offset 48
 2497 0004 02AF     		add	r7, sp, #8
 2498              	.LCFI104:
 2499              		.cfi_def_cfa 7, 40
 2500 0006 7860     		str	r0, [r7, #4]
 2501 0008 0C00     		movs	r4, r1
 2502 000a 1000     		movs	r0, r2
 2503 000c 1900     		movs	r1, r3
 2504 000e FB1C     		adds	r3, r7, #3
 2505 0010 221C     		adds	r2, r4, #0
 2506 0012 1A70     		strb	r2, [r3]
 2507 0014 BB1C     		adds	r3, r7, #2
 2508 0016 021C     		adds	r2, r0, #0
 2509 0018 1A70     		strb	r2, [r3]
 2510 001a 7B1C     		adds	r3, r7, #1
 2511 001c 0A1C     		adds	r2, r1, #0
 2512 001e 1A70     		strb	r2, [r3]
 2513              	.LBB4:
 670:Drivers/u8glib/src/u8g_font.c ****   const u8g_pgm_uint8_t *data;
 671:Drivers/u8glib/src/u8g_font.c ****   uint8_t w, h;
 672:Drivers/u8glib/src/u8g_font.c ****   uint8_t i, j;
 673:Drivers/u8glib/src/u8g_font.c ****   u8g_uint_t ix, iy;
 674:Drivers/u8glib/src/u8g_font.c **** 
 675:Drivers/u8glib/src/u8g_font.c ****   {
 676:Drivers/u8glib/src/u8g_font.c ****     u8g_glyph_t g = u8g_GetGlyph(u8g, encoding);
 2514              		.loc 1 676 0
 2515 0020 7B1C     		adds	r3, r7, #1
 2516 0022 1A78     		ldrb	r2, [r3]
ARM GAS  /tmp/ccxKl5M2.s 			page 56


 2517 0024 7B68     		ldr	r3, [r7, #4]
 2518 0026 1100     		movs	r1, r2
 2519 0028 1800     		movs	r0, r3
 2520 002a FFF7FEFF 		bl	u8g_GetGlyph
 2521 002e 0300     		movs	r3, r0
 2522 0030 FB60     		str	r3, [r7, #12]
 677:Drivers/u8glib/src/u8g_font.c ****     if ( g == NULL  )
 2523              		.loc 1 677 0
 2524 0032 FB68     		ldr	r3, [r7, #12]
 2525 0034 002B     		cmp	r3, #0
 2526 0036 01D1     		bne	.L111
 678:Drivers/u8glib/src/u8g_font.c ****       return 0;
 2527              		.loc 1 678 0
 2528 0038 0023     		movs	r3, #0
 2529 003a B9E0     		b	.L112
 2530              	.L111:
 679:Drivers/u8glib/src/u8g_font.c ****     data = u8g_font_GetGlyphDataStart(u8g->font, g);
 2531              		.loc 1 679 0
 2532 003c 7B68     		ldr	r3, [r7, #4]
 2533 003e 9B68     		ldr	r3, [r3, #8]
 2534 0040 FA68     		ldr	r2, [r7, #12]
 2535 0042 1100     		movs	r1, r2
 2536 0044 1800     		movs	r0, r3
 2537 0046 FFF7FEFF 		bl	u8g_font_GetGlyphDataStart
 2538 004a 0300     		movs	r3, r0
 2539 004c 7B61     		str	r3, [r7, #20]
 2540              	.LBE4:
 680:Drivers/u8glib/src/u8g_font.c ****   }
 681:Drivers/u8glib/src/u8g_font.c ****   
 682:Drivers/u8glib/src/u8g_font.c ****   w = u8g->glyph_width;
 2541              		.loc 1 682 0
 2542 004e 0B23     		movs	r3, #11
 2543 0050 FB18     		adds	r3, r7, r3
 2544 0052 7A68     		ldr	r2, [r7, #4]
 2545 0054 D27F     		ldrb	r2, [r2, #31]
 2546 0056 1A70     		strb	r2, [r3]
 683:Drivers/u8glib/src/u8g_font.c ****   h = u8g->glyph_height;
 2547              		.loc 1 683 0
 2548 0058 0A23     		movs	r3, #10
 2549 005a FB18     		adds	r3, r7, r3
 2550 005c 7A68     		ldr	r2, [r7, #4]
 2551 005e 2021     		movs	r1, #32
 2552 0060 525C     		ldrb	r2, [r2, r1]
 2553 0062 1A70     		strb	r2, [r3]
 684:Drivers/u8glib/src/u8g_font.c ****   
 685:Drivers/u8glib/src/u8g_font.c ****   x -= u8g->glyph_x;
 2554              		.loc 1 685 0
 2555 0064 7B68     		ldr	r3, [r7, #4]
 2556 0066 5B7F     		ldrb	r3, [r3, #29]
 2557 0068 5BB2     		sxtb	r3, r3
 2558 006a DAB2     		uxtb	r2, r3
 2559 006c FB1C     		adds	r3, r7, #3
 2560 006e F91C     		adds	r1, r7, #3
 2561 0070 0978     		ldrb	r1, [r1]
 2562 0072 8A1A     		subs	r2, r1, r2
 2563 0074 1A70     		strb	r2, [r3]
 686:Drivers/u8glib/src/u8g_font.c ****   y += u8g->glyph_y;
ARM GAS  /tmp/ccxKl5M2.s 			page 57


 2564              		.loc 1 686 0
 2565 0076 7B68     		ldr	r3, [r7, #4]
 2566 0078 9B7F     		ldrb	r3, [r3, #30]
 2567 007a 5BB2     		sxtb	r3, r3
 2568 007c D9B2     		uxtb	r1, r3
 2569 007e BB1C     		adds	r3, r7, #2
 2570 0080 BA1C     		adds	r2, r7, #2
 2571 0082 1278     		ldrb	r2, [r2]
 2572 0084 8A18     		adds	r2, r1, r2
 2573 0086 1A70     		strb	r2, [r3]
 687:Drivers/u8glib/src/u8g_font.c ****   y++;
 2574              		.loc 1 687 0
 2575 0088 BB1C     		adds	r3, r7, #2
 2576 008a 1A78     		ldrb	r2, [r3]
 2577 008c BB1C     		adds	r3, r7, #2
 2578 008e 0132     		adds	r2, r2, #1
 2579 0090 1A70     		strb	r2, [r3]
 688:Drivers/u8glib/src/u8g_font.c ****   
 689:Drivers/u8glib/src/u8g_font.c ****   if ( u8g_IsBBXIntersection(u8g, x-(w-1), y, w, h) == 0 )
 2580              		.loc 1 689 0
 2581 0092 FA1C     		adds	r2, r7, #3
 2582 0094 0B23     		movs	r3, #11
 2583 0096 FB18     		adds	r3, r7, r3
 2584 0098 1278     		ldrb	r2, [r2]
 2585 009a 1B78     		ldrb	r3, [r3]
 2586 009c D31A     		subs	r3, r2, r3
 2587 009e DBB2     		uxtb	r3, r3
 2588 00a0 0133     		adds	r3, r3, #1
 2589 00a2 D9B2     		uxtb	r1, r3
 2590 00a4 0B23     		movs	r3, #11
 2591 00a6 FB18     		adds	r3, r7, r3
 2592 00a8 1C78     		ldrb	r4, [r3]
 2593 00aa BB1C     		adds	r3, r7, #2
 2594 00ac 1A78     		ldrb	r2, [r3]
 2595 00ae 7868     		ldr	r0, [r7, #4]
 2596 00b0 0A23     		movs	r3, #10
 2597 00b2 FB18     		adds	r3, r7, r3
 2598 00b4 1B78     		ldrb	r3, [r3]
 2599 00b6 0093     		str	r3, [sp]
 2600 00b8 2300     		movs	r3, r4
 2601 00ba FFF7FEFF 		bl	u8g_IsBBXIntersection
 2602 00be 031E     		subs	r3, r0, #0
 2603 00c0 03D1     		bne	.L113
 690:Drivers/u8glib/src/u8g_font.c ****     return u8g->glyph_dx;
 2604              		.loc 1 690 0
 2605 00c2 7B68     		ldr	r3, [r7, #4]
 2606 00c4 1B7F     		ldrb	r3, [r3, #28]
 2607 00c6 5BB2     		sxtb	r3, r3
 2608 00c8 72E0     		b	.L112
 2609              	.L113:
 691:Drivers/u8glib/src/u8g_font.c **** 
 692:Drivers/u8glib/src/u8g_font.c ****   /* now, w is reused as bytes per line */
 693:Drivers/u8glib/src/u8g_font.c ****   w += 7;
 2610              		.loc 1 693 0
 2611 00ca 0B23     		movs	r3, #11
 2612 00cc FB18     		adds	r3, r7, r3
 2613 00ce 0B22     		movs	r2, #11
ARM GAS  /tmp/ccxKl5M2.s 			page 58


 2614 00d0 BA18     		adds	r2, r7, r2
 2615 00d2 1278     		ldrb	r2, [r2]
 2616 00d4 0732     		adds	r2, r2, #7
 2617 00d6 1A70     		strb	r2, [r3]
 694:Drivers/u8glib/src/u8g_font.c ****   w /= 8;
 2618              		.loc 1 694 0
 2619 00d8 0B23     		movs	r3, #11
 2620 00da FB18     		adds	r3, r7, r3
 2621 00dc 0B22     		movs	r2, #11
 2622 00de BA18     		adds	r2, r7, r2
 2623 00e0 1278     		ldrb	r2, [r2]
 2624 00e2 D208     		lsrs	r2, r2, #3
 2625 00e4 1A70     		strb	r2, [r3]
 695:Drivers/u8glib/src/u8g_font.c ****   
 696:Drivers/u8glib/src/u8g_font.c ****   iy = y;
 2626              		.loc 1 696 0
 2627 00e6 1023     		movs	r3, #16
 2628 00e8 FB18     		adds	r3, r7, r3
 2629 00ea BA1C     		adds	r2, r7, #2
 2630 00ec 1278     		ldrb	r2, [r2]
 2631 00ee 1A70     		strb	r2, [r3]
 697:Drivers/u8glib/src/u8g_font.c ****   iy += h;
 2632              		.loc 1 697 0
 2633 00f0 1023     		movs	r3, #16
 2634 00f2 FB18     		adds	r3, r7, r3
 2635 00f4 1022     		movs	r2, #16
 2636 00f6 B918     		adds	r1, r7, r2
 2637 00f8 0A22     		movs	r2, #10
 2638 00fa BA18     		adds	r2, r7, r2
 2639 00fc 0978     		ldrb	r1, [r1]
 2640 00fe 1278     		ldrb	r2, [r2]
 2641 0100 8A18     		adds	r2, r1, r2
 2642 0102 1A70     		strb	r2, [r3]
 698:Drivers/u8glib/src/u8g_font.c ****   iy--;
 2643              		.loc 1 698 0
 2644 0104 1023     		movs	r3, #16
 2645 0106 FB18     		adds	r3, r7, r3
 2646 0108 1A78     		ldrb	r2, [r3]
 2647 010a 1023     		movs	r3, #16
 2648 010c FB18     		adds	r3, r7, r3
 2649 010e 013A     		subs	r2, r2, #1
 2650 0110 1A70     		strb	r2, [r3]
 699:Drivers/u8glib/src/u8g_font.c ****   for( j = 0; j < h; j++ )
 2651              		.loc 1 699 0
 2652 0112 1223     		movs	r3, #18
 2653 0114 FB18     		adds	r3, r7, r3
 2654 0116 0022     		movs	r2, #0
 2655 0118 1A70     		strb	r2, [r3]
 2656 011a 3EE0     		b	.L114
 2657              	.L117:
 700:Drivers/u8glib/src/u8g_font.c ****   {
 701:Drivers/u8glib/src/u8g_font.c ****     ix = x;
 2658              		.loc 1 701 0
 2659 011c 1123     		movs	r3, #17
 2660 011e FB18     		adds	r3, r7, r3
 2661 0120 FA1C     		adds	r2, r7, #3
 2662 0122 1278     		ldrb	r2, [r2]
ARM GAS  /tmp/ccxKl5M2.s 			page 59


 2663 0124 1A70     		strb	r2, [r3]
 702:Drivers/u8glib/src/u8g_font.c ****     for( i = 0; i < w; i++ )
 2664              		.loc 1 702 0
 2665 0126 1323     		movs	r3, #19
 2666 0128 FB18     		adds	r3, r7, r3
 2667 012a 0022     		movs	r2, #0
 2668 012c 1A70     		strb	r2, [r3]
 2669 012e 1EE0     		b	.L115
 2670              	.L116:
 703:Drivers/u8glib/src/u8g_font.c ****     {
 704:Drivers/u8glib/src/u8g_font.c ****       u8g_Draw8Pixel(u8g, ix, iy, 2, u8g_pgm_read(data));
 2671              		.loc 1 704 0 discriminator 3
 2672 0130 7B69     		ldr	r3, [r7, #20]
 2673 0132 1B78     		ldrb	r3, [r3]
 2674 0134 1022     		movs	r2, #16
 2675 0136 BA18     		adds	r2, r7, r2
 2676 0138 1478     		ldrb	r4, [r2]
 2677 013a 1122     		movs	r2, #17
 2678 013c BA18     		adds	r2, r7, r2
 2679 013e 1178     		ldrb	r1, [r2]
 2680 0140 7868     		ldr	r0, [r7, #4]
 2681 0142 0093     		str	r3, [sp]
 2682 0144 0223     		movs	r3, #2
 2683 0146 2200     		movs	r2, r4
 2684 0148 FFF7FEFF 		bl	u8g_Draw8Pixel
 705:Drivers/u8glib/src/u8g_font.c ****       data++;
 2685              		.loc 1 705 0 discriminator 3
 2686 014c 7B69     		ldr	r3, [r7, #20]
 2687 014e 0133     		adds	r3, r3, #1
 2688 0150 7B61     		str	r3, [r7, #20]
 706:Drivers/u8glib/src/u8g_font.c ****       ix-=8;
 2689              		.loc 1 706 0 discriminator 3
 2690 0152 1123     		movs	r3, #17
 2691 0154 FB18     		adds	r3, r7, r3
 2692 0156 1122     		movs	r2, #17
 2693 0158 BA18     		adds	r2, r7, r2
 2694 015a 1278     		ldrb	r2, [r2]
 2695 015c 083A     		subs	r2, r2, #8
 2696 015e 1A70     		strb	r2, [r3]
 702:Drivers/u8glib/src/u8g_font.c ****     {
 2697              		.loc 1 702 0 discriminator 3
 2698 0160 1323     		movs	r3, #19
 2699 0162 FB18     		adds	r3, r7, r3
 2700 0164 1A78     		ldrb	r2, [r3]
 2701 0166 1323     		movs	r3, #19
 2702 0168 FB18     		adds	r3, r7, r3
 2703 016a 0132     		adds	r2, r2, #1
 2704 016c 1A70     		strb	r2, [r3]
 2705              	.L115:
 702:Drivers/u8glib/src/u8g_font.c ****     {
 2706              		.loc 1 702 0 is_stmt 0 discriminator 1
 2707 016e 1323     		movs	r3, #19
 2708 0170 FA18     		adds	r2, r7, r3
 2709 0172 0B23     		movs	r3, #11
 2710 0174 FB18     		adds	r3, r7, r3
 2711 0176 1278     		ldrb	r2, [r2]
 2712 0178 1B78     		ldrb	r3, [r3]
ARM GAS  /tmp/ccxKl5M2.s 			page 60


 2713 017a 9A42     		cmp	r2, r3
 2714 017c D8D3     		bcc	.L116
 707:Drivers/u8glib/src/u8g_font.c ****     }
 708:Drivers/u8glib/src/u8g_font.c ****     iy--;
 2715              		.loc 1 708 0 is_stmt 1 discriminator 2
 2716 017e 1023     		movs	r3, #16
 2717 0180 FB18     		adds	r3, r7, r3
 2718 0182 1A78     		ldrb	r2, [r3]
 2719 0184 1023     		movs	r3, #16
 2720 0186 FB18     		adds	r3, r7, r3
 2721 0188 013A     		subs	r2, r2, #1
 2722 018a 1A70     		strb	r2, [r3]
 699:Drivers/u8glib/src/u8g_font.c ****   {
 2723              		.loc 1 699 0 discriminator 2
 2724 018c 1223     		movs	r3, #18
 2725 018e FB18     		adds	r3, r7, r3
 2726 0190 1A78     		ldrb	r2, [r3]
 2727 0192 1223     		movs	r3, #18
 2728 0194 FB18     		adds	r3, r7, r3
 2729 0196 0132     		adds	r2, r2, #1
 2730 0198 1A70     		strb	r2, [r3]
 2731              	.L114:
 699:Drivers/u8glib/src/u8g_font.c ****   {
 2732              		.loc 1 699 0 is_stmt 0 discriminator 1
 2733 019a 1223     		movs	r3, #18
 2734 019c FA18     		adds	r2, r7, r3
 2735 019e 0A23     		movs	r3, #10
 2736 01a0 FB18     		adds	r3, r7, r3
 2737 01a2 1278     		ldrb	r2, [r2]
 2738 01a4 1B78     		ldrb	r3, [r3]
 2739 01a6 9A42     		cmp	r2, r3
 2740 01a8 B8D3     		bcc	.L117
 709:Drivers/u8glib/src/u8g_font.c ****   }
 710:Drivers/u8glib/src/u8g_font.c ****   return u8g->glyph_dx;
 2741              		.loc 1 710 0 is_stmt 1
 2742 01aa 7B68     		ldr	r3, [r7, #4]
 2743 01ac 1B7F     		ldrb	r3, [r3, #28]
 2744 01ae 5BB2     		sxtb	r3, r3
 2745              	.L112:
 711:Drivers/u8glib/src/u8g_font.c **** }
 2746              		.loc 1 711 0
 2747 01b0 1800     		movs	r0, r3
 2748 01b2 BD46     		mov	sp, r7
 2749 01b4 07B0     		add	sp, sp, #28
 2750              		@ sp needed
 2751 01b6 90BD     		pop	{r4, r7, pc}
 2752              		.cfi_endproc
 2753              	.LFE34:
 2755              		.section	.text.u8g_DrawGlyph180,"ax",%progbits
 2756              		.align	1
 2757              		.global	u8g_DrawGlyph180
 2758              		.syntax unified
 2759              		.code	16
 2760              		.thumb_func
 2761              		.fpu softvfp
 2763              	u8g_DrawGlyph180:
 2764              	.LFB35:
ARM GAS  /tmp/ccxKl5M2.s 			page 61


 712:Drivers/u8glib/src/u8g_font.c **** 
 713:Drivers/u8glib/src/u8g_font.c **** int8_t u8g_DrawGlyph180(u8g_t *u8g, u8g_uint_t x, u8g_uint_t y, uint8_t encoding)
 714:Drivers/u8glib/src/u8g_font.c **** {
 2765              		.loc 1 714 0
 2766              		.cfi_startproc
 2767 0000 90B5     		push	{r4, r7, lr}
 2768              	.LCFI105:
 2769              		.cfi_def_cfa_offset 12
 2770              		.cfi_offset 4, -12
 2771              		.cfi_offset 7, -8
 2772              		.cfi_offset 14, -4
 2773 0002 83B0     		sub	sp, sp, #12
 2774              	.LCFI106:
 2775              		.cfi_def_cfa_offset 24
 2776 0004 00AF     		add	r7, sp, #0
 2777              	.LCFI107:
 2778              		.cfi_def_cfa_register 7
 2779 0006 7860     		str	r0, [r7, #4]
 2780 0008 0C00     		movs	r4, r1
 2781 000a 1000     		movs	r0, r2
 2782 000c 1900     		movs	r1, r3
 2783 000e FB1C     		adds	r3, r7, #3
 2784 0010 221C     		adds	r2, r4, #0
 2785 0012 1A70     		strb	r2, [r3]
 2786 0014 BB1C     		adds	r3, r7, #2
 2787 0016 021C     		adds	r2, r0, #0
 2788 0018 1A70     		strb	r2, [r3]
 2789 001a 7B1C     		adds	r3, r7, #1
 2790 001c 0A1C     		adds	r2, r1, #0
 2791 001e 1A70     		strb	r2, [r3]
 715:Drivers/u8glib/src/u8g_font.c ****   y -= u8g->font_calc_vref(u8g);
 2792              		.loc 1 715 0
 2793 0020 7B68     		ldr	r3, [r7, #4]
 2794 0022 5B6A     		ldr	r3, [r3, #36]
 2795 0024 7A68     		ldr	r2, [r7, #4]
 2796 0026 1000     		movs	r0, r2
 2797 0028 9847     		blx	r3
 2798              	.LVL2:
 2799 002a 0300     		movs	r3, r0
 2800 002c 1900     		movs	r1, r3
 2801 002e BB1C     		adds	r3, r7, #2
 2802 0030 BA1C     		adds	r2, r7, #2
 2803 0032 1278     		ldrb	r2, [r2]
 2804 0034 521A     		subs	r2, r2, r1
 2805 0036 1A70     		strb	r2, [r3]
 716:Drivers/u8glib/src/u8g_font.c ****   return u8g_draw_glyph180(u8g, x, y, encoding);
 2806              		.loc 1 716 0
 2807 0038 7B1C     		adds	r3, r7, #1
 2808 003a 1C78     		ldrb	r4, [r3]
 2809 003c BB1C     		adds	r3, r7, #2
 2810 003e 1A78     		ldrb	r2, [r3]
 2811 0040 FB1C     		adds	r3, r7, #3
 2812 0042 1978     		ldrb	r1, [r3]
 2813 0044 7868     		ldr	r0, [r7, #4]
 2814 0046 2300     		movs	r3, r4
 2815 0048 FFF7FEFF 		bl	u8g_draw_glyph180
 2816 004c 0300     		movs	r3, r0
ARM GAS  /tmp/ccxKl5M2.s 			page 62


 717:Drivers/u8glib/src/u8g_font.c **** }
 2817              		.loc 1 717 0
 2818 004e 1800     		movs	r0, r3
 2819 0050 BD46     		mov	sp, r7
 2820 0052 03B0     		add	sp, sp, #12
 2821              		@ sp needed
 2822 0054 90BD     		pop	{r4, r7, pc}
 2823              		.cfi_endproc
 2824              	.LFE35:
 2826              		.section	.text.u8g_draw_glyph270,"ax",%progbits
 2827              		.align	1
 2828              		.global	u8g_draw_glyph270
 2829              		.syntax unified
 2830              		.code	16
 2831              		.thumb_func
 2832              		.fpu softvfp
 2834              	u8g_draw_glyph270:
 2835              	.LFB36:
 718:Drivers/u8glib/src/u8g_font.c **** 
 719:Drivers/u8glib/src/u8g_font.c **** 
 720:Drivers/u8glib/src/u8g_font.c **** int8_t u8g_draw_glyph270(u8g_t *u8g, u8g_uint_t x, u8g_uint_t y, uint8_t encoding)
 721:Drivers/u8glib/src/u8g_font.c **** {
 2836              		.loc 1 721 0
 2837              		.cfi_startproc
 2838 0000 90B5     		push	{r4, r7, lr}
 2839              	.LCFI108:
 2840              		.cfi_def_cfa_offset 12
 2841              		.cfi_offset 4, -12
 2842              		.cfi_offset 7, -8
 2843              		.cfi_offset 14, -4
 2844 0002 89B0     		sub	sp, sp, #36
 2845              	.LCFI109:
 2846              		.cfi_def_cfa_offset 48
 2847 0004 02AF     		add	r7, sp, #8
 2848              	.LCFI110:
 2849              		.cfi_def_cfa 7, 40
 2850 0006 7860     		str	r0, [r7, #4]
 2851 0008 0C00     		movs	r4, r1
 2852 000a 1000     		movs	r0, r2
 2853 000c 1900     		movs	r1, r3
 2854 000e FB1C     		adds	r3, r7, #3
 2855 0010 221C     		adds	r2, r4, #0
 2856 0012 1A70     		strb	r2, [r3]
 2857 0014 BB1C     		adds	r3, r7, #2
 2858 0016 021C     		adds	r2, r0, #0
 2859 0018 1A70     		strb	r2, [r3]
 2860 001a 7B1C     		adds	r3, r7, #1
 2861 001c 0A1C     		adds	r2, r1, #0
 2862 001e 1A70     		strb	r2, [r3]
 2863              	.LBB5:
 722:Drivers/u8glib/src/u8g_font.c ****   const u8g_pgm_uint8_t *data;
 723:Drivers/u8glib/src/u8g_font.c ****   uint8_t w, h;
 724:Drivers/u8glib/src/u8g_font.c ****   uint8_t i, j;
 725:Drivers/u8glib/src/u8g_font.c ****   u8g_uint_t ix, iy;
 726:Drivers/u8glib/src/u8g_font.c **** 
 727:Drivers/u8glib/src/u8g_font.c ****   {
 728:Drivers/u8glib/src/u8g_font.c ****     u8g_glyph_t g = u8g_GetGlyph(u8g, encoding);
ARM GAS  /tmp/ccxKl5M2.s 			page 63


 2864              		.loc 1 728 0
 2865 0020 7B1C     		adds	r3, r7, #1
 2866 0022 1A78     		ldrb	r2, [r3]
 2867 0024 7B68     		ldr	r3, [r7, #4]
 2868 0026 1100     		movs	r1, r2
 2869 0028 1800     		movs	r0, r3
 2870 002a FFF7FEFF 		bl	u8g_GetGlyph
 2871 002e 0300     		movs	r3, r0
 2872 0030 FB60     		str	r3, [r7, #12]
 729:Drivers/u8glib/src/u8g_font.c ****     if ( g == NULL  )
 2873              		.loc 1 729 0
 2874 0032 FB68     		ldr	r3, [r7, #12]
 2875 0034 002B     		cmp	r3, #0
 2876 0036 01D1     		bne	.L121
 730:Drivers/u8glib/src/u8g_font.c ****       return 0;
 2877              		.loc 1 730 0
 2878 0038 0023     		movs	r3, #0
 2879 003a C0E0     		b	.L122
 2880              	.L121:
 731:Drivers/u8glib/src/u8g_font.c ****     data = u8g_font_GetGlyphDataStart(u8g->font, g);
 2881              		.loc 1 731 0
 2882 003c 7B68     		ldr	r3, [r7, #4]
 2883 003e 9B68     		ldr	r3, [r3, #8]
 2884 0040 FA68     		ldr	r2, [r7, #12]
 2885 0042 1100     		movs	r1, r2
 2886 0044 1800     		movs	r0, r3
 2887 0046 FFF7FEFF 		bl	u8g_font_GetGlyphDataStart
 2888 004a 0300     		movs	r3, r0
 2889 004c 7B61     		str	r3, [r7, #20]
 2890              	.LBE5:
 732:Drivers/u8glib/src/u8g_font.c ****   }
 733:Drivers/u8glib/src/u8g_font.c ****   
 734:Drivers/u8glib/src/u8g_font.c ****   w = u8g->glyph_width;
 2891              		.loc 1 734 0
 2892 004e 0B23     		movs	r3, #11
 2893 0050 FB18     		adds	r3, r7, r3
 2894 0052 7A68     		ldr	r2, [r7, #4]
 2895 0054 D27F     		ldrb	r2, [r2, #31]
 2896 0056 1A70     		strb	r2, [r3]
 735:Drivers/u8glib/src/u8g_font.c ****   h = u8g->glyph_height;
 2897              		.loc 1 735 0
 2898 0058 0A23     		movs	r3, #10
 2899 005a FB18     		adds	r3, r7, r3
 2900 005c 7A68     		ldr	r2, [r7, #4]
 2901 005e 2021     		movs	r1, #32
 2902 0060 525C     		ldrb	r2, [r2, r1]
 2903 0062 1A70     		strb	r2, [r3]
 736:Drivers/u8glib/src/u8g_font.c ****   
 737:Drivers/u8glib/src/u8g_font.c ****   x -= u8g->glyph_y;
 2904              		.loc 1 737 0
 2905 0064 7B68     		ldr	r3, [r7, #4]
 2906 0066 9B7F     		ldrb	r3, [r3, #30]
 2907 0068 5BB2     		sxtb	r3, r3
 2908 006a DAB2     		uxtb	r2, r3
 2909 006c FB1C     		adds	r3, r7, #3
 2910 006e F91C     		adds	r1, r7, #3
 2911 0070 0978     		ldrb	r1, [r1]
ARM GAS  /tmp/ccxKl5M2.s 			page 64


 2912 0072 8A1A     		subs	r2, r1, r2
 2913 0074 1A70     		strb	r2, [r3]
 738:Drivers/u8glib/src/u8g_font.c ****   x--;
 2914              		.loc 1 738 0
 2915 0076 FB1C     		adds	r3, r7, #3
 2916 0078 1A78     		ldrb	r2, [r3]
 2917 007a FB1C     		adds	r3, r7, #3
 2918 007c 013A     		subs	r2, r2, #1
 2919 007e 1A70     		strb	r2, [r3]
 739:Drivers/u8glib/src/u8g_font.c ****   y -= u8g->glyph_x;
 2920              		.loc 1 739 0
 2921 0080 7B68     		ldr	r3, [r7, #4]
 2922 0082 5B7F     		ldrb	r3, [r3, #29]
 2923 0084 5BB2     		sxtb	r3, r3
 2924 0086 DAB2     		uxtb	r2, r3
 2925 0088 BB1C     		adds	r3, r7, #2
 2926 008a B91C     		adds	r1, r7, #2
 2927 008c 0978     		ldrb	r1, [r1]
 2928 008e 8A1A     		subs	r2, r1, r2
 2929 0090 1A70     		strb	r2, [r3]
 740:Drivers/u8glib/src/u8g_font.c ****   
 741:Drivers/u8glib/src/u8g_font.c ****   if ( u8g_IsBBXIntersection(u8g, x-(h-1), y-(w-1), h, w) == 0 )
 2930              		.loc 1 741 0
 2931 0092 FA1C     		adds	r2, r7, #3
 2932 0094 0A23     		movs	r3, #10
 2933 0096 FB18     		adds	r3, r7, r3
 2934 0098 1278     		ldrb	r2, [r2]
 2935 009a 1B78     		ldrb	r3, [r3]
 2936 009c D31A     		subs	r3, r2, r3
 2937 009e DBB2     		uxtb	r3, r3
 2938 00a0 0133     		adds	r3, r3, #1
 2939 00a2 D9B2     		uxtb	r1, r3
 2940 00a4 BA1C     		adds	r2, r7, #2
 2941 00a6 0B23     		movs	r3, #11
 2942 00a8 FB18     		adds	r3, r7, r3
 2943 00aa 1278     		ldrb	r2, [r2]
 2944 00ac 1B78     		ldrb	r3, [r3]
 2945 00ae D31A     		subs	r3, r2, r3
 2946 00b0 DBB2     		uxtb	r3, r3
 2947 00b2 0133     		adds	r3, r3, #1
 2948 00b4 DAB2     		uxtb	r2, r3
 2949 00b6 0A23     		movs	r3, #10
 2950 00b8 FB18     		adds	r3, r7, r3
 2951 00ba 1C78     		ldrb	r4, [r3]
 2952 00bc 7868     		ldr	r0, [r7, #4]
 2953 00be 0B23     		movs	r3, #11
 2954 00c0 FB18     		adds	r3, r7, r3
 2955 00c2 1B78     		ldrb	r3, [r3]
 2956 00c4 0093     		str	r3, [sp]
 2957 00c6 2300     		movs	r3, r4
 2958 00c8 FFF7FEFF 		bl	u8g_IsBBXIntersection
 2959 00cc 031E     		subs	r3, r0, #0
 2960 00ce 03D1     		bne	.L123
 742:Drivers/u8glib/src/u8g_font.c ****     return u8g->glyph_dx;
 2961              		.loc 1 742 0
 2962 00d0 7B68     		ldr	r3, [r7, #4]
 2963 00d2 1B7F     		ldrb	r3, [r3, #28]
ARM GAS  /tmp/ccxKl5M2.s 			page 65


 2964 00d4 5BB2     		sxtb	r3, r3
 2965 00d6 72E0     		b	.L122
 2966              	.L123:
 743:Drivers/u8glib/src/u8g_font.c ****   
 744:Drivers/u8glib/src/u8g_font.c **** 
 745:Drivers/u8glib/src/u8g_font.c ****   /* now, w is reused as bytes per line */
 746:Drivers/u8glib/src/u8g_font.c ****   w += 7;
 2967              		.loc 1 746 0
 2968 00d8 0B23     		movs	r3, #11
 2969 00da FB18     		adds	r3, r7, r3
 2970 00dc 0B22     		movs	r2, #11
 2971 00de BA18     		adds	r2, r7, r2
 2972 00e0 1278     		ldrb	r2, [r2]
 2973 00e2 0732     		adds	r2, r2, #7
 2974 00e4 1A70     		strb	r2, [r3]
 747:Drivers/u8glib/src/u8g_font.c ****   w /= 8;  
 2975              		.loc 1 747 0
 2976 00e6 0B23     		movs	r3, #11
 2977 00e8 FB18     		adds	r3, r7, r3
 2978 00ea 0B22     		movs	r2, #11
 2979 00ec BA18     		adds	r2, r7, r2
 2980 00ee 1278     		ldrb	r2, [r2]
 2981 00f0 D208     		lsrs	r2, r2, #3
 2982 00f2 1A70     		strb	r2, [r3]
 748:Drivers/u8glib/src/u8g_font.c ****       
 749:Drivers/u8glib/src/u8g_font.c ****   ix = x;
 2983              		.loc 1 749 0
 2984 00f4 1123     		movs	r3, #17
 2985 00f6 FB18     		adds	r3, r7, r3
 2986 00f8 FA1C     		adds	r2, r7, #3
 2987 00fa 1278     		ldrb	r2, [r2]
 2988 00fc 1A70     		strb	r2, [r3]
 750:Drivers/u8glib/src/u8g_font.c ****   ix -= h;
 2989              		.loc 1 750 0
 2990 00fe 1123     		movs	r3, #17
 2991 0100 FB18     		adds	r3, r7, r3
 2992 0102 1122     		movs	r2, #17
 2993 0104 B918     		adds	r1, r7, r2
 2994 0106 0A22     		movs	r2, #10
 2995 0108 BA18     		adds	r2, r7, r2
 2996 010a 0978     		ldrb	r1, [r1]
 2997 010c 1278     		ldrb	r2, [r2]
 2998 010e 8A1A     		subs	r2, r1, r2
 2999 0110 1A70     		strb	r2, [r3]
 751:Drivers/u8glib/src/u8g_font.c ****   ix++;
 3000              		.loc 1 751 0
 3001 0112 1123     		movs	r3, #17
 3002 0114 FB18     		adds	r3, r7, r3
 3003 0116 1A78     		ldrb	r2, [r3]
 3004 0118 1123     		movs	r3, #17
 3005 011a FB18     		adds	r3, r7, r3
 3006 011c 0132     		adds	r2, r2, #1
 3007 011e 1A70     		strb	r2, [r3]
 752:Drivers/u8glib/src/u8g_font.c ****   
 753:Drivers/u8glib/src/u8g_font.c ****   for( j = 0; j < h; j++ )
 3008              		.loc 1 753 0
 3009 0120 1223     		movs	r3, #18
ARM GAS  /tmp/ccxKl5M2.s 			page 66


 3010 0122 FB18     		adds	r3, r7, r3
 3011 0124 0022     		movs	r2, #0
 3012 0126 1A70     		strb	r2, [r3]
 3013 0128 3EE0     		b	.L124
 3014              	.L127:
 754:Drivers/u8glib/src/u8g_font.c ****   {
 755:Drivers/u8glib/src/u8g_font.c ****     iy = y;
 3015              		.loc 1 755 0
 3016 012a 1023     		movs	r3, #16
 3017 012c FB18     		adds	r3, r7, r3
 3018 012e BA1C     		adds	r2, r7, #2
 3019 0130 1278     		ldrb	r2, [r2]
 3020 0132 1A70     		strb	r2, [r3]
 756:Drivers/u8glib/src/u8g_font.c ****     for( i = 0; i < w; i++ )
 3021              		.loc 1 756 0
 3022 0134 1323     		movs	r3, #19
 3023 0136 FB18     		adds	r3, r7, r3
 3024 0138 0022     		movs	r2, #0
 3025 013a 1A70     		strb	r2, [r3]
 3026 013c 1EE0     		b	.L125
 3027              	.L126:
 757:Drivers/u8glib/src/u8g_font.c ****     {
 758:Drivers/u8glib/src/u8g_font.c ****       u8g_Draw8Pixel(u8g, ix, iy, 3, u8g_pgm_read(data));
 3028              		.loc 1 758 0 discriminator 3
 3029 013e 7B69     		ldr	r3, [r7, #20]
 3030 0140 1B78     		ldrb	r3, [r3]
 3031 0142 1022     		movs	r2, #16
 3032 0144 BA18     		adds	r2, r7, r2
 3033 0146 1478     		ldrb	r4, [r2]
 3034 0148 1122     		movs	r2, #17
 3035 014a BA18     		adds	r2, r7, r2
 3036 014c 1178     		ldrb	r1, [r2]
 3037 014e 7868     		ldr	r0, [r7, #4]
 3038 0150 0093     		str	r3, [sp]
 3039 0152 0323     		movs	r3, #3
 3040 0154 2200     		movs	r2, r4
 3041 0156 FFF7FEFF 		bl	u8g_Draw8Pixel
 759:Drivers/u8glib/src/u8g_font.c ****       data++;
 3042              		.loc 1 759 0 discriminator 3
 3043 015a 7B69     		ldr	r3, [r7, #20]
 3044 015c 0133     		adds	r3, r3, #1
 3045 015e 7B61     		str	r3, [r7, #20]
 760:Drivers/u8glib/src/u8g_font.c ****       iy-=8;
 3046              		.loc 1 760 0 discriminator 3
 3047 0160 1023     		movs	r3, #16
 3048 0162 FB18     		adds	r3, r7, r3
 3049 0164 1022     		movs	r2, #16
 3050 0166 BA18     		adds	r2, r7, r2
 3051 0168 1278     		ldrb	r2, [r2]
 3052 016a 083A     		subs	r2, r2, #8
 3053 016c 1A70     		strb	r2, [r3]
 756:Drivers/u8glib/src/u8g_font.c ****     {
 3054              		.loc 1 756 0 discriminator 3
 3055 016e 1323     		movs	r3, #19
 3056 0170 FB18     		adds	r3, r7, r3
 3057 0172 1A78     		ldrb	r2, [r3]
 3058 0174 1323     		movs	r3, #19
ARM GAS  /tmp/ccxKl5M2.s 			page 67


 3059 0176 FB18     		adds	r3, r7, r3
 3060 0178 0132     		adds	r2, r2, #1
 3061 017a 1A70     		strb	r2, [r3]
 3062              	.L125:
 756:Drivers/u8glib/src/u8g_font.c ****     {
 3063              		.loc 1 756 0 is_stmt 0 discriminator 1
 3064 017c 1323     		movs	r3, #19
 3065 017e FA18     		adds	r2, r7, r3
 3066 0180 0B23     		movs	r3, #11
 3067 0182 FB18     		adds	r3, r7, r3
 3068 0184 1278     		ldrb	r2, [r2]
 3069 0186 1B78     		ldrb	r3, [r3]
 3070 0188 9A42     		cmp	r2, r3
 3071 018a D8D3     		bcc	.L126
 761:Drivers/u8glib/src/u8g_font.c ****     }
 762:Drivers/u8glib/src/u8g_font.c ****     ix++;
 3072              		.loc 1 762 0 is_stmt 1 discriminator 2
 3073 018c 1123     		movs	r3, #17
 3074 018e FB18     		adds	r3, r7, r3
 3075 0190 1A78     		ldrb	r2, [r3]
 3076 0192 1123     		movs	r3, #17
 3077 0194 FB18     		adds	r3, r7, r3
 3078 0196 0132     		adds	r2, r2, #1
 3079 0198 1A70     		strb	r2, [r3]
 753:Drivers/u8glib/src/u8g_font.c ****   {
 3080              		.loc 1 753 0 discriminator 2
 3081 019a 1223     		movs	r3, #18
 3082 019c FB18     		adds	r3, r7, r3
 3083 019e 1A78     		ldrb	r2, [r3]
 3084 01a0 1223     		movs	r3, #18
 3085 01a2 FB18     		adds	r3, r7, r3
 3086 01a4 0132     		adds	r2, r2, #1
 3087 01a6 1A70     		strb	r2, [r3]
 3088              	.L124:
 753:Drivers/u8glib/src/u8g_font.c ****   {
 3089              		.loc 1 753 0 is_stmt 0 discriminator 1
 3090 01a8 1223     		movs	r3, #18
 3091 01aa FA18     		adds	r2, r7, r3
 3092 01ac 0A23     		movs	r3, #10
 3093 01ae FB18     		adds	r3, r7, r3
 3094 01b0 1278     		ldrb	r2, [r2]
 3095 01b2 1B78     		ldrb	r3, [r3]
 3096 01b4 9A42     		cmp	r2, r3
 3097 01b6 B8D3     		bcc	.L127
 763:Drivers/u8glib/src/u8g_font.c ****   }
 764:Drivers/u8glib/src/u8g_font.c ****   return u8g->glyph_dx;
 3098              		.loc 1 764 0 is_stmt 1
 3099 01b8 7B68     		ldr	r3, [r7, #4]
 3100 01ba 1B7F     		ldrb	r3, [r3, #28]
 3101 01bc 5BB2     		sxtb	r3, r3
 3102              	.L122:
 765:Drivers/u8glib/src/u8g_font.c **** }
 3103              		.loc 1 765 0
 3104 01be 1800     		movs	r0, r3
 3105 01c0 BD46     		mov	sp, r7
 3106 01c2 07B0     		add	sp, sp, #28
 3107              		@ sp needed
ARM GAS  /tmp/ccxKl5M2.s 			page 68


 3108 01c4 90BD     		pop	{r4, r7, pc}
 3109              		.cfi_endproc
 3110              	.LFE36:
 3112              		.section	.text.u8g_DrawGlyph270,"ax",%progbits
 3113              		.align	1
 3114              		.global	u8g_DrawGlyph270
 3115              		.syntax unified
 3116              		.code	16
 3117              		.thumb_func
 3118              		.fpu softvfp
 3120              	u8g_DrawGlyph270:
 3121              	.LFB37:
 766:Drivers/u8glib/src/u8g_font.c **** 
 767:Drivers/u8glib/src/u8g_font.c **** int8_t u8g_DrawGlyph270(u8g_t *u8g, u8g_uint_t x, u8g_uint_t y, uint8_t encoding)
 768:Drivers/u8glib/src/u8g_font.c **** {
 3122              		.loc 1 768 0
 3123              		.cfi_startproc
 3124 0000 90B5     		push	{r4, r7, lr}
 3125              	.LCFI111:
 3126              		.cfi_def_cfa_offset 12
 3127              		.cfi_offset 4, -12
 3128              		.cfi_offset 7, -8
 3129              		.cfi_offset 14, -4
 3130 0002 83B0     		sub	sp, sp, #12
 3131              	.LCFI112:
 3132              		.cfi_def_cfa_offset 24
 3133 0004 00AF     		add	r7, sp, #0
 3134              	.LCFI113:
 3135              		.cfi_def_cfa_register 7
 3136 0006 7860     		str	r0, [r7, #4]
 3137 0008 0C00     		movs	r4, r1
 3138 000a 1000     		movs	r0, r2
 3139 000c 1900     		movs	r1, r3
 3140 000e FB1C     		adds	r3, r7, #3
 3141 0010 221C     		adds	r2, r4, #0
 3142 0012 1A70     		strb	r2, [r3]
 3143 0014 BB1C     		adds	r3, r7, #2
 3144 0016 021C     		adds	r2, r0, #0
 3145 0018 1A70     		strb	r2, [r3]
 3146 001a 7B1C     		adds	r3, r7, #1
 3147 001c 0A1C     		adds	r2, r1, #0
 3148 001e 1A70     		strb	r2, [r3]
 769:Drivers/u8glib/src/u8g_font.c ****   x += u8g->font_calc_vref(u8g);
 3149              		.loc 1 769 0
 3150 0020 7B68     		ldr	r3, [r7, #4]
 3151 0022 5B6A     		ldr	r3, [r3, #36]
 3152 0024 7A68     		ldr	r2, [r7, #4]
 3153 0026 1000     		movs	r0, r2
 3154 0028 9847     		blx	r3
 3155              	.LVL3:
 3156 002a 0300     		movs	r3, r0
 3157 002c 1900     		movs	r1, r3
 3158 002e FB1C     		adds	r3, r7, #3
 3159 0030 FA1C     		adds	r2, r7, #3
 3160 0032 1278     		ldrb	r2, [r2]
 3161 0034 8A18     		adds	r2, r1, r2
 3162 0036 1A70     		strb	r2, [r3]
ARM GAS  /tmp/ccxKl5M2.s 			page 69


 770:Drivers/u8glib/src/u8g_font.c ****   return u8g_draw_glyph270(u8g, x, y, encoding);
 3163              		.loc 1 770 0
 3164 0038 7B1C     		adds	r3, r7, #1
 3165 003a 1C78     		ldrb	r4, [r3]
 3166 003c BB1C     		adds	r3, r7, #2
 3167 003e 1A78     		ldrb	r2, [r3]
 3168 0040 FB1C     		adds	r3, r7, #3
 3169 0042 1978     		ldrb	r1, [r3]
 3170 0044 7868     		ldr	r0, [r7, #4]
 3171 0046 2300     		movs	r3, r4
 3172 0048 FFF7FEFF 		bl	u8g_draw_glyph270
 3173 004c 0300     		movs	r3, r0
 771:Drivers/u8glib/src/u8g_font.c **** }
 3174              		.loc 1 771 0
 3175 004e 1800     		movs	r0, r3
 3176 0050 BD46     		mov	sp, r7
 3177 0052 03B0     		add	sp, sp, #12
 3178              		@ sp needed
 3179 0054 90BD     		pop	{r4, r7, pc}
 3180              		.cfi_endproc
 3181              	.LFE37:
 3183              		.section	.text.u8g_DrawStr,"ax",%progbits
 3184              		.align	1
 3185              		.global	u8g_DrawStr
 3186              		.syntax unified
 3187              		.code	16
 3188              		.thumb_func
 3189              		.fpu softvfp
 3191              	u8g_DrawStr:
 3192              	.LFB38:
 772:Drivers/u8glib/src/u8g_font.c **** 
 773:Drivers/u8glib/src/u8g_font.c **** 
 774:Drivers/u8glib/src/u8g_font.c **** 
 775:Drivers/u8glib/src/u8g_font.c **** #ifdef OBSOLETE
 776:Drivers/u8glib/src/u8g_font.c **** /*
 777:Drivers/u8glib/src/u8g_font.c ****   Draw a glyph
 778:Drivers/u8glib/src/u8g_font.c ****   x,y: lower left corner of the font bounding box
 779:Drivers/u8glib/src/u8g_font.c **** */
 780:Drivers/u8glib/src/u8g_font.c **** int8_t u8g_DrawGlyphFontBBX(u8g_t *u8g, u8g_uint_t x, u8g_uint_t y, uint8_t dir, uint8_t encoding)
 781:Drivers/u8glib/src/u8g_font.c **** {
 782:Drivers/u8glib/src/u8g_font.c ****   /* TODO: apply "dir" */
 783:Drivers/u8glib/src/u8g_font.c ****   x -= u8g_GetFontBBXOffX(u8g);
 784:Drivers/u8glib/src/u8g_font.c ****   y += u8g_GetFontBBXOffY(u8g);
 785:Drivers/u8glib/src/u8g_font.c ****   return u8g_DrawGlyphDir(u8g, x, y, dir, encoding);
 786:Drivers/u8glib/src/u8g_font.c **** }
 787:Drivers/u8glib/src/u8g_font.c **** #endif
 788:Drivers/u8glib/src/u8g_font.c **** 
 789:Drivers/u8glib/src/u8g_font.c **** /*========================================================================*/
 790:Drivers/u8glib/src/u8g_font.c **** /* string drawing procedures */
 791:Drivers/u8glib/src/u8g_font.c **** 
 792:Drivers/u8glib/src/u8g_font.c **** 
 793:Drivers/u8glib/src/u8g_font.c **** u8g_uint_t u8g_DrawStr(u8g_t *u8g, u8g_uint_t x, u8g_uint_t y, const char *s)
 794:Drivers/u8glib/src/u8g_font.c **** {
 3193              		.loc 1 794 0
 3194              		.cfi_startproc
 3195 0000 B0B5     		push	{r4, r5, r7, lr}
 3196              	.LCFI114:
ARM GAS  /tmp/ccxKl5M2.s 			page 70


 3197              		.cfi_def_cfa_offset 16
 3198              		.cfi_offset 4, -16
 3199              		.cfi_offset 5, -12
 3200              		.cfi_offset 7, -8
 3201              		.cfi_offset 14, -4
 3202 0002 86B0     		sub	sp, sp, #24
 3203              	.LCFI115:
 3204              		.cfi_def_cfa_offset 40
 3205 0004 00AF     		add	r7, sp, #0
 3206              	.LCFI116:
 3207              		.cfi_def_cfa_register 7
 3208 0006 F860     		str	r0, [r7, #12]
 3209 0008 0800     		movs	r0, r1
 3210 000a 1100     		movs	r1, r2
 3211 000c 7B60     		str	r3, [r7, #4]
 3212 000e 0B23     		movs	r3, #11
 3213 0010 FB18     		adds	r3, r7, r3
 3214 0012 021C     		adds	r2, r0, #0
 3215 0014 1A70     		strb	r2, [r3]
 3216 0016 0A23     		movs	r3, #10
 3217 0018 FB18     		adds	r3, r7, r3
 3218 001a 0A1C     		adds	r2, r1, #0
 3219 001c 1A70     		strb	r2, [r3]
 795:Drivers/u8glib/src/u8g_font.c ****   u8g_uint_t t = 0;
 3220              		.loc 1 795 0
 3221 001e 1723     		movs	r3, #23
 3222 0020 FB18     		adds	r3, r7, r3
 3223 0022 0022     		movs	r2, #0
 3224 0024 1A70     		strb	r2, [r3]
 796:Drivers/u8glib/src/u8g_font.c ****   int8_t d;
 797:Drivers/u8glib/src/u8g_font.c ****   
 798:Drivers/u8glib/src/u8g_font.c ****   //u8g_uint_t u8g_GetStrWidth(u8g, s);
 799:Drivers/u8glib/src/u8g_font.c ****   //u8g_font_GetFontAscent(u8g->font)-u8g_font_GetFontDescent(u8g->font);
 800:Drivers/u8glib/src/u8g_font.c ****   
 801:Drivers/u8glib/src/u8g_font.c ****   y += u8g->font_calc_vref(u8g);
 3225              		.loc 1 801 0
 3226 0026 FB68     		ldr	r3, [r7, #12]
 3227 0028 5B6A     		ldr	r3, [r3, #36]
 3228 002a FA68     		ldr	r2, [r7, #12]
 3229 002c 1000     		movs	r0, r2
 3230 002e 9847     		blx	r3
 3231              	.LVL4:
 3232 0030 0300     		movs	r3, r0
 3233 0032 1900     		movs	r1, r3
 3234 0034 0A23     		movs	r3, #10
 3235 0036 FB18     		adds	r3, r7, r3
 3236 0038 0A22     		movs	r2, #10
 3237 003a BA18     		adds	r2, r7, r2
 3238 003c 1278     		ldrb	r2, [r2]
 3239 003e 8A18     		adds	r2, r1, r2
 3240 0040 1A70     		strb	r2, [r3]
 802:Drivers/u8glib/src/u8g_font.c ****   
 803:Drivers/u8glib/src/u8g_font.c ****   while( *s != '\0' )
 3241              		.loc 1 803 0
 3242 0042 26E0     		b	.L131
 3243              	.L132:
 804:Drivers/u8glib/src/u8g_font.c ****   {
ARM GAS  /tmp/ccxKl5M2.s 			page 71


 805:Drivers/u8glib/src/u8g_font.c ****     d = u8g_draw_glyph(u8g, x, y, *s);
 3244              		.loc 1 805 0
 3245 0044 7B68     		ldr	r3, [r7, #4]
 3246 0046 1D78     		ldrb	r5, [r3]
 3247 0048 1623     		movs	r3, #22
 3248 004a FC18     		adds	r4, r7, r3
 3249 004c 0A23     		movs	r3, #10
 3250 004e FB18     		adds	r3, r7, r3
 3251 0050 1A78     		ldrb	r2, [r3]
 3252 0052 0B23     		movs	r3, #11
 3253 0054 FB18     		adds	r3, r7, r3
 3254 0056 1978     		ldrb	r1, [r3]
 3255 0058 F868     		ldr	r0, [r7, #12]
 3256 005a 2B00     		movs	r3, r5
 3257 005c FFF7FEFF 		bl	u8g_draw_glyph
 3258 0060 0300     		movs	r3, r0
 3259 0062 2370     		strb	r3, [r4]
 806:Drivers/u8glib/src/u8g_font.c ****     x += d;
 3260              		.loc 1 806 0
 3261 0064 1623     		movs	r3, #22
 3262 0066 FB18     		adds	r3, r7, r3
 3263 0068 1978     		ldrb	r1, [r3]
 3264 006a 0B23     		movs	r3, #11
 3265 006c FB18     		adds	r3, r7, r3
 3266 006e 0B22     		movs	r2, #11
 3267 0070 BA18     		adds	r2, r7, r2
 3268 0072 1278     		ldrb	r2, [r2]
 3269 0074 8A18     		adds	r2, r1, r2
 3270 0076 1A70     		strb	r2, [r3]
 807:Drivers/u8glib/src/u8g_font.c ****     t += d;
 3271              		.loc 1 807 0
 3272 0078 1623     		movs	r3, #22
 3273 007a FB18     		adds	r3, r7, r3
 3274 007c 1978     		ldrb	r1, [r3]
 3275 007e 1723     		movs	r3, #23
 3276 0080 FB18     		adds	r3, r7, r3
 3277 0082 1722     		movs	r2, #23
 3278 0084 BA18     		adds	r2, r7, r2
 3279 0086 1278     		ldrb	r2, [r2]
 3280 0088 8A18     		adds	r2, r1, r2
 3281 008a 1A70     		strb	r2, [r3]
 808:Drivers/u8glib/src/u8g_font.c ****     s++;
 3282              		.loc 1 808 0
 3283 008c 7B68     		ldr	r3, [r7, #4]
 3284 008e 0133     		adds	r3, r3, #1
 3285 0090 7B60     		str	r3, [r7, #4]
 3286              	.L131:
 803:Drivers/u8glib/src/u8g_font.c ****   {
 3287              		.loc 1 803 0
 3288 0092 7B68     		ldr	r3, [r7, #4]
 3289 0094 1B78     		ldrb	r3, [r3]
 3290 0096 002B     		cmp	r3, #0
 3291 0098 D4D1     		bne	.L132
 809:Drivers/u8glib/src/u8g_font.c ****   }
 810:Drivers/u8glib/src/u8g_font.c ****   return t;
 3292              		.loc 1 810 0
 3293 009a 1723     		movs	r3, #23
ARM GAS  /tmp/ccxKl5M2.s 			page 72


 3294 009c FB18     		adds	r3, r7, r3
 3295 009e 1B78     		ldrb	r3, [r3]
 811:Drivers/u8glib/src/u8g_font.c **** }
 3296              		.loc 1 811 0
 3297 00a0 1800     		movs	r0, r3
 3298 00a2 BD46     		mov	sp, r7
 3299 00a4 06B0     		add	sp, sp, #24
 3300              		@ sp needed
 3301 00a6 B0BD     		pop	{r4, r5, r7, pc}
 3302              		.cfi_endproc
 3303              	.LFE38:
 3305              		.section	.text.u8g_DrawStr90,"ax",%progbits
 3306              		.align	1
 3307              		.global	u8g_DrawStr90
 3308              		.syntax unified
 3309              		.code	16
 3310              		.thumb_func
 3311              		.fpu softvfp
 3313              	u8g_DrawStr90:
 3314              	.LFB39:
 812:Drivers/u8glib/src/u8g_font.c **** 
 813:Drivers/u8glib/src/u8g_font.c **** u8g_uint_t u8g_DrawStr90(u8g_t *u8g, u8g_uint_t x, u8g_uint_t y, const char *s)
 814:Drivers/u8glib/src/u8g_font.c **** {
 3315              		.loc 1 814 0
 3316              		.cfi_startproc
 3317 0000 B0B5     		push	{r4, r5, r7, lr}
 3318              	.LCFI117:
 3319              		.cfi_def_cfa_offset 16
 3320              		.cfi_offset 4, -16
 3321              		.cfi_offset 5, -12
 3322              		.cfi_offset 7, -8
 3323              		.cfi_offset 14, -4
 3324 0002 86B0     		sub	sp, sp, #24
 3325              	.LCFI118:
 3326              		.cfi_def_cfa_offset 40
 3327 0004 00AF     		add	r7, sp, #0
 3328              	.LCFI119:
 3329              		.cfi_def_cfa_register 7
 3330 0006 F860     		str	r0, [r7, #12]
 3331 0008 0800     		movs	r0, r1
 3332 000a 1100     		movs	r1, r2
 3333 000c 7B60     		str	r3, [r7, #4]
 3334 000e 0B23     		movs	r3, #11
 3335 0010 FB18     		adds	r3, r7, r3
 3336 0012 021C     		adds	r2, r0, #0
 3337 0014 1A70     		strb	r2, [r3]
 3338 0016 0A23     		movs	r3, #10
 3339 0018 FB18     		adds	r3, r7, r3
 3340 001a 0A1C     		adds	r2, r1, #0
 3341 001c 1A70     		strb	r2, [r3]
 815:Drivers/u8glib/src/u8g_font.c ****   u8g_uint_t t = 0;
 3342              		.loc 1 815 0
 3343 001e 1723     		movs	r3, #23
 3344 0020 FB18     		adds	r3, r7, r3
 3345 0022 0022     		movs	r2, #0
 3346 0024 1A70     		strb	r2, [r3]
 816:Drivers/u8glib/src/u8g_font.c ****   int8_t d;
ARM GAS  /tmp/ccxKl5M2.s 			page 73


 817:Drivers/u8glib/src/u8g_font.c ****     
 818:Drivers/u8glib/src/u8g_font.c ****   x -= u8g->font_calc_vref(u8g);
 3347              		.loc 1 818 0
 3348 0026 FB68     		ldr	r3, [r7, #12]
 3349 0028 5B6A     		ldr	r3, [r3, #36]
 3350 002a FA68     		ldr	r2, [r7, #12]
 3351 002c 1000     		movs	r0, r2
 3352 002e 9847     		blx	r3
 3353              	.LVL5:
 3354 0030 0300     		movs	r3, r0
 3355 0032 1900     		movs	r1, r3
 3356 0034 0B23     		movs	r3, #11
 3357 0036 FB18     		adds	r3, r7, r3
 3358 0038 0B22     		movs	r2, #11
 3359 003a BA18     		adds	r2, r7, r2
 3360 003c 1278     		ldrb	r2, [r2]
 3361 003e 521A     		subs	r2, r2, r1
 3362 0040 1A70     		strb	r2, [r3]
 819:Drivers/u8glib/src/u8g_font.c **** 
 820:Drivers/u8glib/src/u8g_font.c ****   while( *s != '\0' )
 3363              		.loc 1 820 0
 3364 0042 26E0     		b	.L135
 3365              	.L136:
 821:Drivers/u8glib/src/u8g_font.c ****   {
 822:Drivers/u8glib/src/u8g_font.c ****     d = u8g_draw_glyph90(u8g, x, y, *s);
 3366              		.loc 1 822 0
 3367 0044 7B68     		ldr	r3, [r7, #4]
 3368 0046 1D78     		ldrb	r5, [r3]
 3369 0048 1623     		movs	r3, #22
 3370 004a FC18     		adds	r4, r7, r3
 3371 004c 0A23     		movs	r3, #10
 3372 004e FB18     		adds	r3, r7, r3
 3373 0050 1A78     		ldrb	r2, [r3]
 3374 0052 0B23     		movs	r3, #11
 3375 0054 FB18     		adds	r3, r7, r3
 3376 0056 1978     		ldrb	r1, [r3]
 3377 0058 F868     		ldr	r0, [r7, #12]
 3378 005a 2B00     		movs	r3, r5
 3379 005c FFF7FEFF 		bl	u8g_draw_glyph90
 3380 0060 0300     		movs	r3, r0
 3381 0062 2370     		strb	r3, [r4]
 823:Drivers/u8glib/src/u8g_font.c ****     y += d;
 3382              		.loc 1 823 0
 3383 0064 1623     		movs	r3, #22
 3384 0066 FB18     		adds	r3, r7, r3
 3385 0068 1978     		ldrb	r1, [r3]
 3386 006a 0A23     		movs	r3, #10
 3387 006c FB18     		adds	r3, r7, r3
 3388 006e 0A22     		movs	r2, #10
 3389 0070 BA18     		adds	r2, r7, r2
 3390 0072 1278     		ldrb	r2, [r2]
 3391 0074 8A18     		adds	r2, r1, r2
 3392 0076 1A70     		strb	r2, [r3]
 824:Drivers/u8glib/src/u8g_font.c ****     t += d;
 3393              		.loc 1 824 0
 3394 0078 1623     		movs	r3, #22
 3395 007a FB18     		adds	r3, r7, r3
ARM GAS  /tmp/ccxKl5M2.s 			page 74


 3396 007c 1978     		ldrb	r1, [r3]
 3397 007e 1723     		movs	r3, #23
 3398 0080 FB18     		adds	r3, r7, r3
 3399 0082 1722     		movs	r2, #23
 3400 0084 BA18     		adds	r2, r7, r2
 3401 0086 1278     		ldrb	r2, [r2]
 3402 0088 8A18     		adds	r2, r1, r2
 3403 008a 1A70     		strb	r2, [r3]
 825:Drivers/u8glib/src/u8g_font.c ****     s++;
 3404              		.loc 1 825 0
 3405 008c 7B68     		ldr	r3, [r7, #4]
 3406 008e 0133     		adds	r3, r3, #1
 3407 0090 7B60     		str	r3, [r7, #4]
 3408              	.L135:
 820:Drivers/u8glib/src/u8g_font.c ****   {
 3409              		.loc 1 820 0
 3410 0092 7B68     		ldr	r3, [r7, #4]
 3411 0094 1B78     		ldrb	r3, [r3]
 3412 0096 002B     		cmp	r3, #0
 3413 0098 D4D1     		bne	.L136
 826:Drivers/u8glib/src/u8g_font.c ****   }
 827:Drivers/u8glib/src/u8g_font.c ****   return t;
 3414              		.loc 1 827 0
 3415 009a 1723     		movs	r3, #23
 3416 009c FB18     		adds	r3, r7, r3
 3417 009e 1B78     		ldrb	r3, [r3]
 828:Drivers/u8glib/src/u8g_font.c **** }
 3418              		.loc 1 828 0
 3419 00a0 1800     		movs	r0, r3
 3420 00a2 BD46     		mov	sp, r7
 3421 00a4 06B0     		add	sp, sp, #24
 3422              		@ sp needed
 3423 00a6 B0BD     		pop	{r4, r5, r7, pc}
 3424              		.cfi_endproc
 3425              	.LFE39:
 3427              		.section	.text.u8g_DrawStr180,"ax",%progbits
 3428              		.align	1
 3429              		.global	u8g_DrawStr180
 3430              		.syntax unified
 3431              		.code	16
 3432              		.thumb_func
 3433              		.fpu softvfp
 3435              	u8g_DrawStr180:
 3436              	.LFB40:
 829:Drivers/u8glib/src/u8g_font.c **** 
 830:Drivers/u8glib/src/u8g_font.c **** u8g_uint_t u8g_DrawStr180(u8g_t *u8g, u8g_uint_t x, u8g_uint_t y, const char *s)
 831:Drivers/u8glib/src/u8g_font.c **** {
 3437              		.loc 1 831 0
 3438              		.cfi_startproc
 3439 0000 B0B5     		push	{r4, r5, r7, lr}
 3440              	.LCFI120:
 3441              		.cfi_def_cfa_offset 16
 3442              		.cfi_offset 4, -16
 3443              		.cfi_offset 5, -12
 3444              		.cfi_offset 7, -8
 3445              		.cfi_offset 14, -4
 3446 0002 86B0     		sub	sp, sp, #24
ARM GAS  /tmp/ccxKl5M2.s 			page 75


 3447              	.LCFI121:
 3448              		.cfi_def_cfa_offset 40
 3449 0004 00AF     		add	r7, sp, #0
 3450              	.LCFI122:
 3451              		.cfi_def_cfa_register 7
 3452 0006 F860     		str	r0, [r7, #12]
 3453 0008 0800     		movs	r0, r1
 3454 000a 1100     		movs	r1, r2
 3455 000c 7B60     		str	r3, [r7, #4]
 3456 000e 0B23     		movs	r3, #11
 3457 0010 FB18     		adds	r3, r7, r3
 3458 0012 021C     		adds	r2, r0, #0
 3459 0014 1A70     		strb	r2, [r3]
 3460 0016 0A23     		movs	r3, #10
 3461 0018 FB18     		adds	r3, r7, r3
 3462 001a 0A1C     		adds	r2, r1, #0
 3463 001c 1A70     		strb	r2, [r3]
 832:Drivers/u8glib/src/u8g_font.c ****   u8g_uint_t t = 0;
 3464              		.loc 1 832 0
 3465 001e 1723     		movs	r3, #23
 3466 0020 FB18     		adds	r3, r7, r3
 3467 0022 0022     		movs	r2, #0
 3468 0024 1A70     		strb	r2, [r3]
 833:Drivers/u8glib/src/u8g_font.c ****   int8_t d;
 834:Drivers/u8glib/src/u8g_font.c **** 
 835:Drivers/u8glib/src/u8g_font.c ****   y -= u8g->font_calc_vref(u8g);
 3469              		.loc 1 835 0
 3470 0026 FB68     		ldr	r3, [r7, #12]
 3471 0028 5B6A     		ldr	r3, [r3, #36]
 3472 002a FA68     		ldr	r2, [r7, #12]
 3473 002c 1000     		movs	r0, r2
 3474 002e 9847     		blx	r3
 3475              	.LVL6:
 3476 0030 0300     		movs	r3, r0
 3477 0032 1900     		movs	r1, r3
 3478 0034 0A23     		movs	r3, #10
 3479 0036 FB18     		adds	r3, r7, r3
 3480 0038 0A22     		movs	r2, #10
 3481 003a BA18     		adds	r2, r7, r2
 3482 003c 1278     		ldrb	r2, [r2]
 3483 003e 521A     		subs	r2, r2, r1
 3484 0040 1A70     		strb	r2, [r3]
 836:Drivers/u8glib/src/u8g_font.c ****   
 837:Drivers/u8glib/src/u8g_font.c ****   while( *s != '\0' )
 3485              		.loc 1 837 0
 3486 0042 26E0     		b	.L139
 3487              	.L140:
 838:Drivers/u8glib/src/u8g_font.c ****   {
 839:Drivers/u8glib/src/u8g_font.c ****     d = u8g_draw_glyph180(u8g, x, y, *s);
 3488              		.loc 1 839 0
 3489 0044 7B68     		ldr	r3, [r7, #4]
 3490 0046 1D78     		ldrb	r5, [r3]
 3491 0048 1623     		movs	r3, #22
 3492 004a FC18     		adds	r4, r7, r3
 3493 004c 0A23     		movs	r3, #10
 3494 004e FB18     		adds	r3, r7, r3
 3495 0050 1A78     		ldrb	r2, [r3]
ARM GAS  /tmp/ccxKl5M2.s 			page 76


 3496 0052 0B23     		movs	r3, #11
 3497 0054 FB18     		adds	r3, r7, r3
 3498 0056 1978     		ldrb	r1, [r3]
 3499 0058 F868     		ldr	r0, [r7, #12]
 3500 005a 2B00     		movs	r3, r5
 3501 005c FFF7FEFF 		bl	u8g_draw_glyph180
 3502 0060 0300     		movs	r3, r0
 3503 0062 2370     		strb	r3, [r4]
 840:Drivers/u8glib/src/u8g_font.c ****     x -= d;
 3504              		.loc 1 840 0
 3505 0064 1623     		movs	r3, #22
 3506 0066 FB18     		adds	r3, r7, r3
 3507 0068 1A78     		ldrb	r2, [r3]
 3508 006a 0B23     		movs	r3, #11
 3509 006c FB18     		adds	r3, r7, r3
 3510 006e 0B21     		movs	r1, #11
 3511 0070 7918     		adds	r1, r7, r1
 3512 0072 0978     		ldrb	r1, [r1]
 3513 0074 8A1A     		subs	r2, r1, r2
 3514 0076 1A70     		strb	r2, [r3]
 841:Drivers/u8glib/src/u8g_font.c ****     t += d;
 3515              		.loc 1 841 0
 3516 0078 1623     		movs	r3, #22
 3517 007a FB18     		adds	r3, r7, r3
 3518 007c 1978     		ldrb	r1, [r3]
 3519 007e 1723     		movs	r3, #23
 3520 0080 FB18     		adds	r3, r7, r3
 3521 0082 1722     		movs	r2, #23
 3522 0084 BA18     		adds	r2, r7, r2
 3523 0086 1278     		ldrb	r2, [r2]
 3524 0088 8A18     		adds	r2, r1, r2
 3525 008a 1A70     		strb	r2, [r3]
 842:Drivers/u8glib/src/u8g_font.c ****     s++;
 3526              		.loc 1 842 0
 3527 008c 7B68     		ldr	r3, [r7, #4]
 3528 008e 0133     		adds	r3, r3, #1
 3529 0090 7B60     		str	r3, [r7, #4]
 3530              	.L139:
 837:Drivers/u8glib/src/u8g_font.c ****   {
 3531              		.loc 1 837 0
 3532 0092 7B68     		ldr	r3, [r7, #4]
 3533 0094 1B78     		ldrb	r3, [r3]
 3534 0096 002B     		cmp	r3, #0
 3535 0098 D4D1     		bne	.L140
 843:Drivers/u8glib/src/u8g_font.c ****   }
 844:Drivers/u8glib/src/u8g_font.c ****   return t;
 3536              		.loc 1 844 0
 3537 009a 1723     		movs	r3, #23
 3538 009c FB18     		adds	r3, r7, r3
 3539 009e 1B78     		ldrb	r3, [r3]
 845:Drivers/u8glib/src/u8g_font.c **** }
 3540              		.loc 1 845 0
 3541 00a0 1800     		movs	r0, r3
 3542 00a2 BD46     		mov	sp, r7
 3543 00a4 06B0     		add	sp, sp, #24
 3544              		@ sp needed
 3545 00a6 B0BD     		pop	{r4, r5, r7, pc}
ARM GAS  /tmp/ccxKl5M2.s 			page 77


 3546              		.cfi_endproc
 3547              	.LFE40:
 3549              		.section	.text.u8g_DrawStr270,"ax",%progbits
 3550              		.align	1
 3551              		.global	u8g_DrawStr270
 3552              		.syntax unified
 3553              		.code	16
 3554              		.thumb_func
 3555              		.fpu softvfp
 3557              	u8g_DrawStr270:
 3558              	.LFB41:
 846:Drivers/u8glib/src/u8g_font.c **** 
 847:Drivers/u8glib/src/u8g_font.c **** u8g_uint_t u8g_DrawStr270(u8g_t *u8g, u8g_uint_t x, u8g_uint_t y, const char *s)
 848:Drivers/u8glib/src/u8g_font.c **** {
 3559              		.loc 1 848 0
 3560              		.cfi_startproc
 3561 0000 B0B5     		push	{r4, r5, r7, lr}
 3562              	.LCFI123:
 3563              		.cfi_def_cfa_offset 16
 3564              		.cfi_offset 4, -16
 3565              		.cfi_offset 5, -12
 3566              		.cfi_offset 7, -8
 3567              		.cfi_offset 14, -4
 3568 0002 86B0     		sub	sp, sp, #24
 3569              	.LCFI124:
 3570              		.cfi_def_cfa_offset 40
 3571 0004 00AF     		add	r7, sp, #0
 3572              	.LCFI125:
 3573              		.cfi_def_cfa_register 7
 3574 0006 F860     		str	r0, [r7, #12]
 3575 0008 0800     		movs	r0, r1
 3576 000a 1100     		movs	r1, r2
 3577 000c 7B60     		str	r3, [r7, #4]
 3578 000e 0B23     		movs	r3, #11
 3579 0010 FB18     		adds	r3, r7, r3
 3580 0012 021C     		adds	r2, r0, #0
 3581 0014 1A70     		strb	r2, [r3]
 3582 0016 0A23     		movs	r3, #10
 3583 0018 FB18     		adds	r3, r7, r3
 3584 001a 0A1C     		adds	r2, r1, #0
 3585 001c 1A70     		strb	r2, [r3]
 849:Drivers/u8glib/src/u8g_font.c ****   u8g_uint_t t = 0;
 3586              		.loc 1 849 0
 3587 001e 1723     		movs	r3, #23
 3588 0020 FB18     		adds	r3, r7, r3
 3589 0022 0022     		movs	r2, #0
 3590 0024 1A70     		strb	r2, [r3]
 850:Drivers/u8glib/src/u8g_font.c ****   int8_t d;
 851:Drivers/u8glib/src/u8g_font.c **** 
 852:Drivers/u8glib/src/u8g_font.c ****   x += u8g->font_calc_vref(u8g);
 3591              		.loc 1 852 0
 3592 0026 FB68     		ldr	r3, [r7, #12]
 3593 0028 5B6A     		ldr	r3, [r3, #36]
 3594 002a FA68     		ldr	r2, [r7, #12]
 3595 002c 1000     		movs	r0, r2
 3596 002e 9847     		blx	r3
 3597              	.LVL7:
ARM GAS  /tmp/ccxKl5M2.s 			page 78


 3598 0030 0300     		movs	r3, r0
 3599 0032 1900     		movs	r1, r3
 3600 0034 0B23     		movs	r3, #11
 3601 0036 FB18     		adds	r3, r7, r3
 3602 0038 0B22     		movs	r2, #11
 3603 003a BA18     		adds	r2, r7, r2
 3604 003c 1278     		ldrb	r2, [r2]
 3605 003e 8A18     		adds	r2, r1, r2
 3606 0040 1A70     		strb	r2, [r3]
 853:Drivers/u8glib/src/u8g_font.c **** 
 854:Drivers/u8glib/src/u8g_font.c ****   while( *s != '\0' )
 3607              		.loc 1 854 0
 3608 0042 26E0     		b	.L143
 3609              	.L144:
 855:Drivers/u8glib/src/u8g_font.c ****   {
 856:Drivers/u8glib/src/u8g_font.c ****     d = u8g_draw_glyph270(u8g, x, y, *s);
 3610              		.loc 1 856 0
 3611 0044 7B68     		ldr	r3, [r7, #4]
 3612 0046 1D78     		ldrb	r5, [r3]
 3613 0048 1623     		movs	r3, #22
 3614 004a FC18     		adds	r4, r7, r3
 3615 004c 0A23     		movs	r3, #10
 3616 004e FB18     		adds	r3, r7, r3
 3617 0050 1A78     		ldrb	r2, [r3]
 3618 0052 0B23     		movs	r3, #11
 3619 0054 FB18     		adds	r3, r7, r3
 3620 0056 1978     		ldrb	r1, [r3]
 3621 0058 F868     		ldr	r0, [r7, #12]
 3622 005a 2B00     		movs	r3, r5
 3623 005c FFF7FEFF 		bl	u8g_draw_glyph270
 3624 0060 0300     		movs	r3, r0
 3625 0062 2370     		strb	r3, [r4]
 857:Drivers/u8glib/src/u8g_font.c ****     y -= d;
 3626              		.loc 1 857 0
 3627 0064 1623     		movs	r3, #22
 3628 0066 FB18     		adds	r3, r7, r3
 3629 0068 1A78     		ldrb	r2, [r3]
 3630 006a 0A23     		movs	r3, #10
 3631 006c FB18     		adds	r3, r7, r3
 3632 006e 0A21     		movs	r1, #10
 3633 0070 7918     		adds	r1, r7, r1
 3634 0072 0978     		ldrb	r1, [r1]
 3635 0074 8A1A     		subs	r2, r1, r2
 3636 0076 1A70     		strb	r2, [r3]
 858:Drivers/u8glib/src/u8g_font.c ****     t += d;
 3637              		.loc 1 858 0
 3638 0078 1623     		movs	r3, #22
 3639 007a FB18     		adds	r3, r7, r3
 3640 007c 1978     		ldrb	r1, [r3]
 3641 007e 1723     		movs	r3, #23
 3642 0080 FB18     		adds	r3, r7, r3
 3643 0082 1722     		movs	r2, #23
 3644 0084 BA18     		adds	r2, r7, r2
 3645 0086 1278     		ldrb	r2, [r2]
 3646 0088 8A18     		adds	r2, r1, r2
 3647 008a 1A70     		strb	r2, [r3]
 859:Drivers/u8glib/src/u8g_font.c ****     s++;
ARM GAS  /tmp/ccxKl5M2.s 			page 79


 3648              		.loc 1 859 0
 3649 008c 7B68     		ldr	r3, [r7, #4]
 3650 008e 0133     		adds	r3, r3, #1
 3651 0090 7B60     		str	r3, [r7, #4]
 3652              	.L143:
 854:Drivers/u8glib/src/u8g_font.c ****   {
 3653              		.loc 1 854 0
 3654 0092 7B68     		ldr	r3, [r7, #4]
 3655 0094 1B78     		ldrb	r3, [r3]
 3656 0096 002B     		cmp	r3, #0
 3657 0098 D4D1     		bne	.L144
 860:Drivers/u8glib/src/u8g_font.c ****   }
 861:Drivers/u8glib/src/u8g_font.c ****   return t;
 3658              		.loc 1 861 0
 3659 009a 1723     		movs	r3, #23
 3660 009c FB18     		adds	r3, r7, r3
 3661 009e 1B78     		ldrb	r3, [r3]
 862:Drivers/u8glib/src/u8g_font.c **** }
 3662              		.loc 1 862 0
 3663 00a0 1800     		movs	r0, r3
 3664 00a2 BD46     		mov	sp, r7
 3665 00a4 06B0     		add	sp, sp, #24
 3666              		@ sp needed
 3667 00a6 B0BD     		pop	{r4, r5, r7, pc}
 3668              		.cfi_endproc
 3669              	.LFE41:
 3671              		.section	.text.u8g_DrawStrDir,"ax",%progbits
 3672              		.align	1
 3673              		.global	u8g_DrawStrDir
 3674              		.syntax unified
 3675              		.code	16
 3676              		.thumb_func
 3677              		.fpu softvfp
 3679              	u8g_DrawStrDir:
 3680              	.LFB42:
 863:Drivers/u8glib/src/u8g_font.c **** 
 864:Drivers/u8glib/src/u8g_font.c **** u8g_uint_t u8g_DrawStrDir(u8g_t *u8g, u8g_uint_t x, u8g_uint_t y, uint8_t dir, const char *s)
 865:Drivers/u8glib/src/u8g_font.c **** {
 3681              		.loc 1 865 0
 3682              		.cfi_startproc
 3683 0000 90B5     		push	{r4, r7, lr}
 3684              	.LCFI126:
 3685              		.cfi_def_cfa_offset 12
 3686              		.cfi_offset 4, -12
 3687              		.cfi_offset 7, -8
 3688              		.cfi_offset 14, -4
 3689 0002 83B0     		sub	sp, sp, #12
 3690              	.LCFI127:
 3691              		.cfi_def_cfa_offset 24
 3692 0004 00AF     		add	r7, sp, #0
 3693              	.LCFI128:
 3694              		.cfi_def_cfa_register 7
 3695 0006 7860     		str	r0, [r7, #4]
 3696 0008 0C00     		movs	r4, r1
 3697 000a 1000     		movs	r0, r2
 3698 000c 1900     		movs	r1, r3
 3699 000e FB1C     		adds	r3, r7, #3
ARM GAS  /tmp/ccxKl5M2.s 			page 80


 3700 0010 221C     		adds	r2, r4, #0
 3701 0012 1A70     		strb	r2, [r3]
 3702 0014 BB1C     		adds	r3, r7, #2
 3703 0016 021C     		adds	r2, r0, #0
 3704 0018 1A70     		strb	r2, [r3]
 3705 001a 7B1C     		adds	r3, r7, #1
 3706 001c 0A1C     		adds	r2, r1, #0
 3707 001e 1A70     		strb	r2, [r3]
 866:Drivers/u8glib/src/u8g_font.c ****   switch(dir)
 3708              		.loc 1 866 0
 3709 0020 7B1C     		adds	r3, r7, #1
 3710 0022 1B78     		ldrb	r3, [r3]
 3711 0024 012B     		cmp	r3, #1
 3712 0026 13D0     		beq	.L148
 3713 0028 02DC     		bgt	.L149
 3714 002a 002B     		cmp	r3, #0
 3715 002c 05D0     		beq	.L150
 3716 002e 30E0     		b	.L147
 3717              	.L149:
 3718 0030 022B     		cmp	r3, #2
 3719 0032 18D0     		beq	.L151
 3720 0034 032B     		cmp	r3, #3
 3721 0036 21D0     		beq	.L152
 3722 0038 2BE0     		b	.L147
 3723              	.L150:
 867:Drivers/u8glib/src/u8g_font.c ****   {
 868:Drivers/u8glib/src/u8g_font.c ****     case 0:
 869:Drivers/u8glib/src/u8g_font.c ****       return u8g_DrawStr(u8g, x, y, s);
 3724              		.loc 1 869 0
 3725 003a BC69     		ldr	r4, [r7, #24]
 3726 003c BB1C     		adds	r3, r7, #2
 3727 003e 1A78     		ldrb	r2, [r3]
 3728 0040 FB1C     		adds	r3, r7, #3
 3729 0042 1978     		ldrb	r1, [r3]
 3730 0044 7868     		ldr	r0, [r7, #4]
 3731 0046 2300     		movs	r3, r4
 3732 0048 FFF7FEFF 		bl	u8g_DrawStr
 3733 004c 0300     		movs	r3, r0
 3734 004e 21E0     		b	.L153
 3735              	.L148:
 870:Drivers/u8glib/src/u8g_font.c ****     case 1:
 871:Drivers/u8glib/src/u8g_font.c ****       return u8g_DrawStr90(u8g, x, y, s);
 3736              		.loc 1 871 0
 3737 0050 BC69     		ldr	r4, [r7, #24]
 3738 0052 BB1C     		adds	r3, r7, #2
 3739 0054 1A78     		ldrb	r2, [r3]
 3740 0056 FB1C     		adds	r3, r7, #3
 3741 0058 1978     		ldrb	r1, [r3]
 3742 005a 7868     		ldr	r0, [r7, #4]
 3743 005c 2300     		movs	r3, r4
 3744 005e FFF7FEFF 		bl	u8g_DrawStr90
 3745 0062 0300     		movs	r3, r0
 3746 0064 16E0     		b	.L153
 3747              	.L151:
 872:Drivers/u8glib/src/u8g_font.c ****     case 2:
 873:Drivers/u8glib/src/u8g_font.c ****       return u8g_DrawStr180(u8g, x, y, s);
 3748              		.loc 1 873 0
ARM GAS  /tmp/ccxKl5M2.s 			page 81


 3749 0066 BC69     		ldr	r4, [r7, #24]
 3750 0068 BB1C     		adds	r3, r7, #2
 3751 006a 1A78     		ldrb	r2, [r3]
 3752 006c FB1C     		adds	r3, r7, #3
 3753 006e 1978     		ldrb	r1, [r3]
 3754 0070 7868     		ldr	r0, [r7, #4]
 3755 0072 2300     		movs	r3, r4
 3756 0074 FFF7FEFF 		bl	u8g_DrawStr180
 3757 0078 0300     		movs	r3, r0
 3758 007a 0BE0     		b	.L153
 3759              	.L152:
 874:Drivers/u8glib/src/u8g_font.c ****     case 3:
 875:Drivers/u8glib/src/u8g_font.c ****       return u8g_DrawStr270(u8g, x, y, s);
 3760              		.loc 1 875 0
 3761 007c BC69     		ldr	r4, [r7, #24]
 3762 007e BB1C     		adds	r3, r7, #2
 3763 0080 1A78     		ldrb	r2, [r3]
 3764 0082 FB1C     		adds	r3, r7, #3
 3765 0084 1978     		ldrb	r1, [r3]
 3766 0086 7868     		ldr	r0, [r7, #4]
 3767 0088 2300     		movs	r3, r4
 3768 008a FFF7FEFF 		bl	u8g_DrawStr270
 3769 008e 0300     		movs	r3, r0
 3770 0090 00E0     		b	.L153
 3771              	.L147:
 876:Drivers/u8glib/src/u8g_font.c ****   }
 877:Drivers/u8glib/src/u8g_font.c ****   return 0;
 3772              		.loc 1 877 0
 3773 0092 0023     		movs	r3, #0
 3774              	.L153:
 878:Drivers/u8glib/src/u8g_font.c **** }
 3775              		.loc 1 878 0
 3776 0094 1800     		movs	r0, r3
 3777 0096 BD46     		mov	sp, r7
 3778 0098 03B0     		add	sp, sp, #12
 3779              		@ sp needed
 3780 009a 90BD     		pop	{r4, r7, pc}
 3781              		.cfi_endproc
 3782              	.LFE42:
 3784              		.section	.text.u8g_DrawStrP,"ax",%progbits
 3785              		.align	1
 3786              		.global	u8g_DrawStrP
 3787              		.syntax unified
 3788              		.code	16
 3789              		.thumb_func
 3790              		.fpu softvfp
 3792              	u8g_DrawStrP:
 3793              	.LFB43:
 879:Drivers/u8glib/src/u8g_font.c **** 
 880:Drivers/u8glib/src/u8g_font.c **** u8g_uint_t u8g_DrawStrP(u8g_t *u8g, u8g_uint_t x, u8g_uint_t y, const u8g_pgm_uint8_t *s)
 881:Drivers/u8glib/src/u8g_font.c **** {
 3794              		.loc 1 881 0
 3795              		.cfi_startproc
 3796 0000 B0B5     		push	{r4, r5, r7, lr}
 3797              	.LCFI129:
 3798              		.cfi_def_cfa_offset 16
 3799              		.cfi_offset 4, -16
ARM GAS  /tmp/ccxKl5M2.s 			page 82


 3800              		.cfi_offset 5, -12
 3801              		.cfi_offset 7, -8
 3802              		.cfi_offset 14, -4
 3803 0002 86B0     		sub	sp, sp, #24
 3804              	.LCFI130:
 3805              		.cfi_def_cfa_offset 40
 3806 0004 00AF     		add	r7, sp, #0
 3807              	.LCFI131:
 3808              		.cfi_def_cfa_register 7
 3809 0006 F860     		str	r0, [r7, #12]
 3810 0008 0800     		movs	r0, r1
 3811 000a 1100     		movs	r1, r2
 3812 000c 7B60     		str	r3, [r7, #4]
 3813 000e 0B23     		movs	r3, #11
 3814 0010 FB18     		adds	r3, r7, r3
 3815 0012 021C     		adds	r2, r0, #0
 3816 0014 1A70     		strb	r2, [r3]
 3817 0016 0A23     		movs	r3, #10
 3818 0018 FB18     		adds	r3, r7, r3
 3819 001a 0A1C     		adds	r2, r1, #0
 3820 001c 1A70     		strb	r2, [r3]
 882:Drivers/u8glib/src/u8g_font.c ****   u8g_uint_t t = 0;
 3821              		.loc 1 882 0
 3822 001e 1723     		movs	r3, #23
 3823 0020 FB18     		adds	r3, r7, r3
 3824 0022 0022     		movs	r2, #0
 3825 0024 1A70     		strb	r2, [r3]
 883:Drivers/u8glib/src/u8g_font.c ****   int8_t d;
 884:Drivers/u8glib/src/u8g_font.c ****   uint8_t c;
 885:Drivers/u8glib/src/u8g_font.c ****   
 886:Drivers/u8glib/src/u8g_font.c ****   y += u8g->font_calc_vref(u8g);
 3826              		.loc 1 886 0
 3827 0026 FB68     		ldr	r3, [r7, #12]
 3828 0028 5B6A     		ldr	r3, [r3, #36]
 3829 002a FA68     		ldr	r2, [r7, #12]
 3830 002c 1000     		movs	r0, r2
 3831 002e 9847     		blx	r3
 3832              	.LVL8:
 3833 0030 0300     		movs	r3, r0
 3834 0032 1900     		movs	r1, r3
 3835 0034 0A23     		movs	r3, #10
 3836 0036 FB18     		adds	r3, r7, r3
 3837 0038 0A22     		movs	r2, #10
 3838 003a BA18     		adds	r2, r7, r2
 3839 003c 1278     		ldrb	r2, [r2]
 3840 003e 8A18     		adds	r2, r1, r2
 3841 0040 1A70     		strb	r2, [r3]
 3842              	.L157:
 887:Drivers/u8glib/src/u8g_font.c ****   
 888:Drivers/u8glib/src/u8g_font.c ****   for(;;)
 889:Drivers/u8glib/src/u8g_font.c ****   {
 890:Drivers/u8glib/src/u8g_font.c ****     c = u8g_pgm_read(s);
 3843              		.loc 1 890 0
 3844 0042 1623     		movs	r3, #22
 3845 0044 FB18     		adds	r3, r7, r3
 3846 0046 7A68     		ldr	r2, [r7, #4]
 3847 0048 1278     		ldrb	r2, [r2]
ARM GAS  /tmp/ccxKl5M2.s 			page 83


 3848 004a 1A70     		strb	r2, [r3]
 891:Drivers/u8glib/src/u8g_font.c ****     if ( c == '\0' )
 3849              		.loc 1 891 0
 3850 004c 1623     		movs	r3, #22
 3851 004e FB18     		adds	r3, r7, r3
 3852 0050 1B78     		ldrb	r3, [r3]
 3853 0052 002B     		cmp	r3, #0
 3854 0054 28D0     		beq	.L160
 892:Drivers/u8glib/src/u8g_font.c ****       break;
 893:Drivers/u8glib/src/u8g_font.c ****     d = u8g_draw_glyph(u8g, x, y, c);
 3855              		.loc 1 893 0
 3856 0056 1523     		movs	r3, #21
 3857 0058 FC18     		adds	r4, r7, r3
 3858 005a 1623     		movs	r3, #22
 3859 005c FB18     		adds	r3, r7, r3
 3860 005e 1D78     		ldrb	r5, [r3]
 3861 0060 0A23     		movs	r3, #10
 3862 0062 FB18     		adds	r3, r7, r3
 3863 0064 1A78     		ldrb	r2, [r3]
 3864 0066 0B23     		movs	r3, #11
 3865 0068 FB18     		adds	r3, r7, r3
 3866 006a 1978     		ldrb	r1, [r3]
 3867 006c F868     		ldr	r0, [r7, #12]
 3868 006e 2B00     		movs	r3, r5
 3869 0070 FFF7FEFF 		bl	u8g_draw_glyph
 3870 0074 0300     		movs	r3, r0
 3871 0076 2370     		strb	r3, [r4]
 894:Drivers/u8glib/src/u8g_font.c ****     x += d;
 3872              		.loc 1 894 0
 3873 0078 1523     		movs	r3, #21
 3874 007a FB18     		adds	r3, r7, r3
 3875 007c 1978     		ldrb	r1, [r3]
 3876 007e 0B23     		movs	r3, #11
 3877 0080 FB18     		adds	r3, r7, r3
 3878 0082 0B22     		movs	r2, #11
 3879 0084 BA18     		adds	r2, r7, r2
 3880 0086 1278     		ldrb	r2, [r2]
 3881 0088 8A18     		adds	r2, r1, r2
 3882 008a 1A70     		strb	r2, [r3]
 895:Drivers/u8glib/src/u8g_font.c ****     t += d;
 3883              		.loc 1 895 0
 3884 008c 1523     		movs	r3, #21
 3885 008e FB18     		adds	r3, r7, r3
 3886 0090 1978     		ldrb	r1, [r3]
 3887 0092 1723     		movs	r3, #23
 3888 0094 FB18     		adds	r3, r7, r3
 3889 0096 1722     		movs	r2, #23
 3890 0098 BA18     		adds	r2, r7, r2
 3891 009a 1278     		ldrb	r2, [r2]
 3892 009c 8A18     		adds	r2, r1, r2
 3893 009e 1A70     		strb	r2, [r3]
 896:Drivers/u8glib/src/u8g_font.c ****     s++;
 3894              		.loc 1 896 0
 3895 00a0 7B68     		ldr	r3, [r7, #4]
 3896 00a2 0133     		adds	r3, r3, #1
 3897 00a4 7B60     		str	r3, [r7, #4]
 890:Drivers/u8glib/src/u8g_font.c ****     if ( c == '\0' )
ARM GAS  /tmp/ccxKl5M2.s 			page 84


 3898              		.loc 1 890 0
 3899 00a6 CCE7     		b	.L157
 3900              	.L160:
 892:Drivers/u8glib/src/u8g_font.c ****     d = u8g_draw_glyph(u8g, x, y, c);
 3901              		.loc 1 892 0
 3902 00a8 C046     		nop
 897:Drivers/u8glib/src/u8g_font.c ****   }
 898:Drivers/u8glib/src/u8g_font.c ****   return t;
 3903              		.loc 1 898 0
 3904 00aa 1723     		movs	r3, #23
 3905 00ac FB18     		adds	r3, r7, r3
 3906 00ae 1B78     		ldrb	r3, [r3]
 899:Drivers/u8glib/src/u8g_font.c **** }
 3907              		.loc 1 899 0
 3908 00b0 1800     		movs	r0, r3
 3909 00b2 BD46     		mov	sp, r7
 3910 00b4 06B0     		add	sp, sp, #24
 3911              		@ sp needed
 3912 00b6 B0BD     		pop	{r4, r5, r7, pc}
 3913              		.cfi_endproc
 3914              	.LFE43:
 3916              		.section	.text.u8g_DrawStr90P,"ax",%progbits
 3917              		.align	1
 3918              		.global	u8g_DrawStr90P
 3919              		.syntax unified
 3920              		.code	16
 3921              		.thumb_func
 3922              		.fpu softvfp
 3924              	u8g_DrawStr90P:
 3925              	.LFB44:
 900:Drivers/u8glib/src/u8g_font.c **** 
 901:Drivers/u8glib/src/u8g_font.c **** u8g_uint_t u8g_DrawStr90P(u8g_t *u8g, u8g_uint_t x, u8g_uint_t y, const u8g_pgm_uint8_t *s)
 902:Drivers/u8glib/src/u8g_font.c **** {
 3926              		.loc 1 902 0
 3927              		.cfi_startproc
 3928 0000 B0B5     		push	{r4, r5, r7, lr}
 3929              	.LCFI132:
 3930              		.cfi_def_cfa_offset 16
 3931              		.cfi_offset 4, -16
 3932              		.cfi_offset 5, -12
 3933              		.cfi_offset 7, -8
 3934              		.cfi_offset 14, -4
 3935 0002 86B0     		sub	sp, sp, #24
 3936              	.LCFI133:
 3937              		.cfi_def_cfa_offset 40
 3938 0004 00AF     		add	r7, sp, #0
 3939              	.LCFI134:
 3940              		.cfi_def_cfa_register 7
 3941 0006 F860     		str	r0, [r7, #12]
 3942 0008 0800     		movs	r0, r1
 3943 000a 1100     		movs	r1, r2
 3944 000c 7B60     		str	r3, [r7, #4]
 3945 000e 0B23     		movs	r3, #11
 3946 0010 FB18     		adds	r3, r7, r3
 3947 0012 021C     		adds	r2, r0, #0
 3948 0014 1A70     		strb	r2, [r3]
 3949 0016 0A23     		movs	r3, #10
ARM GAS  /tmp/ccxKl5M2.s 			page 85


 3950 0018 FB18     		adds	r3, r7, r3
 3951 001a 0A1C     		adds	r2, r1, #0
 3952 001c 1A70     		strb	r2, [r3]
 903:Drivers/u8glib/src/u8g_font.c ****   u8g_uint_t t = 0;
 3953              		.loc 1 903 0
 3954 001e 1723     		movs	r3, #23
 3955 0020 FB18     		adds	r3, r7, r3
 3956 0022 0022     		movs	r2, #0
 3957 0024 1A70     		strb	r2, [r3]
 904:Drivers/u8glib/src/u8g_font.c ****   int8_t d;
 905:Drivers/u8glib/src/u8g_font.c ****   uint8_t c;
 906:Drivers/u8glib/src/u8g_font.c ****   
 907:Drivers/u8glib/src/u8g_font.c ****   x -= u8g->font_calc_vref(u8g);
 3958              		.loc 1 907 0
 3959 0026 FB68     		ldr	r3, [r7, #12]
 3960 0028 5B6A     		ldr	r3, [r3, #36]
 3961 002a FA68     		ldr	r2, [r7, #12]
 3962 002c 1000     		movs	r0, r2
 3963 002e 9847     		blx	r3
 3964              	.LVL9:
 3965 0030 0300     		movs	r3, r0
 3966 0032 1900     		movs	r1, r3
 3967 0034 0B23     		movs	r3, #11
 3968 0036 FB18     		adds	r3, r7, r3
 3969 0038 0B22     		movs	r2, #11
 3970 003a BA18     		adds	r2, r7, r2
 3971 003c 1278     		ldrb	r2, [r2]
 3972 003e 521A     		subs	r2, r2, r1
 3973 0040 1A70     		strb	r2, [r3]
 3974              	.L164:
 908:Drivers/u8glib/src/u8g_font.c **** 
 909:Drivers/u8glib/src/u8g_font.c ****   for(;;)
 910:Drivers/u8glib/src/u8g_font.c ****   {
 911:Drivers/u8glib/src/u8g_font.c ****     c = u8g_pgm_read(s);
 3975              		.loc 1 911 0
 3976 0042 1623     		movs	r3, #22
 3977 0044 FB18     		adds	r3, r7, r3
 3978 0046 7A68     		ldr	r2, [r7, #4]
 3979 0048 1278     		ldrb	r2, [r2]
 3980 004a 1A70     		strb	r2, [r3]
 912:Drivers/u8glib/src/u8g_font.c ****     if ( c == '\0' )
 3981              		.loc 1 912 0
 3982 004c 1623     		movs	r3, #22
 3983 004e FB18     		adds	r3, r7, r3
 3984 0050 1B78     		ldrb	r3, [r3]
 3985 0052 002B     		cmp	r3, #0
 3986 0054 28D0     		beq	.L167
 913:Drivers/u8glib/src/u8g_font.c ****       break;
 914:Drivers/u8glib/src/u8g_font.c ****     d = u8g_DrawGlyph90(u8g, x, y, c);
 3987              		.loc 1 914 0
 3988 0056 1523     		movs	r3, #21
 3989 0058 FC18     		adds	r4, r7, r3
 3990 005a 1623     		movs	r3, #22
 3991 005c FB18     		adds	r3, r7, r3
 3992 005e 1D78     		ldrb	r5, [r3]
 3993 0060 0A23     		movs	r3, #10
 3994 0062 FB18     		adds	r3, r7, r3
ARM GAS  /tmp/ccxKl5M2.s 			page 86


 3995 0064 1A78     		ldrb	r2, [r3]
 3996 0066 0B23     		movs	r3, #11
 3997 0068 FB18     		adds	r3, r7, r3
 3998 006a 1978     		ldrb	r1, [r3]
 3999 006c F868     		ldr	r0, [r7, #12]
 4000 006e 2B00     		movs	r3, r5
 4001 0070 FFF7FEFF 		bl	u8g_DrawGlyph90
 4002 0074 0300     		movs	r3, r0
 4003 0076 2370     		strb	r3, [r4]
 915:Drivers/u8glib/src/u8g_font.c ****     y += d;
 4004              		.loc 1 915 0
 4005 0078 1523     		movs	r3, #21
 4006 007a FB18     		adds	r3, r7, r3
 4007 007c 1978     		ldrb	r1, [r3]
 4008 007e 0A23     		movs	r3, #10
 4009 0080 FB18     		adds	r3, r7, r3
 4010 0082 0A22     		movs	r2, #10
 4011 0084 BA18     		adds	r2, r7, r2
 4012 0086 1278     		ldrb	r2, [r2]
 4013 0088 8A18     		adds	r2, r1, r2
 4014 008a 1A70     		strb	r2, [r3]
 916:Drivers/u8glib/src/u8g_font.c ****     t += d;
 4015              		.loc 1 916 0
 4016 008c 1523     		movs	r3, #21
 4017 008e FB18     		adds	r3, r7, r3
 4018 0090 1978     		ldrb	r1, [r3]
 4019 0092 1723     		movs	r3, #23
 4020 0094 FB18     		adds	r3, r7, r3
 4021 0096 1722     		movs	r2, #23
 4022 0098 BA18     		adds	r2, r7, r2
 4023 009a 1278     		ldrb	r2, [r2]
 4024 009c 8A18     		adds	r2, r1, r2
 4025 009e 1A70     		strb	r2, [r3]
 917:Drivers/u8glib/src/u8g_font.c ****     s++;
 4026              		.loc 1 917 0
 4027 00a0 7B68     		ldr	r3, [r7, #4]
 4028 00a2 0133     		adds	r3, r3, #1
 4029 00a4 7B60     		str	r3, [r7, #4]
 911:Drivers/u8glib/src/u8g_font.c ****     if ( c == '\0' )
 4030              		.loc 1 911 0
 4031 00a6 CCE7     		b	.L164
 4032              	.L167:
 913:Drivers/u8glib/src/u8g_font.c ****     d = u8g_DrawGlyph90(u8g, x, y, c);
 4033              		.loc 1 913 0
 4034 00a8 C046     		nop
 918:Drivers/u8glib/src/u8g_font.c ****   }
 919:Drivers/u8glib/src/u8g_font.c ****   return t;
 4035              		.loc 1 919 0
 4036 00aa 1723     		movs	r3, #23
 4037 00ac FB18     		adds	r3, r7, r3
 4038 00ae 1B78     		ldrb	r3, [r3]
 920:Drivers/u8glib/src/u8g_font.c **** }
 4039              		.loc 1 920 0
 4040 00b0 1800     		movs	r0, r3
 4041 00b2 BD46     		mov	sp, r7
 4042 00b4 06B0     		add	sp, sp, #24
 4043              		@ sp needed
ARM GAS  /tmp/ccxKl5M2.s 			page 87


 4044 00b6 B0BD     		pop	{r4, r5, r7, pc}
 4045              		.cfi_endproc
 4046              	.LFE44:
 4048              		.section	.text.u8g_DrawStr180P,"ax",%progbits
 4049              		.align	1
 4050              		.global	u8g_DrawStr180P
 4051              		.syntax unified
 4052              		.code	16
 4053              		.thumb_func
 4054              		.fpu softvfp
 4056              	u8g_DrawStr180P:
 4057              	.LFB45:
 921:Drivers/u8glib/src/u8g_font.c **** 
 922:Drivers/u8glib/src/u8g_font.c **** u8g_uint_t u8g_DrawStr180P(u8g_t *u8g, u8g_uint_t x, u8g_uint_t y, const u8g_pgm_uint8_t *s)
 923:Drivers/u8glib/src/u8g_font.c **** {
 4058              		.loc 1 923 0
 4059              		.cfi_startproc
 4060 0000 B0B5     		push	{r4, r5, r7, lr}
 4061              	.LCFI135:
 4062              		.cfi_def_cfa_offset 16
 4063              		.cfi_offset 4, -16
 4064              		.cfi_offset 5, -12
 4065              		.cfi_offset 7, -8
 4066              		.cfi_offset 14, -4
 4067 0002 86B0     		sub	sp, sp, #24
 4068              	.LCFI136:
 4069              		.cfi_def_cfa_offset 40
 4070 0004 00AF     		add	r7, sp, #0
 4071              	.LCFI137:
 4072              		.cfi_def_cfa_register 7
 4073 0006 F860     		str	r0, [r7, #12]
 4074 0008 0800     		movs	r0, r1
 4075 000a 1100     		movs	r1, r2
 4076 000c 7B60     		str	r3, [r7, #4]
 4077 000e 0B23     		movs	r3, #11
 4078 0010 FB18     		adds	r3, r7, r3
 4079 0012 021C     		adds	r2, r0, #0
 4080 0014 1A70     		strb	r2, [r3]
 4081 0016 0A23     		movs	r3, #10
 4082 0018 FB18     		adds	r3, r7, r3
 4083 001a 0A1C     		adds	r2, r1, #0
 4084 001c 1A70     		strb	r2, [r3]
 924:Drivers/u8glib/src/u8g_font.c ****   u8g_uint_t t = 0;
 4085              		.loc 1 924 0
 4086 001e 1723     		movs	r3, #23
 4087 0020 FB18     		adds	r3, r7, r3
 4088 0022 0022     		movs	r2, #0
 4089 0024 1A70     		strb	r2, [r3]
 925:Drivers/u8glib/src/u8g_font.c ****   int8_t d;
 926:Drivers/u8glib/src/u8g_font.c ****   uint8_t c;
 927:Drivers/u8glib/src/u8g_font.c **** 
 928:Drivers/u8glib/src/u8g_font.c ****   y -= u8g->font_calc_vref(u8g);
 4090              		.loc 1 928 0
 4091 0026 FB68     		ldr	r3, [r7, #12]
 4092 0028 5B6A     		ldr	r3, [r3, #36]
 4093 002a FA68     		ldr	r2, [r7, #12]
 4094 002c 1000     		movs	r0, r2
ARM GAS  /tmp/ccxKl5M2.s 			page 88


 4095 002e 9847     		blx	r3
 4096              	.LVL10:
 4097 0030 0300     		movs	r3, r0
 4098 0032 1900     		movs	r1, r3
 4099 0034 0A23     		movs	r3, #10
 4100 0036 FB18     		adds	r3, r7, r3
 4101 0038 0A22     		movs	r2, #10
 4102 003a BA18     		adds	r2, r7, r2
 4103 003c 1278     		ldrb	r2, [r2]
 4104 003e 521A     		subs	r2, r2, r1
 4105 0040 1A70     		strb	r2, [r3]
 4106              	.L171:
 929:Drivers/u8glib/src/u8g_font.c ****   
 930:Drivers/u8glib/src/u8g_font.c ****   for(;;)
 931:Drivers/u8glib/src/u8g_font.c ****   {
 932:Drivers/u8glib/src/u8g_font.c ****     c = u8g_pgm_read(s);
 4107              		.loc 1 932 0
 4108 0042 1623     		movs	r3, #22
 4109 0044 FB18     		adds	r3, r7, r3
 4110 0046 7A68     		ldr	r2, [r7, #4]
 4111 0048 1278     		ldrb	r2, [r2]
 4112 004a 1A70     		strb	r2, [r3]
 933:Drivers/u8glib/src/u8g_font.c ****     if ( c == '\0' )
 4113              		.loc 1 933 0
 4114 004c 1623     		movs	r3, #22
 4115 004e FB18     		adds	r3, r7, r3
 4116 0050 1B78     		ldrb	r3, [r3]
 4117 0052 002B     		cmp	r3, #0
 4118 0054 28D0     		beq	.L174
 934:Drivers/u8glib/src/u8g_font.c ****       break;
 935:Drivers/u8glib/src/u8g_font.c ****     d = u8g_DrawGlyph180(u8g, x, y, c);
 4119              		.loc 1 935 0
 4120 0056 1523     		movs	r3, #21
 4121 0058 FC18     		adds	r4, r7, r3
 4122 005a 1623     		movs	r3, #22
 4123 005c FB18     		adds	r3, r7, r3
 4124 005e 1D78     		ldrb	r5, [r3]
 4125 0060 0A23     		movs	r3, #10
 4126 0062 FB18     		adds	r3, r7, r3
 4127 0064 1A78     		ldrb	r2, [r3]
 4128 0066 0B23     		movs	r3, #11
 4129 0068 FB18     		adds	r3, r7, r3
 4130 006a 1978     		ldrb	r1, [r3]
 4131 006c F868     		ldr	r0, [r7, #12]
 4132 006e 2B00     		movs	r3, r5
 4133 0070 FFF7FEFF 		bl	u8g_DrawGlyph180
 4134 0074 0300     		movs	r3, r0
 4135 0076 2370     		strb	r3, [r4]
 936:Drivers/u8glib/src/u8g_font.c ****     x -= d;
 4136              		.loc 1 936 0
 4137 0078 1523     		movs	r3, #21
 4138 007a FB18     		adds	r3, r7, r3
 4139 007c 1A78     		ldrb	r2, [r3]
 4140 007e 0B23     		movs	r3, #11
 4141 0080 FB18     		adds	r3, r7, r3
 4142 0082 0B21     		movs	r1, #11
 4143 0084 7918     		adds	r1, r7, r1
ARM GAS  /tmp/ccxKl5M2.s 			page 89


 4144 0086 0978     		ldrb	r1, [r1]
 4145 0088 8A1A     		subs	r2, r1, r2
 4146 008a 1A70     		strb	r2, [r3]
 937:Drivers/u8glib/src/u8g_font.c ****     t += d;
 4147              		.loc 1 937 0
 4148 008c 1523     		movs	r3, #21
 4149 008e FB18     		adds	r3, r7, r3
 4150 0090 1978     		ldrb	r1, [r3]
 4151 0092 1723     		movs	r3, #23
 4152 0094 FB18     		adds	r3, r7, r3
 4153 0096 1722     		movs	r2, #23
 4154 0098 BA18     		adds	r2, r7, r2
 4155 009a 1278     		ldrb	r2, [r2]
 4156 009c 8A18     		adds	r2, r1, r2
 4157 009e 1A70     		strb	r2, [r3]
 938:Drivers/u8glib/src/u8g_font.c ****     s++;
 4158              		.loc 1 938 0
 4159 00a0 7B68     		ldr	r3, [r7, #4]
 4160 00a2 0133     		adds	r3, r3, #1
 4161 00a4 7B60     		str	r3, [r7, #4]
 932:Drivers/u8glib/src/u8g_font.c ****     if ( c == '\0' )
 4162              		.loc 1 932 0
 4163 00a6 CCE7     		b	.L171
 4164              	.L174:
 934:Drivers/u8glib/src/u8g_font.c ****     d = u8g_DrawGlyph180(u8g, x, y, c);
 4165              		.loc 1 934 0
 4166 00a8 C046     		nop
 939:Drivers/u8glib/src/u8g_font.c ****   }
 940:Drivers/u8glib/src/u8g_font.c ****   return t;
 4167              		.loc 1 940 0
 4168 00aa 1723     		movs	r3, #23
 4169 00ac FB18     		adds	r3, r7, r3
 4170 00ae 1B78     		ldrb	r3, [r3]
 941:Drivers/u8glib/src/u8g_font.c **** }
 4171              		.loc 1 941 0
 4172 00b0 1800     		movs	r0, r3
 4173 00b2 BD46     		mov	sp, r7
 4174 00b4 06B0     		add	sp, sp, #24
 4175              		@ sp needed
 4176 00b6 B0BD     		pop	{r4, r5, r7, pc}
 4177              		.cfi_endproc
 4178              	.LFE45:
 4180              		.section	.text.u8g_DrawStr270P,"ax",%progbits
 4181              		.align	1
 4182              		.global	u8g_DrawStr270P
 4183              		.syntax unified
 4184              		.code	16
 4185              		.thumb_func
 4186              		.fpu softvfp
 4188              	u8g_DrawStr270P:
 4189              	.LFB46:
 942:Drivers/u8glib/src/u8g_font.c **** 
 943:Drivers/u8glib/src/u8g_font.c **** u8g_uint_t u8g_DrawStr270P(u8g_t *u8g, u8g_uint_t x, u8g_uint_t y, const u8g_pgm_uint8_t *s)
 944:Drivers/u8glib/src/u8g_font.c **** {
 4190              		.loc 1 944 0
 4191              		.cfi_startproc
 4192 0000 B0B5     		push	{r4, r5, r7, lr}
ARM GAS  /tmp/ccxKl5M2.s 			page 90


 4193              	.LCFI138:
 4194              		.cfi_def_cfa_offset 16
 4195              		.cfi_offset 4, -16
 4196              		.cfi_offset 5, -12
 4197              		.cfi_offset 7, -8
 4198              		.cfi_offset 14, -4
 4199 0002 86B0     		sub	sp, sp, #24
 4200              	.LCFI139:
 4201              		.cfi_def_cfa_offset 40
 4202 0004 00AF     		add	r7, sp, #0
 4203              	.LCFI140:
 4204              		.cfi_def_cfa_register 7
 4205 0006 F860     		str	r0, [r7, #12]
 4206 0008 0800     		movs	r0, r1
 4207 000a 1100     		movs	r1, r2
 4208 000c 7B60     		str	r3, [r7, #4]
 4209 000e 0B23     		movs	r3, #11
 4210 0010 FB18     		adds	r3, r7, r3
 4211 0012 021C     		adds	r2, r0, #0
 4212 0014 1A70     		strb	r2, [r3]
 4213 0016 0A23     		movs	r3, #10
 4214 0018 FB18     		adds	r3, r7, r3
 4215 001a 0A1C     		adds	r2, r1, #0
 4216 001c 1A70     		strb	r2, [r3]
 945:Drivers/u8glib/src/u8g_font.c ****   u8g_uint_t t = 0;
 4217              		.loc 1 945 0
 4218 001e 1723     		movs	r3, #23
 4219 0020 FB18     		adds	r3, r7, r3
 4220 0022 0022     		movs	r2, #0
 4221 0024 1A70     		strb	r2, [r3]
 946:Drivers/u8glib/src/u8g_font.c ****   int8_t d;
 947:Drivers/u8glib/src/u8g_font.c ****   uint8_t c;
 948:Drivers/u8glib/src/u8g_font.c **** 
 949:Drivers/u8glib/src/u8g_font.c ****   x += u8g->font_calc_vref(u8g);
 4222              		.loc 1 949 0
 4223 0026 FB68     		ldr	r3, [r7, #12]
 4224 0028 5B6A     		ldr	r3, [r3, #36]
 4225 002a FA68     		ldr	r2, [r7, #12]
 4226 002c 1000     		movs	r0, r2
 4227 002e 9847     		blx	r3
 4228              	.LVL11:
 4229 0030 0300     		movs	r3, r0
 4230 0032 1900     		movs	r1, r3
 4231 0034 0B23     		movs	r3, #11
 4232 0036 FB18     		adds	r3, r7, r3
 4233 0038 0B22     		movs	r2, #11
 4234 003a BA18     		adds	r2, r7, r2
 4235 003c 1278     		ldrb	r2, [r2]
 4236 003e 8A18     		adds	r2, r1, r2
 4237 0040 1A70     		strb	r2, [r3]
 4238              	.L178:
 950:Drivers/u8glib/src/u8g_font.c **** 
 951:Drivers/u8glib/src/u8g_font.c ****   for(;;)
 952:Drivers/u8glib/src/u8g_font.c ****   {
 953:Drivers/u8glib/src/u8g_font.c ****     c = u8g_pgm_read(s);
 4239              		.loc 1 953 0
 4240 0042 1623     		movs	r3, #22
ARM GAS  /tmp/ccxKl5M2.s 			page 91


 4241 0044 FB18     		adds	r3, r7, r3
 4242 0046 7A68     		ldr	r2, [r7, #4]
 4243 0048 1278     		ldrb	r2, [r2]
 4244 004a 1A70     		strb	r2, [r3]
 954:Drivers/u8glib/src/u8g_font.c ****     if ( c == '\0' )
 4245              		.loc 1 954 0
 4246 004c 1623     		movs	r3, #22
 4247 004e FB18     		adds	r3, r7, r3
 4248 0050 1B78     		ldrb	r3, [r3]
 4249 0052 002B     		cmp	r3, #0
 4250 0054 28D0     		beq	.L181
 955:Drivers/u8glib/src/u8g_font.c ****       break;
 956:Drivers/u8glib/src/u8g_font.c ****     d = u8g_DrawGlyph270(u8g, x, y, c);
 4251              		.loc 1 956 0
 4252 0056 1523     		movs	r3, #21
 4253 0058 FC18     		adds	r4, r7, r3
 4254 005a 1623     		movs	r3, #22
 4255 005c FB18     		adds	r3, r7, r3
 4256 005e 1D78     		ldrb	r5, [r3]
 4257 0060 0A23     		movs	r3, #10
 4258 0062 FB18     		adds	r3, r7, r3
 4259 0064 1A78     		ldrb	r2, [r3]
 4260 0066 0B23     		movs	r3, #11
 4261 0068 FB18     		adds	r3, r7, r3
 4262 006a 1978     		ldrb	r1, [r3]
 4263 006c F868     		ldr	r0, [r7, #12]
 4264 006e 2B00     		movs	r3, r5
 4265 0070 FFF7FEFF 		bl	u8g_DrawGlyph270
 4266 0074 0300     		movs	r3, r0
 4267 0076 2370     		strb	r3, [r4]
 957:Drivers/u8glib/src/u8g_font.c ****     y -= d;
 4268              		.loc 1 957 0
 4269 0078 1523     		movs	r3, #21
 4270 007a FB18     		adds	r3, r7, r3
 4271 007c 1A78     		ldrb	r2, [r3]
 4272 007e 0A23     		movs	r3, #10
 4273 0080 FB18     		adds	r3, r7, r3
 4274 0082 0A21     		movs	r1, #10
 4275 0084 7918     		adds	r1, r7, r1
 4276 0086 0978     		ldrb	r1, [r1]
 4277 0088 8A1A     		subs	r2, r1, r2
 4278 008a 1A70     		strb	r2, [r3]
 958:Drivers/u8glib/src/u8g_font.c ****     t += d;
 4279              		.loc 1 958 0
 4280 008c 1523     		movs	r3, #21
 4281 008e FB18     		adds	r3, r7, r3
 4282 0090 1978     		ldrb	r1, [r3]
 4283 0092 1723     		movs	r3, #23
 4284 0094 FB18     		adds	r3, r7, r3
 4285 0096 1722     		movs	r2, #23
 4286 0098 BA18     		adds	r2, r7, r2
 4287 009a 1278     		ldrb	r2, [r2]
 4288 009c 8A18     		adds	r2, r1, r2
 4289 009e 1A70     		strb	r2, [r3]
 959:Drivers/u8glib/src/u8g_font.c ****     s++;
 4290              		.loc 1 959 0
 4291 00a0 7B68     		ldr	r3, [r7, #4]
ARM GAS  /tmp/ccxKl5M2.s 			page 92


 4292 00a2 0133     		adds	r3, r3, #1
 4293 00a4 7B60     		str	r3, [r7, #4]
 953:Drivers/u8glib/src/u8g_font.c ****     if ( c == '\0' )
 4294              		.loc 1 953 0
 4295 00a6 CCE7     		b	.L178
 4296              	.L181:
 955:Drivers/u8glib/src/u8g_font.c ****     d = u8g_DrawGlyph270(u8g, x, y, c);
 4297              		.loc 1 955 0
 4298 00a8 C046     		nop
 960:Drivers/u8glib/src/u8g_font.c ****   }
 961:Drivers/u8glib/src/u8g_font.c ****   return t;
 4299              		.loc 1 961 0
 4300 00aa 1723     		movs	r3, #23
 4301 00ac FB18     		adds	r3, r7, r3
 4302 00ae 1B78     		ldrb	r3, [r3]
 962:Drivers/u8glib/src/u8g_font.c **** }
 4303              		.loc 1 962 0
 4304 00b0 1800     		movs	r0, r3
 4305 00b2 BD46     		mov	sp, r7
 4306 00b4 06B0     		add	sp, sp, #24
 4307              		@ sp needed
 4308 00b6 B0BD     		pop	{r4, r5, r7, pc}
 4309              		.cfi_endproc
 4310              	.LFE46:
 4312              		.section	.text.u8g_DrawStrFontBBX,"ax",%progbits
 4313              		.align	1
 4314              		.global	u8g_DrawStrFontBBX
 4315              		.syntax unified
 4316              		.code	16
 4317              		.thumb_func
 4318              		.fpu softvfp
 4320              	u8g_DrawStrFontBBX:
 4321              	.LFB47:
 963:Drivers/u8glib/src/u8g_font.c **** 
 964:Drivers/u8glib/src/u8g_font.c **** u8g_uint_t u8g_DrawStrFontBBX(u8g_t *u8g, u8g_uint_t x, u8g_uint_t y, uint8_t dir, const char *s)
 965:Drivers/u8glib/src/u8g_font.c **** {
 4322              		.loc 1 965 0
 4323              		.cfi_startproc
 4324 0000 90B5     		push	{r4, r7, lr}
 4325              	.LCFI141:
 4326              		.cfi_def_cfa_offset 12
 4327              		.cfi_offset 4, -12
 4328              		.cfi_offset 7, -8
 4329              		.cfi_offset 14, -4
 4330 0002 85B0     		sub	sp, sp, #20
 4331              	.LCFI142:
 4332              		.cfi_def_cfa_offset 32
 4333 0004 02AF     		add	r7, sp, #8
 4334              	.LCFI143:
 4335              		.cfi_def_cfa 7, 24
 4336 0006 7860     		str	r0, [r7, #4]
 4337 0008 0C00     		movs	r4, r1
 4338 000a 1000     		movs	r0, r2
 4339 000c 1900     		movs	r1, r3
 4340 000e FB1C     		adds	r3, r7, #3
 4341 0010 221C     		adds	r2, r4, #0
 4342 0012 1A70     		strb	r2, [r3]
ARM GAS  /tmp/ccxKl5M2.s 			page 93


 4343 0014 BB1C     		adds	r3, r7, #2
 4344 0016 021C     		adds	r2, r0, #0
 4345 0018 1A70     		strb	r2, [r3]
 4346 001a 7B1C     		adds	r3, r7, #1
 4347 001c 0A1C     		adds	r2, r1, #0
 4348 001e 1A70     		strb	r2, [r3]
 966:Drivers/u8glib/src/u8g_font.c ****   x -= u8g_GetFontBBXOffX(u8g);
 4349              		.loc 1 966 0
 4350 0020 7B68     		ldr	r3, [r7, #4]
 4351 0022 1800     		movs	r0, r3
 4352 0024 FFF7FEFF 		bl	u8g_GetFontBBXOffX
 4353 0028 0300     		movs	r3, r0
 4354 002a DAB2     		uxtb	r2, r3
 4355 002c FB1C     		adds	r3, r7, #3
 4356 002e F91C     		adds	r1, r7, #3
 4357 0030 0978     		ldrb	r1, [r1]
 4358 0032 8A1A     		subs	r2, r1, r2
 4359 0034 1A70     		strb	r2, [r3]
 967:Drivers/u8glib/src/u8g_font.c ****   y += u8g_GetFontBBXOffY(u8g);
 4360              		.loc 1 967 0
 4361 0036 7B68     		ldr	r3, [r7, #4]
 4362 0038 1800     		movs	r0, r3
 4363 003a FFF7FEFF 		bl	u8g_GetFontBBXOffY
 4364 003e 0300     		movs	r3, r0
 4365 0040 D9B2     		uxtb	r1, r3
 4366 0042 BB1C     		adds	r3, r7, #2
 4367 0044 BA1C     		adds	r2, r7, #2
 4368 0046 1278     		ldrb	r2, [r2]
 4369 0048 8A18     		adds	r2, r1, r2
 4370 004a 1A70     		strb	r2, [r3]
 968:Drivers/u8glib/src/u8g_font.c ****   return u8g_DrawStrDir(u8g, x, y, dir, s);
 4371              		.loc 1 968 0
 4372 004c 7B1C     		adds	r3, r7, #1
 4373 004e 1C78     		ldrb	r4, [r3]
 4374 0050 BB1C     		adds	r3, r7, #2
 4375 0052 1A78     		ldrb	r2, [r3]
 4376 0054 FB1C     		adds	r3, r7, #3
 4377 0056 1978     		ldrb	r1, [r3]
 4378 0058 7868     		ldr	r0, [r7, #4]
 4379 005a BB69     		ldr	r3, [r7, #24]
 4380 005c 0093     		str	r3, [sp]
 4381 005e 2300     		movs	r3, r4
 4382 0060 FFF7FEFF 		bl	u8g_DrawStrDir
 4383 0064 0300     		movs	r3, r0
 969:Drivers/u8glib/src/u8g_font.c **** }
 4384              		.loc 1 969 0
 4385 0066 1800     		movs	r0, r3
 4386 0068 BD46     		mov	sp, r7
 4387 006a 03B0     		add	sp, sp, #12
 4388              		@ sp needed
 4389 006c 90BD     		pop	{r4, r7, pc}
 4390              		.cfi_endproc
 4391              	.LFE47:
 4393              		.section	.text.u8g_DrawGlyphFontBBX,"ax",%progbits
 4394              		.align	1
 4395              		.global	u8g_DrawGlyphFontBBX
 4396              		.syntax unified
ARM GAS  /tmp/ccxKl5M2.s 			page 94


 4397              		.code	16
 4398              		.thumb_func
 4399              		.fpu softvfp
 4401              	u8g_DrawGlyphFontBBX:
 4402              	.LFB48:
 970:Drivers/u8glib/src/u8g_font.c **** 
 971:Drivers/u8glib/src/u8g_font.c **** /* still used by picgen.c, dir argument is ignored */
 972:Drivers/u8glib/src/u8g_font.c **** int8_t u8g_DrawGlyphFontBBX(u8g_t *u8g, u8g_uint_t x, u8g_uint_t y, uint8_t dir, uint8_t encoding)
 973:Drivers/u8glib/src/u8g_font.c **** {
 4403              		.loc 1 973 0
 4404              		.cfi_startproc
 4405 0000 90B5     		push	{r4, r7, lr}
 4406              	.LCFI144:
 4407              		.cfi_def_cfa_offset 12
 4408              		.cfi_offset 4, -12
 4409              		.cfi_offset 7, -8
 4410              		.cfi_offset 14, -4
 4411 0002 83B0     		sub	sp, sp, #12
 4412              	.LCFI145:
 4413              		.cfi_def_cfa_offset 24
 4414 0004 00AF     		add	r7, sp, #0
 4415              	.LCFI146:
 4416              		.cfi_def_cfa_register 7
 4417 0006 7860     		str	r0, [r7, #4]
 4418 0008 0C00     		movs	r4, r1
 4419 000a 1000     		movs	r0, r2
 4420 000c 1900     		movs	r1, r3
 4421 000e FB1C     		adds	r3, r7, #3
 4422 0010 221C     		adds	r2, r4, #0
 4423 0012 1A70     		strb	r2, [r3]
 4424 0014 BB1C     		adds	r3, r7, #2
 4425 0016 021C     		adds	r2, r0, #0
 4426 0018 1A70     		strb	r2, [r3]
 4427 001a 7B1C     		adds	r3, r7, #1
 4428 001c 0A1C     		adds	r2, r1, #0
 4429 001e 1A70     		strb	r2, [r3]
 974:Drivers/u8glib/src/u8g_font.c ****   x -= u8g_GetFontBBXOffX(u8g);
 4430              		.loc 1 974 0
 4431 0020 7B68     		ldr	r3, [r7, #4]
 4432 0022 1800     		movs	r0, r3
 4433 0024 FFF7FEFF 		bl	u8g_GetFontBBXOffX
 4434 0028 0300     		movs	r3, r0
 4435 002a DAB2     		uxtb	r2, r3
 4436 002c FB1C     		adds	r3, r7, #3
 4437 002e F91C     		adds	r1, r7, #3
 4438 0030 0978     		ldrb	r1, [r1]
 4439 0032 8A1A     		subs	r2, r1, r2
 4440 0034 1A70     		strb	r2, [r3]
 975:Drivers/u8glib/src/u8g_font.c ****   y += u8g_GetFontBBXOffY(u8g);
 4441              		.loc 1 975 0
 4442 0036 7B68     		ldr	r3, [r7, #4]
 4443 0038 1800     		movs	r0, r3
 4444 003a FFF7FEFF 		bl	u8g_GetFontBBXOffY
 4445 003e 0300     		movs	r3, r0
 4446 0040 D9B2     		uxtb	r1, r3
 4447 0042 BB1C     		adds	r3, r7, #2
 4448 0044 BA1C     		adds	r2, r7, #2
ARM GAS  /tmp/ccxKl5M2.s 			page 95


 4449 0046 1278     		ldrb	r2, [r2]
 4450 0048 8A18     		adds	r2, r1, r2
 4451 004a 1A70     		strb	r2, [r3]
 976:Drivers/u8glib/src/u8g_font.c ****   u8g_draw_glyph(u8g, x, y, encoding);
 4452              		.loc 1 976 0
 4453 004c 1823     		movs	r3, #24
 4454 004e FB18     		adds	r3, r7, r3
 4455 0050 1C78     		ldrb	r4, [r3]
 4456 0052 BB1C     		adds	r3, r7, #2
 4457 0054 1A78     		ldrb	r2, [r3]
 4458 0056 FB1C     		adds	r3, r7, #3
 4459 0058 1978     		ldrb	r1, [r3]
 4460 005a 7868     		ldr	r0, [r7, #4]
 4461 005c 2300     		movs	r3, r4
 4462 005e FFF7FEFF 		bl	u8g_draw_glyph
 977:Drivers/u8glib/src/u8g_font.c ****   return 0;
 4463              		.loc 1 977 0
 4464 0062 0023     		movs	r3, #0
 978:Drivers/u8glib/src/u8g_font.c **** }
 4465              		.loc 1 978 0
 4466 0064 1800     		movs	r0, r3
 4467 0066 BD46     		mov	sp, r7
 4468 0068 03B0     		add	sp, sp, #12
 4469              		@ sp needed
 4470 006a 90BD     		pop	{r4, r7, pc}
 4471              		.cfi_endproc
 4472              	.LFE48:
 4474              		.section	.text.u8g_UpdateRefHeight,"ax",%progbits
 4475              		.align	1
 4476              		.global	u8g_UpdateRefHeight
 4477              		.syntax unified
 4478              		.code	16
 4479              		.thumb_func
 4480              		.fpu softvfp
 4482              	u8g_UpdateRefHeight:
 4483              	.LFB49:
 979:Drivers/u8glib/src/u8g_font.c **** 
 980:Drivers/u8glib/src/u8g_font.c **** 
 981:Drivers/u8glib/src/u8g_font.c **** /*========================================================================*/
 982:Drivers/u8glib/src/u8g_font.c **** /* set ascent/descent for reference point calculation */
 983:Drivers/u8glib/src/u8g_font.c **** 
 984:Drivers/u8glib/src/u8g_font.c **** void u8g_UpdateRefHeight(u8g_t *u8g)
 985:Drivers/u8glib/src/u8g_font.c **** {
 4484              		.loc 1 985 0
 4485              		.cfi_startproc
 4486 0000 80B5     		push	{r7, lr}
 4487              	.LCFI147:
 4488              		.cfi_def_cfa_offset 8
 4489              		.cfi_offset 7, -8
 4490              		.cfi_offset 14, -4
 4491 0002 84B0     		sub	sp, sp, #16
 4492              	.LCFI148:
 4493              		.cfi_def_cfa_offset 24
 4494 0004 00AF     		add	r7, sp, #0
 4495              	.LCFI149:
 4496              		.cfi_def_cfa_register 7
 4497 0006 7860     		str	r0, [r7, #4]
ARM GAS  /tmp/ccxKl5M2.s 			page 96


 986:Drivers/u8glib/src/u8g_font.c ****   uint16_t ls;
 987:Drivers/u8glib/src/u8g_font.c ****   if ( u8g->font == NULL )
 4498              		.loc 1 987 0
 4499 0008 7B68     		ldr	r3, [r7, #4]
 4500 000a 9B68     		ldr	r3, [r3, #8]
 4501 000c 002B     		cmp	r3, #0
 4502 000e 00D1     		bne	.LCB4007
 4503 0010 7BE0     		b	.L193	@long jump
 4504              	.LCB4007:
 988:Drivers/u8glib/src/u8g_font.c ****     return;
 989:Drivers/u8glib/src/u8g_font.c ****   if ( u8g->font_height_mode == U8G_FONT_HEIGHT_MODE_TEXT )
 4505              		.loc 1 989 0
 4506 0012 7B68     		ldr	r3, [r7, #4]
 4507 0014 2822     		movs	r2, #40
 4508 0016 9B5C     		ldrb	r3, [r3, r2]
 4509 0018 002B     		cmp	r3, #0
 4510 001a 14D1     		bne	.L189
 990:Drivers/u8glib/src/u8g_font.c ****   {
 991:Drivers/u8glib/src/u8g_font.c ****     u8g->font_ref_ascent = u8g_font_GetCapitalAHeight(u8g->font);
 4511              		.loc 1 991 0
 4512 001c 7B68     		ldr	r3, [r7, #4]
 4513 001e 9B68     		ldr	r3, [r3, #8]
 4514 0020 1800     		movs	r0, r3
 4515 0022 FFF7FEFF 		bl	u8g_font_GetCapitalAHeight
 4516 0026 0300     		movs	r3, r0
 4517 0028 59B2     		sxtb	r1, r3
 4518 002a 7B68     		ldr	r3, [r7, #4]
 4519 002c 2922     		movs	r2, #41
 4520 002e 9954     		strb	r1, [r3, r2]
 992:Drivers/u8glib/src/u8g_font.c ****     u8g->font_ref_descent = u8g_font_GetLowerGDescent(u8g->font);
 4521              		.loc 1 992 0
 4522 0030 7B68     		ldr	r3, [r7, #4]
 4523 0032 9B68     		ldr	r3, [r3, #8]
 4524 0034 1800     		movs	r0, r3
 4525 0036 FFF7FEFF 		bl	u8g_font_GetLowerGDescent
 4526 003a 0300     		movs	r3, r0
 4527 003c 1900     		movs	r1, r3
 4528 003e 7B68     		ldr	r3, [r7, #4]
 4529 0040 2A22     		movs	r2, #42
 4530 0042 9954     		strb	r1, [r3, r2]
 4531 0044 2DE0     		b	.L190
 4532              	.L189:
 993:Drivers/u8glib/src/u8g_font.c ****   }
 994:Drivers/u8glib/src/u8g_font.c ****   else if ( u8g->font_height_mode == U8G_FONT_HEIGHT_MODE_XTEXT )
 4533              		.loc 1 994 0
 4534 0046 7B68     		ldr	r3, [r7, #4]
 4535 0048 2822     		movs	r2, #40
 4536 004a 9B5C     		ldrb	r3, [r3, r2]
 4537 004c 012B     		cmp	r3, #1
 4538 004e 14D1     		bne	.L191
 995:Drivers/u8glib/src/u8g_font.c ****   {
 996:Drivers/u8glib/src/u8g_font.c ****     u8g->font_ref_ascent = u8g_font_GetFontXAscent(u8g->font);
 4539              		.loc 1 996 0
 4540 0050 7B68     		ldr	r3, [r7, #4]
 4541 0052 9B68     		ldr	r3, [r3, #8]
 4542 0054 1800     		movs	r0, r3
 4543 0056 FFF7FEFF 		bl	u8g_font_GetFontXAscent
ARM GAS  /tmp/ccxKl5M2.s 			page 97


 4544 005a 0300     		movs	r3, r0
 4545 005c 1900     		movs	r1, r3
 4546 005e 7B68     		ldr	r3, [r7, #4]
 4547 0060 2922     		movs	r2, #41
 4548 0062 9954     		strb	r1, [r3, r2]
 997:Drivers/u8glib/src/u8g_font.c ****     u8g->font_ref_descent = u8g_font_GetFontXDescent(u8g->font);
 4549              		.loc 1 997 0
 4550 0064 7B68     		ldr	r3, [r7, #4]
 4551 0066 9B68     		ldr	r3, [r3, #8]
 4552 0068 1800     		movs	r0, r3
 4553 006a FFF7FEFF 		bl	u8g_font_GetFontXDescent
 4554 006e 0300     		movs	r3, r0
 4555 0070 1900     		movs	r1, r3
 4556 0072 7B68     		ldr	r3, [r7, #4]
 4557 0074 2A22     		movs	r2, #42
 4558 0076 9954     		strb	r1, [r3, r2]
 4559 0078 13E0     		b	.L190
 4560              	.L191:
 998:Drivers/u8glib/src/u8g_font.c ****   }
 999:Drivers/u8glib/src/u8g_font.c ****   else
1000:Drivers/u8glib/src/u8g_font.c ****   {
1001:Drivers/u8glib/src/u8g_font.c ****     u8g->font_ref_ascent = u8g_font_GetFontAscent(u8g->font);
 4561              		.loc 1 1001 0
 4562 007a 7B68     		ldr	r3, [r7, #4]
 4563 007c 9B68     		ldr	r3, [r3, #8]
 4564 007e 1800     		movs	r0, r3
 4565 0080 FFF7FEFF 		bl	u8g_font_GetFontAscent
 4566 0084 0300     		movs	r3, r0
 4567 0086 1900     		movs	r1, r3
 4568 0088 7B68     		ldr	r3, [r7, #4]
 4569 008a 2922     		movs	r2, #41
 4570 008c 9954     		strb	r1, [r3, r2]
1002:Drivers/u8glib/src/u8g_font.c ****     u8g->font_ref_descent = u8g_font_GetFontDescent(u8g->font);
 4571              		.loc 1 1002 0
 4572 008e 7B68     		ldr	r3, [r7, #4]
 4573 0090 9B68     		ldr	r3, [r3, #8]
 4574 0092 1800     		movs	r0, r3
 4575 0094 FFF7FEFF 		bl	u8g_font_GetFontDescent
 4576 0098 0300     		movs	r3, r0
 4577 009a 1900     		movs	r1, r3
 4578 009c 7B68     		ldr	r3, [r7, #4]
 4579 009e 2A22     		movs	r2, #42
 4580 00a0 9954     		strb	r1, [r3, r2]
 4581              	.L190:
1003:Drivers/u8glib/src/u8g_font.c ****   }
1004:Drivers/u8glib/src/u8g_font.c ****   
1005:Drivers/u8glib/src/u8g_font.c ****   ls = u8g->font_ref_ascent - u8g->font_ref_descent;
 4582              		.loc 1 1005 0
 4583 00a2 7B68     		ldr	r3, [r7, #4]
 4584 00a4 2922     		movs	r2, #41
 4585 00a6 9B56     		ldrsb	r3, [r3, r2]
 4586 00a8 1AB2     		sxth	r2, r3
 4587 00aa 7B68     		ldr	r3, [r7, #4]
 4588 00ac 2A21     		movs	r1, #42
 4589 00ae 5B56     		ldrsb	r3, [r3, r1]
 4590 00b0 1BB2     		sxth	r3, r3
 4591 00b2 D31A     		subs	r3, r2, r3
ARM GAS  /tmp/ccxKl5M2.s 			page 98


 4592 00b4 1AB2     		sxth	r2, r3
 4593 00b6 0E23     		movs	r3, #14
 4594 00b8 FB18     		adds	r3, r7, r3
 4595 00ba 1A80     		strh	r2, [r3]
1006:Drivers/u8glib/src/u8g_font.c ****   if ( u8g->font_line_spacing_factor != 64 )
 4596              		.loc 1 1006 0
 4597 00bc 7B68     		ldr	r3, [r7, #4]
 4598 00be 2B22     		movs	r2, #43
 4599 00c0 9B5C     		ldrb	r3, [r3, r2]
 4600 00c2 402B     		cmp	r3, #64
 4601 00c4 19D0     		beq	.L192
1007:Drivers/u8glib/src/u8g_font.c ****   {
1008:Drivers/u8glib/src/u8g_font.c ****     ls &= 255;
 4602              		.loc 1 1008 0
 4603 00c6 0E23     		movs	r3, #14
 4604 00c8 FB18     		adds	r3, r7, r3
 4605 00ca 0E22     		movs	r2, #14
 4606 00cc BA18     		adds	r2, r7, r2
 4607 00ce 1288     		ldrh	r2, [r2]
 4608 00d0 FF21     		movs	r1, #255
 4609 00d2 0A40     		ands	r2, r1
 4610 00d4 1A80     		strh	r2, [r3]
1009:Drivers/u8glib/src/u8g_font.c ****     ls *= u8g->font_line_spacing_factor;
 4611              		.loc 1 1009 0
 4612 00d6 7B68     		ldr	r3, [r7, #4]
 4613 00d8 2B22     		movs	r2, #43
 4614 00da 9B5C     		ldrb	r3, [r3, r2]
 4615 00dc 9AB2     		uxth	r2, r3
 4616 00de 0E23     		movs	r3, #14
 4617 00e0 FB18     		adds	r3, r7, r3
 4618 00e2 0E21     		movs	r1, #14
 4619 00e4 7918     		adds	r1, r7, r1
 4620 00e6 0988     		ldrh	r1, [r1]
 4621 00e8 4A43     		muls	r2, r1
 4622 00ea 1A80     		strh	r2, [r3]
1010:Drivers/u8glib/src/u8g_font.c ****     ls >>= 6;
 4623              		.loc 1 1010 0
 4624 00ec 0E23     		movs	r3, #14
 4625 00ee FB18     		adds	r3, r7, r3
 4626 00f0 0E22     		movs	r2, #14
 4627 00f2 BA18     		adds	r2, r7, r2
 4628 00f4 1288     		ldrh	r2, [r2]
 4629 00f6 9209     		lsrs	r2, r2, #6
 4630 00f8 1A80     		strh	r2, [r3]
 4631              	.L192:
1011:Drivers/u8glib/src/u8g_font.c ****   }
1012:Drivers/u8glib/src/u8g_font.c ****   u8g->line_spacing = ls;
 4632              		.loc 1 1012 0
 4633 00fa 0E23     		movs	r3, #14
 4634 00fc FB18     		adds	r3, r7, r3
 4635 00fe 1B88     		ldrh	r3, [r3]
 4636 0100 D9B2     		uxtb	r1, r3
 4637 0102 7B68     		ldr	r3, [r7, #4]
 4638 0104 2C22     		movs	r2, #44
 4639 0106 9954     		strb	r1, [r3, r2]
 4640 0108 00E0     		b	.L186
 4641              	.L193:
ARM GAS  /tmp/ccxKl5M2.s 			page 99


 988:Drivers/u8glib/src/u8g_font.c ****   if ( u8g->font_height_mode == U8G_FONT_HEIGHT_MODE_TEXT )
 4642              		.loc 1 988 0
 4643 010a C046     		nop
 4644              	.L186:
1013:Drivers/u8glib/src/u8g_font.c **** }
 4645              		.loc 1 1013 0
 4646 010c BD46     		mov	sp, r7
 4647 010e 04B0     		add	sp, sp, #16
 4648              		@ sp needed
 4649 0110 80BD     		pop	{r7, pc}
 4650              		.cfi_endproc
 4651              	.LFE49:
 4653              		.section	.text.u8g_SetFontRefHeightText,"ax",%progbits
 4654              		.align	1
 4655              		.global	u8g_SetFontRefHeightText
 4656              		.syntax unified
 4657              		.code	16
 4658              		.thumb_func
 4659              		.fpu softvfp
 4661              	u8g_SetFontRefHeightText:
 4662              	.LFB50:
1014:Drivers/u8glib/src/u8g_font.c **** 
1015:Drivers/u8glib/src/u8g_font.c **** void u8g_SetFontRefHeightText(u8g_t *u8g)
1016:Drivers/u8glib/src/u8g_font.c **** {
 4663              		.loc 1 1016 0
 4664              		.cfi_startproc
 4665 0000 80B5     		push	{r7, lr}
 4666              	.LCFI150:
 4667              		.cfi_def_cfa_offset 8
 4668              		.cfi_offset 7, -8
 4669              		.cfi_offset 14, -4
 4670 0002 82B0     		sub	sp, sp, #8
 4671              	.LCFI151:
 4672              		.cfi_def_cfa_offset 16
 4673 0004 00AF     		add	r7, sp, #0
 4674              	.LCFI152:
 4675              		.cfi_def_cfa_register 7
 4676 0006 7860     		str	r0, [r7, #4]
1017:Drivers/u8glib/src/u8g_font.c ****   u8g->font_height_mode = U8G_FONT_HEIGHT_MODE_TEXT;
 4677              		.loc 1 1017 0
 4678 0008 7B68     		ldr	r3, [r7, #4]
 4679 000a 2822     		movs	r2, #40
 4680 000c 0021     		movs	r1, #0
 4681 000e 9954     		strb	r1, [r3, r2]
1018:Drivers/u8glib/src/u8g_font.c ****   u8g_UpdateRefHeight(u8g);
 4682              		.loc 1 1018 0
 4683 0010 7B68     		ldr	r3, [r7, #4]
 4684 0012 1800     		movs	r0, r3
 4685 0014 FFF7FEFF 		bl	u8g_UpdateRefHeight
1019:Drivers/u8glib/src/u8g_font.c **** }
 4686              		.loc 1 1019 0
 4687 0018 C046     		nop
 4688 001a BD46     		mov	sp, r7
 4689 001c 02B0     		add	sp, sp, #8
 4690              		@ sp needed
 4691 001e 80BD     		pop	{r7, pc}
 4692              		.cfi_endproc
ARM GAS  /tmp/ccxKl5M2.s 			page 100


 4693              	.LFE50:
 4695              		.section	.text.u8g_SetFontRefHeightExtendedText,"ax",%progbits
 4696              		.align	1
 4697              		.global	u8g_SetFontRefHeightExtendedText
 4698              		.syntax unified
 4699              		.code	16
 4700              		.thumb_func
 4701              		.fpu softvfp
 4703              	u8g_SetFontRefHeightExtendedText:
 4704              	.LFB51:
1020:Drivers/u8glib/src/u8g_font.c **** 
1021:Drivers/u8glib/src/u8g_font.c **** void u8g_SetFontRefHeightExtendedText(u8g_t *u8g)
1022:Drivers/u8glib/src/u8g_font.c **** {
 4705              		.loc 1 1022 0
 4706              		.cfi_startproc
 4707 0000 80B5     		push	{r7, lr}
 4708              	.LCFI153:
 4709              		.cfi_def_cfa_offset 8
 4710              		.cfi_offset 7, -8
 4711              		.cfi_offset 14, -4
 4712 0002 82B0     		sub	sp, sp, #8
 4713              	.LCFI154:
 4714              		.cfi_def_cfa_offset 16
 4715 0004 00AF     		add	r7, sp, #0
 4716              	.LCFI155:
 4717              		.cfi_def_cfa_register 7
 4718 0006 7860     		str	r0, [r7, #4]
1023:Drivers/u8glib/src/u8g_font.c ****   u8g->font_height_mode = U8G_FONT_HEIGHT_MODE_XTEXT;
 4719              		.loc 1 1023 0
 4720 0008 7B68     		ldr	r3, [r7, #4]
 4721 000a 2822     		movs	r2, #40
 4722 000c 0121     		movs	r1, #1
 4723 000e 9954     		strb	r1, [r3, r2]
1024:Drivers/u8glib/src/u8g_font.c ****   u8g_UpdateRefHeight(u8g);
 4724              		.loc 1 1024 0
 4725 0010 7B68     		ldr	r3, [r7, #4]
 4726 0012 1800     		movs	r0, r3
 4727 0014 FFF7FEFF 		bl	u8g_UpdateRefHeight
1025:Drivers/u8glib/src/u8g_font.c **** }
 4728              		.loc 1 1025 0
 4729 0018 C046     		nop
 4730 001a BD46     		mov	sp, r7
 4731 001c 02B0     		add	sp, sp, #8
 4732              		@ sp needed
 4733 001e 80BD     		pop	{r7, pc}
 4734              		.cfi_endproc
 4735              	.LFE51:
 4737              		.section	.text.u8g_SetFontRefHeightAll,"ax",%progbits
 4738              		.align	1
 4739              		.global	u8g_SetFontRefHeightAll
 4740              		.syntax unified
 4741              		.code	16
 4742              		.thumb_func
 4743              		.fpu softvfp
 4745              	u8g_SetFontRefHeightAll:
 4746              	.LFB52:
1026:Drivers/u8glib/src/u8g_font.c **** 
ARM GAS  /tmp/ccxKl5M2.s 			page 101


1027:Drivers/u8glib/src/u8g_font.c **** 
1028:Drivers/u8glib/src/u8g_font.c **** void u8g_SetFontRefHeightAll(u8g_t *u8g)
1029:Drivers/u8glib/src/u8g_font.c **** {
 4747              		.loc 1 1029 0
 4748              		.cfi_startproc
 4749 0000 80B5     		push	{r7, lr}
 4750              	.LCFI156:
 4751              		.cfi_def_cfa_offset 8
 4752              		.cfi_offset 7, -8
 4753              		.cfi_offset 14, -4
 4754 0002 82B0     		sub	sp, sp, #8
 4755              	.LCFI157:
 4756              		.cfi_def_cfa_offset 16
 4757 0004 00AF     		add	r7, sp, #0
 4758              	.LCFI158:
 4759              		.cfi_def_cfa_register 7
 4760 0006 7860     		str	r0, [r7, #4]
1030:Drivers/u8glib/src/u8g_font.c ****   u8g->font_height_mode = U8G_FONT_HEIGHT_MODE_ALL;
 4761              		.loc 1 1030 0
 4762 0008 7B68     		ldr	r3, [r7, #4]
 4763 000a 2822     		movs	r2, #40
 4764 000c 0221     		movs	r1, #2
 4765 000e 9954     		strb	r1, [r3, r2]
1031:Drivers/u8glib/src/u8g_font.c ****   u8g_UpdateRefHeight(u8g);
 4766              		.loc 1 1031 0
 4767 0010 7B68     		ldr	r3, [r7, #4]
 4768 0012 1800     		movs	r0, r3
 4769 0014 FFF7FEFF 		bl	u8g_UpdateRefHeight
1032:Drivers/u8glib/src/u8g_font.c **** }
 4770              		.loc 1 1032 0
 4771 0018 C046     		nop
 4772 001a BD46     		mov	sp, r7
 4773 001c 02B0     		add	sp, sp, #8
 4774              		@ sp needed
 4775 001e 80BD     		pop	{r7, pc}
 4776              		.cfi_endproc
 4777              	.LFE52:
 4779              		.section	.text.u8g_SetFontLineSpacingFactor,"ax",%progbits
 4780              		.align	1
 4781              		.global	u8g_SetFontLineSpacingFactor
 4782              		.syntax unified
 4783              		.code	16
 4784              		.thumb_func
 4785              		.fpu softvfp
 4787              	u8g_SetFontLineSpacingFactor:
 4788              	.LFB53:
1033:Drivers/u8glib/src/u8g_font.c **** 
1034:Drivers/u8glib/src/u8g_font.c **** /* factor = 64: linespaceing == ascent and descent */
1035:Drivers/u8glib/src/u8g_font.c **** void u8g_SetFontLineSpacingFactor(u8g_t *u8g, uint8_t  factor)
1036:Drivers/u8glib/src/u8g_font.c **** {
 4789              		.loc 1 1036 0
 4790              		.cfi_startproc
 4791 0000 80B5     		push	{r7, lr}
 4792              	.LCFI159:
 4793              		.cfi_def_cfa_offset 8
 4794              		.cfi_offset 7, -8
 4795              		.cfi_offset 14, -4
ARM GAS  /tmp/ccxKl5M2.s 			page 102


 4796 0002 82B0     		sub	sp, sp, #8
 4797              	.LCFI160:
 4798              		.cfi_def_cfa_offset 16
 4799 0004 00AF     		add	r7, sp, #0
 4800              	.LCFI161:
 4801              		.cfi_def_cfa_register 7
 4802 0006 7860     		str	r0, [r7, #4]
 4803 0008 0A00     		movs	r2, r1
 4804 000a FB1C     		adds	r3, r7, #3
 4805 000c 1A70     		strb	r2, [r3]
1037:Drivers/u8glib/src/u8g_font.c ****   u8g->font_line_spacing_factor = factor;
 4806              		.loc 1 1037 0
 4807 000e 7B68     		ldr	r3, [r7, #4]
 4808 0010 FA1C     		adds	r2, r7, #3
 4809 0012 2B21     		movs	r1, #43
 4810 0014 1278     		ldrb	r2, [r2]
 4811 0016 5A54     		strb	r2, [r3, r1]
1038:Drivers/u8glib/src/u8g_font.c ****   u8g_UpdateRefHeight(u8g);
 4812              		.loc 1 1038 0
 4813 0018 7B68     		ldr	r3, [r7, #4]
 4814 001a 1800     		movs	r0, r3
 4815 001c FFF7FEFF 		bl	u8g_UpdateRefHeight
1039:Drivers/u8glib/src/u8g_font.c **** }
 4816              		.loc 1 1039 0
 4817 0020 C046     		nop
 4818 0022 BD46     		mov	sp, r7
 4819 0024 02B0     		add	sp, sp, #8
 4820              		@ sp needed
 4821 0026 80BD     		pop	{r7, pc}
 4822              		.cfi_endproc
 4823              	.LFE53:
 4825              		.section	.text.u8g_font_calc_vref_font,"ax",%progbits
 4826              		.align	1
 4827              		.global	u8g_font_calc_vref_font
 4828              		.syntax unified
 4829              		.code	16
 4830              		.thumb_func
 4831              		.fpu softvfp
 4833              	u8g_font_calc_vref_font:
 4834              	.LFB54:
1040:Drivers/u8glib/src/u8g_font.c **** 
1041:Drivers/u8glib/src/u8g_font.c **** 
1042:Drivers/u8glib/src/u8g_font.c **** 
1043:Drivers/u8glib/src/u8g_font.c **** /*========================================================================*/
1044:Drivers/u8glib/src/u8g_font.c **** /* callback procedures to correct the y position */
1045:Drivers/u8glib/src/u8g_font.c **** 
1046:Drivers/u8glib/src/u8g_font.c **** u8g_uint_t u8g_font_calc_vref_font(u8g_t *u8g)
1047:Drivers/u8glib/src/u8g_font.c **** {
 4835              		.loc 1 1047 0
 4836              		.cfi_startproc
 4837 0000 80B5     		push	{r7, lr}
 4838              	.LCFI162:
 4839              		.cfi_def_cfa_offset 8
 4840              		.cfi_offset 7, -8
 4841              		.cfi_offset 14, -4
 4842 0002 82B0     		sub	sp, sp, #8
 4843              	.LCFI163:
ARM GAS  /tmp/ccxKl5M2.s 			page 103


 4844              		.cfi_def_cfa_offset 16
 4845 0004 00AF     		add	r7, sp, #0
 4846              	.LCFI164:
 4847              		.cfi_def_cfa_register 7
 4848 0006 7860     		str	r0, [r7, #4]
1048:Drivers/u8glib/src/u8g_font.c ****   return 0;
 4849              		.loc 1 1048 0
 4850 0008 0023     		movs	r3, #0
1049:Drivers/u8glib/src/u8g_font.c **** }
 4851              		.loc 1 1049 0
 4852 000a 1800     		movs	r0, r3
 4853 000c BD46     		mov	sp, r7
 4854 000e 02B0     		add	sp, sp, #8
 4855              		@ sp needed
 4856 0010 80BD     		pop	{r7, pc}
 4857              		.cfi_endproc
 4858              	.LFE54:
 4860              		.section	.text.u8g_SetFontPosBaseline,"ax",%progbits
 4861              		.align	1
 4862              		.global	u8g_SetFontPosBaseline
 4863              		.syntax unified
 4864              		.code	16
 4865              		.thumb_func
 4866              		.fpu softvfp
 4868              	u8g_SetFontPosBaseline:
 4869              	.LFB55:
1050:Drivers/u8glib/src/u8g_font.c **** 
1051:Drivers/u8glib/src/u8g_font.c **** void u8g_SetFontPosBaseline(u8g_t *u8g)
1052:Drivers/u8glib/src/u8g_font.c **** {
 4870              		.loc 1 1052 0
 4871              		.cfi_startproc
 4872 0000 80B5     		push	{r7, lr}
 4873              	.LCFI165:
 4874              		.cfi_def_cfa_offset 8
 4875              		.cfi_offset 7, -8
 4876              		.cfi_offset 14, -4
 4877 0002 82B0     		sub	sp, sp, #8
 4878              	.LCFI166:
 4879              		.cfi_def_cfa_offset 16
 4880 0004 00AF     		add	r7, sp, #0
 4881              	.LCFI167:
 4882              		.cfi_def_cfa_register 7
 4883 0006 7860     		str	r0, [r7, #4]
1053:Drivers/u8glib/src/u8g_font.c ****   u8g->font_calc_vref = u8g_font_calc_vref_font;
 4884              		.loc 1 1053 0
 4885 0008 7B68     		ldr	r3, [r7, #4]
 4886 000a 034A     		ldr	r2, .L201
 4887 000c 5A62     		str	r2, [r3, #36]
1054:Drivers/u8glib/src/u8g_font.c **** }
 4888              		.loc 1 1054 0
 4889 000e C046     		nop
 4890 0010 BD46     		mov	sp, r7
 4891 0012 02B0     		add	sp, sp, #8
 4892              		@ sp needed
 4893 0014 80BD     		pop	{r7, pc}
 4894              	.L202:
 4895 0016 C046     		.align	2
ARM GAS  /tmp/ccxKl5M2.s 			page 104


 4896              	.L201:
 4897 0018 00000000 		.word	u8g_font_calc_vref_font
 4898              		.cfi_endproc
 4899              	.LFE55:
 4901              		.section	.text.u8g_font_calc_vref_bottom,"ax",%progbits
 4902              		.align	1
 4903              		.global	u8g_font_calc_vref_bottom
 4904              		.syntax unified
 4905              		.code	16
 4906              		.thumb_func
 4907              		.fpu softvfp
 4909              	u8g_font_calc_vref_bottom:
 4910              	.LFB56:
1055:Drivers/u8glib/src/u8g_font.c **** 
1056:Drivers/u8glib/src/u8g_font.c **** 
1057:Drivers/u8glib/src/u8g_font.c **** u8g_uint_t u8g_font_calc_vref_bottom(u8g_t *u8g)
1058:Drivers/u8glib/src/u8g_font.c **** {
 4911              		.loc 1 1058 0
 4912              		.cfi_startproc
 4913 0000 80B5     		push	{r7, lr}
 4914              	.LCFI168:
 4915              		.cfi_def_cfa_offset 8
 4916              		.cfi_offset 7, -8
 4917              		.cfi_offset 14, -4
 4918 0002 82B0     		sub	sp, sp, #8
 4919              	.LCFI169:
 4920              		.cfi_def_cfa_offset 16
 4921 0004 00AF     		add	r7, sp, #0
 4922              	.LCFI170:
 4923              		.cfi_def_cfa_register 7
 4924 0006 7860     		str	r0, [r7, #4]
1059:Drivers/u8glib/src/u8g_font.c ****   /* y += (u8g_uint_t)(u8g_int_t)(u8g->font_ref_descent); */
1060:Drivers/u8glib/src/u8g_font.c ****   return (u8g_uint_t)(u8g_int_t)(u8g->font_ref_descent);
 4925              		.loc 1 1060 0
 4926 0008 7B68     		ldr	r3, [r7, #4]
 4927 000a 2A22     		movs	r2, #42
 4928 000c 9B56     		ldrsb	r3, [r3, r2]
 4929 000e DBB2     		uxtb	r3, r3
1061:Drivers/u8glib/src/u8g_font.c **** }
 4930              		.loc 1 1061 0
 4931 0010 1800     		movs	r0, r3
 4932 0012 BD46     		mov	sp, r7
 4933 0014 02B0     		add	sp, sp, #8
 4934              		@ sp needed
 4935 0016 80BD     		pop	{r7, pc}
 4936              		.cfi_endproc
 4937              	.LFE56:
 4939              		.section	.text.u8g_SetFontPosBottom,"ax",%progbits
 4940              		.align	1
 4941              		.global	u8g_SetFontPosBottom
 4942              		.syntax unified
 4943              		.code	16
 4944              		.thumb_func
 4945              		.fpu softvfp
 4947              	u8g_SetFontPosBottom:
 4948              	.LFB57:
1062:Drivers/u8glib/src/u8g_font.c **** 
ARM GAS  /tmp/ccxKl5M2.s 			page 105


1063:Drivers/u8glib/src/u8g_font.c **** void u8g_SetFontPosBottom(u8g_t *u8g)
1064:Drivers/u8glib/src/u8g_font.c **** {
 4949              		.loc 1 1064 0
 4950              		.cfi_startproc
 4951 0000 80B5     		push	{r7, lr}
 4952              	.LCFI171:
 4953              		.cfi_def_cfa_offset 8
 4954              		.cfi_offset 7, -8
 4955              		.cfi_offset 14, -4
 4956 0002 82B0     		sub	sp, sp, #8
 4957              	.LCFI172:
 4958              		.cfi_def_cfa_offset 16
 4959 0004 00AF     		add	r7, sp, #0
 4960              	.LCFI173:
 4961              		.cfi_def_cfa_register 7
 4962 0006 7860     		str	r0, [r7, #4]
1065:Drivers/u8glib/src/u8g_font.c ****   u8g->font_calc_vref = u8g_font_calc_vref_bottom;
 4963              		.loc 1 1065 0
 4964 0008 7B68     		ldr	r3, [r7, #4]
 4965 000a 034A     		ldr	r2, .L206
 4966 000c 5A62     		str	r2, [r3, #36]
1066:Drivers/u8glib/src/u8g_font.c **** }
 4967              		.loc 1 1066 0
 4968 000e C046     		nop
 4969 0010 BD46     		mov	sp, r7
 4970 0012 02B0     		add	sp, sp, #8
 4971              		@ sp needed
 4972 0014 80BD     		pop	{r7, pc}
 4973              	.L207:
 4974 0016 C046     		.align	2
 4975              	.L206:
 4976 0018 00000000 		.word	u8g_font_calc_vref_bottom
 4977              		.cfi_endproc
 4978              	.LFE57:
