ARM GAS  /tmp/cc7KQBK4.s 			page 1


   1              		.cpu cortex-m0
   2              		.eabi_attribute 20, 1
   3              		.eabi_attribute 21, 1
   4              		.eabi_attribute 23, 3
   5              		.eabi_attribute 24, 1
   6              		.eabi_attribute 25, 1
   7              		.eabi_attribute 26, 1
   8              		.eabi_attribute 30, 6
   9              		.eabi_attribute 34, 0
  10              		.eabi_attribute 18, 4
  11              		.file	"u8g_dev_uc1701_mini12864.c"
  12              		.text
  13              	.Ltext0:
  14              		.cfi_sections	.debug_frame
  15              		.section	.rodata.u8g_dev_uc1701_mini12864_init_seq,"a",%progbits
  16              		.align	2
  19              	u8g_dev_uc1701_mini12864_init_seq:
  20 0000 FF       		.byte	-1
  21 0001 D0       		.byte	-48
  22 0002 FF       		.byte	-1
  23 0003 E0       		.byte	-32
  24 0004 FF       		.byte	-1
  25 0005 C1       		.byte	-63
  26 0006 FF       		.byte	-1
  27 0007 D1       		.byte	-47
  28 0008 E2       		.byte	-30
  29 0009 40       		.byte	64
  30 000a A0       		.byte	-96
  31 000b C8       		.byte	-56
  32 000c A6       		.byte	-90
  33 000d A2       		.byte	-94
  34 000e 2F       		.byte	47
  35 000f F8       		.byte	-8
  36 0010 00       		.byte	0
  37 0011 23       		.byte	35
  38 0012 81       		.byte	-127
  39 0013 27       		.byte	39
  40 0014 AC       		.byte	-84
  41 0015 00       		.byte	0
  42 0016 AF       		.byte	-81
  43 0017 FF       		.byte	-1
  44 0018 64       		.byte	100
  45 0019 A5       		.byte	-91
  46 001a FF       		.byte	-1
  47 001b 64       		.byte	100
  48 001c FF       		.byte	-1
  49 001d 64       		.byte	100
  50 001e A4       		.byte	-92
  51 001f FF       		.byte	-1
  52 0020 D0       		.byte	-48
  53 0021 FF       		.byte	-1
  54 0022 FE       		.byte	-2
  55              		.section	.rodata.u8g_dev_uc1701_mini12864_data_start,"a",%progbits
  56              		.align	2
  59              	u8g_dev_uc1701_mini12864_data_start:
  60 0000 FF       		.byte	-1
  61 0001 E0       		.byte	-32
ARM GAS  /tmp/cc7KQBK4.s 			page 2


  62 0002 FF       		.byte	-1
  63 0003 D1       		.byte	-47
  64 0004 10       		.byte	16
  65 0005 00       		.byte	0
  66 0006 FF       		.byte	-1
  67 0007 FE       		.byte	-2
  68              		.section	.text.u8g_dev_uc1701_mini12864_fn,"ax",%progbits
  69              		.align	1
  70              		.global	u8g_dev_uc1701_mini12864_fn
  71              		.syntax unified
  72              		.code	16
  73              		.thumb_func
  74              		.fpu softvfp
  76              	u8g_dev_uc1701_mini12864_fn:
  77              	.LFB0:
  78              		.file 1 "Drivers/u8glib/src/u8g_dev_uc1701_mini12864.c"
   1:Drivers/u8glib/src/u8g_dev_uc1701_mini12864.c **** /*
   2:Drivers/u8glib/src/u8g_dev_uc1701_mini12864.c **** 
   3:Drivers/u8glib/src/u8g_dev_uc1701_mini12864.c ****   u8g_dev_uc1701_mini12864.c (dealextreme)
   4:Drivers/u8glib/src/u8g_dev_uc1701_mini12864.c **** 
   5:Drivers/u8glib/src/u8g_dev_uc1701_mini12864.c ****   Universal 8bit Graphics Library
   6:Drivers/u8glib/src/u8g_dev_uc1701_mini12864.c ****   
   7:Drivers/u8glib/src/u8g_dev_uc1701_mini12864.c ****   Copyright (c) 2011, olikraus@gmail.com
   8:Drivers/u8glib/src/u8g_dev_uc1701_mini12864.c ****   All rights reserved.
   9:Drivers/u8glib/src/u8g_dev_uc1701_mini12864.c **** 
  10:Drivers/u8glib/src/u8g_dev_uc1701_mini12864.c ****   Redistribution and use in source and binary forms, with or without modification, 
  11:Drivers/u8glib/src/u8g_dev_uc1701_mini12864.c ****   are permitted provided that the following conditions are met:
  12:Drivers/u8glib/src/u8g_dev_uc1701_mini12864.c **** 
  13:Drivers/u8glib/src/u8g_dev_uc1701_mini12864.c ****   * Redistributions of source code must retain the above copyright notice, this list 
  14:Drivers/u8glib/src/u8g_dev_uc1701_mini12864.c ****     of conditions and the following disclaimer.
  15:Drivers/u8glib/src/u8g_dev_uc1701_mini12864.c ****     
  16:Drivers/u8glib/src/u8g_dev_uc1701_mini12864.c ****   * Redistributions in binary form must reproduce the above copyright notice, this 
  17:Drivers/u8glib/src/u8g_dev_uc1701_mini12864.c ****     list of conditions and the following disclaimer in the documentation and/or other 
  18:Drivers/u8glib/src/u8g_dev_uc1701_mini12864.c ****     materials provided with the distribution.
  19:Drivers/u8glib/src/u8g_dev_uc1701_mini12864.c **** 
  20:Drivers/u8glib/src/u8g_dev_uc1701_mini12864.c ****   THIS SOFTWARE IS PROVIDED BY THE COPYRIGHT HOLDERS AND 
  21:Drivers/u8glib/src/u8g_dev_uc1701_mini12864.c ****   CONTRIBUTORS "AS IS" AND ANY EXPRESS OR IMPLIED WARRANTIES, 
  22:Drivers/u8glib/src/u8g_dev_uc1701_mini12864.c ****   INCLUDING, BUT NOT LIMITED TO, THE IMPLIED WARRANTIES OF 
  23:Drivers/u8glib/src/u8g_dev_uc1701_mini12864.c ****   MERCHANTABILITY AND FITNESS FOR A PARTICULAR PURPOSE ARE 
  24:Drivers/u8glib/src/u8g_dev_uc1701_mini12864.c ****   DISCLAIMED. IN NO EVENT SHALL THE COPYRIGHT HOLDER OR 
  25:Drivers/u8glib/src/u8g_dev_uc1701_mini12864.c ****   CONTRIBUTORS BE LIABLE FOR ANY DIRECT, INDIRECT, INCIDENTAL, 
  26:Drivers/u8glib/src/u8g_dev_uc1701_mini12864.c ****   SPECIAL, EXEMPLARY, OR CONSEQUENTIAL DAMAGES (INCLUDING, BUT 
  27:Drivers/u8glib/src/u8g_dev_uc1701_mini12864.c ****   NOT LIMITED TO, PROCUREMENT OF SUBSTITUTE GOODS OR SERVICES; 
  28:Drivers/u8glib/src/u8g_dev_uc1701_mini12864.c ****   LOSS OF USE, DATA, OR PROFITS; OR BUSINESS INTERRUPTION) HOWEVER 
  29:Drivers/u8glib/src/u8g_dev_uc1701_mini12864.c ****   CAUSED AND ON ANY THEORY OF LIABILITY, WHETHER IN CONTRACT, 
  30:Drivers/u8glib/src/u8g_dev_uc1701_mini12864.c ****   STRICT LIABILITY, OR TORT (INCLUDING NEGLIGENCE OR OTHERWISE) 
  31:Drivers/u8glib/src/u8g_dev_uc1701_mini12864.c ****   ARISING IN ANY WAY OUT OF THE USE OF THIS SOFTWARE, EVEN IF 
  32:Drivers/u8glib/src/u8g_dev_uc1701_mini12864.c ****   ADVISED OF THE POSSIBILITY OF SUCH DAMAGE.  
  33:Drivers/u8glib/src/u8g_dev_uc1701_mini12864.c ****   
  34:Drivers/u8glib/src/u8g_dev_uc1701_mini12864.c ****   
  35:Drivers/u8glib/src/u8g_dev_uc1701_mini12864.c **** */
  36:Drivers/u8glib/src/u8g_dev_uc1701_mini12864.c **** 
  37:Drivers/u8glib/src/u8g_dev_uc1701_mini12864.c **** #include "u8g.h"
  38:Drivers/u8glib/src/u8g_dev_uc1701_mini12864.c **** 
  39:Drivers/u8glib/src/u8g_dev_uc1701_mini12864.c **** #define WIDTH 128
  40:Drivers/u8glib/src/u8g_dev_uc1701_mini12864.c **** #define HEIGHT 64
  41:Drivers/u8glib/src/u8g_dev_uc1701_mini12864.c **** #define PAGE_HEIGHT 8
ARM GAS  /tmp/cc7KQBK4.s 			page 3


  42:Drivers/u8glib/src/u8g_dev_uc1701_mini12864.c **** 
  43:Drivers/u8glib/src/u8g_dev_uc1701_mini12864.c **** static const uint8_t u8g_dev_uc1701_mini12864_init_seq[] PROGMEM = {
  44:Drivers/u8glib/src/u8g_dev_uc1701_mini12864.c ****   U8G_ESC_CS(0),             /* disable chip */
  45:Drivers/u8glib/src/u8g_dev_uc1701_mini12864.c ****   U8G_ESC_ADR(0),           /* instruction mode */
  46:Drivers/u8glib/src/u8g_dev_uc1701_mini12864.c ****   U8G_ESC_RST(1),           /* do reset low pulse with (1*16)+2 milliseconds */
  47:Drivers/u8glib/src/u8g_dev_uc1701_mini12864.c ****   U8G_ESC_CS(1),             /* enable chip */
  48:Drivers/u8glib/src/u8g_dev_uc1701_mini12864.c **** 
  49:Drivers/u8glib/src/u8g_dev_uc1701_mini12864.c ****   0x0e2,            /* soft reset */
  50:Drivers/u8glib/src/u8g_dev_uc1701_mini12864.c ****   0x040,		/* set display start line to 0 */
  51:Drivers/u8glib/src/u8g_dev_uc1701_mini12864.c ****   0x0a0,		/* ADC set to reverse */
  52:Drivers/u8glib/src/u8g_dev_uc1701_mini12864.c ****   0x0c8,		/* common output mode */
  53:Drivers/u8glib/src/u8g_dev_uc1701_mini12864.c ****   0x0a6,		/* display normal, bit val 0: LCD pixel off. */
  54:Drivers/u8glib/src/u8g_dev_uc1701_mini12864.c ****   0x0a2,		/* LCD bias 1/9 */
  55:Drivers/u8glib/src/u8g_dev_uc1701_mini12864.c ****   0x02f,		/* all power  control circuits on */
  56:Drivers/u8glib/src/u8g_dev_uc1701_mini12864.c ****   0x0f8,		/* set booster ratio to */
  57:Drivers/u8glib/src/u8g_dev_uc1701_mini12864.c ****   0x000,		/* 4x */
  58:Drivers/u8glib/src/u8g_dev_uc1701_mini12864.c ****   0x023,		/* set V0 voltage resistor ratio to large */
  59:Drivers/u8glib/src/u8g_dev_uc1701_mini12864.c ****   0x081,		/* set contrast */
  60:Drivers/u8glib/src/u8g_dev_uc1701_mini12864.c ****   0x027,		/* contrast value */
  61:Drivers/u8glib/src/u8g_dev_uc1701_mini12864.c ****   0x0ac,		/* indicator */
  62:Drivers/u8glib/src/u8g_dev_uc1701_mini12864.c ****   0x000,		/* disable */
  63:Drivers/u8glib/src/u8g_dev_uc1701_mini12864.c ****   0x0af,		/* display on */
  64:Drivers/u8glib/src/u8g_dev_uc1701_mini12864.c **** 
  65:Drivers/u8glib/src/u8g_dev_uc1701_mini12864.c ****   U8G_ESC_DLY(100),       /* delay 100 ms */
  66:Drivers/u8glib/src/u8g_dev_uc1701_mini12864.c ****   0x0a5,		                /* display all points, ST7565 */
  67:Drivers/u8glib/src/u8g_dev_uc1701_mini12864.c ****   U8G_ESC_DLY(100),       /* delay 100 ms */
  68:Drivers/u8glib/src/u8g_dev_uc1701_mini12864.c ****   U8G_ESC_DLY(100),       /* delay 100 ms */
  69:Drivers/u8glib/src/u8g_dev_uc1701_mini12864.c ****   0x0a4,		                /* normal display */
  70:Drivers/u8glib/src/u8g_dev_uc1701_mini12864.c ****   U8G_ESC_CS(0),             /* disable chip */
  71:Drivers/u8glib/src/u8g_dev_uc1701_mini12864.c ****   U8G_ESC_END                /* end of sequence */
  72:Drivers/u8glib/src/u8g_dev_uc1701_mini12864.c **** };
  73:Drivers/u8glib/src/u8g_dev_uc1701_mini12864.c **** 
  74:Drivers/u8glib/src/u8g_dev_uc1701_mini12864.c **** static const uint8_t u8g_dev_uc1701_mini12864_data_start[] PROGMEM = {
  75:Drivers/u8glib/src/u8g_dev_uc1701_mini12864.c ****   U8G_ESC_ADR(0),           /* instruction mode */
  76:Drivers/u8glib/src/u8g_dev_uc1701_mini12864.c ****   U8G_ESC_CS(1),             /* enable chip */
  77:Drivers/u8glib/src/u8g_dev_uc1701_mini12864.c ****   0x010,		/* set upper 4 bit of the col adr to 0 */
  78:Drivers/u8glib/src/u8g_dev_uc1701_mini12864.c ****   0x000,		/* set lower 4 bit of the col adr to 4  */
  79:Drivers/u8glib/src/u8g_dev_uc1701_mini12864.c ****   U8G_ESC_END                /* end of sequence */
  80:Drivers/u8glib/src/u8g_dev_uc1701_mini12864.c **** };
  81:Drivers/u8glib/src/u8g_dev_uc1701_mini12864.c **** 
  82:Drivers/u8glib/src/u8g_dev_uc1701_mini12864.c **** uint8_t u8g_dev_uc1701_mini12864_fn(u8g_t *u8g, u8g_dev_t *dev, uint8_t msg, void *arg)
  83:Drivers/u8glib/src/u8g_dev_uc1701_mini12864.c **** {
  79              		.loc 1 83 0
  80              		.cfi_startproc
  81 0000 90B5     		push	{r4, r7, lr}
  82              	.LCFI0:
  83              		.cfi_def_cfa_offset 12
  84              		.cfi_offset 4, -12
  85              		.cfi_offset 7, -8
  86              		.cfi_offset 14, -4
  87 0002 87B0     		sub	sp, sp, #28
  88              	.LCFI1:
  89              		.cfi_def_cfa_offset 40
  90 0004 00AF     		add	r7, sp, #0
  91              	.LCFI2:
  92              		.cfi_def_cfa_register 7
  93 0006 F860     		str	r0, [r7, #12]
ARM GAS  /tmp/cc7KQBK4.s 			page 4


  94 0008 B960     		str	r1, [r7, #8]
  95 000a 3B60     		str	r3, [r7]
  96 000c FB1D     		adds	r3, r7, #7
  97 000e 1A70     		strb	r2, [r3]
  84:Drivers/u8glib/src/u8g_dev_uc1701_mini12864.c ****   switch(msg)
  98              		.loc 1 84 0
  99 0010 FB1D     		adds	r3, r7, #7
 100 0012 1B78     		ldrb	r3, [r3]
 101 0014 0B2B     		cmp	r3, #11
 102 0016 63D0     		beq	.L10
 103 0018 02DC     		bgt	.L4
 104 001a 0A2B     		cmp	r3, #10
 105 001c 05D0     		beq	.L5
 106 001e 60E0     		b	.L2
 107              	.L4:
 108 0020 0F2B     		cmp	r3, #15
 109 0022 3AD0     		beq	.L6
 110 0024 152B     		cmp	r3, #21
 111 0026 0DD0     		beq	.L7
 112 0028 5BE0     		b	.L2
 113              	.L5:
  85:Drivers/u8glib/src/u8g_dev_uc1701_mini12864.c ****   {
  86:Drivers/u8glib/src/u8g_dev_uc1701_mini12864.c ****     case U8G_DEV_MSG_INIT:
  87:Drivers/u8glib/src/u8g_dev_uc1701_mini12864.c ****       u8g_InitCom(u8g, dev, U8G_SPI_CLK_CYCLE_300NS);
 114              		.loc 1 87 0
 115 002a B968     		ldr	r1, [r7, #8]
 116 002c FB68     		ldr	r3, [r7, #12]
 117 002e 0222     		movs	r2, #2
 118 0030 1800     		movs	r0, r3
 119 0032 FFF7FEFF 		bl	u8g_InitCom
  88:Drivers/u8glib/src/u8g_dev_uc1701_mini12864.c ****       u8g_WriteEscSeqP(u8g, dev, u8g_dev_uc1701_mini12864_init_seq);
 120              		.loc 1 88 0
 121 0036 314A     		ldr	r2, .L11
 122 0038 B968     		ldr	r1, [r7, #8]
 123 003a FB68     		ldr	r3, [r7, #12]
 124 003c 1800     		movs	r0, r3
 125 003e FFF7FEFF 		bl	u8g_WriteEscSeqP
  89:Drivers/u8glib/src/u8g_dev_uc1701_mini12864.c ****       break;
 126              		.loc 1 89 0
 127 0042 4EE0     		b	.L2
 128              	.L7:
 129              	.LBB2:
  90:Drivers/u8glib/src/u8g_dev_uc1701_mini12864.c ****     case U8G_DEV_MSG_STOP:
  91:Drivers/u8glib/src/u8g_dev_uc1701_mini12864.c ****       break;
  92:Drivers/u8glib/src/u8g_dev_uc1701_mini12864.c ****     case U8G_DEV_MSG_PAGE_NEXT:
  93:Drivers/u8glib/src/u8g_dev_uc1701_mini12864.c ****       {
  94:Drivers/u8glib/src/u8g_dev_uc1701_mini12864.c ****         u8g_pb_t *pb = (u8g_pb_t *)(dev->dev_mem);
 130              		.loc 1 94 0
 131 0044 BB68     		ldr	r3, [r7, #8]
 132 0046 5B68     		ldr	r3, [r3, #4]
 133 0048 7B61     		str	r3, [r7, #20]
  95:Drivers/u8glib/src/u8g_dev_uc1701_mini12864.c ****         u8g_WriteEscSeqP(u8g, dev, u8g_dev_uc1701_mini12864_data_start);    
 134              		.loc 1 95 0
 135 004a 2D4A     		ldr	r2, .L11+4
 136 004c B968     		ldr	r1, [r7, #8]
 137 004e FB68     		ldr	r3, [r7, #12]
 138 0050 1800     		movs	r0, r3
ARM GAS  /tmp/cc7KQBK4.s 			page 5


 139 0052 FFF7FEFF 		bl	u8g_WriteEscSeqP
  96:Drivers/u8glib/src/u8g_dev_uc1701_mini12864.c ****         u8g_WriteByte(u8g, dev, 0x0b0 | pb->p.page); /* select current page */
 140              		.loc 1 96 0
 141 0056 7B69     		ldr	r3, [r7, #20]
 142 0058 1B79     		ldrb	r3, [r3, #4]
 143 005a 5022     		movs	r2, #80
 144 005c 5242     		rsbs	r2, r2, #0
 145 005e 1343     		orrs	r3, r2
 146 0060 DAB2     		uxtb	r2, r3
 147 0062 B968     		ldr	r1, [r7, #8]
 148 0064 FB68     		ldr	r3, [r7, #12]
 149 0066 1800     		movs	r0, r3
 150 0068 FFF7FEFF 		bl	u8g_WriteByte
  97:Drivers/u8glib/src/u8g_dev_uc1701_mini12864.c ****         u8g_SetAddress(u8g, dev, 1);           /* data mode */
 151              		.loc 1 97 0
 152 006c B968     		ldr	r1, [r7, #8]
 153 006e FB68     		ldr	r3, [r7, #12]
 154 0070 0122     		movs	r2, #1
 155 0072 1800     		movs	r0, r3
 156 0074 FFF7FEFF 		bl	u8g_SetAddress
  98:Drivers/u8glib/src/u8g_dev_uc1701_mini12864.c ****         if ( u8g_pb_WriteBuffer(pb, u8g, dev) == 0 )
 157              		.loc 1 98 0
 158 0078 BA68     		ldr	r2, [r7, #8]
 159 007a F968     		ldr	r1, [r7, #12]
 160 007c 7B69     		ldr	r3, [r7, #20]
 161 007e 1800     		movs	r0, r3
 162 0080 FFF7FEFF 		bl	u8g_pb_WriteBuffer
 163 0084 031E     		subs	r3, r0, #0
 164 0086 01D1     		bne	.L8
  99:Drivers/u8glib/src/u8g_dev_uc1701_mini12864.c ****           return 0;
 165              		.loc 1 99 0
 166 0088 0023     		movs	r3, #0
 167 008a 33E0     		b	.L9
 168              	.L8:
 100:Drivers/u8glib/src/u8g_dev_uc1701_mini12864.c ****         u8g_SetChipSelect(u8g, dev, 0);
 169              		.loc 1 100 0
 170 008c B968     		ldr	r1, [r7, #8]
 171 008e FB68     		ldr	r3, [r7, #12]
 172 0090 0022     		movs	r2, #0
 173 0092 1800     		movs	r0, r3
 174 0094 FFF7FEFF 		bl	u8g_SetChipSelect
 175              	.LBE2:
 101:Drivers/u8glib/src/u8g_dev_uc1701_mini12864.c ****       }
 102:Drivers/u8glib/src/u8g_dev_uc1701_mini12864.c ****       break;
 176              		.loc 1 102 0
 177 0098 23E0     		b	.L2
 178              	.L6:
 103:Drivers/u8glib/src/u8g_dev_uc1701_mini12864.c ****     case U8G_DEV_MSG_CONTRAST:
 104:Drivers/u8glib/src/u8g_dev_uc1701_mini12864.c ****       u8g_SetChipSelect(u8g, dev, 1);
 179              		.loc 1 104 0
 180 009a B968     		ldr	r1, [r7, #8]
 181 009c FB68     		ldr	r3, [r7, #12]
 182 009e 0122     		movs	r2, #1
 183 00a0 1800     		movs	r0, r3
 184 00a2 FFF7FEFF 		bl	u8g_SetChipSelect
 105:Drivers/u8glib/src/u8g_dev_uc1701_mini12864.c ****       u8g_SetAddress(u8g, dev, 0);          /* instruction mode */
 185              		.loc 1 105 0
ARM GAS  /tmp/cc7KQBK4.s 			page 6


 186 00a6 B968     		ldr	r1, [r7, #8]
 187 00a8 FB68     		ldr	r3, [r7, #12]
 188 00aa 0022     		movs	r2, #0
 189 00ac 1800     		movs	r0, r3
 190 00ae FFF7FEFF 		bl	u8g_SetAddress
 106:Drivers/u8glib/src/u8g_dev_uc1701_mini12864.c ****       u8g_WriteByte(u8g, dev, 0x081);
 191              		.loc 1 106 0
 192 00b2 B968     		ldr	r1, [r7, #8]
 193 00b4 FB68     		ldr	r3, [r7, #12]
 194 00b6 8122     		movs	r2, #129
 195 00b8 1800     		movs	r0, r3
 196 00ba FFF7FEFF 		bl	u8g_WriteByte
 107:Drivers/u8glib/src/u8g_dev_uc1701_mini12864.c ****       u8g_WriteByte(u8g, dev, (*(uint8_t *)arg) >> 2);
 197              		.loc 1 107 0
 198 00be 3B68     		ldr	r3, [r7]
 199 00c0 1B78     		ldrb	r3, [r3]
 200 00c2 9B08     		lsrs	r3, r3, #2
 201 00c4 DAB2     		uxtb	r2, r3
 202 00c6 B968     		ldr	r1, [r7, #8]
 203 00c8 FB68     		ldr	r3, [r7, #12]
 204 00ca 1800     		movs	r0, r3
 205 00cc FFF7FEFF 		bl	u8g_WriteByte
 108:Drivers/u8glib/src/u8g_dev_uc1701_mini12864.c ****       u8g_SetChipSelect(u8g, dev, 0);      
 206              		.loc 1 108 0
 207 00d0 B968     		ldr	r1, [r7, #8]
 208 00d2 FB68     		ldr	r3, [r7, #12]
 209 00d4 0022     		movs	r2, #0
 210 00d6 1800     		movs	r0, r3
 211 00d8 FFF7FEFF 		bl	u8g_SetChipSelect
 109:Drivers/u8glib/src/u8g_dev_uc1701_mini12864.c ****       return 1;
 212              		.loc 1 109 0
 213 00dc 0123     		movs	r3, #1
 214 00de 09E0     		b	.L9
 215              	.L10:
  91:Drivers/u8glib/src/u8g_dev_uc1701_mini12864.c ****     case U8G_DEV_MSG_PAGE_NEXT:
 216              		.loc 1 91 0
 217 00e0 C046     		nop
 218              	.L2:
 110:Drivers/u8glib/src/u8g_dev_uc1701_mini12864.c ****   }
 111:Drivers/u8glib/src/u8g_dev_uc1701_mini12864.c ****   return u8g_dev_pb8v1_base_fn(u8g, dev, msg, arg);
 219              		.loc 1 111 0
 220 00e2 3C68     		ldr	r4, [r7]
 221 00e4 FB1D     		adds	r3, r7, #7
 222 00e6 1A78     		ldrb	r2, [r3]
 223 00e8 B968     		ldr	r1, [r7, #8]
 224 00ea F868     		ldr	r0, [r7, #12]
 225 00ec 2300     		movs	r3, r4
 226 00ee FFF7FEFF 		bl	u8g_dev_pb8v1_base_fn
 227 00f2 0300     		movs	r3, r0
 228              	.L9:
 112:Drivers/u8glib/src/u8g_dev_uc1701_mini12864.c **** }
 229              		.loc 1 112 0
 230 00f4 1800     		movs	r0, r3
 231 00f6 BD46     		mov	sp, r7
 232 00f8 07B0     		add	sp, sp, #28
 233              		@ sp needed
 234 00fa 90BD     		pop	{r4, r7, pc}
ARM GAS  /tmp/cc7KQBK4.s 			page 7


 235              	.L12:
 236              		.align	2
 237              	.L11:
 238 00fc 00000000 		.word	u8g_dev_uc1701_mini12864_init_seq
 239 0100 00000000 		.word	u8g_dev_uc1701_mini12864_data_start
 240              		.cfi_endproc
 241              	.LFE0:
 243              		.section	.text.u8g_dev_uc1701_mini12864_2x_fn,"ax",%progbits
 244              		.align	1
 245              		.global	u8g_dev_uc1701_mini12864_2x_fn
 246              		.syntax unified
 247              		.code	16
 248              		.thumb_func
 249              		.fpu softvfp
 251              	u8g_dev_uc1701_mini12864_2x_fn:
 252              	.LFB1:
 113:Drivers/u8glib/src/u8g_dev_uc1701_mini12864.c **** 
 114:Drivers/u8glib/src/u8g_dev_uc1701_mini12864.c **** uint8_t u8g_dev_uc1701_mini12864_2x_fn(u8g_t *u8g, u8g_dev_t *dev, uint8_t msg, void *arg)
 115:Drivers/u8glib/src/u8g_dev_uc1701_mini12864.c **** {
 253              		.loc 1 115 0
 254              		.cfi_startproc
 255 0000 90B5     		push	{r4, r7, lr}
 256              	.LCFI3:
 257              		.cfi_def_cfa_offset 12
 258              		.cfi_offset 4, -12
 259              		.cfi_offset 7, -8
 260              		.cfi_offset 14, -4
 261 0002 87B0     		sub	sp, sp, #28
 262              	.LCFI4:
 263              		.cfi_def_cfa_offset 40
 264 0004 00AF     		add	r7, sp, #0
 265              	.LCFI5:
 266              		.cfi_def_cfa_register 7
 267 0006 F860     		str	r0, [r7, #12]
 268 0008 B960     		str	r1, [r7, #8]
 269 000a 3B60     		str	r3, [r7]
 270 000c FB1D     		adds	r3, r7, #7
 271 000e 1A70     		strb	r2, [r3]
 116:Drivers/u8glib/src/u8g_dev_uc1701_mini12864.c ****   switch(msg)
 272              		.loc 1 116 0
 273 0010 FB1D     		adds	r3, r7, #7
 274 0012 1B78     		ldrb	r3, [r3]
 275 0014 0B2B     		cmp	r3, #11
 276 0016 00D1     		bne	.LCB191
 277 0018 94E0     		b	.L21	@long jump
 278              	.LCB191:
 279 001a 02DC     		bgt	.L16
 280 001c 0A2B     		cmp	r3, #10
 281 001e 05D0     		beq	.L17
 282 0020 91E0     		b	.L14
 283              	.L16:
 284 0022 0F2B     		cmp	r3, #15
 285 0024 6BD0     		beq	.L18
 286 0026 152B     		cmp	r3, #21
 287 0028 0DD0     		beq	.L19
 288 002a 8CE0     		b	.L14
 289              	.L17:
ARM GAS  /tmp/cc7KQBK4.s 			page 8


 117:Drivers/u8glib/src/u8g_dev_uc1701_mini12864.c ****   {
 118:Drivers/u8glib/src/u8g_dev_uc1701_mini12864.c ****     case U8G_DEV_MSG_INIT:
 119:Drivers/u8glib/src/u8g_dev_uc1701_mini12864.c ****       u8g_InitCom(u8g, dev, U8G_SPI_CLK_CYCLE_300NS);
 290              		.loc 1 119 0
 291 002c B968     		ldr	r1, [r7, #8]
 292 002e FB68     		ldr	r3, [r7, #12]
 293 0030 0222     		movs	r2, #2
 294 0032 1800     		movs	r0, r3
 295 0034 FFF7FEFF 		bl	u8g_InitCom
 120:Drivers/u8glib/src/u8g_dev_uc1701_mini12864.c ****       u8g_WriteEscSeqP(u8g, dev, u8g_dev_uc1701_mini12864_init_seq);
 296              		.loc 1 120 0
 297 0038 494A     		ldr	r2, .L22
 298 003a B968     		ldr	r1, [r7, #8]
 299 003c FB68     		ldr	r3, [r7, #12]
 300 003e 1800     		movs	r0, r3
 301 0040 FFF7FEFF 		bl	u8g_WriteEscSeqP
 121:Drivers/u8glib/src/u8g_dev_uc1701_mini12864.c ****       break;
 302              		.loc 1 121 0
 303 0044 7FE0     		b	.L14
 304              	.L19:
 305              	.LBB3:
 122:Drivers/u8glib/src/u8g_dev_uc1701_mini12864.c ****     case U8G_DEV_MSG_STOP:
 123:Drivers/u8glib/src/u8g_dev_uc1701_mini12864.c ****       break;
 124:Drivers/u8glib/src/u8g_dev_uc1701_mini12864.c ****     case U8G_DEV_MSG_PAGE_NEXT:
 125:Drivers/u8glib/src/u8g_dev_uc1701_mini12864.c ****       {
 126:Drivers/u8glib/src/u8g_dev_uc1701_mini12864.c ****         u8g_pb_t *pb = (u8g_pb_t *)(dev->dev_mem);
 306              		.loc 1 126 0
 307 0046 BB68     		ldr	r3, [r7, #8]
 308 0048 5B68     		ldr	r3, [r3, #4]
 309 004a 7B61     		str	r3, [r7, #20]
 127:Drivers/u8glib/src/u8g_dev_uc1701_mini12864.c **** 	
 128:Drivers/u8glib/src/u8g_dev_uc1701_mini12864.c ****         u8g_WriteEscSeqP(u8g, dev, u8g_dev_uc1701_mini12864_data_start);    
 310              		.loc 1 128 0
 311 004c 454A     		ldr	r2, .L22+4
 312 004e B968     		ldr	r1, [r7, #8]
 313 0050 FB68     		ldr	r3, [r7, #12]
 314 0052 1800     		movs	r0, r3
 315 0054 FFF7FEFF 		bl	u8g_WriteEscSeqP
 129:Drivers/u8glib/src/u8g_dev_uc1701_mini12864.c ****         u8g_WriteByte(u8g, dev, 0x0b0 | (2*pb->p.page)); /* select current page */
 316              		.loc 1 129 0
 317 0058 7B69     		ldr	r3, [r7, #20]
 318 005a 1B79     		ldrb	r3, [r3, #4]
 319 005c DB18     		adds	r3, r3, r3
 320 005e DBB2     		uxtb	r3, r3
 321 0060 5BB2     		sxtb	r3, r3
 322 0062 5022     		movs	r2, #80
 323 0064 5242     		rsbs	r2, r2, #0
 324 0066 1343     		orrs	r3, r2
 325 0068 5BB2     		sxtb	r3, r3
 326 006a DAB2     		uxtb	r2, r3
 327 006c B968     		ldr	r1, [r7, #8]
 328 006e FB68     		ldr	r3, [r7, #12]
 329 0070 1800     		movs	r0, r3
 330 0072 FFF7FEFF 		bl	u8g_WriteByte
 130:Drivers/u8glib/src/u8g_dev_uc1701_mini12864.c ****         u8g_SetAddress(u8g, dev, 1);           /* data mode */
 331              		.loc 1 130 0
 332 0076 B968     		ldr	r1, [r7, #8]
ARM GAS  /tmp/cc7KQBK4.s 			page 9


 333 0078 FB68     		ldr	r3, [r7, #12]
 334 007a 0122     		movs	r2, #1
 335 007c 1800     		movs	r0, r3
 336 007e FFF7FEFF 		bl	u8g_SetAddress
 131:Drivers/u8glib/src/u8g_dev_uc1701_mini12864.c **** 	u8g_WriteSequence(u8g, dev, pb->width, pb->buf); 
 337              		.loc 1 131 0
 338 0082 7B69     		ldr	r3, [r7, #20]
 339 0084 5A79     		ldrb	r2, [r3, #5]
 340 0086 7B69     		ldr	r3, [r7, #20]
 341 0088 9B68     		ldr	r3, [r3, #8]
 342 008a B968     		ldr	r1, [r7, #8]
 343 008c F868     		ldr	r0, [r7, #12]
 344 008e FFF7FEFF 		bl	u8g_WriteSequence
 132:Drivers/u8glib/src/u8g_dev_uc1701_mini12864.c ****         u8g_SetChipSelect(u8g, dev, 0);
 345              		.loc 1 132 0
 346 0092 B968     		ldr	r1, [r7, #8]
 347 0094 FB68     		ldr	r3, [r7, #12]
 348 0096 0022     		movs	r2, #0
 349 0098 1800     		movs	r0, r3
 350 009a FFF7FEFF 		bl	u8g_SetChipSelect
 133:Drivers/u8glib/src/u8g_dev_uc1701_mini12864.c **** 	
 134:Drivers/u8glib/src/u8g_dev_uc1701_mini12864.c ****         u8g_WriteEscSeqP(u8g, dev, u8g_dev_uc1701_mini12864_data_start);    
 351              		.loc 1 134 0
 352 009e 314A     		ldr	r2, .L22+4
 353 00a0 B968     		ldr	r1, [r7, #8]
 354 00a2 FB68     		ldr	r3, [r7, #12]
 355 00a4 1800     		movs	r0, r3
 356 00a6 FFF7FEFF 		bl	u8g_WriteEscSeqP
 135:Drivers/u8glib/src/u8g_dev_uc1701_mini12864.c ****         u8g_WriteByte(u8g, dev, 0x0b0 | (2*pb->p.page+1)); /* select current page */
 357              		.loc 1 135 0
 358 00aa 7B69     		ldr	r3, [r7, #20]
 359 00ac 1B79     		ldrb	r3, [r3, #4]
 360 00ae DB18     		adds	r3, r3, r3
 361 00b0 DBB2     		uxtb	r3, r3
 362 00b2 0133     		adds	r3, r3, #1
 363 00b4 DBB2     		uxtb	r3, r3
 364 00b6 5BB2     		sxtb	r3, r3
 365 00b8 5022     		movs	r2, #80
 366 00ba 5242     		rsbs	r2, r2, #0
 367 00bc 1343     		orrs	r3, r2
 368 00be 5BB2     		sxtb	r3, r3
 369 00c0 DAB2     		uxtb	r2, r3
 370 00c2 B968     		ldr	r1, [r7, #8]
 371 00c4 FB68     		ldr	r3, [r7, #12]
 372 00c6 1800     		movs	r0, r3
 373 00c8 FFF7FEFF 		bl	u8g_WriteByte
 136:Drivers/u8glib/src/u8g_dev_uc1701_mini12864.c ****         u8g_SetAddress(u8g, dev, 1);           /* data mode */
 374              		.loc 1 136 0
 375 00cc B968     		ldr	r1, [r7, #8]
 376 00ce FB68     		ldr	r3, [r7, #12]
 377 00d0 0122     		movs	r2, #1
 378 00d2 1800     		movs	r0, r3
 379 00d4 FFF7FEFF 		bl	u8g_SetAddress
 137:Drivers/u8glib/src/u8g_dev_uc1701_mini12864.c **** 	u8g_WriteSequence(u8g, dev, pb->width, (uint8_t *)(pb->buf)+pb->width); 
 380              		.loc 1 137 0
 381 00d8 7B69     		ldr	r3, [r7, #20]
 382 00da 5C79     		ldrb	r4, [r3, #5]
ARM GAS  /tmp/cc7KQBK4.s 			page 10


 383 00dc 7B69     		ldr	r3, [r7, #20]
 384 00de 9B68     		ldr	r3, [r3, #8]
 385 00e0 7A69     		ldr	r2, [r7, #20]
 386 00e2 5279     		ldrb	r2, [r2, #5]
 387 00e4 9B18     		adds	r3, r3, r2
 388 00e6 B968     		ldr	r1, [r7, #8]
 389 00e8 F868     		ldr	r0, [r7, #12]
 390 00ea 2200     		movs	r2, r4
 391 00ec FFF7FEFF 		bl	u8g_WriteSequence
 138:Drivers/u8glib/src/u8g_dev_uc1701_mini12864.c ****         u8g_SetChipSelect(u8g, dev, 0);
 392              		.loc 1 138 0
 393 00f0 B968     		ldr	r1, [r7, #8]
 394 00f2 FB68     		ldr	r3, [r7, #12]
 395 00f4 0022     		movs	r2, #0
 396 00f6 1800     		movs	r0, r3
 397 00f8 FFF7FEFF 		bl	u8g_SetChipSelect
 398              	.LBE3:
 139:Drivers/u8glib/src/u8g_dev_uc1701_mini12864.c ****       }
 140:Drivers/u8glib/src/u8g_dev_uc1701_mini12864.c ****       break;
 399              		.loc 1 140 0
 400 00fc 23E0     		b	.L14
 401              	.L18:
 141:Drivers/u8glib/src/u8g_dev_uc1701_mini12864.c ****     case U8G_DEV_MSG_CONTRAST:
 142:Drivers/u8glib/src/u8g_dev_uc1701_mini12864.c ****       u8g_SetChipSelect(u8g, dev, 1);
 402              		.loc 1 142 0
 403 00fe B968     		ldr	r1, [r7, #8]
 404 0100 FB68     		ldr	r3, [r7, #12]
 405 0102 0122     		movs	r2, #1
 406 0104 1800     		movs	r0, r3
 407 0106 FFF7FEFF 		bl	u8g_SetChipSelect
 143:Drivers/u8glib/src/u8g_dev_uc1701_mini12864.c ****       u8g_SetAddress(u8g, dev, 0);          /* instruction mode */
 408              		.loc 1 143 0
 409 010a B968     		ldr	r1, [r7, #8]
 410 010c FB68     		ldr	r3, [r7, #12]
 411 010e 0022     		movs	r2, #0
 412 0110 1800     		movs	r0, r3
 413 0112 FFF7FEFF 		bl	u8g_SetAddress
 144:Drivers/u8glib/src/u8g_dev_uc1701_mini12864.c ****       u8g_WriteByte(u8g, dev, 0x081);
 414              		.loc 1 144 0
 415 0116 B968     		ldr	r1, [r7, #8]
 416 0118 FB68     		ldr	r3, [r7, #12]
 417 011a 8122     		movs	r2, #129
 418 011c 1800     		movs	r0, r3
 419 011e FFF7FEFF 		bl	u8g_WriteByte
 145:Drivers/u8glib/src/u8g_dev_uc1701_mini12864.c ****       u8g_WriteByte(u8g, dev, (*(uint8_t *)arg) >> 2);
 420              		.loc 1 145 0
 421 0122 3B68     		ldr	r3, [r7]
 422 0124 1B78     		ldrb	r3, [r3]
 423 0126 9B08     		lsrs	r3, r3, #2
 424 0128 DAB2     		uxtb	r2, r3
 425 012a B968     		ldr	r1, [r7, #8]
 426 012c FB68     		ldr	r3, [r7, #12]
 427 012e 1800     		movs	r0, r3
 428 0130 FFF7FEFF 		bl	u8g_WriteByte
 146:Drivers/u8glib/src/u8g_dev_uc1701_mini12864.c ****       u8g_SetChipSelect(u8g, dev, 0);      
 429              		.loc 1 146 0
 430 0134 B968     		ldr	r1, [r7, #8]
ARM GAS  /tmp/cc7KQBK4.s 			page 11


 431 0136 FB68     		ldr	r3, [r7, #12]
 432 0138 0022     		movs	r2, #0
 433 013a 1800     		movs	r0, r3
 434 013c FFF7FEFF 		bl	u8g_SetChipSelect
 147:Drivers/u8glib/src/u8g_dev_uc1701_mini12864.c ****       return 1;
 435              		.loc 1 147 0
 436 0140 0123     		movs	r3, #1
 437 0142 09E0     		b	.L20
 438              	.L21:
 123:Drivers/u8glib/src/u8g_dev_uc1701_mini12864.c ****     case U8G_DEV_MSG_PAGE_NEXT:
 439              		.loc 1 123 0
 440 0144 C046     		nop
 441              	.L14:
 148:Drivers/u8glib/src/u8g_dev_uc1701_mini12864.c ****   }
 149:Drivers/u8glib/src/u8g_dev_uc1701_mini12864.c ****   return u8g_dev_pb16v1_base_fn(u8g, dev, msg, arg);
 442              		.loc 1 149 0
 443 0146 3C68     		ldr	r4, [r7]
 444 0148 FB1D     		adds	r3, r7, #7
 445 014a 1A78     		ldrb	r2, [r3]
 446 014c B968     		ldr	r1, [r7, #8]
 447 014e F868     		ldr	r0, [r7, #12]
 448 0150 2300     		movs	r3, r4
 449 0152 FFF7FEFF 		bl	u8g_dev_pb16v1_base_fn
 450 0156 0300     		movs	r3, r0
 451              	.L20:
 150:Drivers/u8glib/src/u8g_dev_uc1701_mini12864.c **** }
 452              		.loc 1 150 0
 453 0158 1800     		movs	r0, r3
 454 015a BD46     		mov	sp, r7
 455 015c 07B0     		add	sp, sp, #28
 456              		@ sp needed
 457 015e 90BD     		pop	{r4, r7, pc}
 458              	.L23:
 459              		.align	2
 460              	.L22:
 461 0160 00000000 		.word	u8g_dev_uc1701_mini12864_init_seq
 462 0164 00000000 		.word	u8g_dev_uc1701_mini12864_data_start
 463              		.cfi_endproc
 464              	.LFE1:
 466              		.global	u8g_dev_uc1701_mini12864_sw_spi_buf
 467              		.section	.bss.u8g_dev_uc1701_mini12864_sw_spi_buf,"aw",%nobits
 468              		.align	2
 471              	u8g_dev_uc1701_mini12864_sw_spi_buf:
 472 0000 00000000 		.space	128
 472      00000000 
 472      00000000 
 472      00000000 
 472      00000000 
 473              		.global	u8g_dev_uc1701_mini12864_sw_spi_pb
 474              		.section	.data.u8g_dev_uc1701_mini12864_sw_spi_pb,"aw",%progbits
 475              		.align	2
 478              	u8g_dev_uc1701_mini12864_sw_spi_pb:
 479 0000 08       		.byte	8
 480 0001 40       		.byte	64
 481 0002 00       		.byte	0
 482 0003 00       		.byte	0
 483 0004 00       		.byte	0
ARM GAS  /tmp/cc7KQBK4.s 			page 12


 484 0005 80       		.byte	-128
 485 0006 0000     		.space	2
 486 0008 00000000 		.word	u8g_dev_uc1701_mini12864_sw_spi_buf
 487              		.global	u8g_dev_uc1701_mini12864_sw_spi
 488              		.section	.data.u8g_dev_uc1701_mini12864_sw_spi,"aw",%progbits
 489              		.align	2
 492              	u8g_dev_uc1701_mini12864_sw_spi:
 493 0000 00000000 		.word	u8g_dev_uc1701_mini12864_fn
 494 0004 00000000 		.word	u8g_dev_uc1701_mini12864_sw_spi_pb
 495 0008 00000000 		.word	u8g_com_null_fn
 496              		.global	u8g_dev_uc1701_mini12864_hw_spi_buf
 497              		.section	.bss.u8g_dev_uc1701_mini12864_hw_spi_buf,"aw",%nobits
 498              		.align	2
 501              	u8g_dev_uc1701_mini12864_hw_spi_buf:
 502 0000 00000000 		.space	128
 502      00000000 
 502      00000000 
 502      00000000 
 502      00000000 
 503              		.global	u8g_dev_uc1701_mini12864_hw_spi_pb
 504              		.section	.data.u8g_dev_uc1701_mini12864_hw_spi_pb,"aw",%progbits
 505              		.align	2
 508              	u8g_dev_uc1701_mini12864_hw_spi_pb:
 509 0000 08       		.byte	8
 510 0001 40       		.byte	64
 511 0002 00       		.byte	0
 512 0003 00       		.byte	0
 513 0004 00       		.byte	0
 514 0005 80       		.byte	-128
 515 0006 0000     		.space	2
 516 0008 00000000 		.word	u8g_dev_uc1701_mini12864_hw_spi_buf
 517              		.global	u8g_dev_uc1701_mini12864_hw_spi
 518              		.section	.data.u8g_dev_uc1701_mini12864_hw_spi,"aw",%progbits
 519              		.align	2
 522              	u8g_dev_uc1701_mini12864_hw_spi:
 523 0000 00000000 		.word	u8g_dev_uc1701_mini12864_fn
 524 0004 00000000 		.word	u8g_dev_uc1701_mini12864_hw_spi_pb
 525 0008 00000000 		.word	u8g_com_null_fn
 526              		.global	u8g_dev_uc1701_mini12864_2x_buf
 527              		.section	.bss.u8g_dev_uc1701_mini12864_2x_buf,"aw",%nobits
 528              		.align	2
 531              	u8g_dev_uc1701_mini12864_2x_buf:
 532 0000 00000000 		.space	256
 532      00000000 
 532      00000000 
 532      00000000 
 532      00000000 
 533              		.global	u8g_dev_uc1701_mini12864_2x_pb
 534              		.section	.data.u8g_dev_uc1701_mini12864_2x_pb,"aw",%progbits
 535              		.align	2
 538              	u8g_dev_uc1701_mini12864_2x_pb:
 539 0000 10       		.byte	16
 540 0001 40       		.byte	64
 541 0002 00       		.byte	0
 542 0003 00       		.byte	0
 543 0004 00       		.byte	0
 544 0005 80       		.byte	-128
ARM GAS  /tmp/cc7KQBK4.s 			page 13


 545 0006 0000     		.space	2
 546 0008 00000000 		.word	u8g_dev_uc1701_mini12864_2x_buf
 547              		.global	u8g_dev_uc1701_mini12864_2x_sw_spi
 548              		.section	.data.u8g_dev_uc1701_mini12864_2x_sw_spi,"aw",%progbits
 549              		.align	2
 552              	u8g_dev_uc1701_mini12864_2x_sw_spi:
 553 0000 00000000 		.word	u8g_dev_uc1701_mini12864_2x_fn
 554 0004 00000000 		.word	u8g_dev_uc1701_mini12864_2x_pb
 555 0008 00000000 		.word	u8g_com_null_fn
 556              		.global	u8g_dev_uc1701_mini12864_2x_hw_spi
 557              		.section	.data.u8g_dev_uc1701_mini12864_2x_hw_spi,"aw",%progbits
 558              		.align	2
 561              	u8g_dev_uc1701_mini12864_2x_hw_spi:
 562 0000 00000000 		.word	u8g_dev_uc1701_mini12864_2x_fn
 563 0004 00000000 		.word	u8g_dev_uc1701_mini12864_2x_pb
 564 0008 00000000 		.word	u8g_com_null_fn
 565              		.text
 566              	.Letext0:
 567              		.file 2 "/usr/arm-none-eabi/include/machine/_default_types.h"
 568              		.file 3 "/usr/arm-none-eabi/include/sys/_stdint.h"
 569              		.file 4 "Drivers/u8glib/inc/u8g.h"
ARM GAS  /tmp/cc7KQBK4.s 			page 14

