ARM GAS  /tmp/ccFGyqY8.s 			page 1


   1              		.cpu cortex-m0
   2              		.eabi_attribute 20, 1
   3              		.eabi_attribute 21, 1
   4              		.eabi_attribute 23, 3
   5              		.eabi_attribute 24, 1
   6              		.eabi_attribute 25, 1
   7              		.eabi_attribute 26, 1
   8              		.eabi_attribute 30, 6
   9              		.eabi_attribute 34, 0
  10              		.eabi_attribute 18, 4
  11              		.file	"u8g_pb8v2.c"
  12              		.text
  13              	.Ltext0:
  14              		.cfi_sections	.debug_frame
  15              		.section	.text.u8g_pb8v2_Init,"ax",%progbits
  16              		.align	1
  17              		.global	u8g_pb8v2_Init
  18              		.syntax unified
  19              		.code	16
  20              		.thumb_func
  21              		.fpu softvfp
  23              	u8g_pb8v2_Init:
  24              	.LFB0:
  25              		.file 1 "Drivers/u8glib/src/u8g_pb8v2.c"
   1:Drivers/u8glib/src/u8g_pb8v2.c **** /*
   2:Drivers/u8glib/src/u8g_pb8v2.c **** 
   3:Drivers/u8glib/src/u8g_pb8v2.c ****   u8g_pb8v2.c
   4:Drivers/u8glib/src/u8g_pb8v2.c ****   
   5:Drivers/u8glib/src/u8g_pb8v2.c ****   8bit height 2 bit per pixel page buffer
   6:Drivers/u8glib/src/u8g_pb8v2.c ****   byte has vertical orientation
   7:Drivers/u8glib/src/u8g_pb8v2.c **** 
   8:Drivers/u8glib/src/u8g_pb8v2.c ****   Universal 8bit Graphics Library
   9:Drivers/u8glib/src/u8g_pb8v2.c ****   
  10:Drivers/u8glib/src/u8g_pb8v2.c ****   Copyright (c) 2011, olikraus@gmail.com
  11:Drivers/u8glib/src/u8g_pb8v2.c ****   All rights reserved.
  12:Drivers/u8glib/src/u8g_pb8v2.c **** 
  13:Drivers/u8glib/src/u8g_pb8v2.c ****   Redistribution and use in source and binary forms, with or without modification, 
  14:Drivers/u8glib/src/u8g_pb8v2.c ****   are permitted provided that the following conditions are met:
  15:Drivers/u8glib/src/u8g_pb8v2.c **** 
  16:Drivers/u8glib/src/u8g_pb8v2.c ****   * Redistributions of source code must retain the above copyright notice, this list 
  17:Drivers/u8glib/src/u8g_pb8v2.c ****     of conditions and the following disclaimer.
  18:Drivers/u8glib/src/u8g_pb8v2.c ****     
  19:Drivers/u8glib/src/u8g_pb8v2.c ****   * Redistributions in binary form must reproduce the above copyright notice, this 
  20:Drivers/u8glib/src/u8g_pb8v2.c ****     list of conditions and the following disclaimer in the documentation and/or other 
  21:Drivers/u8glib/src/u8g_pb8v2.c ****     materials provided with the distribution.
  22:Drivers/u8glib/src/u8g_pb8v2.c **** 
  23:Drivers/u8glib/src/u8g_pb8v2.c ****   THIS SOFTWARE IS PROVIDED BY THE COPYRIGHT HOLDERS AND 
  24:Drivers/u8glib/src/u8g_pb8v2.c ****   CONTRIBUTORS "AS IS" AND ANY EXPRESS OR IMPLIED WARRANTIES, 
  25:Drivers/u8glib/src/u8g_pb8v2.c ****   INCLUDING, BUT NOT LIMITED TO, THE IMPLIED WARRANTIES OF 
  26:Drivers/u8glib/src/u8g_pb8v2.c ****   MERCHANTABILITY AND FITNESS FOR A PARTICULAR PURPOSE ARE 
  27:Drivers/u8glib/src/u8g_pb8v2.c ****   DISCLAIMED. IN NO EVENT SHALL THE COPYRIGHT HOLDER OR 
  28:Drivers/u8glib/src/u8g_pb8v2.c ****   CONTRIBUTORS BE LIABLE FOR ANY DIRECT, INDIRECT, INCIDENTAL, 
  29:Drivers/u8glib/src/u8g_pb8v2.c ****   SPECIAL, EXEMPLARY, OR CONSEQUENTIAL DAMAGES (INCLUDING, BUT 
  30:Drivers/u8glib/src/u8g_pb8v2.c ****   NOT LIMITED TO, PROCUREMENT OF SUBSTITUTE GOODS OR SERVICES; 
  31:Drivers/u8glib/src/u8g_pb8v2.c ****   LOSS OF USE, DATA, OR PROFITS; OR BUSINESS INTERRUPTION) HOWEVER 
  32:Drivers/u8glib/src/u8g_pb8v2.c ****   CAUSED AND ON ANY THEORY OF LIABILITY, WHETHER IN CONTRACT, 
  33:Drivers/u8glib/src/u8g_pb8v2.c ****   STRICT LIABILITY, OR TORT (INCLUDING NEGLIGENCE OR OTHERWISE) 
ARM GAS  /tmp/ccFGyqY8.s 			page 2


  34:Drivers/u8glib/src/u8g_pb8v2.c ****   ARISING IN ANY WAY OUT OF THE USE OF THIS SOFTWARE, EVEN IF 
  35:Drivers/u8glib/src/u8g_pb8v2.c ****   ADVISED OF THE POSSIBILITY OF SUCH DAMAGE.  
  36:Drivers/u8glib/src/u8g_pb8v2.c ****   
  37:Drivers/u8glib/src/u8g_pb8v2.c **** 
  38:Drivers/u8glib/src/u8g_pb8v2.c **** */
  39:Drivers/u8glib/src/u8g_pb8v2.c **** 
  40:Drivers/u8glib/src/u8g_pb8v2.c **** #include "u8g.h"
  41:Drivers/u8glib/src/u8g_pb8v2.c **** #include <string.h>
  42:Drivers/u8glib/src/u8g_pb8v2.c **** 
  43:Drivers/u8glib/src/u8g_pb8v2.c **** void u8g_pb8v2_Init(u8g_pb_t *b, void *buf, u8g_uint_t width)
  44:Drivers/u8glib/src/u8g_pb8v2.c **** {
  26              		.loc 1 44 0
  27              		.cfi_startproc
  28 0000 80B5     		push	{r7, lr}
  29              	.LCFI0:
  30              		.cfi_def_cfa_offset 8
  31              		.cfi_offset 7, -8
  32              		.cfi_offset 14, -4
  33 0002 84B0     		sub	sp, sp, #16
  34              	.LCFI1:
  35              		.cfi_def_cfa_offset 24
  36 0004 00AF     		add	r7, sp, #0
  37              	.LCFI2:
  38              		.cfi_def_cfa_register 7
  39 0006 F860     		str	r0, [r7, #12]
  40 0008 B960     		str	r1, [r7, #8]
  41 000a FB1D     		adds	r3, r7, #7
  42 000c 1A70     		strb	r2, [r3]
  45:Drivers/u8glib/src/u8g_pb8v2.c ****   b->buf = buf;
  43              		.loc 1 45 0
  44 000e FB68     		ldr	r3, [r7, #12]
  45 0010 BA68     		ldr	r2, [r7, #8]
  46 0012 9A60     		str	r2, [r3, #8]
  46:Drivers/u8glib/src/u8g_pb8v2.c ****   b->width = width;
  47              		.loc 1 46 0
  48 0014 FB68     		ldr	r3, [r7, #12]
  49 0016 FA1D     		adds	r2, r7, #7
  50 0018 1278     		ldrb	r2, [r2]
  51 001a 5A71     		strb	r2, [r3, #5]
  47:Drivers/u8glib/src/u8g_pb8v2.c ****   u8g_pb_Clear(b);
  52              		.loc 1 47 0
  53 001c FB68     		ldr	r3, [r7, #12]
  54 001e 1800     		movs	r0, r3
  55 0020 FFF7FEFF 		bl	u8g_pb_Clear
  48:Drivers/u8glib/src/u8g_pb8v2.c **** }
  56              		.loc 1 48 0
  57 0024 C046     		nop
  58 0026 BD46     		mov	sp, r7
  59 0028 04B0     		add	sp, sp, #16
  60              		@ sp needed
  61 002a 80BD     		pop	{r7, pc}
  62              		.cfi_endproc
  63              	.LFE0:
  65              		.section	.text.u8g_pb8v2_set_pixel,"ax",%progbits
  66              		.align	1
  67              		.global	u8g_pb8v2_set_pixel
  68              		.syntax unified
ARM GAS  /tmp/ccFGyqY8.s 			page 3


  69              		.code	16
  70              		.thumb_func
  71              		.fpu softvfp
  73              	u8g_pb8v2_set_pixel:
  74              	.LFB1:
  49:Drivers/u8glib/src/u8g_pb8v2.c **** 
  50:Drivers/u8glib/src/u8g_pb8v2.c **** void u8g_pb8v2_set_pixel(u8g_pb_t *b, u8g_uint_t x, u8g_uint_t y, uint8_t color_index)
  51:Drivers/u8glib/src/u8g_pb8v2.c **** {
  75              		.loc 1 51 0
  76              		.cfi_startproc
  77 0000 90B5     		push	{r4, r7, lr}
  78              	.LCFI3:
  79              		.cfi_def_cfa_offset 12
  80              		.cfi_offset 4, -12
  81              		.cfi_offset 7, -8
  82              		.cfi_offset 14, -4
  83 0002 85B0     		sub	sp, sp, #20
  84              	.LCFI4:
  85              		.cfi_def_cfa_offset 32
  86 0004 00AF     		add	r7, sp, #0
  87              	.LCFI5:
  88              		.cfi_def_cfa_register 7
  89 0006 7860     		str	r0, [r7, #4]
  90 0008 0C00     		movs	r4, r1
  91 000a 1000     		movs	r0, r2
  92 000c 1900     		movs	r1, r3
  93 000e FB1C     		adds	r3, r7, #3
  94 0010 221C     		adds	r2, r4, #0
  95 0012 1A70     		strb	r2, [r3]
  96 0014 BB1C     		adds	r3, r7, #2
  97 0016 021C     		adds	r2, r0, #0
  98 0018 1A70     		strb	r2, [r3]
  99 001a 7B1C     		adds	r3, r7, #1
 100 001c 0A1C     		adds	r2, r1, #0
 101 001e 1A70     		strb	r2, [r3]
  52:Drivers/u8glib/src/u8g_pb8v2.c ****   register uint8_t mask;
  53:Drivers/u8glib/src/u8g_pb8v2.c ****   uint8_t *ptr = b->buf;
 102              		.loc 1 53 0
 103 0020 7B68     		ldr	r3, [r7, #4]
 104 0022 9B68     		ldr	r3, [r3, #8]
 105 0024 FB60     		str	r3, [r7, #12]
  54:Drivers/u8glib/src/u8g_pb8v2.c ****   y -= b->p.page_y0;
 106              		.loc 1 54 0
 107 0026 7B68     		ldr	r3, [r7, #4]
 108 0028 9A78     		ldrb	r2, [r3, #2]
 109 002a BB1C     		adds	r3, r7, #2
 110 002c B91C     		adds	r1, r7, #2
 111 002e 0978     		ldrb	r1, [r1]
 112 0030 8A1A     		subs	r2, r1, r2
 113 0032 1A70     		strb	r2, [r3]
  55:Drivers/u8glib/src/u8g_pb8v2.c ****   mask = 0x03;
 114              		.loc 1 55 0
 115 0034 0324     		movs	r4, #3
  56:Drivers/u8glib/src/u8g_pb8v2.c ****   y &= 0x03;
 116              		.loc 1 56 0
 117 0036 BB1C     		adds	r3, r7, #2
 118 0038 BA1C     		adds	r2, r7, #2
ARM GAS  /tmp/ccFGyqY8.s 			page 4


 119 003a 1278     		ldrb	r2, [r2]
 120 003c 0321     		movs	r1, #3
 121 003e 0A40     		ands	r2, r1
 122 0040 1A70     		strb	r2, [r3]
  57:Drivers/u8glib/src/u8g_pb8v2.c ****   y <<= 1;
 123              		.loc 1 57 0
 124 0042 BA1C     		adds	r2, r7, #2
 125 0044 BB1C     		adds	r3, r7, #2
 126 0046 1B78     		ldrb	r3, [r3]
 127 0048 DB18     		adds	r3, r3, r3
 128 004a 1370     		strb	r3, [r2]
  58:Drivers/u8glib/src/u8g_pb8v2.c ****   mask <<= y;
 129              		.loc 1 58 0
 130 004c 2200     		movs	r2, r4
 131 004e BB1C     		adds	r3, r7, #2
 132 0050 1B78     		ldrb	r3, [r3]
 133 0052 9A40     		lsls	r2, r2, r3
 134 0054 1300     		movs	r3, r2
 135 0056 DCB2     		uxtb	r4, r3
  59:Drivers/u8glib/src/u8g_pb8v2.c ****   mask ^=0xff;
 136              		.loc 1 59 0
 137 0058 E343     		mvns	r3, r4
 138 005a DCB2     		uxtb	r4, r3
  60:Drivers/u8glib/src/u8g_pb8v2.c ****   color_index &= 3;
 139              		.loc 1 60 0
 140 005c 7B1C     		adds	r3, r7, #1
 141 005e 7A1C     		adds	r2, r7, #1
 142 0060 1278     		ldrb	r2, [r2]
 143 0062 0321     		movs	r1, #3
 144 0064 0A40     		ands	r2, r1
 145 0066 1A70     		strb	r2, [r3]
  61:Drivers/u8glib/src/u8g_pb8v2.c ****   color_index <<= y;
 146              		.loc 1 61 0
 147 0068 7B1C     		adds	r3, r7, #1
 148 006a 1A78     		ldrb	r2, [r3]
 149 006c BB1C     		adds	r3, r7, #2
 150 006e 1B78     		ldrb	r3, [r3]
 151 0070 9A40     		lsls	r2, r2, r3
 152 0072 7B1C     		adds	r3, r7, #1
 153 0074 1A70     		strb	r2, [r3]
  62:Drivers/u8glib/src/u8g_pb8v2.c ****   ptr += x;
 154              		.loc 1 62 0
 155 0076 FB1C     		adds	r3, r7, #3
 156 0078 1B78     		ldrb	r3, [r3]
 157 007a FA68     		ldr	r2, [r7, #12]
 158 007c D318     		adds	r3, r2, r3
 159 007e FB60     		str	r3, [r7, #12]
  63:Drivers/u8glib/src/u8g_pb8v2.c ****   *ptr &= mask;
 160              		.loc 1 63 0
 161 0080 FB68     		ldr	r3, [r7, #12]
 162 0082 1B78     		ldrb	r3, [r3]
 163 0084 2340     		ands	r3, r4
 164 0086 DAB2     		uxtb	r2, r3
 165 0088 FB68     		ldr	r3, [r7, #12]
 166 008a 1A70     		strb	r2, [r3]
  64:Drivers/u8glib/src/u8g_pb8v2.c ****   *ptr |= color_index;
 167              		.loc 1 64 0
ARM GAS  /tmp/ccFGyqY8.s 			page 5


 168 008c FB68     		ldr	r3, [r7, #12]
 169 008e 1A78     		ldrb	r2, [r3]
 170 0090 7B1C     		adds	r3, r7, #1
 171 0092 1B78     		ldrb	r3, [r3]
 172 0094 1343     		orrs	r3, r2
 173 0096 DAB2     		uxtb	r2, r3
 174 0098 FB68     		ldr	r3, [r7, #12]
 175 009a 1A70     		strb	r2, [r3]
  65:Drivers/u8glib/src/u8g_pb8v2.c **** }
 176              		.loc 1 65 0
 177 009c C046     		nop
 178 009e BD46     		mov	sp, r7
 179 00a0 05B0     		add	sp, sp, #20
 180              		@ sp needed
 181 00a2 90BD     		pop	{r4, r7, pc}
 182              		.cfi_endproc
 183              	.LFE1:
 185              		.section	.text.u8g_pb8v2_SetPixel,"ax",%progbits
 186              		.align	1
 187              		.global	u8g_pb8v2_SetPixel
 188              		.syntax unified
 189              		.code	16
 190              		.thumb_func
 191              		.fpu softvfp
 193              	u8g_pb8v2_SetPixel:
 194              	.LFB2:
  66:Drivers/u8glib/src/u8g_pb8v2.c **** 
  67:Drivers/u8glib/src/u8g_pb8v2.c **** 
  68:Drivers/u8glib/src/u8g_pb8v2.c **** void u8g_pb8v2_SetPixel(u8g_pb_t *b, const u8g_dev_arg_pixel_t * const arg_pixel)
  69:Drivers/u8glib/src/u8g_pb8v2.c **** {
 195              		.loc 1 69 0
 196              		.cfi_startproc
 197 0000 80B5     		push	{r7, lr}
 198              	.LCFI6:
 199              		.cfi_def_cfa_offset 8
 200              		.cfi_offset 7, -8
 201              		.cfi_offset 14, -4
 202 0002 82B0     		sub	sp, sp, #8
 203              	.LCFI7:
 204              		.cfi_def_cfa_offset 16
 205 0004 00AF     		add	r7, sp, #0
 206              	.LCFI8:
 207              		.cfi_def_cfa_register 7
 208 0006 7860     		str	r0, [r7, #4]
 209 0008 3960     		str	r1, [r7]
  70:Drivers/u8glib/src/u8g_pb8v2.c ****   if ( arg_pixel->y < b->p.page_y0 )
 210              		.loc 1 70 0
 211 000a 3B68     		ldr	r3, [r7]
 212 000c 5A78     		ldrb	r2, [r3, #1]
 213 000e 7B68     		ldr	r3, [r7, #4]
 214 0010 9B78     		ldrb	r3, [r3, #2]
 215 0012 9A42     		cmp	r2, r3
 216 0014 15D3     		bcc	.L8
  71:Drivers/u8glib/src/u8g_pb8v2.c ****     return;
  72:Drivers/u8glib/src/u8g_pb8v2.c ****   if ( arg_pixel->y > b->p.page_y1 )
 217              		.loc 1 72 0
 218 0016 3B68     		ldr	r3, [r7]
ARM GAS  /tmp/ccFGyqY8.s 			page 6


 219 0018 5A78     		ldrb	r2, [r3, #1]
 220 001a 7B68     		ldr	r3, [r7, #4]
 221 001c DB78     		ldrb	r3, [r3, #3]
 222 001e 9A42     		cmp	r2, r3
 223 0020 11D8     		bhi	.L9
  73:Drivers/u8glib/src/u8g_pb8v2.c ****     return;
  74:Drivers/u8glib/src/u8g_pb8v2.c ****   if ( arg_pixel->x >= b->width )
 224              		.loc 1 74 0
 225 0022 3B68     		ldr	r3, [r7]
 226 0024 1A78     		ldrb	r2, [r3]
 227 0026 7B68     		ldr	r3, [r7, #4]
 228 0028 5B79     		ldrb	r3, [r3, #5]
 229 002a 9A42     		cmp	r2, r3
 230 002c 0DD2     		bcs	.L10
  75:Drivers/u8glib/src/u8g_pb8v2.c ****     return;
  76:Drivers/u8glib/src/u8g_pb8v2.c ****   u8g_pb8v2_set_pixel(b, arg_pixel->x, arg_pixel->y, arg_pixel->color);
 231              		.loc 1 76 0
 232 002e 3B68     		ldr	r3, [r7]
 233 0030 1978     		ldrb	r1, [r3]
 234 0032 3B68     		ldr	r3, [r7]
 235 0034 5A78     		ldrb	r2, [r3, #1]
 236 0036 3B68     		ldr	r3, [r7]
 237 0038 1B79     		ldrb	r3, [r3, #4]
 238 003a 7868     		ldr	r0, [r7, #4]
 239 003c FFF7FEFF 		bl	u8g_pb8v2_set_pixel
 240 0040 04E0     		b	.L3
 241              	.L8:
  71:Drivers/u8glib/src/u8g_pb8v2.c ****   if ( arg_pixel->y > b->p.page_y1 )
 242              		.loc 1 71 0
 243 0042 C046     		nop
 244 0044 02E0     		b	.L3
 245              	.L9:
  73:Drivers/u8glib/src/u8g_pb8v2.c ****     return;
 246              		.loc 1 73 0
 247 0046 C046     		nop
 248 0048 00E0     		b	.L3
 249              	.L10:
  75:Drivers/u8glib/src/u8g_pb8v2.c ****     return;
 250              		.loc 1 75 0
 251 004a C046     		nop
 252              	.L3:
  77:Drivers/u8glib/src/u8g_pb8v2.c **** }
 253              		.loc 1 77 0
 254 004c BD46     		mov	sp, r7
 255 004e 02B0     		add	sp, sp, #8
 256              		@ sp needed
 257 0050 80BD     		pop	{r7, pc}
 258              		.cfi_endproc
 259              	.LFE2:
 261              		.section	.text.u8g_pb8v2_Set8PixelStd,"ax",%progbits
 262              		.align	1
 263              		.global	u8g_pb8v2_Set8PixelStd
 264              		.syntax unified
 265              		.code	16
 266              		.thumb_func
 267              		.fpu softvfp
 269              	u8g_pb8v2_Set8PixelStd:
ARM GAS  /tmp/ccFGyqY8.s 			page 7


 270              	.LFB3:
  78:Drivers/u8glib/src/u8g_pb8v2.c **** 
  79:Drivers/u8glib/src/u8g_pb8v2.c **** 
  80:Drivers/u8glib/src/u8g_pb8v2.c **** void u8g_pb8v2_Set8PixelStd(u8g_pb_t *b, u8g_dev_arg_pixel_t *arg_pixel)
  81:Drivers/u8glib/src/u8g_pb8v2.c **** {
 271              		.loc 1 81 0
 272              		.cfi_startproc
 273 0000 90B5     		push	{r4, r7, lr}
 274              	.LCFI9:
 275              		.cfi_def_cfa_offset 12
 276              		.cfi_offset 4, -12
 277              		.cfi_offset 7, -8
 278              		.cfi_offset 14, -4
 279 0002 83B0     		sub	sp, sp, #12
 280              	.LCFI10:
 281              		.cfi_def_cfa_offset 24
 282 0004 00AF     		add	r7, sp, #0
 283              	.LCFI11:
 284              		.cfi_def_cfa_register 7
 285 0006 7860     		str	r0, [r7, #4]
 286 0008 3960     		str	r1, [r7]
  82:Drivers/u8glib/src/u8g_pb8v2.c ****   register uint8_t pixel = arg_pixel->pixel;
 287              		.loc 1 82 0
 288 000a 3B68     		ldr	r3, [r7]
 289 000c 9C78     		ldrb	r4, [r3, #2]
 290              	.L19:
  83:Drivers/u8glib/src/u8g_pb8v2.c ****   do
  84:Drivers/u8glib/src/u8g_pb8v2.c ****   {
  85:Drivers/u8glib/src/u8g_pb8v2.c ****     if ( pixel & 128 )
 291              		.loc 1 85 0
 292 000e 63B2     		sxtb	r3, r4
 293 0010 002B     		cmp	r3, #0
 294 0012 05DA     		bge	.L12
  86:Drivers/u8glib/src/u8g_pb8v2.c ****     {
  87:Drivers/u8glib/src/u8g_pb8v2.c ****       u8g_pb8v2_SetPixel(b, arg_pixel);
 295              		.loc 1 87 0
 296 0014 3A68     		ldr	r2, [r7]
 297 0016 7B68     		ldr	r3, [r7, #4]
 298 0018 1100     		movs	r1, r2
 299 001a 1800     		movs	r0, r3
 300 001c FFF7FEFF 		bl	u8g_pb8v2_SetPixel
 301              	.L12:
  88:Drivers/u8glib/src/u8g_pb8v2.c ****     }
  89:Drivers/u8glib/src/u8g_pb8v2.c ****     switch( arg_pixel->dir )
 302              		.loc 1 89 0
 303 0020 3B68     		ldr	r3, [r7]
 304 0022 DB78     		ldrb	r3, [r3, #3]
 305 0024 012B     		cmp	r3, #1
 306 0026 0FD0     		beq	.L14
 307 0028 02DC     		bgt	.L15
 308 002a 002B     		cmp	r3, #0
 309 002c 05D0     		beq	.L16
 310 002e 20E0     		b	.L13
 311              	.L15:
 312 0030 022B     		cmp	r3, #2
 313 0032 10D0     		beq	.L17
 314 0034 032B     		cmp	r3, #3
ARM GAS  /tmp/ccFGyqY8.s 			page 8


 315 0036 15D0     		beq	.L18
 316 0038 1BE0     		b	.L13
 317              	.L16:
  90:Drivers/u8glib/src/u8g_pb8v2.c ****     {
  91:Drivers/u8glib/src/u8g_pb8v2.c ****       case 0: arg_pixel->x++; break;
 318              		.loc 1 91 0
 319 003a 3B68     		ldr	r3, [r7]
 320 003c 1B78     		ldrb	r3, [r3]
 321 003e 0133     		adds	r3, r3, #1
 322 0040 DAB2     		uxtb	r2, r3
 323 0042 3B68     		ldr	r3, [r7]
 324 0044 1A70     		strb	r2, [r3]
 325 0046 14E0     		b	.L13
 326              	.L14:
  92:Drivers/u8glib/src/u8g_pb8v2.c ****       case 1: arg_pixel->y++; break;
 327              		.loc 1 92 0
 328 0048 3B68     		ldr	r3, [r7]
 329 004a 5B78     		ldrb	r3, [r3, #1]
 330 004c 0133     		adds	r3, r3, #1
 331 004e DAB2     		uxtb	r2, r3
 332 0050 3B68     		ldr	r3, [r7]
 333 0052 5A70     		strb	r2, [r3, #1]
 334 0054 0DE0     		b	.L13
 335              	.L17:
  93:Drivers/u8glib/src/u8g_pb8v2.c ****       case 2: arg_pixel->x--; break;
 336              		.loc 1 93 0
 337 0056 3B68     		ldr	r3, [r7]
 338 0058 1B78     		ldrb	r3, [r3]
 339 005a 013B     		subs	r3, r3, #1
 340 005c DAB2     		uxtb	r2, r3
 341 005e 3B68     		ldr	r3, [r7]
 342 0060 1A70     		strb	r2, [r3]
 343 0062 06E0     		b	.L13
 344              	.L18:
  94:Drivers/u8glib/src/u8g_pb8v2.c ****       case 3: arg_pixel->y--; break;
 345              		.loc 1 94 0
 346 0064 3B68     		ldr	r3, [r7]
 347 0066 5B78     		ldrb	r3, [r3, #1]
 348 0068 013B     		subs	r3, r3, #1
 349 006a DAB2     		uxtb	r2, r3
 350 006c 3B68     		ldr	r3, [r7]
 351 006e 5A70     		strb	r2, [r3, #1]
 352 0070 C046     		nop
 353              	.L13:
  95:Drivers/u8glib/src/u8g_pb8v2.c ****     }
  96:Drivers/u8glib/src/u8g_pb8v2.c ****     pixel <<= 1;
 354              		.loc 1 96 0
 355 0072 231C     		adds	r3, r4, #0
 356 0074 DB18     		adds	r3, r3, r3
 357 0076 DCB2     		uxtb	r4, r3
  97:Drivers/u8glib/src/u8g_pb8v2.c ****   } while( pixel != 0  );
 358              		.loc 1 97 0
 359 0078 002C     		cmp	r4, #0
 360 007a C8D1     		bne	.L19
  98:Drivers/u8glib/src/u8g_pb8v2.c **** 
  99:Drivers/u8glib/src/u8g_pb8v2.c **** }
 361              		.loc 1 99 0
ARM GAS  /tmp/ccFGyqY8.s 			page 9


 362 007c C046     		nop
 363 007e BD46     		mov	sp, r7
 364 0080 03B0     		add	sp, sp, #12
 365              		@ sp needed
 366 0082 90BD     		pop	{r4, r7, pc}
 367              		.cfi_endproc
 368              	.LFE3:
 370              		.section	.text.u8g_dev_pb8v2_base_fn,"ax",%progbits
 371              		.align	1
 372              		.global	u8g_dev_pb8v2_base_fn
 373              		.syntax unified
 374              		.code	16
 375              		.thumb_func
 376              		.fpu softvfp
 378              	u8g_dev_pb8v2_base_fn:
 379              	.LFB4:
 100:Drivers/u8glib/src/u8g_pb8v2.c **** 
 101:Drivers/u8glib/src/u8g_pb8v2.c **** 
 102:Drivers/u8glib/src/u8g_pb8v2.c **** 
 103:Drivers/u8glib/src/u8g_pb8v2.c **** uint8_t u8g_dev_pb8v2_base_fn(u8g_t *u8g, u8g_dev_t *dev, uint8_t msg, void *arg)
 104:Drivers/u8glib/src/u8g_pb8v2.c **** {
 380              		.loc 1 104 0
 381              		.cfi_startproc
 382 0000 80B5     		push	{r7, lr}
 383              	.LCFI12:
 384              		.cfi_def_cfa_offset 8
 385              		.cfi_offset 7, -8
 386              		.cfi_offset 14, -4
 387 0002 86B0     		sub	sp, sp, #24
 388              	.LCFI13:
 389              		.cfi_def_cfa_offset 32
 390 0004 00AF     		add	r7, sp, #0
 391              	.LCFI14:
 392              		.cfi_def_cfa_register 7
 393 0006 F860     		str	r0, [r7, #12]
 394 0008 B960     		str	r1, [r7, #8]
 395 000a 3B60     		str	r3, [r7]
 396 000c FB1D     		adds	r3, r7, #7
 397 000e 1A70     		strb	r2, [r3]
 105:Drivers/u8glib/src/u8g_pb8v2.c ****   u8g_pb_t *pb = (u8g_pb_t *)(dev->dev_mem);
 398              		.loc 1 105 0
 399 0010 BB68     		ldr	r3, [r7, #8]
 400 0012 5B68     		ldr	r3, [r3, #4]
 401 0014 7B61     		str	r3, [r7, #20]
 106:Drivers/u8glib/src/u8g_pb8v2.c ****   switch(msg)
 402              		.loc 1 106 0
 403 0016 FB1D     		adds	r3, r7, #7
 404 0018 1B78     		ldrb	r3, [r3]
 405 001a 0A3B     		subs	r3, r3, #10
 406 001c 3E2B     		cmp	r3, #62
 407 001e 44D8     		bhi	.L21
 408 0020 9A00     		lsls	r2, r3, #2
 409 0022 244B     		ldr	r3, .L39
 410 0024 D318     		adds	r3, r2, r3
 411 0026 1B68     		ldr	r3, [r3]
 412 0028 9F46     		mov	pc, r3
 413              		.section	.rodata.u8g_dev_pb8v2_base_fn,"a",%progbits
ARM GAS  /tmp/ccFGyqY8.s 			page 10


 414              		.align	2
 415              	.L23:
 416 0000 AA000000 		.word	.L21
 417 0004 AA000000 		.word	.L21
 418 0008 AA000000 		.word	.L21
 419 000c AA000000 		.word	.L21
 420 0010 AA000000 		.word	.L21
 421 0014 AA000000 		.word	.L21
 422 0018 AA000000 		.word	.L21
 423 001c AA000000 		.word	.L21
 424 0020 AA000000 		.word	.L21
 425 0024 AA000000 		.word	.L21
 426 0028 56000000 		.word	.L25
 427 002c 68000000 		.word	.L26
 428 0030 AA000000 		.word	.L21
 429 0034 82000000 		.word	.L27
 430 0038 AA000000 		.word	.L21
 431 003c AA000000 		.word	.L21
 432 0040 AA000000 		.word	.L21
 433 0044 AA000000 		.word	.L21
 434 0048 AA000000 		.word	.L21
 435 004c AA000000 		.word	.L21
 436 0050 AA000000 		.word	.L21
 437 0054 AA000000 		.word	.L21
 438 0058 AA000000 		.word	.L21
 439 005c AA000000 		.word	.L21
 440 0060 AA000000 		.word	.L21
 441 0064 AA000000 		.word	.L21
 442 0068 AA000000 		.word	.L21
 443 006c AA000000 		.word	.L21
 444 0070 AA000000 		.word	.L21
 445 0074 AA000000 		.word	.L21
 446 0078 AA000000 		.word	.L21
 447 007c AA000000 		.word	.L21
 448 0080 AA000000 		.word	.L21
 449 0084 AA000000 		.word	.L21
 450 0088 AA000000 		.word	.L21
 451 008c AA000000 		.word	.L21
 452 0090 AA000000 		.word	.L21
 453 0094 AA000000 		.word	.L21
 454 0098 AA000000 		.word	.L21
 455 009c AA000000 		.word	.L21
 456 00a0 48000000 		.word	.L28
 457 00a4 AA000000 		.word	.L21
 458 00a8 AA000000 		.word	.L21
 459 00ac AA000000 		.word	.L21
 460 00b0 AA000000 		.word	.L21
 461 00b4 AA000000 		.word	.L21
 462 00b8 AA000000 		.word	.L21
 463 00bc AA000000 		.word	.L21
 464 00c0 AA000000 		.word	.L21
 465 00c4 2A000000 		.word	.L29
 466 00c8 AA000000 		.word	.L21
 467 00cc AA000000 		.word	.L21
 468 00d0 AA000000 		.word	.L21
 469 00d4 AA000000 		.word	.L21
 470 00d8 AA000000 		.word	.L21
ARM GAS  /tmp/ccFGyqY8.s 			page 11


 471 00dc AA000000 		.word	.L21
 472 00e0 AA000000 		.word	.L21
 473 00e4 AA000000 		.word	.L21
 474 00e8 AA000000 		.word	.L21
 475 00ec AA000000 		.word	.L21
 476 00f0 90000000 		.word	.L32
 477 00f4 9A000000 		.word	.L33
 478 00f8 A4000000 		.word	.L34
 479              		.section	.text.u8g_dev_pb8v2_base_fn
 480              	.L29:
 107:Drivers/u8glib/src/u8g_pb8v2.c ****   {
 108:Drivers/u8glib/src/u8g_pb8v2.c ****     case U8G_DEV_MSG_SET_8PIXEL:
 109:Drivers/u8glib/src/u8g_pb8v2.c ****       if ( u8g_pb_Is8PixelVisible(pb, (u8g_dev_arg_pixel_t *)arg) )
 481              		.loc 1 109 0
 482 002a 3A68     		ldr	r2, [r7]
 483 002c 7B69     		ldr	r3, [r7, #20]
 484 002e 1100     		movs	r1, r2
 485 0030 1800     		movs	r0, r3
 486 0032 FFF7FEFF 		bl	u8g_pb_Is8PixelVisible
 487 0036 031E     		subs	r3, r0, #0
 488 0038 36D0     		beq	.L38
 110:Drivers/u8glib/src/u8g_pb8v2.c ****       {
 111:Drivers/u8glib/src/u8g_pb8v2.c ****         u8g_pb8v2_Set8PixelStd(pb, (u8g_dev_arg_pixel_t *)arg);
 489              		.loc 1 111 0
 490 003a 3A68     		ldr	r2, [r7]
 491 003c 7B69     		ldr	r3, [r7, #20]
 492 003e 1100     		movs	r1, r2
 493 0040 1800     		movs	r0, r3
 494 0042 FFF7FEFF 		bl	u8g_pb8v2_Set8PixelStd
 112:Drivers/u8glib/src/u8g_pb8v2.c ****       }
 113:Drivers/u8glib/src/u8g_pb8v2.c ****       break;
 495              		.loc 1 113 0
 496 0046 2FE0     		b	.L38
 497              	.L28:
 114:Drivers/u8glib/src/u8g_pb8v2.c ****     case U8G_DEV_MSG_SET_PIXEL:
 115:Drivers/u8glib/src/u8g_pb8v2.c ****       u8g_pb8v2_SetPixel(pb, (u8g_dev_arg_pixel_t *)arg);
 498              		.loc 1 115 0
 499 0048 3A68     		ldr	r2, [r7]
 500 004a 7B69     		ldr	r3, [r7, #20]
 501 004c 1100     		movs	r1, r2
 502 004e 1800     		movs	r0, r3
 503 0050 FFF7FEFF 		bl	u8g_pb8v2_SetPixel
 116:Drivers/u8glib/src/u8g_pb8v2.c ****       break;
 504              		.loc 1 116 0
 505 0054 29E0     		b	.L21
 506              	.L25:
 117:Drivers/u8glib/src/u8g_pb8v2.c ****     case U8G_DEV_MSG_INIT:
 118:Drivers/u8glib/src/u8g_pb8v2.c ****       break;
 119:Drivers/u8glib/src/u8g_pb8v2.c ****     case U8G_DEV_MSG_STOP:
 120:Drivers/u8glib/src/u8g_pb8v2.c ****       break;
 121:Drivers/u8glib/src/u8g_pb8v2.c ****     case U8G_DEV_MSG_PAGE_FIRST:
 122:Drivers/u8glib/src/u8g_pb8v2.c ****       u8g_pb_Clear(pb);
 507              		.loc 1 122 0
 508 0056 7B69     		ldr	r3, [r7, #20]
 509 0058 1800     		movs	r0, r3
 510 005a FFF7FEFF 		bl	u8g_pb_Clear
 123:Drivers/u8glib/src/u8g_pb8v2.c ****       u8g_page_First(&(pb->p));
ARM GAS  /tmp/ccFGyqY8.s 			page 12


 511              		.loc 1 123 0
 512 005e 7B69     		ldr	r3, [r7, #20]
 513 0060 1800     		movs	r0, r3
 514 0062 FFF7FEFF 		bl	u8g_page_First
 124:Drivers/u8glib/src/u8g_pb8v2.c ****       break;
 515              		.loc 1 124 0
 516 0066 20E0     		b	.L21
 517              	.L26:
 125:Drivers/u8glib/src/u8g_pb8v2.c ****     case U8G_DEV_MSG_PAGE_NEXT:
 126:Drivers/u8glib/src/u8g_pb8v2.c ****       if ( u8g_page_Next(&(pb->p)) == 0 )
 518              		.loc 1 126 0
 519 0068 7B69     		ldr	r3, [r7, #20]
 520 006a 1800     		movs	r0, r3
 521 006c FFF7FEFF 		bl	u8g_page_Next
 522 0070 031E     		subs	r3, r0, #0
 523 0072 01D1     		bne	.L36
 127:Drivers/u8glib/src/u8g_pb8v2.c ****         return 0;
 524              		.loc 1 127 0
 525 0074 0023     		movs	r3, #0
 526 0076 19E0     		b	.L37
 527              	.L36:
 128:Drivers/u8glib/src/u8g_pb8v2.c ****       u8g_pb_Clear(pb);
 528              		.loc 1 128 0
 529 0078 7B69     		ldr	r3, [r7, #20]
 530 007a 1800     		movs	r0, r3
 531 007c FFF7FEFF 		bl	u8g_pb_Clear
 129:Drivers/u8glib/src/u8g_pb8v2.c ****       break;
 532              		.loc 1 129 0
 533 0080 13E0     		b	.L21
 534              	.L27:
 130:Drivers/u8glib/src/u8g_pb8v2.c **** #ifdef U8G_DEV_MSG_IS_BBX_INTERSECTION
 131:Drivers/u8glib/src/u8g_pb8v2.c ****     case U8G_DEV_MSG_IS_BBX_INTERSECTION:
 132:Drivers/u8glib/src/u8g_pb8v2.c ****       return u8g_pb_IsIntersection(pb, (u8g_dev_arg_bbx_t *)arg);
 133:Drivers/u8glib/src/u8g_pb8v2.c **** #endif
 134:Drivers/u8glib/src/u8g_pb8v2.c ****     case U8G_DEV_MSG_GET_PAGE_BOX:
 135:Drivers/u8glib/src/u8g_pb8v2.c ****       u8g_pb_GetPageBox(pb, (u8g_box_t *)arg);
 535              		.loc 1 135 0
 536 0082 3A68     		ldr	r2, [r7]
 537 0084 7B69     		ldr	r3, [r7, #20]
 538 0086 1100     		movs	r1, r2
 539 0088 1800     		movs	r0, r3
 540 008a FFF7FEFF 		bl	u8g_pb_GetPageBox
 136:Drivers/u8glib/src/u8g_pb8v2.c ****       break;
 541              		.loc 1 136 0
 542 008e 0CE0     		b	.L21
 543              	.L32:
 137:Drivers/u8glib/src/u8g_pb8v2.c ****     case U8G_DEV_MSG_GET_WIDTH:
 138:Drivers/u8glib/src/u8g_pb8v2.c ****       *((u8g_uint_t *)arg) = pb->width;
 544              		.loc 1 138 0
 545 0090 7B69     		ldr	r3, [r7, #20]
 546 0092 5A79     		ldrb	r2, [r3, #5]
 547 0094 3B68     		ldr	r3, [r7]
 548 0096 1A70     		strb	r2, [r3]
 139:Drivers/u8glib/src/u8g_pb8v2.c ****       break;
 549              		.loc 1 139 0
 550 0098 07E0     		b	.L21
 551              	.L33:
ARM GAS  /tmp/ccFGyqY8.s 			page 13


 140:Drivers/u8glib/src/u8g_pb8v2.c ****     case U8G_DEV_MSG_GET_HEIGHT:
 141:Drivers/u8glib/src/u8g_pb8v2.c ****       *((u8g_uint_t *)arg) = pb->p.total_height;
 552              		.loc 1 141 0
 553 009a 7B69     		ldr	r3, [r7, #20]
 554 009c 5A78     		ldrb	r2, [r3, #1]
 555 009e 3B68     		ldr	r3, [r7]
 556 00a0 1A70     		strb	r2, [r3]
 142:Drivers/u8glib/src/u8g_pb8v2.c ****       break;
 557              		.loc 1 142 0
 558 00a2 02E0     		b	.L21
 559              	.L34:
 143:Drivers/u8glib/src/u8g_pb8v2.c ****     case U8G_DEV_MSG_SET_COLOR_ENTRY:
 144:Drivers/u8glib/src/u8g_pb8v2.c ****       break;
 145:Drivers/u8glib/src/u8g_pb8v2.c ****     case U8G_DEV_MSG_SET_XY_CB:
 146:Drivers/u8glib/src/u8g_pb8v2.c ****       break;
 147:Drivers/u8glib/src/u8g_pb8v2.c ****     case U8G_DEV_MSG_GET_MODE:
 148:Drivers/u8glib/src/u8g_pb8v2.c ****       return U8G_MODE_GRAY2BIT;
 560              		.loc 1 148 0
 561 00a4 0223     		movs	r3, #2
 562 00a6 01E0     		b	.L37
 563              	.L38:
 113:Drivers/u8glib/src/u8g_pb8v2.c ****     case U8G_DEV_MSG_SET_PIXEL:
 564              		.loc 1 113 0
 565 00a8 C046     		nop
 566              	.L21:
 149:Drivers/u8glib/src/u8g_pb8v2.c ****   }
 150:Drivers/u8glib/src/u8g_pb8v2.c ****   return 1;
 567              		.loc 1 150 0
 568 00aa 0123     		movs	r3, #1
 569              	.L37:
 151:Drivers/u8glib/src/u8g_pb8v2.c **** }
 570              		.loc 1 151 0
 571 00ac 1800     		movs	r0, r3
 572 00ae BD46     		mov	sp, r7
 573 00b0 06B0     		add	sp, sp, #24
 574              		@ sp needed
 575 00b2 80BD     		pop	{r7, pc}
 576              	.L40:
 577              		.align	2
 578              	.L39:
 579 00b4 00000000 		.word	.L23
 580              		.cfi_endproc
 581              	.LFE4:
 583              		.text
 584              	.Letext0:
 585              		.file 2 "/usr/arm-none-eabi/include/machine/_default_types.h"
 586              		.file 3 "/usr/arm-none-eabi/include/sys/_stdint.h"
 587              		.file 4 "Drivers/u8glib/inc/u8g.h"
 588              		.file 5 "/usr/arm-none-eabi/include/sys/lock.h"
 589              		.file 6 "/usr/arm-none-eabi/include/sys/_types.h"
 590              		.file 7 "/usr/lib/gcc/arm-none-eabi/6.2.0/include/stddef.h"
 591              		.file 8 "/usr/arm-none-eabi/include/sys/reent.h"
ARM GAS  /tmp/ccFGyqY8.s 			page 14

