ARM GAS  /tmp/ccDkMpGI.s 			page 1


   1              		.cpu cortex-m0
   2              		.eabi_attribute 20, 1
   3              		.eabi_attribute 21, 1
   4              		.eabi_attribute 23, 3
   5              		.eabi_attribute 24, 1
   6              		.eabi_attribute 25, 1
   7              		.eabi_attribute 26, 1
   8              		.eabi_attribute 30, 6
   9              		.eabi_attribute 34, 0
  10              		.eabi_attribute 18, 4
  11              		.file	"u8g_virtual_screen.c"
  12              		.text
  13              	.Ltext0:
  14              		.cfi_sections	.debug_frame
  15              		.global	u8g_vs_cnt
  16              		.section	.bss.u8g_vs_cnt,"aw",%nobits
  19              	u8g_vs_cnt:
  20 0000 00       		.space	1
  21              		.comm	u8g_vs_list,32,4
  22              		.comm	u8g_vs_current,1,1
  23              		.comm	u8g_vs_width,1,1
  24              		.comm	u8g_vs_height,1,1
  25              		.section	.text.u8g_dev_vs_fn,"ax",%progbits
  26              		.align	1
  27              		.global	u8g_dev_vs_fn
  28              		.syntax unified
  29              		.code	16
  30              		.thumb_func
  31              		.fpu softvfp
  33              	u8g_dev_vs_fn:
  34              	.LFB0:
  35              		.file 1 "Drivers/u8glib/src/u8g_virtual_screen.c"
   1:Drivers/u8glib/src/u8g_virtual_screen.c **** /*
   2:Drivers/u8glib/src/u8g_virtual_screen.c **** 
   3:Drivers/u8glib/src/u8g_virtual_screen.c ****   u8g_virtual_screen.c
   4:Drivers/u8glib/src/u8g_virtual_screen.c **** 
   5:Drivers/u8glib/src/u8g_virtual_screen.c ****   Universal 8bit Graphics Library
   6:Drivers/u8glib/src/u8g_virtual_screen.c ****   
   7:Drivers/u8glib/src/u8g_virtual_screen.c ****   Copyright (c) 2012, olikraus@gmail.com
   8:Drivers/u8glib/src/u8g_virtual_screen.c ****   All rights reserved.
   9:Drivers/u8glib/src/u8g_virtual_screen.c **** 
  10:Drivers/u8glib/src/u8g_virtual_screen.c ****   Redistribution and use in source and binary forms, with or without modification, 
  11:Drivers/u8glib/src/u8g_virtual_screen.c ****   are permitted provided that the following conditions are met:
  12:Drivers/u8glib/src/u8g_virtual_screen.c **** 
  13:Drivers/u8glib/src/u8g_virtual_screen.c ****   * Redistributions of source code must retain the above copyright notice, this list 
  14:Drivers/u8glib/src/u8g_virtual_screen.c ****     of conditions and the following disclaimer.
  15:Drivers/u8glib/src/u8g_virtual_screen.c ****     
  16:Drivers/u8glib/src/u8g_virtual_screen.c ****   * Redistributions in binary form must reproduce the above copyright notice, this 
  17:Drivers/u8glib/src/u8g_virtual_screen.c ****     list of conditions and the following disclaimer in the documentation and/or other 
  18:Drivers/u8glib/src/u8g_virtual_screen.c ****     materials provided with the distribution.
  19:Drivers/u8glib/src/u8g_virtual_screen.c **** 
  20:Drivers/u8glib/src/u8g_virtual_screen.c ****   THIS SOFTWARE IS PROVIDED BY THE COPYRIGHT HOLDERS AND 
  21:Drivers/u8glib/src/u8g_virtual_screen.c ****   CONTRIBUTORS "AS IS" AND ANY EXPRESS OR IMPLIED WARRANTIES, 
  22:Drivers/u8glib/src/u8g_virtual_screen.c ****   INCLUDING, BUT NOT LIMITED TO, THE IMPLIED WARRANTIES OF 
  23:Drivers/u8glib/src/u8g_virtual_screen.c ****   MERCHANTABILITY AND FITNESS FOR A PARTICULAR PURPOSE ARE 
  24:Drivers/u8glib/src/u8g_virtual_screen.c ****   DISCLAIMED. IN NO EVENT SHALL THE COPYRIGHT HOLDER OR 
  25:Drivers/u8glib/src/u8g_virtual_screen.c ****   CONTRIBUTORS BE LIABLE FOR ANY DIRECT, INDIRECT, INCIDENTAL, 
ARM GAS  /tmp/ccDkMpGI.s 			page 2


  26:Drivers/u8glib/src/u8g_virtual_screen.c ****   SPECIAL, EXEMPLARY, OR CONSEQUENTIAL DAMAGES (INCLUDING, BUT 
  27:Drivers/u8glib/src/u8g_virtual_screen.c ****   NOT LIMITED TO, PROCUREMENT OF SUBSTITUTE GOODS OR SERVICES; 
  28:Drivers/u8glib/src/u8g_virtual_screen.c ****   LOSS OF USE, DATA, OR PROFITS; OR BUSINESS INTERRUPTION) HOWEVER 
  29:Drivers/u8glib/src/u8g_virtual_screen.c ****   CAUSED AND ON ANY THEORY OF LIABILITY, WHETHER IN CONTRACT, 
  30:Drivers/u8glib/src/u8g_virtual_screen.c ****   STRICT LIABILITY, OR TORT (INCLUDING NEGLIGENCE OR OTHERWISE) 
  31:Drivers/u8glib/src/u8g_virtual_screen.c ****   ARISING IN ANY WAY OUT OF THE USE OF THIS SOFTWARE, EVEN IF 
  32:Drivers/u8glib/src/u8g_virtual_screen.c ****   ADVISED OF THE POSSIBILITY OF SUCH DAMAGE.  
  33:Drivers/u8glib/src/u8g_virtual_screen.c ****   
  34:Drivers/u8glib/src/u8g_virtual_screen.c ****   
  35:Drivers/u8glib/src/u8g_virtual_screen.c **** */
  36:Drivers/u8glib/src/u8g_virtual_screen.c **** 
  37:Drivers/u8glib/src/u8g_virtual_screen.c **** #include "u8g.h"
  38:Drivers/u8glib/src/u8g_virtual_screen.c **** 
  39:Drivers/u8glib/src/u8g_virtual_screen.c **** struct _u8g_vs_t
  40:Drivers/u8glib/src/u8g_virtual_screen.c **** {
  41:Drivers/u8glib/src/u8g_virtual_screen.c ****   u8g_uint_t x;
  42:Drivers/u8glib/src/u8g_virtual_screen.c ****   u8g_uint_t y;
  43:Drivers/u8glib/src/u8g_virtual_screen.c ****   u8g_t *u8g;
  44:Drivers/u8glib/src/u8g_virtual_screen.c **** };
  45:Drivers/u8glib/src/u8g_virtual_screen.c **** typedef struct _u8g_vs_t u8g_vs_t;
  46:Drivers/u8glib/src/u8g_virtual_screen.c **** 
  47:Drivers/u8glib/src/u8g_virtual_screen.c **** #define U8g_VS_MAX 4
  48:Drivers/u8glib/src/u8g_virtual_screen.c **** uint8_t u8g_vs_cnt = 0;
  49:Drivers/u8glib/src/u8g_virtual_screen.c **** u8g_vs_t u8g_vs_list[U8g_VS_MAX]; 
  50:Drivers/u8glib/src/u8g_virtual_screen.c **** uint8_t u8g_vs_current;
  51:Drivers/u8glib/src/u8g_virtual_screen.c **** u8g_uint_t u8g_vs_width;
  52:Drivers/u8glib/src/u8g_virtual_screen.c **** u8g_uint_t u8g_vs_height;
  53:Drivers/u8glib/src/u8g_virtual_screen.c **** 
  54:Drivers/u8glib/src/u8g_virtual_screen.c **** uint8_t u8g_dev_vs_fn(u8g_t *u8g, u8g_dev_t *dev, uint8_t msg, void *arg)
  55:Drivers/u8glib/src/u8g_virtual_screen.c **** {
  36              		.loc 1 55 0
  37              		.cfi_startproc
  38 0000 B0B5     		push	{r4, r5, r7, lr}
  39              	.LCFI0:
  40              		.cfi_def_cfa_offset 16
  41              		.cfi_offset 4, -16
  42              		.cfi_offset 5, -12
  43              		.cfi_offset 7, -8
  44              		.cfi_offset 14, -4
  45 0002 86B0     		sub	sp, sp, #24
  46              	.LCFI1:
  47              		.cfi_def_cfa_offset 40
  48 0004 00AF     		add	r7, sp, #0
  49              	.LCFI2:
  50              		.cfi_def_cfa_register 7
  51 0006 F860     		str	r0, [r7, #12]
  52 0008 B960     		str	r1, [r7, #8]
  53 000a 3B60     		str	r3, [r7]
  54 000c FB1D     		adds	r3, r7, #7
  55 000e 1A70     		strb	r2, [r3]
  56:Drivers/u8glib/src/u8g_virtual_screen.c ****   switch(msg)
  56              		.loc 1 56 0
  57 0010 FB1D     		adds	r3, r7, #7
  58 0012 1B78     		ldrb	r3, [r3]
  59 0014 143B     		subs	r3, r3, #20
  60 0016 332B     		cmp	r3, #51
  61 0018 04D8     		bhi	.L2
ARM GAS  /tmp/ccDkMpGI.s 			page 3


  62 001a 9A00     		lsls	r2, r3, #2
  63 001c 9F4B     		ldr	r3, .L22
  64 001e D318     		adds	r3, r2, r3
  65 0020 1B68     		ldr	r3, [r3]
  66 0022 9F46     		mov	pc, r3
  67              		.section	.rodata.u8g_dev_vs_fn,"a",%progbits
  68              		.align	2
  69              	.L4:
  70 0000 7C000000 		.word	.L3
  71 0004 BC000000 		.word	.L5
  72 0008 24000000 		.word	.L2
  73 000c 6A010000 		.word	.L6
  74 0010 24000000 		.word	.L2
  75 0014 24000000 		.word	.L2
  76 0018 24000000 		.word	.L2
  77 001c 24000000 		.word	.L2
  78 0020 24000000 		.word	.L2
  79 0024 24000000 		.word	.L2
  80 0028 24000000 		.word	.L2
  81 002c 24000000 		.word	.L2
  82 0030 24000000 		.word	.L2
  83 0034 24000000 		.word	.L2
  84 0038 24000000 		.word	.L2
  85 003c 24000000 		.word	.L2
  86 0040 24000000 		.word	.L2
  87 0044 24000000 		.word	.L2
  88 0048 24000000 		.word	.L2
  89 004c 24000000 		.word	.L2
  90 0050 24000000 		.word	.L2
  91 0054 24000000 		.word	.L2
  92 0058 24000000 		.word	.L2
  93 005c 24000000 		.word	.L2
  94 0060 24000000 		.word	.L2
  95 0064 24000000 		.word	.L2
  96 0068 24000000 		.word	.L2
  97 006c 24000000 		.word	.L2
  98 0070 24000000 		.word	.L2
  99 0074 24000000 		.word	.L2
 100 0078 22020000 		.word	.L7
 101 007c 24000000 		.word	.L2
 102 0080 24000000 		.word	.L2
 103 0084 24000000 		.word	.L2
 104 0088 24000000 		.word	.L2
 105 008c 24000000 		.word	.L2
 106 0090 24000000 		.word	.L2
 107 0094 24000000 		.word	.L2
 108 0098 24000000 		.word	.L2
 109 009c 22020000 		.word	.L7
 110 00a0 24000000 		.word	.L2
 111 00a4 24000000 		.word	.L2
 112 00a8 24000000 		.word	.L2
 113 00ac 24000000 		.word	.L2
 114 00b0 24000000 		.word	.L2
 115 00b4 24000000 		.word	.L2
 116 00b8 24000000 		.word	.L2
 117 00bc 24000000 		.word	.L2
 118 00c0 24000000 		.word	.L2
ARM GAS  /tmp/ccDkMpGI.s 			page 4


 119 00c4 24000000 		.word	.L2
 120 00c8 56010000 		.word	.L8
 121 00cc 60010000 		.word	.L9
 122              		.section	.text.u8g_dev_vs_fn
 123              	.L2:
 124              	.LBB2:
  57:Drivers/u8glib/src/u8g_virtual_screen.c ****   {
  58:Drivers/u8glib/src/u8g_virtual_screen.c ****     default:
  59:Drivers/u8glib/src/u8g_virtual_screen.c ****       {
  60:Drivers/u8glib/src/u8g_virtual_screen.c **** 	uint8_t i;
  61:Drivers/u8glib/src/u8g_virtual_screen.c **** 	for( i = 0; i < u8g_vs_cnt; i++ )
 125              		.loc 1 61 0
 126 0024 1723     		movs	r3, #23
 127 0026 FB18     		adds	r3, r7, r3
 128 0028 0022     		movs	r2, #0
 129 002a 1A70     		strb	r2, [r3]
 130 002c 1DE0     		b	.L10
 131              	.L11:
  62:Drivers/u8glib/src/u8g_virtual_screen.c **** 	{
  63:Drivers/u8glib/src/u8g_virtual_screen.c **** 	  u8g_call_dev_fn(u8g_vs_list[i].u8g, u8g_vs_list[i].u8g->dev, msg, arg);
 132              		.loc 1 63 0 discriminator 3
 133 002e 1723     		movs	r3, #23
 134 0030 FB18     		adds	r3, r7, r3
 135 0032 1B78     		ldrb	r3, [r3]
 136 0034 9A4A     		ldr	r2, .L22+4
 137 0036 DB00     		lsls	r3, r3, #3
 138 0038 D318     		adds	r3, r2, r3
 139 003a 0433     		adds	r3, r3, #4
 140 003c 1868     		ldr	r0, [r3]
 141 003e 1723     		movs	r3, #23
 142 0040 FB18     		adds	r3, r7, r3
 143 0042 1B78     		ldrb	r3, [r3]
 144 0044 964A     		ldr	r2, .L22+4
 145 0046 DB00     		lsls	r3, r3, #3
 146 0048 D318     		adds	r3, r2, r3
 147 004a 0433     		adds	r3, r3, #4
 148 004c 1B68     		ldr	r3, [r3]
 149 004e 5968     		ldr	r1, [r3, #4]
 150 0050 3C68     		ldr	r4, [r7]
 151 0052 FB1D     		adds	r3, r7, #7
 152 0054 1A78     		ldrb	r2, [r3]
 153 0056 2300     		movs	r3, r4
 154 0058 FFF7FEFF 		bl	u8g_call_dev_fn
  61:Drivers/u8glib/src/u8g_virtual_screen.c **** 	{
 155              		.loc 1 61 0 discriminator 3
 156 005c 1723     		movs	r3, #23
 157 005e FB18     		adds	r3, r7, r3
 158 0060 1A78     		ldrb	r2, [r3]
 159 0062 1723     		movs	r3, #23
 160 0064 FB18     		adds	r3, r7, r3
 161 0066 0132     		adds	r2, r2, #1
 162 0068 1A70     		strb	r2, [r3]
 163              	.L10:
  61:Drivers/u8glib/src/u8g_virtual_screen.c **** 	{
 164              		.loc 1 61 0 is_stmt 0 discriminator 1
 165 006a 8E4B     		ldr	r3, .L22+8
 166 006c 1B78     		ldrb	r3, [r3]
ARM GAS  /tmp/ccDkMpGI.s 			page 5


 167 006e 1722     		movs	r2, #23
 168 0070 BA18     		adds	r2, r7, r2
 169 0072 1278     		ldrb	r2, [r2]
 170 0074 9A42     		cmp	r2, r3
 171 0076 DAD3     		bcc	.L11
 172              	.LBE2:
  64:Drivers/u8glib/src/u8g_virtual_screen.c **** 	}
  65:Drivers/u8glib/src/u8g_virtual_screen.c ****       }
  66:Drivers/u8glib/src/u8g_virtual_screen.c ****       return 1;
 173              		.loc 1 66 0 is_stmt 1
 174 0078 0123     		movs	r3, #1
 175 007a 0AE1     		b	.L12
 176              	.L3:
  67:Drivers/u8glib/src/u8g_virtual_screen.c ****     case U8G_DEV_MSG_PAGE_FIRST:
  68:Drivers/u8glib/src/u8g_virtual_screen.c ****       u8g_vs_current = 0;
 177              		.loc 1 68 0
 178 007c 8A4B     		ldr	r3, .L22+12
 179 007e 0022     		movs	r2, #0
 180 0080 1A70     		strb	r2, [r3]
  69:Drivers/u8glib/src/u8g_virtual_screen.c ****       if ( u8g_vs_cnt != 0 )
 181              		.loc 1 69 0
 182 0082 884B     		ldr	r3, .L22+8
 183 0084 1B78     		ldrb	r3, [r3]
 184 0086 002B     		cmp	r3, #0
 185 0088 16D0     		beq	.L13
  70:Drivers/u8glib/src/u8g_virtual_screen.c **** 	return u8g_call_dev_fn(u8g_vs_list[u8g_vs_current].u8g, u8g_vs_list[u8g_vs_current].u8g->dev, msg,
 186              		.loc 1 70 0
 187 008a 874B     		ldr	r3, .L22+12
 188 008c 1B78     		ldrb	r3, [r3]
 189 008e 844A     		ldr	r2, .L22+4
 190 0090 DB00     		lsls	r3, r3, #3
 191 0092 D318     		adds	r3, r2, r3
 192 0094 0433     		adds	r3, r3, #4
 193 0096 1868     		ldr	r0, [r3]
 194 0098 834B     		ldr	r3, .L22+12
 195 009a 1B78     		ldrb	r3, [r3]
 196 009c 804A     		ldr	r2, .L22+4
 197 009e DB00     		lsls	r3, r3, #3
 198 00a0 D318     		adds	r3, r2, r3
 199 00a2 0433     		adds	r3, r3, #4
 200 00a4 1B68     		ldr	r3, [r3]
 201 00a6 5968     		ldr	r1, [r3, #4]
 202 00a8 3C68     		ldr	r4, [r7]
 203 00aa FB1D     		adds	r3, r7, #7
 204 00ac 1A78     		ldrb	r2, [r3]
 205 00ae 2300     		movs	r3, r4
 206 00b0 FFF7FEFF 		bl	u8g_call_dev_fn
 207 00b4 0300     		movs	r3, r0
 208 00b6 ECE0     		b	.L12
 209              	.L13:
  71:Drivers/u8glib/src/u8g_virtual_screen.c ****       return 0;
 210              		.loc 1 71 0
 211 00b8 0023     		movs	r3, #0
 212 00ba EAE0     		b	.L12
 213              	.L5:
 214              	.LBB3:
  72:Drivers/u8glib/src/u8g_virtual_screen.c ****     case U8G_DEV_MSG_PAGE_NEXT:
ARM GAS  /tmp/ccDkMpGI.s 			page 6


  73:Drivers/u8glib/src/u8g_virtual_screen.c ****       {	
  74:Drivers/u8glib/src/u8g_virtual_screen.c **** 	uint8_t ret = 0;
 215              		.loc 1 74 0
 216 00bc 1623     		movs	r3, #22
 217 00be FB18     		adds	r3, r7, r3
 218 00c0 0022     		movs	r2, #0
 219 00c2 1A70     		strb	r2, [r3]
  75:Drivers/u8glib/src/u8g_virtual_screen.c **** 	if ( u8g_vs_cnt != 0 )
 220              		.loc 1 75 0
 221 00c4 774B     		ldr	r3, .L22+8
 222 00c6 1B78     		ldrb	r3, [r3]
 223 00c8 002B     		cmp	r3, #0
 224 00ca 18D0     		beq	.L14
  76:Drivers/u8glib/src/u8g_virtual_screen.c **** 	  ret = u8g_call_dev_fn(u8g_vs_list[u8g_vs_current].u8g, u8g_vs_list[u8g_vs_current].u8g->dev, msg
 225              		.loc 1 76 0
 226 00cc 764B     		ldr	r3, .L22+12
 227 00ce 1B78     		ldrb	r3, [r3]
 228 00d0 734A     		ldr	r2, .L22+4
 229 00d2 DB00     		lsls	r3, r3, #3
 230 00d4 D318     		adds	r3, r2, r3
 231 00d6 0433     		adds	r3, r3, #4
 232 00d8 1868     		ldr	r0, [r3]
 233 00da 734B     		ldr	r3, .L22+12
 234 00dc 1B78     		ldrb	r3, [r3]
 235 00de 704A     		ldr	r2, .L22+4
 236 00e0 DB00     		lsls	r3, r3, #3
 237 00e2 D318     		adds	r3, r2, r3
 238 00e4 0433     		adds	r3, r3, #4
 239 00e6 1B68     		ldr	r3, [r3]
 240 00e8 5968     		ldr	r1, [r3, #4]
 241 00ea 1623     		movs	r3, #22
 242 00ec FC18     		adds	r4, r7, r3
 243 00ee 3D68     		ldr	r5, [r7]
 244 00f0 FB1D     		adds	r3, r7, #7
 245 00f2 1A78     		ldrb	r2, [r3]
 246 00f4 2B00     		movs	r3, r5
 247 00f6 FFF7FEFF 		bl	u8g_call_dev_fn
 248 00fa 0300     		movs	r3, r0
 249 00fc 2370     		strb	r3, [r4]
 250              	.L14:
  77:Drivers/u8glib/src/u8g_virtual_screen.c **** 	if ( ret != 0 )
 251              		.loc 1 77 0
 252 00fe 1623     		movs	r3, #22
 253 0100 FB18     		adds	r3, r7, r3
 254 0102 1B78     		ldrb	r3, [r3]
 255 0104 002B     		cmp	r3, #0
 256 0106 03D0     		beq	.L15
  78:Drivers/u8glib/src/u8g_virtual_screen.c **** 	  return ret;
 257              		.loc 1 78 0
 258 0108 1623     		movs	r3, #22
 259 010a FB18     		adds	r3, r7, r3
 260 010c 1B78     		ldrb	r3, [r3]
 261 010e C0E0     		b	.L12
 262              	.L15:
  79:Drivers/u8glib/src/u8g_virtual_screen.c **** 	u8g_vs_current++;	/* next device */
 263              		.loc 1 79 0
 264 0110 654B     		ldr	r3, .L22+12
ARM GAS  /tmp/ccDkMpGI.s 			page 7


 265 0112 1B78     		ldrb	r3, [r3]
 266 0114 0133     		adds	r3, r3, #1
 267 0116 DAB2     		uxtb	r2, r3
 268 0118 634B     		ldr	r3, .L22+12
 269 011a 1A70     		strb	r2, [r3]
  80:Drivers/u8glib/src/u8g_virtual_screen.c **** 	if ( u8g_vs_current >= u8g_vs_cnt )  /* reached end? */
 270              		.loc 1 80 0
 271 011c 624B     		ldr	r3, .L22+12
 272 011e 1A78     		ldrb	r2, [r3]
 273 0120 604B     		ldr	r3, .L22+8
 274 0122 1B78     		ldrb	r3, [r3]
 275 0124 9A42     		cmp	r2, r3
 276 0126 01D3     		bcc	.L16
  81:Drivers/u8glib/src/u8g_virtual_screen.c **** 	  return 0;
 277              		.loc 1 81 0
 278 0128 0023     		movs	r3, #0
 279 012a B2E0     		b	.L12
 280              	.L16:
  82:Drivers/u8glib/src/u8g_virtual_screen.c **** 	return u8g_call_dev_fn(u8g_vs_list[u8g_vs_current].u8g, u8g_vs_list[u8g_vs_current].u8g->dev, U8G_
 281              		.loc 1 82 0
 282 012c 5E4B     		ldr	r3, .L22+12
 283 012e 1B78     		ldrb	r3, [r3]
 284 0130 5B4A     		ldr	r2, .L22+4
 285 0132 DB00     		lsls	r3, r3, #3
 286 0134 D318     		adds	r3, r2, r3
 287 0136 0433     		adds	r3, r3, #4
 288 0138 1868     		ldr	r0, [r3]
 289 013a 5B4B     		ldr	r3, .L22+12
 290 013c 1B78     		ldrb	r3, [r3]
 291 013e 584A     		ldr	r2, .L22+4
 292 0140 DB00     		lsls	r3, r3, #3
 293 0142 D318     		adds	r3, r2, r3
 294 0144 0433     		adds	r3, r3, #4
 295 0146 1B68     		ldr	r3, [r3]
 296 0148 5968     		ldr	r1, [r3, #4]
 297 014a 3B68     		ldr	r3, [r7]
 298 014c 1422     		movs	r2, #20
 299 014e FFF7FEFF 		bl	u8g_call_dev_fn
 300 0152 0300     		movs	r3, r0
 301 0154 9DE0     		b	.L12
 302              	.L8:
 303              	.LBE3:
  83:Drivers/u8glib/src/u8g_virtual_screen.c ****       }
  84:Drivers/u8glib/src/u8g_virtual_screen.c ****     case U8G_DEV_MSG_GET_WIDTH:
  85:Drivers/u8glib/src/u8g_virtual_screen.c ****       *((u8g_uint_t *)arg) = u8g_vs_width;
 304              		.loc 1 85 0
 305 0156 554B     		ldr	r3, .L22+16
 306 0158 1A78     		ldrb	r2, [r3]
 307 015a 3B68     		ldr	r3, [r7]
 308 015c 1A70     		strb	r2, [r3]
  86:Drivers/u8glib/src/u8g_virtual_screen.c ****       break;
 309              		.loc 1 86 0
 310 015e 97E0     		b	.L17
 311              	.L9:
  87:Drivers/u8glib/src/u8g_virtual_screen.c ****     case U8G_DEV_MSG_GET_HEIGHT:
  88:Drivers/u8glib/src/u8g_virtual_screen.c ****       *((u8g_uint_t *)arg) = u8g_vs_height;
 312              		.loc 1 88 0
ARM GAS  /tmp/ccDkMpGI.s 			page 8


 313 0160 534B     		ldr	r3, .L22+20
 314 0162 1A78     		ldrb	r2, [r3]
 315 0164 3B68     		ldr	r3, [r7]
 316 0166 1A70     		strb	r2, [r3]
  89:Drivers/u8glib/src/u8g_virtual_screen.c ****       break;
 317              		.loc 1 89 0
 318 0168 92E0     		b	.L17
 319              	.L6:
  90:Drivers/u8glib/src/u8g_virtual_screen.c ****     case U8G_DEV_MSG_GET_PAGE_BOX:
  91:Drivers/u8glib/src/u8g_virtual_screen.c ****       if ( u8g_vs_current < u8g_vs_cnt )
 320              		.loc 1 91 0
 321 016a 4F4B     		ldr	r3, .L22+12
 322 016c 1A78     		ldrb	r2, [r3]
 323 016e 4D4B     		ldr	r3, .L22+8
 324 0170 1B78     		ldrb	r3, [r3]
 325 0172 9A42     		cmp	r2, r3
 326 0174 47D2     		bcs	.L18
  92:Drivers/u8glib/src/u8g_virtual_screen.c ****       {
  93:Drivers/u8glib/src/u8g_virtual_screen.c **** 	u8g_call_dev_fn(u8g_vs_list[u8g_vs_current].u8g, u8g_vs_list[u8g_vs_current].u8g->dev, msg, arg);
 327              		.loc 1 93 0
 328 0176 4C4B     		ldr	r3, .L22+12
 329 0178 1B78     		ldrb	r3, [r3]
 330 017a 494A     		ldr	r2, .L22+4
 331 017c DB00     		lsls	r3, r3, #3
 332 017e D318     		adds	r3, r2, r3
 333 0180 0433     		adds	r3, r3, #4
 334 0182 1868     		ldr	r0, [r3]
 335 0184 484B     		ldr	r3, .L22+12
 336 0186 1B78     		ldrb	r3, [r3]
 337 0188 454A     		ldr	r2, .L22+4
 338 018a DB00     		lsls	r3, r3, #3
 339 018c D318     		adds	r3, r2, r3
 340 018e 0433     		adds	r3, r3, #4
 341 0190 1B68     		ldr	r3, [r3]
 342 0192 5968     		ldr	r1, [r3, #4]
 343 0194 3C68     		ldr	r4, [r7]
 344 0196 FB1D     		adds	r3, r7, #7
 345 0198 1A78     		ldrb	r2, [r3]
 346 019a 2300     		movs	r3, r4
 347 019c FFF7FEFF 		bl	u8g_call_dev_fn
  94:Drivers/u8glib/src/u8g_virtual_screen.c **** 	((u8g_box_t *)arg)->x0 += u8g_vs_list[u8g_vs_current].x;
 348              		.loc 1 94 0
 349 01a0 3B68     		ldr	r3, [r7]
 350 01a2 1A78     		ldrb	r2, [r3]
 351 01a4 404B     		ldr	r3, .L22+12
 352 01a6 1B78     		ldrb	r3, [r3]
 353 01a8 1900     		movs	r1, r3
 354 01aa 3D4B     		ldr	r3, .L22+4
 355 01ac C900     		lsls	r1, r1, #3
 356 01ae CB5C     		ldrb	r3, [r1, r3]
 357 01b0 D318     		adds	r3, r2, r3
 358 01b2 DAB2     		uxtb	r2, r3
 359 01b4 3B68     		ldr	r3, [r7]
 360 01b6 1A70     		strb	r2, [r3]
  95:Drivers/u8glib/src/u8g_virtual_screen.c **** 	((u8g_box_t *)arg)->x1 += u8g_vs_list[u8g_vs_current].x;
 361              		.loc 1 95 0
 362 01b8 3B68     		ldr	r3, [r7]
ARM GAS  /tmp/ccDkMpGI.s 			page 9


 363 01ba 9A78     		ldrb	r2, [r3, #2]
 364 01bc 3A4B     		ldr	r3, .L22+12
 365 01be 1B78     		ldrb	r3, [r3]
 366 01c0 1900     		movs	r1, r3
 367 01c2 374B     		ldr	r3, .L22+4
 368 01c4 C900     		lsls	r1, r1, #3
 369 01c6 CB5C     		ldrb	r3, [r1, r3]
 370 01c8 D318     		adds	r3, r2, r3
 371 01ca DAB2     		uxtb	r2, r3
 372 01cc 3B68     		ldr	r3, [r7]
 373 01ce 9A70     		strb	r2, [r3, #2]
  96:Drivers/u8glib/src/u8g_virtual_screen.c **** 	((u8g_box_t *)arg)->y0 += u8g_vs_list[u8g_vs_current].y;
 374              		.loc 1 96 0
 375 01d0 3B68     		ldr	r3, [r7]
 376 01d2 5A78     		ldrb	r2, [r3, #1]
 377 01d4 344B     		ldr	r3, .L22+12
 378 01d6 1B78     		ldrb	r3, [r3]
 379 01d8 3149     		ldr	r1, .L22+4
 380 01da DB00     		lsls	r3, r3, #3
 381 01dc CB18     		adds	r3, r1, r3
 382 01de 0133     		adds	r3, r3, #1
 383 01e0 1B78     		ldrb	r3, [r3]
 384 01e2 D318     		adds	r3, r2, r3
 385 01e4 DAB2     		uxtb	r2, r3
 386 01e6 3B68     		ldr	r3, [r7]
 387 01e8 5A70     		strb	r2, [r3, #1]
  97:Drivers/u8glib/src/u8g_virtual_screen.c **** 	((u8g_box_t *)arg)->y1 += u8g_vs_list[u8g_vs_current].y;
 388              		.loc 1 97 0
 389 01ea 3B68     		ldr	r3, [r7]
 390 01ec DA78     		ldrb	r2, [r3, #3]
 391 01ee 2E4B     		ldr	r3, .L22+12
 392 01f0 1B78     		ldrb	r3, [r3]
 393 01f2 2B49     		ldr	r1, .L22+4
 394 01f4 DB00     		lsls	r3, r3, #3
 395 01f6 CB18     		adds	r3, r1, r3
 396 01f8 0133     		adds	r3, r3, #1
 397 01fa 1B78     		ldrb	r3, [r3]
 398 01fc D318     		adds	r3, r2, r3
 399 01fe DAB2     		uxtb	r2, r3
 400 0200 3B68     		ldr	r3, [r7]
 401 0202 DA70     		strb	r2, [r3, #3]
 402 0204 0BE0     		b	.L19
 403              	.L18:
  98:Drivers/u8glib/src/u8g_virtual_screen.c ****       }
  99:Drivers/u8glib/src/u8g_virtual_screen.c ****       else
 100:Drivers/u8glib/src/u8g_virtual_screen.c ****       {
 101:Drivers/u8glib/src/u8g_virtual_screen.c **** 	((u8g_box_t *)arg)->x0 = 0;
 404              		.loc 1 101 0
 405 0206 3B68     		ldr	r3, [r7]
 406 0208 0022     		movs	r2, #0
 407 020a 1A70     		strb	r2, [r3]
 102:Drivers/u8glib/src/u8g_virtual_screen.c **** 	((u8g_box_t *)arg)->x1 = 0;
 408              		.loc 1 102 0
 409 020c 3B68     		ldr	r3, [r7]
 410 020e 0022     		movs	r2, #0
 411 0210 9A70     		strb	r2, [r3, #2]
 103:Drivers/u8glib/src/u8g_virtual_screen.c **** 	((u8g_box_t *)arg)->y0 = 0;
ARM GAS  /tmp/ccDkMpGI.s 			page 10


 412              		.loc 1 103 0
 413 0212 3B68     		ldr	r3, [r7]
 414 0214 0022     		movs	r2, #0
 415 0216 5A70     		strb	r2, [r3, #1]
 104:Drivers/u8glib/src/u8g_virtual_screen.c **** 	((u8g_box_t *)arg)->y1 = 0;
 416              		.loc 1 104 0
 417 0218 3B68     		ldr	r3, [r7]
 418 021a 0022     		movs	r2, #0
 419 021c DA70     		strb	r2, [r3, #3]
 420              	.L19:
 105:Drivers/u8glib/src/u8g_virtual_screen.c ****       }
 106:Drivers/u8glib/src/u8g_virtual_screen.c ****       return 1;
 421              		.loc 1 106 0
 422 021e 0123     		movs	r3, #1
 423 0220 37E0     		b	.L12
 424              	.L7:
 107:Drivers/u8glib/src/u8g_virtual_screen.c ****     case U8G_DEV_MSG_SET_PIXEL:
 108:Drivers/u8glib/src/u8g_virtual_screen.c ****     case U8G_DEV_MSG_SET_8PIXEL:
 109:Drivers/u8glib/src/u8g_virtual_screen.c ****       if ( u8g_vs_current < u8g_vs_cnt )
 425              		.loc 1 109 0
 426 0222 214B     		ldr	r3, .L22+12
 427 0224 1A78     		ldrb	r2, [r3]
 428 0226 1F4B     		ldr	r3, .L22+8
 429 0228 1B78     		ldrb	r3, [r3]
 430 022a 9A42     		cmp	r2, r3
 431 022c 2FD2     		bcs	.L21
 110:Drivers/u8glib/src/u8g_virtual_screen.c ****       {
 111:Drivers/u8glib/src/u8g_virtual_screen.c ****         ((u8g_dev_arg_pixel_t *)arg)->x -= u8g_vs_list[u8g_vs_current].x;
 432              		.loc 1 111 0
 433 022e 3B68     		ldr	r3, [r7]
 434 0230 1A78     		ldrb	r2, [r3]
 435 0232 1D4B     		ldr	r3, .L22+12
 436 0234 1B78     		ldrb	r3, [r3]
 437 0236 1900     		movs	r1, r3
 438 0238 194B     		ldr	r3, .L22+4
 439 023a C900     		lsls	r1, r1, #3
 440 023c CB5C     		ldrb	r3, [r1, r3]
 441 023e D31A     		subs	r3, r2, r3
 442 0240 DAB2     		uxtb	r2, r3
 443 0242 3B68     		ldr	r3, [r7]
 444 0244 1A70     		strb	r2, [r3]
 112:Drivers/u8glib/src/u8g_virtual_screen.c ****         ((u8g_dev_arg_pixel_t *)arg)->y -= u8g_vs_list[u8g_vs_current].y;
 445              		.loc 1 112 0
 446 0246 3B68     		ldr	r3, [r7]
 447 0248 5A78     		ldrb	r2, [r3, #1]
 448 024a 174B     		ldr	r3, .L22+12
 449 024c 1B78     		ldrb	r3, [r3]
 450 024e 1449     		ldr	r1, .L22+4
 451 0250 DB00     		lsls	r3, r3, #3
 452 0252 CB18     		adds	r3, r1, r3
 453 0254 0133     		adds	r3, r3, #1
 454 0256 1B78     		ldrb	r3, [r3]
 455 0258 D31A     		subs	r3, r2, r3
 456 025a DAB2     		uxtb	r2, r3
 457 025c 3B68     		ldr	r3, [r7]
 458 025e 5A70     		strb	r2, [r3, #1]
 113:Drivers/u8glib/src/u8g_virtual_screen.c **** 	return u8g_call_dev_fn(u8g_vs_list[u8g_vs_current].u8g, u8g_vs_list[u8g_vs_current].u8g->dev, msg,
ARM GAS  /tmp/ccDkMpGI.s 			page 11


 459              		.loc 1 113 0
 460 0260 114B     		ldr	r3, .L22+12
 461 0262 1B78     		ldrb	r3, [r3]
 462 0264 0E4A     		ldr	r2, .L22+4
 463 0266 DB00     		lsls	r3, r3, #3
 464 0268 D318     		adds	r3, r2, r3
 465 026a 0433     		adds	r3, r3, #4
 466 026c 1868     		ldr	r0, [r3]
 467 026e 0E4B     		ldr	r3, .L22+12
 468 0270 1B78     		ldrb	r3, [r3]
 469 0272 0B4A     		ldr	r2, .L22+4
 470 0274 DB00     		lsls	r3, r3, #3
 471 0276 D318     		adds	r3, r2, r3
 472 0278 0433     		adds	r3, r3, #4
 473 027a 1B68     		ldr	r3, [r3]
 474 027c 5968     		ldr	r1, [r3, #4]
 475 027e 3C68     		ldr	r4, [r7]
 476 0280 FB1D     		adds	r3, r7, #7
 477 0282 1A78     		ldrb	r2, [r3]
 478 0284 2300     		movs	r3, r4
 479 0286 FFF7FEFF 		bl	u8g_call_dev_fn
 480 028a 0300     		movs	r3, r0
 481 028c 01E0     		b	.L12
 482              	.L21:
 114:Drivers/u8glib/src/u8g_virtual_screen.c ****       }
 115:Drivers/u8glib/src/u8g_virtual_screen.c ****       break;
 483              		.loc 1 115 0
 484 028e C046     		nop
 485              	.L17:
 116:Drivers/u8glib/src/u8g_virtual_screen.c ****   }
 117:Drivers/u8glib/src/u8g_virtual_screen.c ****   return 1;
 486              		.loc 1 117 0
 487 0290 0123     		movs	r3, #1
 488              	.L12:
 118:Drivers/u8glib/src/u8g_virtual_screen.c **** }
 489              		.loc 1 118 0
 490 0292 1800     		movs	r0, r3
 491 0294 BD46     		mov	sp, r7
 492 0296 06B0     		add	sp, sp, #24
 493              		@ sp needed
 494 0298 B0BD     		pop	{r4, r5, r7, pc}
 495              	.L23:
 496 029a C046     		.align	2
 497              	.L22:
 498 029c 00000000 		.word	.L4
 499 02a0 00000000 		.word	u8g_vs_list
 500 02a4 00000000 		.word	u8g_vs_cnt
 501 02a8 00000000 		.word	u8g_vs_current
 502 02ac 00000000 		.word	u8g_vs_width
 503 02b0 00000000 		.word	u8g_vs_height
 504              		.cfi_endproc
 505              	.LFE0:
 507              		.global	u8g_dev_vs
 508              		.section	.data.u8g_dev_vs,"aw",%progbits
 509              		.align	2
 512              	u8g_dev_vs:
 513 0000 00000000 		.word	u8g_dev_vs_fn
ARM GAS  /tmp/ccDkMpGI.s 			page 12


 514 0004 00000000 		.word	0
 515 0008 00000000 		.word	0
 516              		.section	.text.u8g_SetVirtualScreenDimension,"ax",%progbits
 517              		.align	1
 518              		.global	u8g_SetVirtualScreenDimension
 519              		.syntax unified
 520              		.code	16
 521              		.thumb_func
 522              		.fpu softvfp
 524              	u8g_SetVirtualScreenDimension:
 525              	.LFB1:
 119:Drivers/u8glib/src/u8g_virtual_screen.c **** 
 120:Drivers/u8glib/src/u8g_virtual_screen.c **** 
 121:Drivers/u8glib/src/u8g_virtual_screen.c **** 
 122:Drivers/u8glib/src/u8g_virtual_screen.c **** u8g_dev_t u8g_dev_vs = { u8g_dev_vs_fn, NULL, NULL };
 123:Drivers/u8glib/src/u8g_virtual_screen.c **** 
 124:Drivers/u8glib/src/u8g_virtual_screen.c **** void u8g_SetVirtualScreenDimension(u8g_t *vs_u8g, u8g_uint_t width, u8g_uint_t height)
 125:Drivers/u8glib/src/u8g_virtual_screen.c **** {
 526              		.loc 1 125 0
 527              		.cfi_startproc
 528 0000 80B5     		push	{r7, lr}
 529              	.LCFI3:
 530              		.cfi_def_cfa_offset 8
 531              		.cfi_offset 7, -8
 532              		.cfi_offset 14, -4
 533 0002 82B0     		sub	sp, sp, #8
 534              	.LCFI4:
 535              		.cfi_def_cfa_offset 16
 536 0004 00AF     		add	r7, sp, #0
 537              	.LCFI5:
 538              		.cfi_def_cfa_register 7
 539 0006 7860     		str	r0, [r7, #4]
 540 0008 0800     		movs	r0, r1
 541 000a 1100     		movs	r1, r2
 542 000c FB1C     		adds	r3, r7, #3
 543 000e 021C     		adds	r2, r0, #0
 544 0010 1A70     		strb	r2, [r3]
 545 0012 BB1C     		adds	r3, r7, #2
 546 0014 0A1C     		adds	r2, r1, #0
 547 0016 1A70     		strb	r2, [r3]
 126:Drivers/u8glib/src/u8g_virtual_screen.c ****   if ( vs_u8g->dev != &u8g_dev_vs )
 548              		.loc 1 126 0
 549 0018 7B68     		ldr	r3, [r7, #4]
 550 001a 5A68     		ldr	r2, [r3, #4]
 551 001c 074B     		ldr	r3, .L28
 552 001e 9A42     		cmp	r2, r3
 553 0020 08D1     		bne	.L27
 127:Drivers/u8glib/src/u8g_virtual_screen.c ****     return; 	/* abort if there is no a virtual screen device */
 128:Drivers/u8glib/src/u8g_virtual_screen.c ****   u8g_vs_width = width;
 554              		.loc 1 128 0
 555 0022 074B     		ldr	r3, .L28+4
 556 0024 FA1C     		adds	r2, r7, #3
 557 0026 1278     		ldrb	r2, [r2]
 558 0028 1A70     		strb	r2, [r3]
 129:Drivers/u8glib/src/u8g_virtual_screen.c ****   u8g_vs_height = height;  
 559              		.loc 1 129 0
 560 002a 064B     		ldr	r3, .L28+8
ARM GAS  /tmp/ccDkMpGI.s 			page 13


 561 002c BA1C     		adds	r2, r7, #2
 562 002e 1278     		ldrb	r2, [r2]
 563 0030 1A70     		strb	r2, [r3]
 564 0032 00E0     		b	.L24
 565              	.L27:
 127:Drivers/u8glib/src/u8g_virtual_screen.c ****     return; 	/* abort if there is no a virtual screen device */
 566              		.loc 1 127 0
 567 0034 C046     		nop
 568              	.L24:
 130:Drivers/u8glib/src/u8g_virtual_screen.c **** }
 569              		.loc 1 130 0
 570 0036 BD46     		mov	sp, r7
 571 0038 02B0     		add	sp, sp, #8
 572              		@ sp needed
 573 003a 80BD     		pop	{r7, pc}
 574              	.L29:
 575              		.align	2
 576              	.L28:
 577 003c 00000000 		.word	u8g_dev_vs
 578 0040 00000000 		.word	u8g_vs_width
 579 0044 00000000 		.word	u8g_vs_height
 580              		.cfi_endproc
 581              	.LFE1:
 583              		.section	.text.u8g_AddToVirtualScreen,"ax",%progbits
 584              		.align	1
 585              		.global	u8g_AddToVirtualScreen
 586              		.syntax unified
 587              		.code	16
 588              		.thumb_func
 589              		.fpu softvfp
 591              	u8g_AddToVirtualScreen:
 592              	.LFB2:
 131:Drivers/u8glib/src/u8g_virtual_screen.c **** 
 132:Drivers/u8glib/src/u8g_virtual_screen.c **** uint8_t u8g_AddToVirtualScreen(u8g_t *vs_u8g, u8g_uint_t x, u8g_uint_t y, u8g_t *child_u8g)
 133:Drivers/u8glib/src/u8g_virtual_screen.c **** {
 593              		.loc 1 133 0
 594              		.cfi_startproc
 595 0000 80B5     		push	{r7, lr}
 596              	.LCFI6:
 597              		.cfi_def_cfa_offset 8
 598              		.cfi_offset 7, -8
 599              		.cfi_offset 14, -4
 600 0002 84B0     		sub	sp, sp, #16
 601              	.LCFI7:
 602              		.cfi_def_cfa_offset 24
 603 0004 00AF     		add	r7, sp, #0
 604              	.LCFI8:
 605              		.cfi_def_cfa_register 7
 606 0006 F860     		str	r0, [r7, #12]
 607 0008 0800     		movs	r0, r1
 608 000a 1100     		movs	r1, r2
 609 000c 7B60     		str	r3, [r7, #4]
 610 000e 0B23     		movs	r3, #11
 611 0010 FB18     		adds	r3, r7, r3
 612 0012 021C     		adds	r2, r0, #0
 613 0014 1A70     		strb	r2, [r3]
 614 0016 0A23     		movs	r3, #10
ARM GAS  /tmp/ccDkMpGI.s 			page 14


 615 0018 FB18     		adds	r3, r7, r3
 616 001a 0A1C     		adds	r2, r1, #0
 617 001c 1A70     		strb	r2, [r3]
 134:Drivers/u8glib/src/u8g_virtual_screen.c ****   if ( vs_u8g->dev != &u8g_dev_vs )
 618              		.loc 1 134 0
 619 001e FB68     		ldr	r3, [r7, #12]
 620 0020 5A68     		ldr	r2, [r3, #4]
 621 0022 184B     		ldr	r3, .L34
 622 0024 9A42     		cmp	r2, r3
 623 0026 01D0     		beq	.L31
 135:Drivers/u8glib/src/u8g_virtual_screen.c ****     return 0; 	/* abort if there is no a virtual screen device */
 624              		.loc 1 135 0
 625 0028 0023     		movs	r3, #0
 626 002a 27E0     		b	.L32
 627              	.L31:
 136:Drivers/u8glib/src/u8g_virtual_screen.c ****   if ( u8g_vs_cnt >= U8g_VS_MAX )
 628              		.loc 1 136 0
 629 002c 164B     		ldr	r3, .L34+4
 630 002e 1B78     		ldrb	r3, [r3]
 631 0030 032B     		cmp	r3, #3
 632 0032 01D9     		bls	.L33
 137:Drivers/u8glib/src/u8g_virtual_screen.c ****     return 0;  	/* maximum number of  child u8g's reached */
 633              		.loc 1 137 0
 634 0034 0023     		movs	r3, #0
 635 0036 21E0     		b	.L32
 636              	.L33:
 138:Drivers/u8glib/src/u8g_virtual_screen.c ****   u8g_vs_list[u8g_vs_cnt].u8g = child_u8g;
 637              		.loc 1 138 0
 638 0038 134B     		ldr	r3, .L34+4
 639 003a 1B78     		ldrb	r3, [r3]
 640 003c 134A     		ldr	r2, .L34+8
 641 003e DB00     		lsls	r3, r3, #3
 642 0040 D318     		adds	r3, r2, r3
 643 0042 0433     		adds	r3, r3, #4
 644 0044 7A68     		ldr	r2, [r7, #4]
 645 0046 1A60     		str	r2, [r3]
 139:Drivers/u8glib/src/u8g_virtual_screen.c ****   u8g_vs_list[u8g_vs_cnt].x = x;
 646              		.loc 1 139 0
 647 0048 0F4B     		ldr	r3, .L34+4
 648 004a 1B78     		ldrb	r3, [r3]
 649 004c 1A00     		movs	r2, r3
 650 004e 0F4B     		ldr	r3, .L34+8
 651 0050 D200     		lsls	r2, r2, #3
 652 0052 0B21     		movs	r1, #11
 653 0054 7918     		adds	r1, r7, r1
 654 0056 0978     		ldrb	r1, [r1]
 655 0058 D154     		strb	r1, [r2, r3]
 140:Drivers/u8glib/src/u8g_virtual_screen.c ****   u8g_vs_list[u8g_vs_cnt].y = y;
 656              		.loc 1 140 0
 657 005a 0B4B     		ldr	r3, .L34+4
 658 005c 1B78     		ldrb	r3, [r3]
 659 005e 0B4A     		ldr	r2, .L34+8
 660 0060 DB00     		lsls	r3, r3, #3
 661 0062 D318     		adds	r3, r2, r3
 662 0064 0133     		adds	r3, r3, #1
 663 0066 0A22     		movs	r2, #10
 664 0068 BA18     		adds	r2, r7, r2
ARM GAS  /tmp/ccDkMpGI.s 			page 15


 665 006a 1278     		ldrb	r2, [r2]
 666 006c 1A70     		strb	r2, [r3]
 141:Drivers/u8glib/src/u8g_virtual_screen.c ****   u8g_vs_cnt++;
 667              		.loc 1 141 0
 668 006e 064B     		ldr	r3, .L34+4
 669 0070 1B78     		ldrb	r3, [r3]
 670 0072 0133     		adds	r3, r3, #1
 671 0074 DAB2     		uxtb	r2, r3
 672 0076 044B     		ldr	r3, .L34+4
 673 0078 1A70     		strb	r2, [r3]
 142:Drivers/u8glib/src/u8g_virtual_screen.c ****   return 1;
 674              		.loc 1 142 0
 675 007a 0123     		movs	r3, #1
 676              	.L32:
 143:Drivers/u8glib/src/u8g_virtual_screen.c **** }
 677              		.loc 1 143 0
 678 007c 1800     		movs	r0, r3
 679 007e BD46     		mov	sp, r7
 680 0080 04B0     		add	sp, sp, #16
 681              		@ sp needed
 682 0082 80BD     		pop	{r7, pc}
 683              	.L35:
 684              		.align	2
 685              	.L34:
 686 0084 00000000 		.word	u8g_dev_vs
 687 0088 00000000 		.word	u8g_vs_cnt
 688 008c 00000000 		.word	u8g_vs_list
 689              		.cfi_endproc
 690              	.LFE2:
 692              		.text
 693              	.Letext0:
 694              		.file 2 "/usr/arm-none-eabi/include/machine/_default_types.h"
 695              		.file 3 "/usr/arm-none-eabi/include/sys/_stdint.h"
 696              		.file 4 "Drivers/u8glib/inc/u8g.h"
ARM GAS  /tmp/ccDkMpGI.s 			page 16

