ARM GAS  /tmp/ccoe7UtO.s 			page 1


   1              		.cpu cortex-m0
   2              		.eabi_attribute 20, 1
   3              		.eabi_attribute 21, 1
   4              		.eabi_attribute 23, 3
   5              		.eabi_attribute 24, 1
   6              		.eabi_attribute 25, 1
   7              		.eabi_attribute 26, 1
   8              		.eabi_attribute 30, 6
   9              		.eabi_attribute 34, 0
  10              		.eabi_attribute 18, 4
  11              		.file	"u8g_dev_ks0108_128x64.c"
  12              		.text
  13              	.Ltext0:
  14              		.cfi_sections	.debug_frame
  15              		.section	.rodata.u8g_dev_ks0108_128x64_init_seq,"a",%progbits
  16              		.align	2
  19              	u8g_dev_ks0108_128x64_init_seq:
  20 0000 FF       		.byte	-1
  21 0001 D0       		.byte	-48
  22 0002 FF       		.byte	-1
  23 0003 E0       		.byte	-32
  24 0004 FF       		.byte	-1
  25 0005 C1       		.byte	-63
  26 0006 FF       		.byte	-1
  27 0007 D1       		.byte	-47
  28 0008 3F       		.byte	63
  29 0009 C0       		.byte	-64
  30 000a FF       		.byte	-1
  31 000b 14       		.byte	20
  32 000c FF       		.byte	-1
  33 000d D2       		.byte	-46
  34 000e 3F       		.byte	63
  35 000f C0       		.byte	-64
  36 0010 FF       		.byte	-1
  37 0011 14       		.byte	20
  38 0012 FF       		.byte	-1
  39 0013 D0       		.byte	-48
  40 0014 FF       		.byte	-1
  41 0015 FE       		.byte	-2
  42              		.section	.text.u8g_dev_ks0108_128x64_fn,"ax",%progbits
  43              		.align	1
  44              		.global	u8g_dev_ks0108_128x64_fn
  45              		.syntax unified
  46              		.code	16
  47              		.thumb_func
  48              		.fpu softvfp
  50              	u8g_dev_ks0108_128x64_fn:
  51              	.LFB0:
  52              		.file 1 "Drivers/u8glib/src/u8g_dev_ks0108_128x64.c"
   1:Drivers/u8glib/src/u8g_dev_ks0108_128x64.c **** /*
   2:Drivers/u8glib/src/u8g_dev_ks0108_128x64.c **** 
   3:Drivers/u8glib/src/u8g_dev_ks0108_128x64.c ****   u8g_dev_ks0108_128x64.c
   4:Drivers/u8glib/src/u8g_dev_ks0108_128x64.c **** 
   5:Drivers/u8glib/src/u8g_dev_ks0108_128x64.c ****   Universal 8bit Graphics Library
   6:Drivers/u8glib/src/u8g_dev_ks0108_128x64.c ****   
   7:Drivers/u8glib/src/u8g_dev_ks0108_128x64.c ****   Copyright (c) 2011, olikraus@gmail.com
   8:Drivers/u8glib/src/u8g_dev_ks0108_128x64.c ****   All rights reserved.
ARM GAS  /tmp/ccoe7UtO.s 			page 2


   9:Drivers/u8glib/src/u8g_dev_ks0108_128x64.c **** 
  10:Drivers/u8glib/src/u8g_dev_ks0108_128x64.c ****   Redistribution and use in source and binary forms, with or without modification, 
  11:Drivers/u8glib/src/u8g_dev_ks0108_128x64.c ****   are permitted provided that the following conditions are met:
  12:Drivers/u8glib/src/u8g_dev_ks0108_128x64.c **** 
  13:Drivers/u8glib/src/u8g_dev_ks0108_128x64.c ****   * Redistributions of source code must retain the above copyright notice, this list 
  14:Drivers/u8glib/src/u8g_dev_ks0108_128x64.c ****     of conditions and the following disclaimer.
  15:Drivers/u8glib/src/u8g_dev_ks0108_128x64.c ****     
  16:Drivers/u8glib/src/u8g_dev_ks0108_128x64.c ****   * Redistributions in binary form must reproduce the above copyright notice, this 
  17:Drivers/u8glib/src/u8g_dev_ks0108_128x64.c ****     list of conditions and the following disclaimer in the documentation and/or other 
  18:Drivers/u8glib/src/u8g_dev_ks0108_128x64.c ****     materials provided with the distribution.
  19:Drivers/u8glib/src/u8g_dev_ks0108_128x64.c **** 
  20:Drivers/u8glib/src/u8g_dev_ks0108_128x64.c ****   THIS SOFTWARE IS PROVIDED BY THE COPYRIGHT HOLDERS AND 
  21:Drivers/u8glib/src/u8g_dev_ks0108_128x64.c ****   CONTRIBUTORS "AS IS" AND ANY EXPRESS OR IMPLIED WARRANTIES, 
  22:Drivers/u8glib/src/u8g_dev_ks0108_128x64.c ****   INCLUDING, BUT NOT LIMITED TO, THE IMPLIED WARRANTIES OF 
  23:Drivers/u8glib/src/u8g_dev_ks0108_128x64.c ****   MERCHANTABILITY AND FITNESS FOR A PARTICULAR PURPOSE ARE 
  24:Drivers/u8glib/src/u8g_dev_ks0108_128x64.c ****   DISCLAIMED. IN NO EVENT SHALL THE COPYRIGHT HOLDER OR 
  25:Drivers/u8glib/src/u8g_dev_ks0108_128x64.c ****   CONTRIBUTORS BE LIABLE FOR ANY DIRECT, INDIRECT, INCIDENTAL, 
  26:Drivers/u8glib/src/u8g_dev_ks0108_128x64.c ****   SPECIAL, EXEMPLARY, OR CONSEQUENTIAL DAMAGES (INCLUDING, BUT 
  27:Drivers/u8glib/src/u8g_dev_ks0108_128x64.c ****   NOT LIMITED TO, PROCUREMENT OF SUBSTITUTE GOODS OR SERVICES; 
  28:Drivers/u8glib/src/u8g_dev_ks0108_128x64.c ****   LOSS OF USE, DATA, OR PROFITS; OR BUSINESS INTERRUPTION) HOWEVER 
  29:Drivers/u8glib/src/u8g_dev_ks0108_128x64.c ****   CAUSED AND ON ANY THEORY OF LIABILITY, WHETHER IN CONTRACT, 
  30:Drivers/u8glib/src/u8g_dev_ks0108_128x64.c ****   STRICT LIABILITY, OR TORT (INCLUDING NEGLIGENCE OR OTHERWISE) 
  31:Drivers/u8glib/src/u8g_dev_ks0108_128x64.c ****   ARISING IN ANY WAY OUT OF THE USE OF THIS SOFTWARE, EVEN IF 
  32:Drivers/u8glib/src/u8g_dev_ks0108_128x64.c ****   ADVISED OF THE POSSIBILITY OF SUCH DAMAGE.  
  33:Drivers/u8glib/src/u8g_dev_ks0108_128x64.c ****   
  34:Drivers/u8glib/src/u8g_dev_ks0108_128x64.c **** 
  35:Drivers/u8glib/src/u8g_dev_ks0108_128x64.c ****   ADDRESS = 0   (Command Mode)
  36:Drivers/u8glib/src/u8g_dev_ks0108_128x64.c ****     0x03f       Display On
  37:Drivers/u8glib/src/u8g_dev_ks0108_128x64.c ****     0x0c0       Start Display at line 0
  38:Drivers/u8glib/src/u8g_dev_ks0108_128x64.c ****     0x040 | y   write to y address (y:0..63)
  39:Drivers/u8glib/src/u8g_dev_ks0108_128x64.c ****     0x0b8 | x   write to page [0..7]
  40:Drivers/u8glib/src/u8g_dev_ks0108_128x64.c **** 
  41:Drivers/u8glib/src/u8g_dev_ks0108_128x64.c **** 
  42:Drivers/u8glib/src/u8g_dev_ks0108_128x64.c ****   u8g_Init8Bit(u8g, dev, d0, d1, d2, d3, d4, d5, d6, d7, en, cs1, cs2, di, rw, reset)
  43:Drivers/u8glib/src/u8g_dev_ks0108_128x64.c ****   u8g_Init8Bit(u8g, dev,  8,    9, 10, 11,   4,   5,   6,   7, 18, 14, 15, 17, 16, U8G_PIN_NONE)
  44:Drivers/u8glib/src/u8g_dev_ks0108_128x64.c ****   
  45:Drivers/u8glib/src/u8g_dev_ks0108_128x64.c **** */
  46:Drivers/u8glib/src/u8g_dev_ks0108_128x64.c **** 
  47:Drivers/u8glib/src/u8g_dev_ks0108_128x64.c **** #include "u8g.h"
  48:Drivers/u8glib/src/u8g_dev_ks0108_128x64.c **** 
  49:Drivers/u8glib/src/u8g_dev_ks0108_128x64.c **** #define WIDTH 128
  50:Drivers/u8glib/src/u8g_dev_ks0108_128x64.c **** #define HEIGHT 64
  51:Drivers/u8glib/src/u8g_dev_ks0108_128x64.c **** #define PAGE_HEIGHT 8
  52:Drivers/u8glib/src/u8g_dev_ks0108_128x64.c **** 
  53:Drivers/u8glib/src/u8g_dev_ks0108_128x64.c **** static const uint8_t u8g_dev_ks0108_128x64_init_seq[] PROGMEM = {
  54:Drivers/u8glib/src/u8g_dev_ks0108_128x64.c ****   U8G_ESC_CS(0),             /* disable chip */
  55:Drivers/u8glib/src/u8g_dev_ks0108_128x64.c ****   U8G_ESC_ADR(0),           /* instruction mode */
  56:Drivers/u8glib/src/u8g_dev_ks0108_128x64.c ****   U8G_ESC_RST(1),           /* do reset low pulse with (1*16)+2 milliseconds */
  57:Drivers/u8glib/src/u8g_dev_ks0108_128x64.c ****   U8G_ESC_CS(1),             /* enable chip 1 */
  58:Drivers/u8glib/src/u8g_dev_ks0108_128x64.c ****   0x03f,		                /* display on */
  59:Drivers/u8glib/src/u8g_dev_ks0108_128x64.c ****   0x0c0,		                /* start at line 0 */
  60:Drivers/u8glib/src/u8g_dev_ks0108_128x64.c ****   U8G_ESC_DLY(20),         /* delay 20 ms */
  61:Drivers/u8glib/src/u8g_dev_ks0108_128x64.c ****   U8G_ESC_CS(2),             /* enable chip 2 */
  62:Drivers/u8glib/src/u8g_dev_ks0108_128x64.c ****   0x03f,		                /* display on */
  63:Drivers/u8glib/src/u8g_dev_ks0108_128x64.c ****   0x0c0,		                /* start at line 0 */
  64:Drivers/u8glib/src/u8g_dev_ks0108_128x64.c ****   U8G_ESC_DLY(20),         /* delay 20 ms */
  65:Drivers/u8glib/src/u8g_dev_ks0108_128x64.c ****   U8G_ESC_CS(0),             /* disable all chips */
ARM GAS  /tmp/ccoe7UtO.s 			page 3


  66:Drivers/u8glib/src/u8g_dev_ks0108_128x64.c ****   U8G_ESC_END                /* end of sequence */
  67:Drivers/u8glib/src/u8g_dev_ks0108_128x64.c **** };
  68:Drivers/u8glib/src/u8g_dev_ks0108_128x64.c **** 
  69:Drivers/u8glib/src/u8g_dev_ks0108_128x64.c **** 
  70:Drivers/u8glib/src/u8g_dev_ks0108_128x64.c **** uint8_t u8g_dev_ks0108_128x64_fn(u8g_t *u8g, u8g_dev_t *dev, uint8_t msg, void *arg)
  71:Drivers/u8glib/src/u8g_dev_ks0108_128x64.c **** {
  53              		.loc 1 71 0
  54              		.cfi_startproc
  55 0000 90B5     		push	{r4, r7, lr}
  56              	.LCFI0:
  57              		.cfi_def_cfa_offset 12
  58              		.cfi_offset 4, -12
  59              		.cfi_offset 7, -8
  60              		.cfi_offset 14, -4
  61 0002 87B0     		sub	sp, sp, #28
  62              	.LCFI1:
  63              		.cfi_def_cfa_offset 40
  64 0004 00AF     		add	r7, sp, #0
  65              	.LCFI2:
  66              		.cfi_def_cfa_register 7
  67 0006 F860     		str	r0, [r7, #12]
  68 0008 B960     		str	r1, [r7, #8]
  69 000a 3B60     		str	r3, [r7]
  70 000c FB1D     		adds	r3, r7, #7
  71 000e 1A70     		strb	r2, [r3]
  72:Drivers/u8glib/src/u8g_dev_ks0108_128x64.c ****   
  73:Drivers/u8glib/src/u8g_dev_ks0108_128x64.c ****   switch(msg)
  72              		.loc 1 73 0
  73 0010 FB1D     		adds	r3, r7, #7
  74 0012 1B78     		ldrb	r3, [r3]
  75 0014 0B2B     		cmp	r3, #11
  76 0016 75D0     		beq	.L7
  77 0018 152B     		cmp	r3, #21
  78 001a 0ED0     		beq	.L4
  79 001c 0A2B     		cmp	r3, #10
  80 001e 72D1     		bne	.L2
  74:Drivers/u8glib/src/u8g_dev_ks0108_128x64.c ****   {
  75:Drivers/u8glib/src/u8g_dev_ks0108_128x64.c ****     case U8G_DEV_MSG_INIT:
  76:Drivers/u8glib/src/u8g_dev_ks0108_128x64.c ****       u8g_InitCom(u8g, dev, U8G_SPI_CLK_CYCLE_NONE);
  81              		.loc 1 76 0
  82 0020 B968     		ldr	r1, [r7, #8]
  83 0022 FB68     		ldr	r3, [r7, #12]
  84 0024 FF22     		movs	r2, #255
  85 0026 1800     		movs	r0, r3
  86 0028 FFF7FEFF 		bl	u8g_InitCom
  77:Drivers/u8glib/src/u8g_dev_ks0108_128x64.c ****       u8g_WriteEscSeqP(u8g, dev, u8g_dev_ks0108_128x64_init_seq);
  87              		.loc 1 77 0
  88 002c 3C4A     		ldr	r2, .L8
  89 002e B968     		ldr	r1, [r7, #8]
  90 0030 FB68     		ldr	r3, [r7, #12]
  91 0032 1800     		movs	r0, r3
  92 0034 FFF7FEFF 		bl	u8g_WriteEscSeqP
  78:Drivers/u8glib/src/u8g_dev_ks0108_128x64.c ****       break;
  93              		.loc 1 78 0
  94 0038 65E0     		b	.L2
  95              	.L4:
  96              	.LBB2:
ARM GAS  /tmp/ccoe7UtO.s 			page 4


  79:Drivers/u8glib/src/u8g_dev_ks0108_128x64.c ****     case U8G_DEV_MSG_STOP:
  80:Drivers/u8glib/src/u8g_dev_ks0108_128x64.c ****       break;
  81:Drivers/u8glib/src/u8g_dev_ks0108_128x64.c ****     case U8G_DEV_MSG_PAGE_NEXT:
  82:Drivers/u8glib/src/u8g_dev_ks0108_128x64.c ****       {
  83:Drivers/u8glib/src/u8g_dev_ks0108_128x64.c ****         u8g_pb_t *pb = (u8g_pb_t *)(dev->dev_mem);
  97              		.loc 1 83 0
  98 003a BB68     		ldr	r3, [r7, #8]
  99 003c 5B68     		ldr	r3, [r3, #4]
 100 003e 7B61     		str	r3, [r7, #20]
  84:Drivers/u8glib/src/u8g_dev_ks0108_128x64.c ****         
  85:Drivers/u8glib/src/u8g_dev_ks0108_128x64.c ****         u8g_SetAddress(u8g, dev, 0);           /* command mode */
 101              		.loc 1 85 0
 102 0040 B968     		ldr	r1, [r7, #8]
 103 0042 FB68     		ldr	r3, [r7, #12]
 104 0044 0022     		movs	r2, #0
 105 0046 1800     		movs	r0, r3
 106 0048 FFF7FEFF 		bl	u8g_SetAddress
  86:Drivers/u8glib/src/u8g_dev_ks0108_128x64.c ****         u8g_SetChipSelect(u8g, dev, 2);
 107              		.loc 1 86 0
 108 004c B968     		ldr	r1, [r7, #8]
 109 004e FB68     		ldr	r3, [r7, #12]
 110 0050 0222     		movs	r2, #2
 111 0052 1800     		movs	r0, r3
 112 0054 FFF7FEFF 		bl	u8g_SetChipSelect
  87:Drivers/u8glib/src/u8g_dev_ks0108_128x64.c ****         u8g_WriteByte(u8g, dev, 0x0b8 | pb->p.page); /* select current page (KS0108b) */
 113              		.loc 1 87 0
 114 0058 7B69     		ldr	r3, [r7, #20]
 115 005a 1B79     		ldrb	r3, [r3, #4]
 116 005c 4822     		movs	r2, #72
 117 005e 5242     		rsbs	r2, r2, #0
 118 0060 1343     		orrs	r3, r2
 119 0062 DAB2     		uxtb	r2, r3
 120 0064 B968     		ldr	r1, [r7, #8]
 121 0066 FB68     		ldr	r3, [r7, #12]
 122 0068 1800     		movs	r0, r3
 123 006a FFF7FEFF 		bl	u8g_WriteByte
  88:Drivers/u8glib/src/u8g_dev_ks0108_128x64.c ****         u8g_WriteByte(u8g, dev, 0x040 );		/* set address 0 */
 124              		.loc 1 88 0
 125 006e B968     		ldr	r1, [r7, #8]
 126 0070 FB68     		ldr	r3, [r7, #12]
 127 0072 4022     		movs	r2, #64
 128 0074 1800     		movs	r0, r3
 129 0076 FFF7FEFF 		bl	u8g_WriteByte
  89:Drivers/u8glib/src/u8g_dev_ks0108_128x64.c ****         u8g_SetAddress(u8g, dev, 1);           /* data mode */
 130              		.loc 1 89 0
 131 007a B968     		ldr	r1, [r7, #8]
 132 007c FB68     		ldr	r3, [r7, #12]
 133 007e 0122     		movs	r2, #1
 134 0080 1800     		movs	r0, r3
 135 0082 FFF7FEFF 		bl	u8g_SetAddress
  90:Drivers/u8glib/src/u8g_dev_ks0108_128x64.c ****         u8g_WriteSequence(u8g, dev, 64, pb->buf);
 136              		.loc 1 90 0
 137 0086 7B69     		ldr	r3, [r7, #20]
 138 0088 9B68     		ldr	r3, [r3, #8]
 139 008a B968     		ldr	r1, [r7, #8]
 140 008c F868     		ldr	r0, [r7, #12]
 141 008e 4022     		movs	r2, #64
ARM GAS  /tmp/ccoe7UtO.s 			page 5


 142 0090 FFF7FEFF 		bl	u8g_WriteSequence
  91:Drivers/u8glib/src/u8g_dev_ks0108_128x64.c ****         u8g_SetChipSelect(u8g, dev, 0);
 143              		.loc 1 91 0
 144 0094 B968     		ldr	r1, [r7, #8]
 145 0096 FB68     		ldr	r3, [r7, #12]
 146 0098 0022     		movs	r2, #0
 147 009a 1800     		movs	r0, r3
 148 009c FFF7FEFF 		bl	u8g_SetChipSelect
  92:Drivers/u8glib/src/u8g_dev_ks0108_128x64.c ****         
  93:Drivers/u8glib/src/u8g_dev_ks0108_128x64.c ****         u8g_SetAddress(u8g, dev, 0);           /* command mode */
 149              		.loc 1 93 0
 150 00a0 B968     		ldr	r1, [r7, #8]
 151 00a2 FB68     		ldr	r3, [r7, #12]
 152 00a4 0022     		movs	r2, #0
 153 00a6 1800     		movs	r0, r3
 154 00a8 FFF7FEFF 		bl	u8g_SetAddress
  94:Drivers/u8glib/src/u8g_dev_ks0108_128x64.c ****         u8g_SetChipSelect(u8g, dev, 1);
 155              		.loc 1 94 0
 156 00ac B968     		ldr	r1, [r7, #8]
 157 00ae FB68     		ldr	r3, [r7, #12]
 158 00b0 0122     		movs	r2, #1
 159 00b2 1800     		movs	r0, r3
 160 00b4 FFF7FEFF 		bl	u8g_SetChipSelect
  95:Drivers/u8glib/src/u8g_dev_ks0108_128x64.c ****         u8g_WriteByte(u8g, dev, 0x0b8 | pb->p.page); /* select current page (KS0108b) */
 161              		.loc 1 95 0
 162 00b8 7B69     		ldr	r3, [r7, #20]
 163 00ba 1B79     		ldrb	r3, [r3, #4]
 164 00bc 4822     		movs	r2, #72
 165 00be 5242     		rsbs	r2, r2, #0
 166 00c0 1343     		orrs	r3, r2
 167 00c2 DAB2     		uxtb	r2, r3
 168 00c4 B968     		ldr	r1, [r7, #8]
 169 00c6 FB68     		ldr	r3, [r7, #12]
 170 00c8 1800     		movs	r0, r3
 171 00ca FFF7FEFF 		bl	u8g_WriteByte
  96:Drivers/u8glib/src/u8g_dev_ks0108_128x64.c ****         u8g_WriteByte(u8g, dev, 0x040 );		/* set address 0 */
 172              		.loc 1 96 0
 173 00ce B968     		ldr	r1, [r7, #8]
 174 00d0 FB68     		ldr	r3, [r7, #12]
 175 00d2 4022     		movs	r2, #64
 176 00d4 1800     		movs	r0, r3
 177 00d6 FFF7FEFF 		bl	u8g_WriteByte
  97:Drivers/u8glib/src/u8g_dev_ks0108_128x64.c ****         u8g_SetAddress(u8g, dev, 1);           /* data mode */
 178              		.loc 1 97 0
 179 00da B968     		ldr	r1, [r7, #8]
 180 00dc FB68     		ldr	r3, [r7, #12]
 181 00de 0122     		movs	r2, #1
 182 00e0 1800     		movs	r0, r3
 183 00e2 FFF7FEFF 		bl	u8g_SetAddress
  98:Drivers/u8glib/src/u8g_dev_ks0108_128x64.c ****         u8g_WriteSequence(u8g, dev, 64, 64+(uint8_t *)pb->buf);
 184              		.loc 1 98 0
 185 00e6 7B69     		ldr	r3, [r7, #20]
 186 00e8 9B68     		ldr	r3, [r3, #8]
 187 00ea 4033     		adds	r3, r3, #64
 188 00ec B968     		ldr	r1, [r7, #8]
 189 00ee F868     		ldr	r0, [r7, #12]
 190 00f0 4022     		movs	r2, #64
ARM GAS  /tmp/ccoe7UtO.s 			page 6


 191 00f2 FFF7FEFF 		bl	u8g_WriteSequence
  99:Drivers/u8glib/src/u8g_dev_ks0108_128x64.c ****         u8g_SetChipSelect(u8g, dev, 0);
 192              		.loc 1 99 0
 193 00f6 B968     		ldr	r1, [r7, #8]
 194 00f8 FB68     		ldr	r3, [r7, #12]
 195 00fa 0022     		movs	r2, #0
 196 00fc 1800     		movs	r0, r3
 197 00fe FFF7FEFF 		bl	u8g_SetChipSelect
 198              	.LBE2:
 100:Drivers/u8glib/src/u8g_dev_ks0108_128x64.c ****         
 101:Drivers/u8glib/src/u8g_dev_ks0108_128x64.c ****       }
 102:Drivers/u8glib/src/u8g_dev_ks0108_128x64.c ****       break;
 199              		.loc 1 102 0
 200 0102 00E0     		b	.L2
 201              	.L7:
  80:Drivers/u8glib/src/u8g_dev_ks0108_128x64.c ****     case U8G_DEV_MSG_PAGE_NEXT:
 202              		.loc 1 80 0
 203 0104 C046     		nop
 204              	.L2:
 103:Drivers/u8glib/src/u8g_dev_ks0108_128x64.c ****   }
 104:Drivers/u8glib/src/u8g_dev_ks0108_128x64.c ****   return u8g_dev_pb8v1_base_fn(u8g, dev, msg, arg);
 205              		.loc 1 104 0
 206 0106 3C68     		ldr	r4, [r7]
 207 0108 FB1D     		adds	r3, r7, #7
 208 010a 1A78     		ldrb	r2, [r3]
 209 010c B968     		ldr	r1, [r7, #8]
 210 010e F868     		ldr	r0, [r7, #12]
 211 0110 2300     		movs	r3, r4
 212 0112 FFF7FEFF 		bl	u8g_dev_pb8v1_base_fn
 213 0116 0300     		movs	r3, r0
 105:Drivers/u8glib/src/u8g_dev_ks0108_128x64.c **** }
 214              		.loc 1 105 0
 215 0118 1800     		movs	r0, r3
 216 011a BD46     		mov	sp, r7
 217 011c 07B0     		add	sp, sp, #28
 218              		@ sp needed
 219 011e 90BD     		pop	{r4, r7, pc}
 220              	.L9:
 221              		.align	2
 222              	.L8:
 223 0120 00000000 		.word	u8g_dev_ks0108_128x64_init_seq
 224              		.cfi_endproc
 225              	.LFE0:
 227              		.global	u8g_dev_ks0108_128x64_buf
 228              		.section	.bss.u8g_dev_ks0108_128x64_buf,"aw",%nobits
 229              		.align	2
 232              	u8g_dev_ks0108_128x64_buf:
 233 0000 00000000 		.space	128
 233      00000000 
 233      00000000 
 233      00000000 
 233      00000000 
 234              		.global	u8g_dev_ks0108_128x64_pb
 235              		.section	.data.u8g_dev_ks0108_128x64_pb,"aw",%progbits
 236              		.align	2
 239              	u8g_dev_ks0108_128x64_pb:
 240 0000 08       		.byte	8
ARM GAS  /tmp/ccoe7UtO.s 			page 7


 241 0001 40       		.byte	64
 242 0002 00       		.byte	0
 243 0003 00       		.byte	0
 244 0004 00       		.byte	0
 245 0005 80       		.byte	-128
 246 0006 0000     		.space	2
 247 0008 00000000 		.word	u8g_dev_ks0108_128x64_buf
 248              		.global	u8g_dev_ks0108_128x64
 249              		.section	.data.u8g_dev_ks0108_128x64,"aw",%progbits
 250              		.align	2
 253              	u8g_dev_ks0108_128x64:
 254 0000 00000000 		.word	u8g_dev_ks0108_128x64_fn
 255 0004 00000000 		.word	u8g_dev_ks0108_128x64_pb
 256 0008 00000000 		.word	u8g_com_null_fn
 257              		.global	u8g_dev_ks0108_128x64_fast_buf
 258              		.section	.bss.u8g_dev_ks0108_128x64_fast_buf,"aw",%nobits
 259              		.align	2
 262              	u8g_dev_ks0108_128x64_fast_buf:
 263 0000 00000000 		.space	128
 263      00000000 
 263      00000000 
 263      00000000 
 263      00000000 
 264              		.global	u8g_dev_ks0108_128x64_fast_pb
 265              		.section	.data.u8g_dev_ks0108_128x64_fast_pb,"aw",%progbits
 266              		.align	2
 269              	u8g_dev_ks0108_128x64_fast_pb:
 270 0000 08       		.byte	8
 271 0001 40       		.byte	64
 272 0002 00       		.byte	0
 273 0003 00       		.byte	0
 274 0004 00       		.byte	0
 275 0005 80       		.byte	-128
 276 0006 0000     		.space	2
 277 0008 00000000 		.word	u8g_dev_ks0108_128x64_fast_buf
 278              		.global	u8g_dev_ks0108_128x64_fast
 279              		.section	.data.u8g_dev_ks0108_128x64_fast,"aw",%progbits
 280              		.align	2
 283              	u8g_dev_ks0108_128x64_fast:
 284 0000 00000000 		.word	u8g_dev_ks0108_128x64_fn
 285 0004 00000000 		.word	u8g_dev_ks0108_128x64_fast_pb
 286 0008 00000000 		.word	u8g_com_null_fn
 287              		.text
 288              	.Letext0:
 289              		.file 2 "/usr/arm-none-eabi/include/machine/_default_types.h"
 290              		.file 3 "/usr/arm-none-eabi/include/sys/_stdint.h"
 291              		.file 4 "Drivers/u8glib/inc/u8g.h"
ARM GAS  /tmp/ccoe7UtO.s 			page 8

