ARM GAS  /tmp/cckq6O3B.s 			page 1


   1              		.cpu cortex-m0
   2              		.eabi_attribute 20, 1
   3              		.eabi_attribute 21, 1
   4              		.eabi_attribute 23, 3
   5              		.eabi_attribute 24, 1
   6              		.eabi_attribute 25, 1
   7              		.eabi_attribute 26, 1
   8              		.eabi_attribute 30, 6
   9              		.eabi_attribute 34, 0
  10              		.eabi_attribute 18, 4
  11              		.file	"u8g_dev_a2_micro_printer.c"
  12              		.text
  13              	.Ltext0:
  14              		.cfi_sections	.debug_frame
  15              		.section	.text.u8g_dev_a2_micro_printer_fn,"ax",%progbits
  16              		.align	1
  17              		.global	u8g_dev_a2_micro_printer_fn
  18              		.syntax unified
  19              		.code	16
  20              		.thumb_func
  21              		.fpu softvfp
  23              	u8g_dev_a2_micro_printer_fn:
  24              	.LFB0:
  25              		.file 1 "Drivers/u8glib/src/u8g_dev_a2_micro_printer.c"
   1:Drivers/u8glib/src/u8g_dev_a2_micro_printer.c **** /*
   2:Drivers/u8glib/src/u8g_dev_a2_micro_printer.c **** 
   3:Drivers/u8glib/src/u8g_dev_a2_micro_printer.c ****   u8g_dev_a2_micro_printer_ds.c
   4:Drivers/u8glib/src/u8g_dev_a2_micro_printer.c **** 
   5:Drivers/u8glib/src/u8g_dev_a2_micro_printer.c ****   Use DC2 bitmap command of the A2 Micro panel termal printer
   6:Drivers/u8glib/src/u8g_dev_a2_micro_printer.c ****   double stroke
   7:Drivers/u8glib/src/u8g_dev_a2_micro_printer.c **** 
   8:Drivers/u8glib/src/u8g_dev_a2_micro_printer.c ****   Universal 8bit Graphics Library
   9:Drivers/u8glib/src/u8g_dev_a2_micro_printer.c ****   
  10:Drivers/u8glib/src/u8g_dev_a2_micro_printer.c ****   Copyright (c) 2013, olikraus@gmail.com
  11:Drivers/u8glib/src/u8g_dev_a2_micro_printer.c ****   All rights reserved.
  12:Drivers/u8glib/src/u8g_dev_a2_micro_printer.c **** 
  13:Drivers/u8glib/src/u8g_dev_a2_micro_printer.c ****   Redistribution and use in source and binary forms, with or without modification, 
  14:Drivers/u8glib/src/u8g_dev_a2_micro_printer.c ****   are permitted provided that the following conditions are met:
  15:Drivers/u8glib/src/u8g_dev_a2_micro_printer.c **** 
  16:Drivers/u8glib/src/u8g_dev_a2_micro_printer.c ****   * Redistributions of source code must retain the above copyright notice, this list 
  17:Drivers/u8glib/src/u8g_dev_a2_micro_printer.c ****     of conditions and the following disclaimer.
  18:Drivers/u8glib/src/u8g_dev_a2_micro_printer.c ****     
  19:Drivers/u8glib/src/u8g_dev_a2_micro_printer.c ****   * Redistributions in binary form must reproduce the above copyright notice, this 
  20:Drivers/u8glib/src/u8g_dev_a2_micro_printer.c ****     list of conditions and the following disclaimer in the documentation and/or other 
  21:Drivers/u8glib/src/u8g_dev_a2_micro_printer.c ****     materials provided with the distribution.
  22:Drivers/u8glib/src/u8g_dev_a2_micro_printer.c **** 
  23:Drivers/u8glib/src/u8g_dev_a2_micro_printer.c ****   THIS SOFTWARE IS PROVIDED BY THE COPYRIGHT HOLDERS AND 
  24:Drivers/u8glib/src/u8g_dev_a2_micro_printer.c ****   CONTRIBUTORS "AS IS" AND ANY EXPRESS OR IMPLIED WARRANTIES, 
  25:Drivers/u8glib/src/u8g_dev_a2_micro_printer.c ****   INCLUDING, BUT NOT LIMITED TO, THE IMPLIED WARRANTIES OF 
  26:Drivers/u8glib/src/u8g_dev_a2_micro_printer.c ****   MERCHANTABILITY AND FITNESS FOR A PARTICULAR PURPOSE ARE 
  27:Drivers/u8glib/src/u8g_dev_a2_micro_printer.c ****   DISCLAIMED. IN NO EVENT SHALL THE COPYRIGHT HOLDER OR 
  28:Drivers/u8glib/src/u8g_dev_a2_micro_printer.c ****   CONTRIBUTORS BE LIABLE FOR ANY DIRECT, INDIRECT, INCIDENTAL, 
  29:Drivers/u8glib/src/u8g_dev_a2_micro_printer.c ****   SPECIAL, EXEMPLARY, OR CONSEQUENTIAL DAMAGES (INCLUDING, BUT 
  30:Drivers/u8glib/src/u8g_dev_a2_micro_printer.c ****   NOT LIMITED TO, PROCUREMENT OF SUBSTITUTE GOODS OR SERVICES; 
  31:Drivers/u8glib/src/u8g_dev_a2_micro_printer.c ****   LOSS OF USE, DATA, OR PROFITS; OR BUSINESS INTERRUPTION) HOWEVER 
  32:Drivers/u8glib/src/u8g_dev_a2_micro_printer.c ****   CAUSED AND ON ANY THEORY OF LIABILITY, WHETHER IN CONTRACT, 
  33:Drivers/u8glib/src/u8g_dev_a2_micro_printer.c ****   STRICT LIABILITY, OR TORT (INCLUDING NEGLIGENCE OR OTHERWISE) 
ARM GAS  /tmp/cckq6O3B.s 			page 2


  34:Drivers/u8glib/src/u8g_dev_a2_micro_printer.c ****   ARISING IN ANY WAY OUT OF THE USE OF THIS SOFTWARE, EVEN IF 
  35:Drivers/u8glib/src/u8g_dev_a2_micro_printer.c ****   ADVISED OF THE POSSIBILITY OF SUCH DAMAGE.  
  36:Drivers/u8glib/src/u8g_dev_a2_micro_printer.c ****   
  37:Drivers/u8glib/src/u8g_dev_a2_micro_printer.c ****   
  38:Drivers/u8glib/src/u8g_dev_a2_micro_printer.c **** */
  39:Drivers/u8glib/src/u8g_dev_a2_micro_printer.c **** 
  40:Drivers/u8glib/src/u8g_dev_a2_micro_printer.c **** #include "u8g.h"
  41:Drivers/u8glib/src/u8g_dev_a2_micro_printer.c **** 
  42:Drivers/u8glib/src/u8g_dev_a2_micro_printer.c **** #define LINE_DELAY 40
  43:Drivers/u8glib/src/u8g_dev_a2_micro_printer.c **** 
  44:Drivers/u8glib/src/u8g_dev_a2_micro_printer.c **** 
  45:Drivers/u8glib/src/u8g_dev_a2_micro_printer.c **** uint8_t u8g_dev_a2_micro_printer_fn(u8g_t *u8g, u8g_dev_t *dev, uint8_t msg, void *arg)
  46:Drivers/u8glib/src/u8g_dev_a2_micro_printer.c **** {
  26              		.loc 1 46 0
  27              		.cfi_startproc
  28 0000 90B5     		push	{r4, r7, lr}
  29              	.LCFI0:
  30              		.cfi_def_cfa_offset 12
  31              		.cfi_offset 4, -12
  32              		.cfi_offset 7, -8
  33              		.cfi_offset 14, -4
  34 0002 89B0     		sub	sp, sp, #36
  35              	.LCFI1:
  36              		.cfi_def_cfa_offset 48
  37 0004 00AF     		add	r7, sp, #0
  38              	.LCFI2:
  39              		.cfi_def_cfa_register 7
  40 0006 F860     		str	r0, [r7, #12]
  41 0008 B960     		str	r1, [r7, #8]
  42 000a 3B60     		str	r3, [r7]
  43 000c FB1D     		adds	r3, r7, #7
  44 000e 1A70     		strb	r2, [r3]
  47:Drivers/u8glib/src/u8g_dev_a2_micro_printer.c ****   switch(msg)
  45              		.loc 1 47 0
  46 0010 FB1D     		adds	r3, r7, #7
  47 0012 1B78     		ldrb	r3, [r3]
  48 0014 0B2B     		cmp	r3, #11
  49 0016 00D1     		bne	.LCB24
  50 0018 ABE0     		b	.L11	@long jump
  51              	.LCB24:
  52 001a 152B     		cmp	r3, #21
  53 001c 09D0     		beq	.L4
  54 001e 0A2B     		cmp	r3, #10
  55 0020 00D0     		beq	.LCB28
  56 0022 A7E0     		b	.L2	@long jump
  57              	.LCB28:
  48:Drivers/u8glib/src/u8g_dev_a2_micro_printer.c ****   {
  49:Drivers/u8glib/src/u8g_dev_a2_micro_printer.c ****     case U8G_DEV_MSG_INIT:
  50:Drivers/u8glib/src/u8g_dev_a2_micro_printer.c ****       u8g_InitCom(u8g, dev, U8G_SPI_CLK_CYCLE_NONE);
  58              		.loc 1 50 0
  59 0024 B968     		ldr	r1, [r7, #8]
  60 0026 FB68     		ldr	r3, [r7, #12]
  61 0028 FF22     		movs	r2, #255
  62 002a 1800     		movs	r0, r3
  63 002c FFF7FEFF 		bl	u8g_InitCom
  51:Drivers/u8glib/src/u8g_dev_a2_micro_printer.c ****       break;
  64              		.loc 1 51 0
ARM GAS  /tmp/cckq6O3B.s 			page 3


  65 0030 A0E0     		b	.L2
  66              	.L4:
  67              	.LBB2:
  52:Drivers/u8glib/src/u8g_dev_a2_micro_printer.c ****     case U8G_DEV_MSG_STOP:
  53:Drivers/u8glib/src/u8g_dev_a2_micro_printer.c ****       break;
  54:Drivers/u8glib/src/u8g_dev_a2_micro_printer.c ****     case U8G_DEV_MSG_PAGE_NEXT:
  55:Drivers/u8glib/src/u8g_dev_a2_micro_printer.c ****       {
  56:Drivers/u8glib/src/u8g_dev_a2_micro_printer.c ****         uint8_t y, i, j;
  57:Drivers/u8glib/src/u8g_dev_a2_micro_printer.c ****         uint8_t *ptr;
  58:Drivers/u8glib/src/u8g_dev_a2_micro_printer.c ****         u8g_pb_t *pb = (u8g_pb_t *)(dev->dev_mem);
  68              		.loc 1 58 0
  69 0032 BB68     		ldr	r3, [r7, #8]
  70 0034 5B68     		ldr	r3, [r3, #4]
  71 0036 7B61     		str	r3, [r7, #20]
  59:Drivers/u8glib/src/u8g_dev_a2_micro_printer.c ****         
  60:Drivers/u8glib/src/u8g_dev_a2_micro_printer.c ****         y = pb->p.page_y0;
  72              		.loc 1 60 0
  73 0038 1F23     		movs	r3, #31
  74 003a FB18     		adds	r3, r7, r3
  75 003c 7A69     		ldr	r2, [r7, #20]
  76 003e 9278     		ldrb	r2, [r2, #2]
  77 0040 1A70     		strb	r2, [r3]
  61:Drivers/u8glib/src/u8g_dev_a2_micro_printer.c ****         ptr = pb->buf;
  78              		.loc 1 61 0
  79 0042 7B69     		ldr	r3, [r7, #20]
  80 0044 9B68     		ldr	r3, [r3, #8]
  81 0046 BB61     		str	r3, [r7, #24]
  62:Drivers/u8glib/src/u8g_dev_a2_micro_printer.c **** 
  63:Drivers/u8glib/src/u8g_dev_a2_micro_printer.c **** 	u8g_WriteByte(u8g, dev, 27);      /* ESC */
  82              		.loc 1 63 0
  83 0048 B968     		ldr	r1, [r7, #8]
  84 004a FB68     		ldr	r3, [r7, #12]
  85 004c 1B22     		movs	r2, #27
  86 004e 1800     		movs	r0, r3
  87 0050 FFF7FEFF 		bl	u8g_WriteByte
  64:Drivers/u8glib/src/u8g_dev_a2_micro_printer.c **** 	u8g_WriteByte(u8g, dev, 55 );      /* parameter command */
  88              		.loc 1 64 0
  89 0054 B968     		ldr	r1, [r7, #8]
  90 0056 FB68     		ldr	r3, [r7, #12]
  91 0058 3722     		movs	r2, #55
  92 005a 1800     		movs	r0, r3
  93 005c FFF7FEFF 		bl	u8g_WriteByte
  65:Drivers/u8glib/src/u8g_dev_a2_micro_printer.c **** 	u8g_WriteByte(u8g, dev, 7);      /* Max printing dots,Unit(8dots),Default:7(64 dots) 8*(x+1)*/
  94              		.loc 1 65 0
  95 0060 B968     		ldr	r1, [r7, #8]
  96 0062 FB68     		ldr	r3, [r7, #12]
  97 0064 0722     		movs	r2, #7
  98 0066 1800     		movs	r0, r3
  99 0068 FFF7FEFF 		bl	u8g_WriteByte
  66:Drivers/u8glib/src/u8g_dev_a2_micro_printer.c **** 	u8g_WriteByte(u8g, dev, 160);      /* 3-255 Heating time,Unit(10us),Default:80(800us) */
 100              		.loc 1 66 0
 101 006c B968     		ldr	r1, [r7, #8]
 102 006e FB68     		ldr	r3, [r7, #12]
 103 0070 A022     		movs	r2, #160
 104 0072 1800     		movs	r0, r3
 105 0074 FFF7FEFF 		bl	u8g_WriteByte
  67:Drivers/u8glib/src/u8g_dev_a2_micro_printer.c **** 	u8g_WriteByte(u8g, dev, 20);      /* 0-255 Heating interval,Unit(10us),Default:2(20us)*/
ARM GAS  /tmp/cckq6O3B.s 			page 4


 106              		.loc 1 67 0
 107 0078 B968     		ldr	r1, [r7, #8]
 108 007a FB68     		ldr	r3, [r7, #12]
 109 007c 1422     		movs	r2, #20
 110 007e 1800     		movs	r0, r3
 111 0080 FFF7FEFF 		bl	u8g_WriteByte
  68:Drivers/u8glib/src/u8g_dev_a2_micro_printer.c **** 	
  69:Drivers/u8glib/src/u8g_dev_a2_micro_printer.c **** 	u8g_WriteByte(u8g, dev, 18);      /* DC2 */
 112              		.loc 1 69 0
 113 0084 B968     		ldr	r1, [r7, #8]
 114 0086 FB68     		ldr	r3, [r7, #12]
 115 0088 1222     		movs	r2, #18
 116 008a 1800     		movs	r0, r3
 117 008c FFF7FEFF 		bl	u8g_WriteByte
  70:Drivers/u8glib/src/u8g_dev_a2_micro_printer.c **** 	u8g_WriteByte(u8g, dev, 42 );      /* *  */
 118              		.loc 1 70 0
 119 0090 B968     		ldr	r1, [r7, #8]
 120 0092 FB68     		ldr	r3, [r7, #12]
 121 0094 2A22     		movs	r2, #42
 122 0096 1800     		movs	r0, r3
 123 0098 FFF7FEFF 		bl	u8g_WriteByte
  71:Drivers/u8glib/src/u8g_dev_a2_micro_printer.c **** 	u8g_WriteByte(u8g, dev, pb->p.page_height ); 
 124              		.loc 1 71 0
 125 009c 7B69     		ldr	r3, [r7, #20]
 126 009e 1A78     		ldrb	r2, [r3]
 127 00a0 B968     		ldr	r1, [r7, #8]
 128 00a2 FB68     		ldr	r3, [r7, #12]
 129 00a4 1800     		movs	r0, r3
 130 00a6 FFF7FEFF 		bl	u8g_WriteByte
  72:Drivers/u8glib/src/u8g_dev_a2_micro_printer.c **** 	u8g_WriteByte(u8g, dev, pb->width/8 ); 
 131              		.loc 1 72 0
 132 00aa 7B69     		ldr	r3, [r7, #20]
 133 00ac 5B79     		ldrb	r3, [r3, #5]
 134 00ae DB08     		lsrs	r3, r3, #3
 135 00b0 DAB2     		uxtb	r2, r3
 136 00b2 B968     		ldr	r1, [r7, #8]
 137 00b4 FB68     		ldr	r3, [r7, #12]
 138 00b6 1800     		movs	r0, r3
 139 00b8 FFF7FEFF 		bl	u8g_WriteByte
  73:Drivers/u8glib/src/u8g_dev_a2_micro_printer.c **** 	
  74:Drivers/u8glib/src/u8g_dev_a2_micro_printer.c ****         for( i = 0; i < pb->p.page_height; i ++ )
 140              		.loc 1 74 0
 141 00bc 1E23     		movs	r3, #30
 142 00be FB18     		adds	r3, r7, r3
 143 00c0 0022     		movs	r2, #0
 144 00c2 1A70     		strb	r2, [r3]
 145 00c4 2FE0     		b	.L6
 146              	.L9:
  75:Drivers/u8glib/src/u8g_dev_a2_micro_printer.c ****         {
  76:Drivers/u8glib/src/u8g_dev_a2_micro_printer.c **** 	  for( j = 0; j < pb->width/8; j++ )
 147              		.loc 1 76 0
 148 00c6 1D23     		movs	r3, #29
 149 00c8 FB18     		adds	r3, r7, r3
 150 00ca 0022     		movs	r2, #0
 151 00cc 1A70     		strb	r2, [r3]
 152 00ce 10E0     		b	.L7
 153              	.L8:
ARM GAS  /tmp/cckq6O3B.s 			page 5


  77:Drivers/u8glib/src/u8g_dev_a2_micro_printer.c **** 	  {
  78:Drivers/u8glib/src/u8g_dev_a2_micro_printer.c **** 	    u8g_WriteByte(u8g, dev, *ptr);
 154              		.loc 1 78 0 discriminator 3
 155 00d0 BB69     		ldr	r3, [r7, #24]
 156 00d2 1A78     		ldrb	r2, [r3]
 157 00d4 B968     		ldr	r1, [r7, #8]
 158 00d6 FB68     		ldr	r3, [r7, #12]
 159 00d8 1800     		movs	r0, r3
 160 00da FFF7FEFF 		bl	u8g_WriteByte
  79:Drivers/u8glib/src/u8g_dev_a2_micro_printer.c **** 	    ptr++;
 161              		.loc 1 79 0 discriminator 3
 162 00de BB69     		ldr	r3, [r7, #24]
 163 00e0 0133     		adds	r3, r3, #1
 164 00e2 BB61     		str	r3, [r7, #24]
  76:Drivers/u8glib/src/u8g_dev_a2_micro_printer.c **** 	  {
 165              		.loc 1 76 0 discriminator 3
 166 00e4 1D23     		movs	r3, #29
 167 00e6 FB18     		adds	r3, r7, r3
 168 00e8 1A78     		ldrb	r2, [r3]
 169 00ea 1D23     		movs	r3, #29
 170 00ec FB18     		adds	r3, r7, r3
 171 00ee 0132     		adds	r2, r2, #1
 172 00f0 1A70     		strb	r2, [r3]
 173              	.L7:
  76:Drivers/u8glib/src/u8g_dev_a2_micro_printer.c **** 	  {
 174              		.loc 1 76 0 is_stmt 0 discriminator 1
 175 00f2 7B69     		ldr	r3, [r7, #20]
 176 00f4 5B79     		ldrb	r3, [r3, #5]
 177 00f6 DB08     		lsrs	r3, r3, #3
 178 00f8 DBB2     		uxtb	r3, r3
 179 00fa 1D22     		movs	r2, #29
 180 00fc BA18     		adds	r2, r7, r2
 181 00fe 1278     		ldrb	r2, [r2]
 182 0100 9A42     		cmp	r2, r3
 183 0102 E5D3     		bcc	.L8
  80:Drivers/u8glib/src/u8g_dev_a2_micro_printer.c **** 	  }
  81:Drivers/u8glib/src/u8g_dev_a2_micro_printer.c **** 	  u8g_Delay(LINE_DELAY);
 184              		.loc 1 81 0 is_stmt 1 discriminator 2
 185 0104 2820     		movs	r0, #40
 186 0106 FFF7FEFF 		bl	u8g_Delay
  82:Drivers/u8glib/src/u8g_dev_a2_micro_printer.c ****           y++;
 187              		.loc 1 82 0 discriminator 2
 188 010a 1F23     		movs	r3, #31
 189 010c FB18     		adds	r3, r7, r3
 190 010e 1A78     		ldrb	r2, [r3]
 191 0110 1F23     		movs	r3, #31
 192 0112 FB18     		adds	r3, r7, r3
 193 0114 0132     		adds	r2, r2, #1
 194 0116 1A70     		strb	r2, [r3]
  74:Drivers/u8glib/src/u8g_dev_a2_micro_printer.c ****         {
 195              		.loc 1 74 0 discriminator 2
 196 0118 1E23     		movs	r3, #30
 197 011a FB18     		adds	r3, r7, r3
 198 011c 1A78     		ldrb	r2, [r3]
 199 011e 1E23     		movs	r3, #30
 200 0120 FB18     		adds	r3, r7, r3
 201 0122 0132     		adds	r2, r2, #1
ARM GAS  /tmp/cckq6O3B.s 			page 6


 202 0124 1A70     		strb	r2, [r3]
 203              	.L6:
  74:Drivers/u8glib/src/u8g_dev_a2_micro_printer.c ****         {
 204              		.loc 1 74 0 is_stmt 0 discriminator 1
 205 0126 7B69     		ldr	r3, [r7, #20]
 206 0128 1B78     		ldrb	r3, [r3]
 207 012a 1E22     		movs	r2, #30
 208 012c BA18     		adds	r2, r7, r2
 209 012e 1278     		ldrb	r2, [r2]
 210 0130 9A42     		cmp	r2, r3
 211 0132 C8D3     		bcc	.L9
  83:Drivers/u8glib/src/u8g_dev_a2_micro_printer.c ****         }
  84:Drivers/u8glib/src/u8g_dev_a2_micro_printer.c **** 
  85:Drivers/u8glib/src/u8g_dev_a2_micro_printer.c **** 	/* set parameters back to their default values */
  86:Drivers/u8glib/src/u8g_dev_a2_micro_printer.c **** 	u8g_WriteByte(u8g, dev, 27);      /* ESC */
 212              		.loc 1 86 0 is_stmt 1
 213 0134 B968     		ldr	r1, [r7, #8]
 214 0136 FB68     		ldr	r3, [r7, #12]
 215 0138 1B22     		movs	r2, #27
 216 013a 1800     		movs	r0, r3
 217 013c FFF7FEFF 		bl	u8g_WriteByte
  87:Drivers/u8glib/src/u8g_dev_a2_micro_printer.c **** 	u8g_WriteByte(u8g, dev, 55 );      /* parameter command */
 218              		.loc 1 87 0
 219 0140 B968     		ldr	r1, [r7, #8]
 220 0142 FB68     		ldr	r3, [r7, #12]
 221 0144 3722     		movs	r2, #55
 222 0146 1800     		movs	r0, r3
 223 0148 FFF7FEFF 		bl	u8g_WriteByte
  88:Drivers/u8glib/src/u8g_dev_a2_micro_printer.c **** 	u8g_WriteByte(u8g, dev, 7);      /* Max printing dots,Unit(8dots),Default:7(64 dots) 8*(x+1)*/
 224              		.loc 1 88 0
 225 014c B968     		ldr	r1, [r7, #8]
 226 014e FB68     		ldr	r3, [r7, #12]
 227 0150 0722     		movs	r2, #7
 228 0152 1800     		movs	r0, r3
 229 0154 FFF7FEFF 		bl	u8g_WriteByte
  89:Drivers/u8glib/src/u8g_dev_a2_micro_printer.c **** 	u8g_WriteByte(u8g, dev, 80);      /* 3-255 Heating time,Unit(10us),Default:80(800us) */
 230              		.loc 1 89 0
 231 0158 B968     		ldr	r1, [r7, #8]
 232 015a FB68     		ldr	r3, [r7, #12]
 233 015c 5022     		movs	r2, #80
 234 015e 1800     		movs	r0, r3
 235 0160 FFF7FEFF 		bl	u8g_WriteByte
  90:Drivers/u8glib/src/u8g_dev_a2_micro_printer.c **** 	u8g_WriteByte(u8g, dev, 2);      /* 0-255 Heating interval,Unit(10us),Default:2(20us)*/
 236              		.loc 1 90 0
 237 0164 B968     		ldr	r1, [r7, #8]
 238 0166 FB68     		ldr	r3, [r7, #12]
 239 0168 0222     		movs	r2, #2
 240 016a 1800     		movs	r0, r3
 241 016c FFF7FEFF 		bl	u8g_WriteByte
 242              	.LBE2:
  91:Drivers/u8glib/src/u8g_dev_a2_micro_printer.c **** 	
  92:Drivers/u8glib/src/u8g_dev_a2_micro_printer.c ****       }
  93:Drivers/u8glib/src/u8g_dev_a2_micro_printer.c ****       break;
 243              		.loc 1 93 0
 244 0170 00E0     		b	.L2
 245              	.L11:
  53:Drivers/u8glib/src/u8g_dev_a2_micro_printer.c ****     case U8G_DEV_MSG_PAGE_NEXT:
ARM GAS  /tmp/cckq6O3B.s 			page 7


 246              		.loc 1 53 0
 247 0172 C046     		nop
 248              	.L2:
  94:Drivers/u8glib/src/u8g_dev_a2_micro_printer.c ****   }
  95:Drivers/u8glib/src/u8g_dev_a2_micro_printer.c ****   return u8g_dev_pb8h1_base_fn(u8g, dev, msg, arg);
 249              		.loc 1 95 0
 250 0174 3C68     		ldr	r4, [r7]
 251 0176 FB1D     		adds	r3, r7, #7
 252 0178 1A78     		ldrb	r2, [r3]
 253 017a B968     		ldr	r1, [r7, #8]
 254 017c F868     		ldr	r0, [r7, #12]
 255 017e 2300     		movs	r3, r4
 256 0180 FFF7FEFF 		bl	u8g_dev_pb8h1_base_fn
 257 0184 0300     		movs	r3, r0
  96:Drivers/u8glib/src/u8g_dev_a2_micro_printer.c **** }
 258              		.loc 1 96 0
 259 0186 1800     		movs	r0, r3
 260 0188 BD46     		mov	sp, r7
 261 018a 09B0     		add	sp, sp, #36
 262              		@ sp needed
 263 018c 90BD     		pop	{r4, r7, pc}
 264              		.cfi_endproc
 265              	.LFE0:
 267              		.section	.text.u8g_dev_expand4,"ax",%progbits
 268              		.align	1
 269              		.syntax unified
 270              		.code	16
 271              		.thumb_func
 272              		.fpu softvfp
 274              	u8g_dev_expand4:
 275              	.LFB1:
  97:Drivers/u8glib/src/u8g_dev_a2_micro_printer.c **** 
  98:Drivers/u8glib/src/u8g_dev_a2_micro_printer.c **** static uint8_t u8g_dev_expand4(uint8_t val)
  99:Drivers/u8glib/src/u8g_dev_a2_micro_printer.c **** {
 276              		.loc 1 99 0
 277              		.cfi_startproc
 278 0000 80B5     		push	{r7, lr}
 279              	.LCFI3:
 280              		.cfi_def_cfa_offset 8
 281              		.cfi_offset 7, -8
 282              		.cfi_offset 14, -4
 283 0002 84B0     		sub	sp, sp, #16
 284              	.LCFI4:
 285              		.cfi_def_cfa_offset 24
 286 0004 00AF     		add	r7, sp, #0
 287              	.LCFI5:
 288              		.cfi_def_cfa_register 7
 289 0006 0200     		movs	r2, r0
 290 0008 FB1D     		adds	r3, r7, #7
 291 000a 1A70     		strb	r2, [r3]
 100:Drivers/u8glib/src/u8g_dev_a2_micro_printer.c ****   uint8_t a,b,c,d;
 101:Drivers/u8glib/src/u8g_dev_a2_micro_printer.c ****   a = val&1;
 292              		.loc 1 101 0
 293 000c 0F23     		movs	r3, #15
 294 000e FB18     		adds	r3, r7, r3
 295 0010 FA1D     		adds	r2, r7, #7
 296 0012 1278     		ldrb	r2, [r2]
ARM GAS  /tmp/cckq6O3B.s 			page 8


 297 0014 0121     		movs	r1, #1
 298 0016 0A40     		ands	r2, r1
 299 0018 1A70     		strb	r2, [r3]
 102:Drivers/u8glib/src/u8g_dev_a2_micro_printer.c ****   b = (val&2)<<1;
 300              		.loc 1 102 0
 301 001a FB1D     		adds	r3, r7, #7
 302 001c 1B78     		ldrb	r3, [r3]
 303 001e 5B00     		lsls	r3, r3, #1
 304 0020 DAB2     		uxtb	r2, r3
 305 0022 0E23     		movs	r3, #14
 306 0024 FB18     		adds	r3, r7, r3
 307 0026 0421     		movs	r1, #4
 308 0028 0A40     		ands	r2, r1
 309 002a 1A70     		strb	r2, [r3]
 103:Drivers/u8glib/src/u8g_dev_a2_micro_printer.c ****   c = (val&4)<<2;
 310              		.loc 1 103 0
 311 002c FB1D     		adds	r3, r7, #7
 312 002e 1B78     		ldrb	r3, [r3]
 313 0030 9B00     		lsls	r3, r3, #2
 314 0032 DAB2     		uxtb	r2, r3
 315 0034 0D23     		movs	r3, #13
 316 0036 FB18     		adds	r3, r7, r3
 317 0038 1021     		movs	r1, #16
 318 003a 0A40     		ands	r2, r1
 319 003c 1A70     		strb	r2, [r3]
 104:Drivers/u8glib/src/u8g_dev_a2_micro_printer.c ****   d = (val&8)<<3;
 320              		.loc 1 104 0
 321 003e FB1D     		adds	r3, r7, #7
 322 0040 1B78     		ldrb	r3, [r3]
 323 0042 DB00     		lsls	r3, r3, #3
 324 0044 DAB2     		uxtb	r2, r3
 325 0046 0C23     		movs	r3, #12
 326 0048 FB18     		adds	r3, r7, r3
 327 004a 4021     		movs	r1, #64
 328 004c 0A40     		ands	r2, r1
 329 004e 1A70     		strb	r2, [r3]
 105:Drivers/u8glib/src/u8g_dev_a2_micro_printer.c ****   a |=b;
 330              		.loc 1 105 0
 331 0050 0F23     		movs	r3, #15
 332 0052 FB18     		adds	r3, r7, r3
 333 0054 0F22     		movs	r2, #15
 334 0056 B918     		adds	r1, r7, r2
 335 0058 0E22     		movs	r2, #14
 336 005a BA18     		adds	r2, r7, r2
 337 005c 0978     		ldrb	r1, [r1]
 338 005e 1278     		ldrb	r2, [r2]
 339 0060 0A43     		orrs	r2, r1
 340 0062 1A70     		strb	r2, [r3]
 106:Drivers/u8glib/src/u8g_dev_a2_micro_printer.c ****   a |=c;
 341              		.loc 1 106 0
 342 0064 0F23     		movs	r3, #15
 343 0066 FB18     		adds	r3, r7, r3
 344 0068 0F22     		movs	r2, #15
 345 006a B918     		adds	r1, r7, r2
 346 006c 0D22     		movs	r2, #13
 347 006e BA18     		adds	r2, r7, r2
 348 0070 0978     		ldrb	r1, [r1]
ARM GAS  /tmp/cckq6O3B.s 			page 9


 349 0072 1278     		ldrb	r2, [r2]
 350 0074 0A43     		orrs	r2, r1
 351 0076 1A70     		strb	r2, [r3]
 107:Drivers/u8glib/src/u8g_dev_a2_micro_printer.c ****   a |=d;
 352              		.loc 1 107 0
 353 0078 0F23     		movs	r3, #15
 354 007a FB18     		adds	r3, r7, r3
 355 007c 0F22     		movs	r2, #15
 356 007e B918     		adds	r1, r7, r2
 357 0080 0C22     		movs	r2, #12
 358 0082 BA18     		adds	r2, r7, r2
 359 0084 0978     		ldrb	r1, [r1]
 360 0086 1278     		ldrb	r2, [r2]
 361 0088 0A43     		orrs	r2, r1
 362 008a 1A70     		strb	r2, [r3]
 108:Drivers/u8glib/src/u8g_dev_a2_micro_printer.c ****   a |= a<<1;
 363              		.loc 1 108 0
 364 008c 0F23     		movs	r3, #15
 365 008e FB18     		adds	r3, r7, r3
 366 0090 1B78     		ldrb	r3, [r3]
 367 0092 5B00     		lsls	r3, r3, #1
 368 0094 5AB2     		sxtb	r2, r3
 369 0096 0F23     		movs	r3, #15
 370 0098 FB18     		adds	r3, r7, r3
 371 009a 1B78     		ldrb	r3, [r3]
 372 009c 5BB2     		sxtb	r3, r3
 373 009e 1343     		orrs	r3, r2
 374 00a0 5AB2     		sxtb	r2, r3
 375 00a2 0F23     		movs	r3, #15
 376 00a4 FB18     		adds	r3, r7, r3
 377 00a6 1A70     		strb	r2, [r3]
 109:Drivers/u8glib/src/u8g_dev_a2_micro_printer.c ****   return a;
 378              		.loc 1 109 0
 379 00a8 0F23     		movs	r3, #15
 380 00aa FB18     		adds	r3, r7, r3
 381 00ac 1B78     		ldrb	r3, [r3]
 110:Drivers/u8glib/src/u8g_dev_a2_micro_printer.c **** }
 382              		.loc 1 110 0
 383 00ae 1800     		movs	r0, r3
 384 00b0 BD46     		mov	sp, r7
 385 00b2 04B0     		add	sp, sp, #16
 386              		@ sp needed
 387 00b4 80BD     		pop	{r7, pc}
 388              		.cfi_endproc
 389              	.LFE1:
 391              		.section	.text.u8g_dev_a2_micro_printer_double_fn,"ax",%progbits
 392              		.align	1
 393              		.global	u8g_dev_a2_micro_printer_double_fn
 394              		.syntax unified
 395              		.code	16
 396              		.thumb_func
 397              		.fpu softvfp
 399              	u8g_dev_a2_micro_printer_double_fn:
 400              	.LFB2:
 111:Drivers/u8glib/src/u8g_dev_a2_micro_printer.c **** 
 112:Drivers/u8glib/src/u8g_dev_a2_micro_printer.c **** uint8_t u8g_dev_a2_micro_printer_double_fn(u8g_t *u8g, u8g_dev_t *dev, uint8_t msg, void *arg)
 113:Drivers/u8glib/src/u8g_dev_a2_micro_printer.c **** {
ARM GAS  /tmp/cckq6O3B.s 			page 10


 401              		.loc 1 113 0
 402              		.cfi_startproc
 403 0000 90B5     		push	{r4, r7, lr}
 404              	.LCFI6:
 405              		.cfi_def_cfa_offset 12
 406              		.cfi_offset 4, -12
 407              		.cfi_offset 7, -8
 408              		.cfi_offset 14, -4
 409 0002 89B0     		sub	sp, sp, #36
 410              	.LCFI7:
 411              		.cfi_def_cfa_offset 48
 412 0004 00AF     		add	r7, sp, #0
 413              	.LCFI8:
 414              		.cfi_def_cfa_register 7
 415 0006 F860     		str	r0, [r7, #12]
 416 0008 B960     		str	r1, [r7, #8]
 417 000a 3B60     		str	r3, [r7]
 418 000c FB1D     		adds	r3, r7, #7
 419 000e 1A70     		strb	r2, [r3]
 114:Drivers/u8glib/src/u8g_dev_a2_micro_printer.c ****   switch(msg)
 420              		.loc 1 114 0
 421 0010 FB1D     		adds	r3, r7, #7
 422 0012 1B78     		ldrb	r3, [r3]
 423 0014 0B2B     		cmp	r3, #11
 424 0016 00D1     		bne	.LCB355
 425 0018 0FE1     		b	.L28	@long jump
 426              	.LCB355:
 427 001a 02DC     		bgt	.L17
 428 001c 0A2B     		cmp	r3, #10
 429 001e 06D0     		beq	.L18
 430 0020 0EE1     		b	.L15
 431              	.L17:
 432 0022 142B     		cmp	r3, #20
 433 0024 00D1     		bne	.LCB365
 434 0026 0AE1     		b	.L29	@long jump
 435              	.LCB365:
 436 0028 152B     		cmp	r3, #21
 437 002a 07D0     		beq	.L20
 438 002c 08E1     		b	.L15
 439              	.L18:
 115:Drivers/u8glib/src/u8g_dev_a2_micro_printer.c ****   {
 116:Drivers/u8glib/src/u8g_dev_a2_micro_printer.c ****     case U8G_DEV_MSG_INIT:
 117:Drivers/u8glib/src/u8g_dev_a2_micro_printer.c ****       u8g_InitCom(u8g, dev, U8G_SPI_CLK_CYCLE_NONE);
 440              		.loc 1 117 0
 441 002e B968     		ldr	r1, [r7, #8]
 442 0030 FB68     		ldr	r3, [r7, #12]
 443 0032 FF22     		movs	r2, #255
 444 0034 1800     		movs	r0, r3
 445 0036 FFF7FEFF 		bl	u8g_InitCom
 118:Drivers/u8glib/src/u8g_dev_a2_micro_printer.c ****       break;
 446              		.loc 1 118 0
 447 003a 01E1     		b	.L15
 448              	.L20:
 449              	.LBB3:
 119:Drivers/u8glib/src/u8g_dev_a2_micro_printer.c ****     case U8G_DEV_MSG_STOP:
 120:Drivers/u8glib/src/u8g_dev_a2_micro_printer.c ****       break;
 121:Drivers/u8glib/src/u8g_dev_a2_micro_printer.c ****     case U8G_DEV_MSG_PAGE_FIRST:
ARM GAS  /tmp/cckq6O3B.s 			page 11


 122:Drivers/u8glib/src/u8g_dev_a2_micro_printer.c ****       {
 123:Drivers/u8glib/src/u8g_dev_a2_micro_printer.c ****         //u8g_pb_t *pb = (u8g_pb_t *)(dev->dev_mem);
 124:Drivers/u8glib/src/u8g_dev_a2_micro_printer.c **** 	//u8g_WriteByte(u8g, dev, 18);      /* DC2 */
 125:Drivers/u8glib/src/u8g_dev_a2_micro_printer.c **** 	//u8g_WriteByte(u8g, dev, 42 );      /* *  */
 126:Drivers/u8glib/src/u8g_dev_a2_micro_printer.c **** 	//u8g_WriteByte(u8g, dev, pb->p.total_height*2 ); 
 127:Drivers/u8glib/src/u8g_dev_a2_micro_printer.c **** 	//u8g_WriteByte(u8g, dev, pb->width/8*2 ); 
 128:Drivers/u8glib/src/u8g_dev_a2_micro_printer.c ****       }
 129:Drivers/u8glib/src/u8g_dev_a2_micro_printer.c ****       break;
 130:Drivers/u8glib/src/u8g_dev_a2_micro_printer.c ****     case U8G_DEV_MSG_PAGE_NEXT:
 131:Drivers/u8glib/src/u8g_dev_a2_micro_printer.c ****       {
 132:Drivers/u8glib/src/u8g_dev_a2_micro_printer.c ****         uint8_t y, i, j;
 133:Drivers/u8glib/src/u8g_dev_a2_micro_printer.c ****         uint8_t *ptr;
 134:Drivers/u8glib/src/u8g_dev_a2_micro_printer.c ****         uint8_t *p2;
 135:Drivers/u8glib/src/u8g_dev_a2_micro_printer.c ****         u8g_pb_t *pb = (u8g_pb_t *)(dev->dev_mem);
 450              		.loc 1 135 0
 451 003c BB68     		ldr	r3, [r7, #8]
 452 003e 5B68     		ldr	r3, [r3, #4]
 453 0040 3B61     		str	r3, [r7, #16]
 136:Drivers/u8glib/src/u8g_dev_a2_micro_printer.c ****         
 137:Drivers/u8glib/src/u8g_dev_a2_micro_printer.c ****         y = pb->p.page_y0;
 454              		.loc 1 137 0
 455 0042 1F23     		movs	r3, #31
 456 0044 FB18     		adds	r3, r7, r3
 457 0046 3A69     		ldr	r2, [r7, #16]
 458 0048 9278     		ldrb	r2, [r2, #2]
 459 004a 1A70     		strb	r2, [r3]
 138:Drivers/u8glib/src/u8g_dev_a2_micro_printer.c ****         ptr = pb->buf;
 460              		.loc 1 138 0
 461 004c 3B69     		ldr	r3, [r7, #16]
 462 004e 9B68     		ldr	r3, [r3, #8]
 463 0050 BB61     		str	r3, [r7, #24]
 139:Drivers/u8glib/src/u8g_dev_a2_micro_printer.c **** 	//u8g_WriteByte(u8g, dev, 18);      /* DC2 */
 140:Drivers/u8glib/src/u8g_dev_a2_micro_printer.c **** 	//u8g_WriteByte(u8g, dev, 35 );      /* #  */
 141:Drivers/u8glib/src/u8g_dev_a2_micro_printer.c **** 	//u8g_WriteByte(u8g, dev, 0x0ff );      /* max  */
 142:Drivers/u8glib/src/u8g_dev_a2_micro_printer.c **** 
 143:Drivers/u8glib/src/u8g_dev_a2_micro_printer.c **** 	u8g_WriteByte(u8g, dev, 27);      /* ESC */
 464              		.loc 1 143 0
 465 0052 B968     		ldr	r1, [r7, #8]
 466 0054 FB68     		ldr	r3, [r7, #12]
 467 0056 1B22     		movs	r2, #27
 468 0058 1800     		movs	r0, r3
 469 005a FFF7FEFF 		bl	u8g_WriteByte
 144:Drivers/u8glib/src/u8g_dev_a2_micro_printer.c **** 	u8g_WriteByte(u8g, dev, 55 );      /* parameter command */
 470              		.loc 1 144 0
 471 005e B968     		ldr	r1, [r7, #8]
 472 0060 FB68     		ldr	r3, [r7, #12]
 473 0062 3722     		movs	r2, #55
 474 0064 1800     		movs	r0, r3
 475 0066 FFF7FEFF 		bl	u8g_WriteByte
 145:Drivers/u8glib/src/u8g_dev_a2_micro_printer.c **** 	u8g_WriteByte(u8g, dev, 7);      /* Max printing dots,Unit(8dots),Default:7(64 dots) 8*(x+1)*/
 476              		.loc 1 145 0
 477 006a B968     		ldr	r1, [r7, #8]
 478 006c FB68     		ldr	r3, [r7, #12]
 479 006e 0722     		movs	r2, #7
 480 0070 1800     		movs	r0, r3
 481 0072 FFF7FEFF 		bl	u8g_WriteByte
 146:Drivers/u8glib/src/u8g_dev_a2_micro_printer.c **** 	u8g_WriteByte(u8g, dev, 160);      /* 3-255 Heating time,Unit(10us),Default:80(800us) */
ARM GAS  /tmp/cckq6O3B.s 			page 12


 482              		.loc 1 146 0
 483 0076 B968     		ldr	r1, [r7, #8]
 484 0078 FB68     		ldr	r3, [r7, #12]
 485 007a A022     		movs	r2, #160
 486 007c 1800     		movs	r0, r3
 487 007e FFF7FEFF 		bl	u8g_WriteByte
 147:Drivers/u8glib/src/u8g_dev_a2_micro_printer.c **** 	u8g_WriteByte(u8g, dev, 20);      /* 0-255 Heating interval,Unit(10us),Default:2(20us)*/
 488              		.loc 1 147 0
 489 0082 B968     		ldr	r1, [r7, #8]
 490 0084 FB68     		ldr	r3, [r7, #12]
 491 0086 1422     		movs	r2, #20
 492 0088 1800     		movs	r0, r3
 493 008a FFF7FEFF 		bl	u8g_WriteByte
 148:Drivers/u8glib/src/u8g_dev_a2_micro_printer.c **** 	
 149:Drivers/u8glib/src/u8g_dev_a2_micro_printer.c **** 	u8g_WriteByte(u8g, dev, 18);      /* DC2 */
 494              		.loc 1 149 0
 495 008e B968     		ldr	r1, [r7, #8]
 496 0090 FB68     		ldr	r3, [r7, #12]
 497 0092 1222     		movs	r2, #18
 498 0094 1800     		movs	r0, r3
 499 0096 FFF7FEFF 		bl	u8g_WriteByte
 150:Drivers/u8glib/src/u8g_dev_a2_micro_printer.c **** 	u8g_WriteByte(u8g, dev, 42 );      /* *  */
 500              		.loc 1 150 0
 501 009a B968     		ldr	r1, [r7, #8]
 502 009c FB68     		ldr	r3, [r7, #12]
 503 009e 2A22     		movs	r2, #42
 504 00a0 1800     		movs	r0, r3
 505 00a2 FFF7FEFF 		bl	u8g_WriteByte
 151:Drivers/u8glib/src/u8g_dev_a2_micro_printer.c **** 	u8g_WriteByte(u8g, dev, pb->p.page_height*2 ); 
 506              		.loc 1 151 0
 507 00a6 3B69     		ldr	r3, [r7, #16]
 508 00a8 1B78     		ldrb	r3, [r3]
 509 00aa DB18     		adds	r3, r3, r3
 510 00ac DAB2     		uxtb	r2, r3
 511 00ae B968     		ldr	r1, [r7, #8]
 512 00b0 FB68     		ldr	r3, [r7, #12]
 513 00b2 1800     		movs	r0, r3
 514 00b4 FFF7FEFF 		bl	u8g_WriteByte
 152:Drivers/u8glib/src/u8g_dev_a2_micro_printer.c **** 	u8g_WriteByte(u8g, dev, pb->width/8*2 ); 
 515              		.loc 1 152 0
 516 00b8 3B69     		ldr	r3, [r7, #16]
 517 00ba 5B79     		ldrb	r3, [r3, #5]
 518 00bc DB08     		lsrs	r3, r3, #3
 519 00be DBB2     		uxtb	r3, r3
 520 00c0 DB18     		adds	r3, r3, r3
 521 00c2 DAB2     		uxtb	r2, r3
 522 00c4 B968     		ldr	r1, [r7, #8]
 523 00c6 FB68     		ldr	r3, [r7, #12]
 524 00c8 1800     		movs	r0, r3
 525 00ca FFF7FEFF 		bl	u8g_WriteByte
 153:Drivers/u8glib/src/u8g_dev_a2_micro_printer.c **** 	
 154:Drivers/u8glib/src/u8g_dev_a2_micro_printer.c ****         for( i = 0; i < pb->p.page_height; i ++ )
 526              		.loc 1 154 0
 527 00ce 1E23     		movs	r3, #30
 528 00d0 FB18     		adds	r3, r7, r3
 529 00d2 0022     		movs	r2, #0
 530 00d4 1A70     		strb	r2, [r3]
ARM GAS  /tmp/cckq6O3B.s 			page 13


 531 00d6 89E0     		b	.L21
 532              	.L26:
 155:Drivers/u8glib/src/u8g_dev_a2_micro_printer.c ****         {
 156:Drivers/u8glib/src/u8g_dev_a2_micro_printer.c **** 	  p2 = ptr;
 533              		.loc 1 156 0
 534 00d8 BB69     		ldr	r3, [r7, #24]
 535 00da 7B61     		str	r3, [r7, #20]
 157:Drivers/u8glib/src/u8g_dev_a2_micro_printer.c **** 	  for( j = 0; j < pb->width/8; j++ )
 536              		.loc 1 157 0
 537 00dc 1D23     		movs	r3, #29
 538 00de FB18     		adds	r3, r7, r3
 539 00e0 0022     		movs	r2, #0
 540 00e2 1A70     		strb	r2, [r3]
 541 00e4 26E0     		b	.L22
 542              	.L23:
 158:Drivers/u8glib/src/u8g_dev_a2_micro_printer.c **** 	  {
 159:Drivers/u8glib/src/u8g_dev_a2_micro_printer.c **** 	    u8g_WriteByte(u8g, dev, u8g_dev_expand4(*p2 >> 4));
 543              		.loc 1 159 0 discriminator 3
 544 00e6 7B69     		ldr	r3, [r7, #20]
 545 00e8 1B78     		ldrb	r3, [r3]
 546 00ea 1B09     		lsrs	r3, r3, #4
 547 00ec DBB2     		uxtb	r3, r3
 548 00ee 1800     		movs	r0, r3
 549 00f0 FFF7FEFF 		bl	u8g_dev_expand4
 550 00f4 0300     		movs	r3, r0
 551 00f6 1A00     		movs	r2, r3
 552 00f8 B968     		ldr	r1, [r7, #8]
 553 00fa FB68     		ldr	r3, [r7, #12]
 554 00fc 1800     		movs	r0, r3
 555 00fe FFF7FEFF 		bl	u8g_WriteByte
 160:Drivers/u8glib/src/u8g_dev_a2_micro_printer.c **** 	    u8g_WriteByte(u8g, dev, u8g_dev_expand4(*p2 & 15));
 556              		.loc 1 160 0 discriminator 3
 557 0102 7B69     		ldr	r3, [r7, #20]
 558 0104 1B78     		ldrb	r3, [r3]
 559 0106 0F22     		movs	r2, #15
 560 0108 1340     		ands	r3, r2
 561 010a DBB2     		uxtb	r3, r3
 562 010c 1800     		movs	r0, r3
 563 010e FFF7FEFF 		bl	u8g_dev_expand4
 564 0112 0300     		movs	r3, r0
 565 0114 1A00     		movs	r2, r3
 566 0116 B968     		ldr	r1, [r7, #8]
 567 0118 FB68     		ldr	r3, [r7, #12]
 568 011a 1800     		movs	r0, r3
 569 011c FFF7FEFF 		bl	u8g_WriteByte
 161:Drivers/u8glib/src/u8g_dev_a2_micro_printer.c **** 	    p2++;
 570              		.loc 1 161 0 discriminator 3
 571 0120 7B69     		ldr	r3, [r7, #20]
 572 0122 0133     		adds	r3, r3, #1
 573 0124 7B61     		str	r3, [r7, #20]
 157:Drivers/u8glib/src/u8g_dev_a2_micro_printer.c **** 	  {
 574              		.loc 1 157 0 discriminator 3
 575 0126 1D23     		movs	r3, #29
 576 0128 FB18     		adds	r3, r7, r3
 577 012a 1A78     		ldrb	r2, [r3]
 578 012c 1D23     		movs	r3, #29
 579 012e FB18     		adds	r3, r7, r3
ARM GAS  /tmp/cckq6O3B.s 			page 14


 580 0130 0132     		adds	r2, r2, #1
 581 0132 1A70     		strb	r2, [r3]
 582              	.L22:
 157:Drivers/u8glib/src/u8g_dev_a2_micro_printer.c **** 	  {
 583              		.loc 1 157 0 is_stmt 0 discriminator 1
 584 0134 3B69     		ldr	r3, [r7, #16]
 585 0136 5B79     		ldrb	r3, [r3, #5]
 586 0138 DB08     		lsrs	r3, r3, #3
 587 013a DBB2     		uxtb	r3, r3
 588 013c 1D22     		movs	r2, #29
 589 013e BA18     		adds	r2, r7, r2
 590 0140 1278     		ldrb	r2, [r2]
 591 0142 9A42     		cmp	r2, r3
 592 0144 CFD3     		bcc	.L23
 162:Drivers/u8glib/src/u8g_dev_a2_micro_printer.c **** 	  }
 163:Drivers/u8glib/src/u8g_dev_a2_micro_printer.c **** 	  u8g_Delay(LINE_DELAY);
 593              		.loc 1 163 0 is_stmt 1
 594 0146 2820     		movs	r0, #40
 595 0148 FFF7FEFF 		bl	u8g_Delay
 164:Drivers/u8glib/src/u8g_dev_a2_micro_printer.c **** 	  p2 = ptr;
 596              		.loc 1 164 0
 597 014c BB69     		ldr	r3, [r7, #24]
 598 014e 7B61     		str	r3, [r7, #20]
 165:Drivers/u8glib/src/u8g_dev_a2_micro_printer.c **** 	  for( j = 0; j < pb->width/8; j++ )
 599              		.loc 1 165 0
 600 0150 1D23     		movs	r3, #29
 601 0152 FB18     		adds	r3, r7, r3
 602 0154 0022     		movs	r2, #0
 603 0156 1A70     		strb	r2, [r3]
 604 0158 26E0     		b	.L24
 605              	.L25:
 166:Drivers/u8glib/src/u8g_dev_a2_micro_printer.c **** 	  {
 167:Drivers/u8glib/src/u8g_dev_a2_micro_printer.c **** 	    u8g_WriteByte(u8g, dev, u8g_dev_expand4(*p2 >> 4));
 606              		.loc 1 167 0 discriminator 3
 607 015a 7B69     		ldr	r3, [r7, #20]
 608 015c 1B78     		ldrb	r3, [r3]
 609 015e 1B09     		lsrs	r3, r3, #4
 610 0160 DBB2     		uxtb	r3, r3
 611 0162 1800     		movs	r0, r3
 612 0164 FFF7FEFF 		bl	u8g_dev_expand4
 613 0168 0300     		movs	r3, r0
 614 016a 1A00     		movs	r2, r3
 615 016c B968     		ldr	r1, [r7, #8]
 616 016e FB68     		ldr	r3, [r7, #12]
 617 0170 1800     		movs	r0, r3
 618 0172 FFF7FEFF 		bl	u8g_WriteByte
 168:Drivers/u8glib/src/u8g_dev_a2_micro_printer.c **** 	    u8g_WriteByte(u8g, dev, u8g_dev_expand4(*p2 & 15));
 619              		.loc 1 168 0 discriminator 3
 620 0176 7B69     		ldr	r3, [r7, #20]
 621 0178 1B78     		ldrb	r3, [r3]
 622 017a 0F22     		movs	r2, #15
 623 017c 1340     		ands	r3, r2
 624 017e DBB2     		uxtb	r3, r3
 625 0180 1800     		movs	r0, r3
 626 0182 FFF7FEFF 		bl	u8g_dev_expand4
 627 0186 0300     		movs	r3, r0
 628 0188 1A00     		movs	r2, r3
ARM GAS  /tmp/cckq6O3B.s 			page 15


 629 018a B968     		ldr	r1, [r7, #8]
 630 018c FB68     		ldr	r3, [r7, #12]
 631 018e 1800     		movs	r0, r3
 632 0190 FFF7FEFF 		bl	u8g_WriteByte
 169:Drivers/u8glib/src/u8g_dev_a2_micro_printer.c **** 	    p2++;
 633              		.loc 1 169 0 discriminator 3
 634 0194 7B69     		ldr	r3, [r7, #20]
 635 0196 0133     		adds	r3, r3, #1
 636 0198 7B61     		str	r3, [r7, #20]
 165:Drivers/u8glib/src/u8g_dev_a2_micro_printer.c **** 	  {
 637              		.loc 1 165 0 discriminator 3
 638 019a 1D23     		movs	r3, #29
 639 019c FB18     		adds	r3, r7, r3
 640 019e 1A78     		ldrb	r2, [r3]
 641 01a0 1D23     		movs	r3, #29
 642 01a2 FB18     		adds	r3, r7, r3
 643 01a4 0132     		adds	r2, r2, #1
 644 01a6 1A70     		strb	r2, [r3]
 645              	.L24:
 165:Drivers/u8glib/src/u8g_dev_a2_micro_printer.c **** 	  {
 646              		.loc 1 165 0 is_stmt 0 discriminator 1
 647 01a8 3B69     		ldr	r3, [r7, #16]
 648 01aa 5B79     		ldrb	r3, [r3, #5]
 649 01ac DB08     		lsrs	r3, r3, #3
 650 01ae DBB2     		uxtb	r3, r3
 651 01b0 1D22     		movs	r2, #29
 652 01b2 BA18     		adds	r2, r7, r2
 653 01b4 1278     		ldrb	r2, [r2]
 654 01b6 9A42     		cmp	r2, r3
 655 01b8 CFD3     		bcc	.L25
 170:Drivers/u8glib/src/u8g_dev_a2_micro_printer.c **** 	  }
 171:Drivers/u8glib/src/u8g_dev_a2_micro_printer.c **** 	  u8g_Delay(LINE_DELAY);
 656              		.loc 1 171 0 is_stmt 1 discriminator 2
 657 01ba 2820     		movs	r0, #40
 658 01bc FFF7FEFF 		bl	u8g_Delay
 172:Drivers/u8glib/src/u8g_dev_a2_micro_printer.c **** 	  ptr += pb->width/8;
 659              		.loc 1 172 0 discriminator 2
 660 01c0 3B69     		ldr	r3, [r7, #16]
 661 01c2 5B79     		ldrb	r3, [r3, #5]
 662 01c4 DB08     		lsrs	r3, r3, #3
 663 01c6 DBB2     		uxtb	r3, r3
 664 01c8 1A00     		movs	r2, r3
 665 01ca BB69     		ldr	r3, [r7, #24]
 666 01cc 9B18     		adds	r3, r3, r2
 667 01ce BB61     		str	r3, [r7, #24]
 173:Drivers/u8glib/src/u8g_dev_a2_micro_printer.c ****           y++;
 668              		.loc 1 173 0 discriminator 2
 669 01d0 1F23     		movs	r3, #31
 670 01d2 FB18     		adds	r3, r7, r3
 671 01d4 1A78     		ldrb	r2, [r3]
 672 01d6 1F23     		movs	r3, #31
 673 01d8 FB18     		adds	r3, r7, r3
 674 01da 0132     		adds	r2, r2, #1
 675 01dc 1A70     		strb	r2, [r3]
 154:Drivers/u8glib/src/u8g_dev_a2_micro_printer.c ****         {
 676              		.loc 1 154 0 discriminator 2
 677 01de 1E23     		movs	r3, #30
ARM GAS  /tmp/cckq6O3B.s 			page 16


 678 01e0 FB18     		adds	r3, r7, r3
 679 01e2 1A78     		ldrb	r2, [r3]
 680 01e4 1E23     		movs	r3, #30
 681 01e6 FB18     		adds	r3, r7, r3
 682 01e8 0132     		adds	r2, r2, #1
 683 01ea 1A70     		strb	r2, [r3]
 684              	.L21:
 154:Drivers/u8glib/src/u8g_dev_a2_micro_printer.c ****         {
 685              		.loc 1 154 0 is_stmt 0 discriminator 1
 686 01ec 3B69     		ldr	r3, [r7, #16]
 687 01ee 1B78     		ldrb	r3, [r3]
 688 01f0 1E22     		movs	r2, #30
 689 01f2 BA18     		adds	r2, r7, r2
 690 01f4 1278     		ldrb	r2, [r2]
 691 01f6 9A42     		cmp	r2, r3
 692 01f8 00D2     		bcs	.LCB600
 693 01fa 6DE7     		b	.L26	@long jump
 694              	.LCB600:
 174:Drivers/u8glib/src/u8g_dev_a2_micro_printer.c ****         }
 175:Drivers/u8glib/src/u8g_dev_a2_micro_printer.c **** 	
 176:Drivers/u8glib/src/u8g_dev_a2_micro_printer.c **** 	/* set parameters back to their default values */
 177:Drivers/u8glib/src/u8g_dev_a2_micro_printer.c **** 	u8g_WriteByte(u8g, dev, 27);      /* ESC */
 695              		.loc 1 177 0 is_stmt 1
 696 01fc B968     		ldr	r1, [r7, #8]
 697 01fe FB68     		ldr	r3, [r7, #12]
 698 0200 1B22     		movs	r2, #27
 699 0202 1800     		movs	r0, r3
 700 0204 FFF7FEFF 		bl	u8g_WriteByte
 178:Drivers/u8glib/src/u8g_dev_a2_micro_printer.c **** 	u8g_WriteByte(u8g, dev, 55 );      /* parameter command */
 701              		.loc 1 178 0
 702 0208 B968     		ldr	r1, [r7, #8]
 703 020a FB68     		ldr	r3, [r7, #12]
 704 020c 3722     		movs	r2, #55
 705 020e 1800     		movs	r0, r3
 706 0210 FFF7FEFF 		bl	u8g_WriteByte
 179:Drivers/u8glib/src/u8g_dev_a2_micro_printer.c **** 	u8g_WriteByte(u8g, dev, 7);      /* Max printing dots,Unit(8dots),Default:7(64 dots) 8*(x+1)*/
 707              		.loc 1 179 0
 708 0214 B968     		ldr	r1, [r7, #8]
 709 0216 FB68     		ldr	r3, [r7, #12]
 710 0218 0722     		movs	r2, #7
 711 021a 1800     		movs	r0, r3
 712 021c FFF7FEFF 		bl	u8g_WriteByte
 180:Drivers/u8glib/src/u8g_dev_a2_micro_printer.c **** 	u8g_WriteByte(u8g, dev, 80);      /* 3-255 Heating time,Unit(10us),Default:80(800us) */
 713              		.loc 1 180 0
 714 0220 B968     		ldr	r1, [r7, #8]
 715 0222 FB68     		ldr	r3, [r7, #12]
 716 0224 5022     		movs	r2, #80
 717 0226 1800     		movs	r0, r3
 718 0228 FFF7FEFF 		bl	u8g_WriteByte
 181:Drivers/u8glib/src/u8g_dev_a2_micro_printer.c **** 	u8g_WriteByte(u8g, dev, 2);      /* 0-255 Heating interval,Unit(10us),Default:2(20us)*/
 719              		.loc 1 181 0
 720 022c B968     		ldr	r1, [r7, #8]
 721 022e FB68     		ldr	r3, [r7, #12]
 722 0230 0222     		movs	r2, #2
 723 0232 1800     		movs	r0, r3
 724 0234 FFF7FEFF 		bl	u8g_WriteByte
 725              	.LBE3:
ARM GAS  /tmp/cckq6O3B.s 			page 17


 182:Drivers/u8glib/src/u8g_dev_a2_micro_printer.c **** 	
 183:Drivers/u8glib/src/u8g_dev_a2_micro_printer.c ****       }
 184:Drivers/u8glib/src/u8g_dev_a2_micro_printer.c ****       break;
 726              		.loc 1 184 0
 727 0238 02E0     		b	.L15
 728              	.L28:
 120:Drivers/u8glib/src/u8g_dev_a2_micro_printer.c ****     case U8G_DEV_MSG_PAGE_FIRST:
 729              		.loc 1 120 0
 730 023a C046     		nop
 731 023c 00E0     		b	.L15
 732              	.L29:
 129:Drivers/u8glib/src/u8g_dev_a2_micro_printer.c ****     case U8G_DEV_MSG_PAGE_NEXT:
 733              		.loc 1 129 0
 734 023e C046     		nop
 735              	.L15:
 185:Drivers/u8glib/src/u8g_dev_a2_micro_printer.c ****   }
 186:Drivers/u8glib/src/u8g_dev_a2_micro_printer.c ****   return u8g_dev_pb8h1_base_fn(u8g, dev, msg, arg);
 736              		.loc 1 186 0
 737 0240 3C68     		ldr	r4, [r7]
 738 0242 FB1D     		adds	r3, r7, #7
 739 0244 1A78     		ldrb	r2, [r3]
 740 0246 B968     		ldr	r1, [r7, #8]
 741 0248 F868     		ldr	r0, [r7, #12]
 742 024a 2300     		movs	r3, r4
 743 024c FFF7FEFF 		bl	u8g_dev_pb8h1_base_fn
 744 0250 0300     		movs	r3, r0
 187:Drivers/u8glib/src/u8g_dev_a2_micro_printer.c **** }
 745              		.loc 1 187 0
 746 0252 1800     		movs	r0, r3
 747 0254 BD46     		mov	sp, r7
 748 0256 09B0     		add	sp, sp, #36
 749              		@ sp needed
 750 0258 90BD     		pop	{r4, r7, pc}
 751              		.cfi_endproc
 752              	.LFE2:
 754              		.global	u8g_dev_a2_micro_printer_384x240_buf
 755              		.section	.bss.u8g_dev_a2_micro_printer_384x240_buf,"aw",%nobits
 756              		.align	2
 759              	u8g_dev_a2_micro_printer_384x240_buf:
 760 0000 00000000 		.space	240
 760      00000000 
 760      00000000 
 760      00000000 
 760      00000000 
 761              		.global	u8g_dev_a2_micro_printer_384x240_pb
 762              		.section	.data.u8g_dev_a2_micro_printer_384x240_pb,"aw",%progbits
 763              		.align	2
 766              	u8g_dev_a2_micro_printer_384x240_pb:
 767 0000 08       		.byte	8
 768 0001 F0       		.byte	-16
 769 0002 00       		.byte	0
 770 0003 00       		.byte	0
 771 0004 00       		.byte	0
 772 0005 F0       		.byte	-16
 773 0006 0000     		.space	2
 774 0008 00000000 		.word	u8g_dev_a2_micro_printer_384x240_buf
 775              		.global	u8g_dev_a2_micro_printer_384x240
ARM GAS  /tmp/cckq6O3B.s 			page 18


 776              		.section	.data.u8g_dev_a2_micro_printer_384x240,"aw",%progbits
 777              		.align	2
 780              	u8g_dev_a2_micro_printer_384x240:
 781 0000 00000000 		.word	u8g_dev_a2_micro_printer_fn
 782 0004 00000000 		.word	u8g_dev_a2_micro_printer_384x240_pb
 783 0008 00000000 		.word	u8g_com_null_fn
 784              		.global	u8g_dev_a2_micro_printer_192x360_ds_buf
 785              		.section	.bss.u8g_dev_a2_micro_printer_192x360_ds_buf,"aw",%nobits
 786              		.align	2
 789              	u8g_dev_a2_micro_printer_192x360_ds_buf:
 790 0000 00000000 		.space	192
 790      00000000 
 790      00000000 
 790      00000000 
 790      00000000 
 791              		.global	u8g_dev_a2_micro_printer_192x360_ds_pb
 792              		.section	.data.u8g_dev_a2_micro_printer_192x360_ds_pb,"aw",%progbits
 793              		.align	2
 796              	u8g_dev_a2_micro_printer_192x360_ds_pb:
 797 0000 08       		.byte	8
 798 0001 F0       		.byte	-16
 799 0002 00       		.byte	0
 800 0003 00       		.byte	0
 801 0004 00       		.byte	0
 802 0005 C0       		.byte	-64
 803 0006 0000     		.space	2
 804 0008 00000000 		.word	u8g_dev_a2_micro_printer_192x360_ds_buf
 805              		.global	u8g_dev_a2_micro_printer_192x360_ds
 806              		.section	.data.u8g_dev_a2_micro_printer_192x360_ds,"aw",%progbits
 807              		.align	2
 810              	u8g_dev_a2_micro_printer_192x360_ds:
 811 0000 00000000 		.word	u8g_dev_a2_micro_printer_double_fn
 812 0004 00000000 		.word	u8g_dev_a2_micro_printer_192x360_ds_pb
 813 0008 00000000 		.word	u8g_com_null_fn
 814              		.global	u8g_dev_a2_micro_printer_192x720_ds_buf
 815              		.section	.bss.u8g_dev_a2_micro_printer_192x720_ds_buf,"aw",%nobits
 816              		.align	2
 819              	u8g_dev_a2_micro_printer_192x720_ds_buf:
 820 0000 00000000 		.space	192
 820      00000000 
 820      00000000 
 820      00000000 
 820      00000000 
 821              		.global	u8g_dev_a2_micro_printer_192x720_ds_pb
 822              		.section	.data.u8g_dev_a2_micro_printer_192x720_ds_pb,"aw",%progbits
 823              		.align	2
 826              	u8g_dev_a2_micro_printer_192x720_ds_pb:
 827 0000 08       		.byte	8
 828 0001 F0       		.byte	-16
 829 0002 00       		.byte	0
 830 0003 00       		.byte	0
 831 0004 00       		.byte	0
 832 0005 C0       		.byte	-64
 833 0006 0000     		.space	2
 834 0008 00000000 		.word	u8g_dev_a2_micro_printer_192x720_ds_buf
 835              		.global	u8g_dev_a2_micro_printer_192x720_ds
 836              		.section	.data.u8g_dev_a2_micro_printer_192x720_ds,"aw",%progbits
ARM GAS  /tmp/cckq6O3B.s 			page 19


 837              		.align	2
 840              	u8g_dev_a2_micro_printer_192x720_ds:
 841 0000 00000000 		.word	u8g_dev_a2_micro_printer_double_fn
 842 0004 00000000 		.word	u8g_dev_a2_micro_printer_192x720_ds_pb
 843 0008 00000000 		.word	u8g_com_null_fn
 844              		.global	u8g_dev_a2_micro_printer_192x120_ds_buf
 845              		.section	.bss.u8g_dev_a2_micro_printer_192x120_ds_buf,"aw",%nobits
 846              		.align	2
 849              	u8g_dev_a2_micro_printer_192x120_ds_buf:
 850 0000 00000000 		.space	192
 850      00000000 
 850      00000000 
 850      00000000 
 850      00000000 
 851              		.global	u8g_dev_a2_micro_printer_192x120_ds_pb
 852              		.section	.data.u8g_dev_a2_micro_printer_192x120_ds_pb,"aw",%progbits
 853              		.align	2
 856              	u8g_dev_a2_micro_printer_192x120_ds_pb:
 857 0000 08       		.byte	8
 858 0001 78       		.byte	120
 859 0002 00       		.byte	0
 860 0003 00       		.byte	0
 861 0004 00       		.byte	0
 862 0005 C0       		.byte	-64
 863 0006 0000     		.space	2
 864 0008 00000000 		.word	u8g_dev_a2_micro_printer_192x120_ds_buf
 865              		.global	u8g_dev_a2_micro_printer_192x120_ds
 866              		.section	.data.u8g_dev_a2_micro_printer_192x120_ds,"aw",%progbits
 867              		.align	2
 870              	u8g_dev_a2_micro_printer_192x120_ds:
 871 0000 00000000 		.word	u8g_dev_a2_micro_printer_double_fn
 872 0004 00000000 		.word	u8g_dev_a2_micro_printer_192x120_ds_pb
 873 0008 00000000 		.word	u8g_com_null_fn
 874              		.text
 875              	.Letext0:
 876              		.file 2 "/usr/arm-none-eabi/include/machine/_default_types.h"
 877              		.file 3 "/usr/arm-none-eabi/include/sys/_stdint.h"
 878              		.file 4 "Drivers/u8glib/inc/u8g.h"
ARM GAS  /tmp/cckq6O3B.s 			page 20

