ARM GAS  /tmp/ccMxaoR5.s 			page 1


   1              		.cpu cortex-m0
   2              		.eabi_attribute 20, 1
   3              		.eabi_attribute 21, 1
   4              		.eabi_attribute 23, 3
   5              		.eabi_attribute 24, 1
   6              		.eabi_attribute 25, 1
   7              		.eabi_attribute 26, 1
   8              		.eabi_attribute 30, 6
   9              		.eabi_attribute 34, 0
  10              		.eabi_attribute 18, 4
  11              		.file	"stm32f0xx_hal_i2c.c"
  12              		.text
  13              	.Ltext0:
  14              		.cfi_sections	.debug_frame
  15              		.section	.text.HAL_I2C_Init,"ax",%progbits
  16              		.align	1
  17              		.global	HAL_I2C_Init
  18              		.syntax unified
  19              		.code	16
  20              		.thumb_func
  21              		.fpu softvfp
  23              	HAL_I2C_Init:
  24              	.LFB35:
  25              		.file 1 "Drivers/STM32F0xx_HAL_Driver/Src/stm32f0xx_hal_i2c.c"
   1:Drivers/STM32F0xx_HAL_Driver/Src/stm32f0xx_hal_i2c.c **** /**
   2:Drivers/STM32F0xx_HAL_Driver/Src/stm32f0xx_hal_i2c.c ****   ******************************************************************************
   3:Drivers/STM32F0xx_HAL_Driver/Src/stm32f0xx_hal_i2c.c ****   * @file    stm32f0xx_hal_i2c.c
   4:Drivers/STM32F0xx_HAL_Driver/Src/stm32f0xx_hal_i2c.c ****   * @author  MCD Application Team
   5:Drivers/STM32F0xx_HAL_Driver/Src/stm32f0xx_hal_i2c.c ****   * @version V1.4.0
   6:Drivers/STM32F0xx_HAL_Driver/Src/stm32f0xx_hal_i2c.c ****   * @date    27-May-2016
   7:Drivers/STM32F0xx_HAL_Driver/Src/stm32f0xx_hal_i2c.c ****   * @brief   I2C HAL module driver.
   8:Drivers/STM32F0xx_HAL_Driver/Src/stm32f0xx_hal_i2c.c ****   *          This file provides firmware functions to manage the following 
   9:Drivers/STM32F0xx_HAL_Driver/Src/stm32f0xx_hal_i2c.c ****   *          functionalities of the Inter Integrated Circuit (I2C) peripheral:
  10:Drivers/STM32F0xx_HAL_Driver/Src/stm32f0xx_hal_i2c.c ****   *           + Initialization and de-initialization functions
  11:Drivers/STM32F0xx_HAL_Driver/Src/stm32f0xx_hal_i2c.c ****   *           + IO operation functions
  12:Drivers/STM32F0xx_HAL_Driver/Src/stm32f0xx_hal_i2c.c ****   *           + Peripheral State and Errors functions
  13:Drivers/STM32F0xx_HAL_Driver/Src/stm32f0xx_hal_i2c.c ****   *         
  14:Drivers/STM32F0xx_HAL_Driver/Src/stm32f0xx_hal_i2c.c ****   @verbatim
  15:Drivers/STM32F0xx_HAL_Driver/Src/stm32f0xx_hal_i2c.c ****   ==============================================================================
  16:Drivers/STM32F0xx_HAL_Driver/Src/stm32f0xx_hal_i2c.c ****                         ##### How to use this driver #####
  17:Drivers/STM32F0xx_HAL_Driver/Src/stm32f0xx_hal_i2c.c ****   ==============================================================================
  18:Drivers/STM32F0xx_HAL_Driver/Src/stm32f0xx_hal_i2c.c ****     [..]
  19:Drivers/STM32F0xx_HAL_Driver/Src/stm32f0xx_hal_i2c.c ****     The I2C HAL driver can be used as follows:
  20:Drivers/STM32F0xx_HAL_Driver/Src/stm32f0xx_hal_i2c.c ****     
  21:Drivers/STM32F0xx_HAL_Driver/Src/stm32f0xx_hal_i2c.c ****     (#) Declare a I2C_HandleTypeDef handle structure, for example:
  22:Drivers/STM32F0xx_HAL_Driver/Src/stm32f0xx_hal_i2c.c ****         I2C_HandleTypeDef  hi2c; 
  23:Drivers/STM32F0xx_HAL_Driver/Src/stm32f0xx_hal_i2c.c **** 
  24:Drivers/STM32F0xx_HAL_Driver/Src/stm32f0xx_hal_i2c.c ****     (#)Initialize the I2C low level resources by implementing the HAL_I2C_MspInit() API:
  25:Drivers/STM32F0xx_HAL_Driver/Src/stm32f0xx_hal_i2c.c ****         (##) Enable the I2Cx interface clock
  26:Drivers/STM32F0xx_HAL_Driver/Src/stm32f0xx_hal_i2c.c ****         (##) I2C pins configuration
  27:Drivers/STM32F0xx_HAL_Driver/Src/stm32f0xx_hal_i2c.c ****             (+++) Enable the clock for the I2C GPIOs
  28:Drivers/STM32F0xx_HAL_Driver/Src/stm32f0xx_hal_i2c.c ****             (+++) Configure I2C pins as alternate function open-drain
  29:Drivers/STM32F0xx_HAL_Driver/Src/stm32f0xx_hal_i2c.c ****         (##) NVIC configuration if you need to use interrupt process
  30:Drivers/STM32F0xx_HAL_Driver/Src/stm32f0xx_hal_i2c.c ****             (+++) Configure the I2Cx interrupt priority
  31:Drivers/STM32F0xx_HAL_Driver/Src/stm32f0xx_hal_i2c.c ****             (+++) Enable the NVIC I2C IRQ Channel
  32:Drivers/STM32F0xx_HAL_Driver/Src/stm32f0xx_hal_i2c.c ****         (##) DMA Configuration if you need to use DMA process
  33:Drivers/STM32F0xx_HAL_Driver/Src/stm32f0xx_hal_i2c.c ****             (+++) Declare a DMA_HandleTypeDef handle structure for the transmit or receive channel
ARM GAS  /tmp/ccMxaoR5.s 			page 2


  34:Drivers/STM32F0xx_HAL_Driver/Src/stm32f0xx_hal_i2c.c ****             (+++) Enable the DMAx interface clock using
  35:Drivers/STM32F0xx_HAL_Driver/Src/stm32f0xx_hal_i2c.c ****             (+++) Configure the DMA handle parameters
  36:Drivers/STM32F0xx_HAL_Driver/Src/stm32f0xx_hal_i2c.c ****             (+++) Configure the DMA Tx or Rx channel
  37:Drivers/STM32F0xx_HAL_Driver/Src/stm32f0xx_hal_i2c.c ****             (+++) Associate the initialized DMA handle to the hi2c DMA Tx or Rx handle
  38:Drivers/STM32F0xx_HAL_Driver/Src/stm32f0xx_hal_i2c.c ****             (+++) Configure the priority and enable the NVIC for the transfer complete interrupt on
  39:Drivers/STM32F0xx_HAL_Driver/Src/stm32f0xx_hal_i2c.c ****                   the DMA Tx or Rx channel
  40:Drivers/STM32F0xx_HAL_Driver/Src/stm32f0xx_hal_i2c.c **** 
  41:Drivers/STM32F0xx_HAL_Driver/Src/stm32f0xx_hal_i2c.c ****     (#) Configure the Communication Clock Timing, Own Address1, Master Addressing mode, Dual Addres
  42:Drivers/STM32F0xx_HAL_Driver/Src/stm32f0xx_hal_i2c.c ****         Own Address2, Own Address2 Mask, General call and Nostretch mode in the hi2c Init structure
  43:Drivers/STM32F0xx_HAL_Driver/Src/stm32f0xx_hal_i2c.c **** 
  44:Drivers/STM32F0xx_HAL_Driver/Src/stm32f0xx_hal_i2c.c ****     (#) Initialize the I2C registers by calling the HAL_I2C_Init(), configures also the low level H
  45:Drivers/STM32F0xx_HAL_Driver/Src/stm32f0xx_hal_i2c.c ****         (GPIO, CLOCK, NVIC...etc) by calling the customized HAL_I2C_MspInit(&hi2c) API.
  46:Drivers/STM32F0xx_HAL_Driver/Src/stm32f0xx_hal_i2c.c **** 
  47:Drivers/STM32F0xx_HAL_Driver/Src/stm32f0xx_hal_i2c.c ****     (#) To check if target device is ready for communication, use the function HAL_I2C_IsDeviceRead
  48:Drivers/STM32F0xx_HAL_Driver/Src/stm32f0xx_hal_i2c.c **** 
  49:Drivers/STM32F0xx_HAL_Driver/Src/stm32f0xx_hal_i2c.c ****     (#) For I2C IO and IO MEM operations, three operation modes are available within this driver :
  50:Drivers/STM32F0xx_HAL_Driver/Src/stm32f0xx_hal_i2c.c **** 
  51:Drivers/STM32F0xx_HAL_Driver/Src/stm32f0xx_hal_i2c.c ****     *** Polling mode IO operation ***
  52:Drivers/STM32F0xx_HAL_Driver/Src/stm32f0xx_hal_i2c.c ****     =================================
  53:Drivers/STM32F0xx_HAL_Driver/Src/stm32f0xx_hal_i2c.c ****     [..]
  54:Drivers/STM32F0xx_HAL_Driver/Src/stm32f0xx_hal_i2c.c ****       (+) Transmit in master mode an amount of data in blocking mode using HAL_I2C_Master_Transmit(
  55:Drivers/STM32F0xx_HAL_Driver/Src/stm32f0xx_hal_i2c.c ****       (+) Receive in master mode an amount of data in blocking mode using HAL_I2C_Master_Receive()
  56:Drivers/STM32F0xx_HAL_Driver/Src/stm32f0xx_hal_i2c.c ****       (+) Transmit in slave mode an amount of data in blocking mode using HAL_I2C_Slave_Transmit()
  57:Drivers/STM32F0xx_HAL_Driver/Src/stm32f0xx_hal_i2c.c ****       (+) Receive in slave mode an amount of data in blocking mode using HAL_I2C_Slave_Receive()
  58:Drivers/STM32F0xx_HAL_Driver/Src/stm32f0xx_hal_i2c.c **** 
  59:Drivers/STM32F0xx_HAL_Driver/Src/stm32f0xx_hal_i2c.c ****     *** Polling mode IO MEM operation ***
  60:Drivers/STM32F0xx_HAL_Driver/Src/stm32f0xx_hal_i2c.c ****     =====================================
  61:Drivers/STM32F0xx_HAL_Driver/Src/stm32f0xx_hal_i2c.c ****     [..]
  62:Drivers/STM32F0xx_HAL_Driver/Src/stm32f0xx_hal_i2c.c ****       (+) Write an amount of data in blocking mode to a specific memory address using HAL_I2C_Mem_W
  63:Drivers/STM32F0xx_HAL_Driver/Src/stm32f0xx_hal_i2c.c ****       (+) Read an amount of data in blocking mode from a specific memory address using HAL_I2C_Mem_
  64:Drivers/STM32F0xx_HAL_Driver/Src/stm32f0xx_hal_i2c.c **** 
  65:Drivers/STM32F0xx_HAL_Driver/Src/stm32f0xx_hal_i2c.c **** 
  66:Drivers/STM32F0xx_HAL_Driver/Src/stm32f0xx_hal_i2c.c ****     *** Interrupt mode IO operation ***
  67:Drivers/STM32F0xx_HAL_Driver/Src/stm32f0xx_hal_i2c.c ****     ===================================
  68:Drivers/STM32F0xx_HAL_Driver/Src/stm32f0xx_hal_i2c.c ****     [..]
  69:Drivers/STM32F0xx_HAL_Driver/Src/stm32f0xx_hal_i2c.c ****       (+) Transmit in master mode an amount of data in non-blocking mode using HAL_I2C_Master_Trans
  70:Drivers/STM32F0xx_HAL_Driver/Src/stm32f0xx_hal_i2c.c ****       (+) At transmission end of transfer, HAL_I2C_MasterTxCpltCallback() is executed and user can
  71:Drivers/STM32F0xx_HAL_Driver/Src/stm32f0xx_hal_i2c.c ****            add his own code by customization of function pointer HAL_I2C_MasterTxCpltCallback()
  72:Drivers/STM32F0xx_HAL_Driver/Src/stm32f0xx_hal_i2c.c ****       (+) Receive in master mode an amount of data in non-blocking mode using HAL_I2C_Master_Receiv
  73:Drivers/STM32F0xx_HAL_Driver/Src/stm32f0xx_hal_i2c.c ****       (+) At reception end of transfer, HAL_I2C_MasterRxCpltCallback() is executed and user can
  74:Drivers/STM32F0xx_HAL_Driver/Src/stm32f0xx_hal_i2c.c ****            add his own code by customization of function pointer HAL_I2C_MasterRxCpltCallback()
  75:Drivers/STM32F0xx_HAL_Driver/Src/stm32f0xx_hal_i2c.c ****       (+) Transmit in slave mode an amount of data in non-blocking mode using HAL_I2C_Slave_Transmi
  76:Drivers/STM32F0xx_HAL_Driver/Src/stm32f0xx_hal_i2c.c ****       (+) At transmission end of transfer, HAL_I2C_SlaveTxCpltCallback() is executed and user can
  77:Drivers/STM32F0xx_HAL_Driver/Src/stm32f0xx_hal_i2c.c ****            add his own code by customization of function pointer HAL_I2C_SlaveTxCpltCallback()
  78:Drivers/STM32F0xx_HAL_Driver/Src/stm32f0xx_hal_i2c.c ****       (+) Receive in slave mode an amount of data in non-blocking mode using HAL_I2C_Slave_Receive_
  79:Drivers/STM32F0xx_HAL_Driver/Src/stm32f0xx_hal_i2c.c ****       (+) At reception end of transfer, HAL_I2C_SlaveRxCpltCallback() is executed and user can
  80:Drivers/STM32F0xx_HAL_Driver/Src/stm32f0xx_hal_i2c.c ****            add his own code by customization of function pointer HAL_I2C_SlaveRxCpltCallback()
  81:Drivers/STM32F0xx_HAL_Driver/Src/stm32f0xx_hal_i2c.c ****       (+) In case of transfer Error, HAL_I2C_ErrorCallback() function is executed and user can
  82:Drivers/STM32F0xx_HAL_Driver/Src/stm32f0xx_hal_i2c.c ****            add his own code by customization of function pointer HAL_I2C_ErrorCallback()
  83:Drivers/STM32F0xx_HAL_Driver/Src/stm32f0xx_hal_i2c.c ****       (+) Abort a master I2C process communication with Interrupt using HAL_I2C_Master_Abort_IT()
  84:Drivers/STM32F0xx_HAL_Driver/Src/stm32f0xx_hal_i2c.c ****       (+) End of abort process, HAL_I2C_AbortCpltCallback() is executed and user can
  85:Drivers/STM32F0xx_HAL_Driver/Src/stm32f0xx_hal_i2c.c ****            add his own code by customization of function pointer HAL_I2C_AbortCpltCallback()
  86:Drivers/STM32F0xx_HAL_Driver/Src/stm32f0xx_hal_i2c.c ****       (+) Discard a slave I2C process communication using __HAL_I2C_GENERATE_NACK() macro.
  87:Drivers/STM32F0xx_HAL_Driver/Src/stm32f0xx_hal_i2c.c ****            This action will inform Master to generate a Stop condition to discard the communication
  88:Drivers/STM32F0xx_HAL_Driver/Src/stm32f0xx_hal_i2c.c **** 
  89:Drivers/STM32F0xx_HAL_Driver/Src/stm32f0xx_hal_i2c.c **** 
  90:Drivers/STM32F0xx_HAL_Driver/Src/stm32f0xx_hal_i2c.c ****     *** Interrupt mode IO sequential operation ***
ARM GAS  /tmp/ccMxaoR5.s 			page 3


  91:Drivers/STM32F0xx_HAL_Driver/Src/stm32f0xx_hal_i2c.c ****     ===================================
  92:Drivers/STM32F0xx_HAL_Driver/Src/stm32f0xx_hal_i2c.c ****     [..]
  93:Drivers/STM32F0xx_HAL_Driver/Src/stm32f0xx_hal_i2c.c ****       (@) These interfaces allow to manage a sequential transfer with a repeated start condition
  94:Drivers/STM32F0xx_HAL_Driver/Src/stm32f0xx_hal_i2c.c ****           when a direction change during transfer
  95:Drivers/STM32F0xx_HAL_Driver/Src/stm32f0xx_hal_i2c.c ****     [..]
  96:Drivers/STM32F0xx_HAL_Driver/Src/stm32f0xx_hal_i2c.c ****       (+) A specific option field manage the different steps of a sequential transfer
  97:Drivers/STM32F0xx_HAL_Driver/Src/stm32f0xx_hal_i2c.c ****       (+) Option field values are defined through I2C_XferOptions_definition and are listed below:
  98:Drivers/STM32F0xx_HAL_Driver/Src/stm32f0xx_hal_i2c.c ****       (++) I2C_FIRST_AND_LAST_FRAME: No sequential usage, functionnal is same as associated interfa
  99:Drivers/STM32F0xx_HAL_Driver/Src/stm32f0xx_hal_i2c.c ****       (++) I2C_FIRST_FRAME: Sequential usage, this option allow to manage a sequence with start con
 100:Drivers/STM32F0xx_HAL_Driver/Src/stm32f0xx_hal_i2c.c ****                             and data to transfer without a final stop condition
 101:Drivers/STM32F0xx_HAL_Driver/Src/stm32f0xx_hal_i2c.c ****       (++) I2C_NEXT_FRAME: Sequential usage, this option allow to manage a sequence with a restart 
 102:Drivers/STM32F0xx_HAL_Driver/Src/stm32f0xx_hal_i2c.c ****                             and with new data to transfer if the direction change or manage only th
 103:Drivers/STM32F0xx_HAL_Driver/Src/stm32f0xx_hal_i2c.c ****                             if no direction change and without a final stop condition in both cases
 104:Drivers/STM32F0xx_HAL_Driver/Src/stm32f0xx_hal_i2c.c ****       (++) I2C_LAST_FRAME: Sequential usage, this option allow to manage a sequance with a restart 
 105:Drivers/STM32F0xx_HAL_Driver/Src/stm32f0xx_hal_i2c.c ****                             and with new data to transfer if the direction change or manage only th
 106:Drivers/STM32F0xx_HAL_Driver/Src/stm32f0xx_hal_i2c.c ****                             if no direction change and with a final stop condition in both cases
 107:Drivers/STM32F0xx_HAL_Driver/Src/stm32f0xx_hal_i2c.c **** 
 108:Drivers/STM32F0xx_HAL_Driver/Src/stm32f0xx_hal_i2c.c ****       (+) Differents sequential I2C interfaces are listed below:
 109:Drivers/STM32F0xx_HAL_Driver/Src/stm32f0xx_hal_i2c.c ****       (++) Sequential transmit in master I2C mode an amount of data in non-blocking mode using HAL_
 110:Drivers/STM32F0xx_HAL_Driver/Src/stm32f0xx_hal_i2c.c ****       (+++) At transmission end of current frame transfer, HAL_I2C_MasterTxCpltCallback() is execut
 111:Drivers/STM32F0xx_HAL_Driver/Src/stm32f0xx_hal_i2c.c ****            add his own code by customization of function pointer HAL_I2C_MasterTxCpltCallback()
 112:Drivers/STM32F0xx_HAL_Driver/Src/stm32f0xx_hal_i2c.c ****       (++) Sequential receive in master I2C mode an amount of data in non-blocking mode using HAL_I
 113:Drivers/STM32F0xx_HAL_Driver/Src/stm32f0xx_hal_i2c.c ****       (+++) At reception end of current frame transfer, HAL_I2C_MasterRxCpltCallback() is executed 
 114:Drivers/STM32F0xx_HAL_Driver/Src/stm32f0xx_hal_i2c.c ****            add his own code by customization of function pointer HAL_I2C_MasterRxCpltCallback()
 115:Drivers/STM32F0xx_HAL_Driver/Src/stm32f0xx_hal_i2c.c ****       (++) Abort a master I2C process communication with Interrupt using HAL_I2C_Master_Abort_IT()
 116:Drivers/STM32F0xx_HAL_Driver/Src/stm32f0xx_hal_i2c.c ****       (+++) End of abort process, HAL_I2C_AbortCpltCallback() is executed and user can
 117:Drivers/STM32F0xx_HAL_Driver/Src/stm32f0xx_hal_i2c.c ****            add his own code by customization of function pointer HAL_I2C_AbortCpltCallback()
 118:Drivers/STM32F0xx_HAL_Driver/Src/stm32f0xx_hal_i2c.c ****       (+++) mean HAL_I2C_MasterTxCpltCallback() in case of previous state was master transmit
 119:Drivers/STM32F0xx_HAL_Driver/Src/stm32f0xx_hal_i2c.c ****       (+++) mean HAL_I2c_MasterRxCpltCallback() in case of previous state was master receive
 120:Drivers/STM32F0xx_HAL_Driver/Src/stm32f0xx_hal_i2c.c ****       (++) Enable/disable the Address listen mode in slave I2C mode using HAL_I2C_EnableListen_IT()
 121:Drivers/STM32F0xx_HAL_Driver/Src/stm32f0xx_hal_i2c.c ****       (+++) When address slave I2C match, HAL_I2C_AddrCallback() is executed and user can
 122:Drivers/STM32F0xx_HAL_Driver/Src/stm32f0xx_hal_i2c.c ****            add his own code to check the Address Match Code and the transmission direction request 
 123:Drivers/STM32F0xx_HAL_Driver/Src/stm32f0xx_hal_i2c.c ****       (+++) At Listen mode end HAL_I2C_ListenCpltCallback() is executed and user can
 124:Drivers/STM32F0xx_HAL_Driver/Src/stm32f0xx_hal_i2c.c ****            add his own code by customization of function pointer HAL_I2C_ListenCpltCallback()
 125:Drivers/STM32F0xx_HAL_Driver/Src/stm32f0xx_hal_i2c.c ****       (++) Sequential transmit in slave I2C mode an amount of data in non-blocking mode using HAL_I
 126:Drivers/STM32F0xx_HAL_Driver/Src/stm32f0xx_hal_i2c.c ****       (+++) At transmission end of current frame transfer, HAL_I2C_SlaveTxCpltCallback() is execute
 127:Drivers/STM32F0xx_HAL_Driver/Src/stm32f0xx_hal_i2c.c ****            add his own code by customization of function pointer HAL_I2C_SlaveTxCpltCallback()
 128:Drivers/STM32F0xx_HAL_Driver/Src/stm32f0xx_hal_i2c.c ****       (++) Sequential receive in slave I2C mode an amount of data in non-blocking mode using HAL_I2
 129:Drivers/STM32F0xx_HAL_Driver/Src/stm32f0xx_hal_i2c.c ****       (+++) At reception end of current frame transfer, HAL_I2C_SlaveRxCpltCallback() is executed a
 130:Drivers/STM32F0xx_HAL_Driver/Src/stm32f0xx_hal_i2c.c ****            add his own code by customization of function pointer HAL_I2C_SlaveRxCpltCallback()
 131:Drivers/STM32F0xx_HAL_Driver/Src/stm32f0xx_hal_i2c.c ****       (++) In case of transfer Error, HAL_I2C_ErrorCallback() function is executed and user can
 132:Drivers/STM32F0xx_HAL_Driver/Src/stm32f0xx_hal_i2c.c ****            add his own code by customization of function pointer HAL_I2C_ErrorCallback()
 133:Drivers/STM32F0xx_HAL_Driver/Src/stm32f0xx_hal_i2c.c ****       (++) Abort a master I2C process communication with Interrupt using HAL_I2C_Master_Abort_IT()
 134:Drivers/STM32F0xx_HAL_Driver/Src/stm32f0xx_hal_i2c.c ****       (++) End of abort process, HAL_I2C_AbortCpltCallback() is executed and user can
 135:Drivers/STM32F0xx_HAL_Driver/Src/stm32f0xx_hal_i2c.c ****            add his own code by customization of function pointer HAL_I2C_AbortCpltCallback()
 136:Drivers/STM32F0xx_HAL_Driver/Src/stm32f0xx_hal_i2c.c ****       (++) Discard a slave I2C process communication using __HAL_I2C_GENERATE_NACK() macro.
 137:Drivers/STM32F0xx_HAL_Driver/Src/stm32f0xx_hal_i2c.c ****            This action will inform Master to generate a Stop condition to discard the communication
 138:Drivers/STM32F0xx_HAL_Driver/Src/stm32f0xx_hal_i2c.c **** 
 139:Drivers/STM32F0xx_HAL_Driver/Src/stm32f0xx_hal_i2c.c ****     *** Interrupt mode IO MEM operation ***
 140:Drivers/STM32F0xx_HAL_Driver/Src/stm32f0xx_hal_i2c.c ****     =======================================
 141:Drivers/STM32F0xx_HAL_Driver/Src/stm32f0xx_hal_i2c.c ****     [..]
 142:Drivers/STM32F0xx_HAL_Driver/Src/stm32f0xx_hal_i2c.c ****       (+) Write an amount of data in non-blocking mode with Interrupt to a specific memory address 
 143:Drivers/STM32F0xx_HAL_Driver/Src/stm32f0xx_hal_i2c.c ****           HAL_I2C_Mem_Write_IT()
 144:Drivers/STM32F0xx_HAL_Driver/Src/stm32f0xx_hal_i2c.c ****       (+) At Memory end of write transfer, HAL_I2C_MemTxCpltCallback() is executed and user can
 145:Drivers/STM32F0xx_HAL_Driver/Src/stm32f0xx_hal_i2c.c ****            add his own code by customization of function pointer HAL_I2C_MemTxCpltCallback()
 146:Drivers/STM32F0xx_HAL_Driver/Src/stm32f0xx_hal_i2c.c ****       (+) Read an amount of data in non-blocking mode with Interrupt from a specific memory address
 147:Drivers/STM32F0xx_HAL_Driver/Src/stm32f0xx_hal_i2c.c ****           HAL_I2C_Mem_Read_IT()
ARM GAS  /tmp/ccMxaoR5.s 			page 4


 148:Drivers/STM32F0xx_HAL_Driver/Src/stm32f0xx_hal_i2c.c ****       (+) At Memory end of read transfer, HAL_I2C_MemRxCpltCallback() is executed and user can
 149:Drivers/STM32F0xx_HAL_Driver/Src/stm32f0xx_hal_i2c.c ****            add his own code by customization of function pointer HAL_I2C_MemRxCpltCallback()
 150:Drivers/STM32F0xx_HAL_Driver/Src/stm32f0xx_hal_i2c.c ****       (+) In case of transfer Error, HAL_I2C_ErrorCallback() function is executed and user can
 151:Drivers/STM32F0xx_HAL_Driver/Src/stm32f0xx_hal_i2c.c ****            add his own code by customization of function pointer HAL_I2C_ErrorCallback()
 152:Drivers/STM32F0xx_HAL_Driver/Src/stm32f0xx_hal_i2c.c **** 
 153:Drivers/STM32F0xx_HAL_Driver/Src/stm32f0xx_hal_i2c.c ****     *** DMA mode IO operation ***
 154:Drivers/STM32F0xx_HAL_Driver/Src/stm32f0xx_hal_i2c.c ****     ==============================
 155:Drivers/STM32F0xx_HAL_Driver/Src/stm32f0xx_hal_i2c.c ****     [..]
 156:Drivers/STM32F0xx_HAL_Driver/Src/stm32f0xx_hal_i2c.c ****       (+) Transmit in master mode an amount of data in non-blocking mode (DMA) using
 157:Drivers/STM32F0xx_HAL_Driver/Src/stm32f0xx_hal_i2c.c ****           HAL_I2C_Master_Transmit_DMA()
 158:Drivers/STM32F0xx_HAL_Driver/Src/stm32f0xx_hal_i2c.c ****       (+) At transmission end of transfer, HAL_I2C_MasterTxCpltCallback() is executed and user can
 159:Drivers/STM32F0xx_HAL_Driver/Src/stm32f0xx_hal_i2c.c ****            add his own code by customization of function pointer HAL_I2C_MasterTxCpltCallback()
 160:Drivers/STM32F0xx_HAL_Driver/Src/stm32f0xx_hal_i2c.c ****       (+) Receive in master mode an amount of data in non-blocking mode (DMA) using
 161:Drivers/STM32F0xx_HAL_Driver/Src/stm32f0xx_hal_i2c.c ****           HAL_I2C_Master_Receive_DMA()
 162:Drivers/STM32F0xx_HAL_Driver/Src/stm32f0xx_hal_i2c.c ****       (+) At reception end of transfer, HAL_I2C_MasterRxCpltCallback() is executed and user can
 163:Drivers/STM32F0xx_HAL_Driver/Src/stm32f0xx_hal_i2c.c ****            add his own code by customization of function pointer HAL_I2C_MasterRxCpltCallback()
 164:Drivers/STM32F0xx_HAL_Driver/Src/stm32f0xx_hal_i2c.c ****       (+) Transmit in slave mode an amount of data in non-blocking mode (DMA) using
 165:Drivers/STM32F0xx_HAL_Driver/Src/stm32f0xx_hal_i2c.c ****           HAL_I2C_Slave_Transmit_DMA()
 166:Drivers/STM32F0xx_HAL_Driver/Src/stm32f0xx_hal_i2c.c ****       (+) At transmission end of transfer, HAL_I2C_SlaveTxCpltCallback() is executed and user can
 167:Drivers/STM32F0xx_HAL_Driver/Src/stm32f0xx_hal_i2c.c ****            add his own code by customization of function pointer HAL_I2C_SlaveTxCpltCallback()
 168:Drivers/STM32F0xx_HAL_Driver/Src/stm32f0xx_hal_i2c.c ****       (+) Receive in slave mode an amount of data in non-blocking mode (DMA) using
 169:Drivers/STM32F0xx_HAL_Driver/Src/stm32f0xx_hal_i2c.c ****           HAL_I2C_Slave_Receive_DMA()
 170:Drivers/STM32F0xx_HAL_Driver/Src/stm32f0xx_hal_i2c.c ****       (+) At reception end of transfer, HAL_I2C_SlaveRxCpltCallback() is executed and user can
 171:Drivers/STM32F0xx_HAL_Driver/Src/stm32f0xx_hal_i2c.c ****            add his own code by customization of function pointer HAL_I2C_SlaveRxCpltCallback()
 172:Drivers/STM32F0xx_HAL_Driver/Src/stm32f0xx_hal_i2c.c ****       (+) In case of transfer Error, HAL_I2C_ErrorCallback() function is executed and user can
 173:Drivers/STM32F0xx_HAL_Driver/Src/stm32f0xx_hal_i2c.c ****            add his own code by customization of function pointer HAL_I2C_ErrorCallback()
 174:Drivers/STM32F0xx_HAL_Driver/Src/stm32f0xx_hal_i2c.c ****       (+) Abort a master I2C process communication with Interrupt using HAL_I2C_Master_Abort_IT()
 175:Drivers/STM32F0xx_HAL_Driver/Src/stm32f0xx_hal_i2c.c ****       (+) End of abort process, HAL_I2C_AbortCpltCallback() is executed and user can
 176:Drivers/STM32F0xx_HAL_Driver/Src/stm32f0xx_hal_i2c.c ****            add his own code by customization of function pointer HAL_I2C_AbortCpltCallback()
 177:Drivers/STM32F0xx_HAL_Driver/Src/stm32f0xx_hal_i2c.c ****       (+) Discard a slave I2C process communication using __HAL_I2C_GENERATE_NACK() macro.
 178:Drivers/STM32F0xx_HAL_Driver/Src/stm32f0xx_hal_i2c.c ****            This action will inform Master to generate a Stop condition to discard the communication
 179:Drivers/STM32F0xx_HAL_Driver/Src/stm32f0xx_hal_i2c.c **** 
 180:Drivers/STM32F0xx_HAL_Driver/Src/stm32f0xx_hal_i2c.c ****     *** DMA mode IO MEM operation ***
 181:Drivers/STM32F0xx_HAL_Driver/Src/stm32f0xx_hal_i2c.c ****     =================================
 182:Drivers/STM32F0xx_HAL_Driver/Src/stm32f0xx_hal_i2c.c ****     [..]
 183:Drivers/STM32F0xx_HAL_Driver/Src/stm32f0xx_hal_i2c.c ****       (+) Write an amount of data in non-blocking mode with DMA to a specific memory address using
 184:Drivers/STM32F0xx_HAL_Driver/Src/stm32f0xx_hal_i2c.c ****           HAL_I2C_Mem_Write_DMA()
 185:Drivers/STM32F0xx_HAL_Driver/Src/stm32f0xx_hal_i2c.c ****       (+) At Memory end of write transfer, HAL_I2C_MemTxCpltCallback() is executed and user can
 186:Drivers/STM32F0xx_HAL_Driver/Src/stm32f0xx_hal_i2c.c ****            add his own code by customization of function pointer HAL_I2C_MemTxCpltCallback()
 187:Drivers/STM32F0xx_HAL_Driver/Src/stm32f0xx_hal_i2c.c ****       (+) Read an amount of data in non-blocking mode with DMA from a specific memory address using
 188:Drivers/STM32F0xx_HAL_Driver/Src/stm32f0xx_hal_i2c.c ****           HAL_I2C_Mem_Read_DMA()
 189:Drivers/STM32F0xx_HAL_Driver/Src/stm32f0xx_hal_i2c.c ****       (+) At Memory end of read transfer, HAL_I2C_MemRxCpltCallback() is executed and user can
 190:Drivers/STM32F0xx_HAL_Driver/Src/stm32f0xx_hal_i2c.c ****            add his own code by customization of function pointer HAL_I2C_MemRxCpltCallback()
 191:Drivers/STM32F0xx_HAL_Driver/Src/stm32f0xx_hal_i2c.c ****       (+) In case of transfer Error, HAL_I2C_ErrorCallback() function is executed and user can
 192:Drivers/STM32F0xx_HAL_Driver/Src/stm32f0xx_hal_i2c.c ****            add his own code by customization of function pointer HAL_I2C_ErrorCallback()
 193:Drivers/STM32F0xx_HAL_Driver/Src/stm32f0xx_hal_i2c.c **** 
 194:Drivers/STM32F0xx_HAL_Driver/Src/stm32f0xx_hal_i2c.c **** 
 195:Drivers/STM32F0xx_HAL_Driver/Src/stm32f0xx_hal_i2c.c ****      *** I2C HAL driver macros list ***
 196:Drivers/STM32F0xx_HAL_Driver/Src/stm32f0xx_hal_i2c.c ****      ==================================
 197:Drivers/STM32F0xx_HAL_Driver/Src/stm32f0xx_hal_i2c.c ****      [..]
 198:Drivers/STM32F0xx_HAL_Driver/Src/stm32f0xx_hal_i2c.c ****        Below the list of most used macros in I2C HAL driver.
 199:Drivers/STM32F0xx_HAL_Driver/Src/stm32f0xx_hal_i2c.c **** 
 200:Drivers/STM32F0xx_HAL_Driver/Src/stm32f0xx_hal_i2c.c ****       (+) __HAL_I2C_ENABLE:      Enable the I2C peripheral
 201:Drivers/STM32F0xx_HAL_Driver/Src/stm32f0xx_hal_i2c.c ****       (+) __HAL_I2C_DISABLE:     Disable the I2C peripheral
 202:Drivers/STM32F0xx_HAL_Driver/Src/stm32f0xx_hal_i2c.c ****       (+) __HAL_I2C_GENERATE_NACK: Generate a Non-Acknowledge I2C peripheral in Slave mode
 203:Drivers/STM32F0xx_HAL_Driver/Src/stm32f0xx_hal_i2c.c ****       (+) __HAL_I2C_GET_FLAG:    Check whether the specified I2C flag is set or not
 204:Drivers/STM32F0xx_HAL_Driver/Src/stm32f0xx_hal_i2c.c ****       (+) __HAL_I2C_CLEAR_FLAG:  Clear the specified I2C pending flag
ARM GAS  /tmp/ccMxaoR5.s 			page 5


 205:Drivers/STM32F0xx_HAL_Driver/Src/stm32f0xx_hal_i2c.c ****       (+) __HAL_I2C_ENABLE_IT:   Enable the specified I2C interrupt
 206:Drivers/STM32F0xx_HAL_Driver/Src/stm32f0xx_hal_i2c.c ****       (+) __HAL_I2C_DISABLE_IT:  Disable the specified I2C interrupt
 207:Drivers/STM32F0xx_HAL_Driver/Src/stm32f0xx_hal_i2c.c **** 
 208:Drivers/STM32F0xx_HAL_Driver/Src/stm32f0xx_hal_i2c.c ****      [..]
 209:Drivers/STM32F0xx_HAL_Driver/Src/stm32f0xx_hal_i2c.c ****        (@) You can refer to the I2C HAL driver header file for more useful macros
 210:Drivers/STM32F0xx_HAL_Driver/Src/stm32f0xx_hal_i2c.c **** 
 211:Drivers/STM32F0xx_HAL_Driver/Src/stm32f0xx_hal_i2c.c ****   @endverbatim
 212:Drivers/STM32F0xx_HAL_Driver/Src/stm32f0xx_hal_i2c.c ****   ******************************************************************************
 213:Drivers/STM32F0xx_HAL_Driver/Src/stm32f0xx_hal_i2c.c ****   * @attention
 214:Drivers/STM32F0xx_HAL_Driver/Src/stm32f0xx_hal_i2c.c ****   *
 215:Drivers/STM32F0xx_HAL_Driver/Src/stm32f0xx_hal_i2c.c ****   * <h2><center>&copy; COPYRIGHT(c) 2016 STMicroelectronics</center></h2>
 216:Drivers/STM32F0xx_HAL_Driver/Src/stm32f0xx_hal_i2c.c ****   *
 217:Drivers/STM32F0xx_HAL_Driver/Src/stm32f0xx_hal_i2c.c ****   * Redistribution and use in source and binary forms, with or without modification,
 218:Drivers/STM32F0xx_HAL_Driver/Src/stm32f0xx_hal_i2c.c ****   * are permitted provided that the following conditions are met:
 219:Drivers/STM32F0xx_HAL_Driver/Src/stm32f0xx_hal_i2c.c ****   *   1. Redistributions of source code must retain the above copyright notice,
 220:Drivers/STM32F0xx_HAL_Driver/Src/stm32f0xx_hal_i2c.c ****   *      this list of conditions and the following disclaimer.
 221:Drivers/STM32F0xx_HAL_Driver/Src/stm32f0xx_hal_i2c.c ****   *   2. Redistributions in binary form must reproduce the above copyright notice,
 222:Drivers/STM32F0xx_HAL_Driver/Src/stm32f0xx_hal_i2c.c ****   *      this list of conditions and the following disclaimer in the documentation
 223:Drivers/STM32F0xx_HAL_Driver/Src/stm32f0xx_hal_i2c.c ****   *      and/or other materials provided with the distribution.
 224:Drivers/STM32F0xx_HAL_Driver/Src/stm32f0xx_hal_i2c.c ****   *   3. Neither the name of STMicroelectronics nor the names of its contributors
 225:Drivers/STM32F0xx_HAL_Driver/Src/stm32f0xx_hal_i2c.c ****   *      may be used to endorse or promote products derived from this software
 226:Drivers/STM32F0xx_HAL_Driver/Src/stm32f0xx_hal_i2c.c ****   *      without specific prior written permission.
 227:Drivers/STM32F0xx_HAL_Driver/Src/stm32f0xx_hal_i2c.c ****   *
 228:Drivers/STM32F0xx_HAL_Driver/Src/stm32f0xx_hal_i2c.c ****   * THIS SOFTWARE IS PROVIDED BY THE COPYRIGHT HOLDERS AND CONTRIBUTORS "AS IS"
 229:Drivers/STM32F0xx_HAL_Driver/Src/stm32f0xx_hal_i2c.c ****   * AND ANY EXPRESS OR IMPLIED WARRANTIES, INCLUDING, BUT NOT LIMITED TO, THE
 230:Drivers/STM32F0xx_HAL_Driver/Src/stm32f0xx_hal_i2c.c ****   * IMPLIED WARRANTIES OF MERCHANTABILITY AND FITNESS FOR A PARTICULAR PURPOSE ARE
 231:Drivers/STM32F0xx_HAL_Driver/Src/stm32f0xx_hal_i2c.c ****   * DISCLAIMED. IN NO EVENT SHALL THE COPYRIGHT HOLDER OR CONTRIBUTORS BE LIABLE
 232:Drivers/STM32F0xx_HAL_Driver/Src/stm32f0xx_hal_i2c.c ****   * FOR ANY DIRECT, INDIRECT, INCIDENTAL, SPECIAL, EXEMPLARY, OR CONSEQUENTIAL
 233:Drivers/STM32F0xx_HAL_Driver/Src/stm32f0xx_hal_i2c.c ****   * DAMAGES (INCLUDING, BUT NOT LIMITED TO, PROCUREMENT OF SUBSTITUTE GOODS OR
 234:Drivers/STM32F0xx_HAL_Driver/Src/stm32f0xx_hal_i2c.c ****   * SERVICES; LOSS OF USE, DATA, OR PROFITS; OR BUSINESS INTERRUPTION) HOWEVER
 235:Drivers/STM32F0xx_HAL_Driver/Src/stm32f0xx_hal_i2c.c ****   * CAUSED AND ON ANY THEORY OF LIABILITY, WHETHER IN CONTRACT, STRICT LIABILITY,
 236:Drivers/STM32F0xx_HAL_Driver/Src/stm32f0xx_hal_i2c.c ****   * OR TORT (INCLUDING NEGLIGENCE OR OTHERWISE) ARISING IN ANY WAY OUT OF THE USE
 237:Drivers/STM32F0xx_HAL_Driver/Src/stm32f0xx_hal_i2c.c ****   * OF THIS SOFTWARE, EVEN IF ADVISED OF THE POSSIBILITY OF SUCH DAMAGE.
 238:Drivers/STM32F0xx_HAL_Driver/Src/stm32f0xx_hal_i2c.c ****   *
 239:Drivers/STM32F0xx_HAL_Driver/Src/stm32f0xx_hal_i2c.c ****   ******************************************************************************  
 240:Drivers/STM32F0xx_HAL_Driver/Src/stm32f0xx_hal_i2c.c ****   */
 241:Drivers/STM32F0xx_HAL_Driver/Src/stm32f0xx_hal_i2c.c **** 
 242:Drivers/STM32F0xx_HAL_Driver/Src/stm32f0xx_hal_i2c.c **** /* Includes ------------------------------------------------------------------*/
 243:Drivers/STM32F0xx_HAL_Driver/Src/stm32f0xx_hal_i2c.c **** #include "stm32f0xx_hal.h"
 244:Drivers/STM32F0xx_HAL_Driver/Src/stm32f0xx_hal_i2c.c **** 
 245:Drivers/STM32F0xx_HAL_Driver/Src/stm32f0xx_hal_i2c.c **** /** @addtogroup STM32F0xx_HAL_Driver
 246:Drivers/STM32F0xx_HAL_Driver/Src/stm32f0xx_hal_i2c.c ****   * @{
 247:Drivers/STM32F0xx_HAL_Driver/Src/stm32f0xx_hal_i2c.c ****   */
 248:Drivers/STM32F0xx_HAL_Driver/Src/stm32f0xx_hal_i2c.c **** 
 249:Drivers/STM32F0xx_HAL_Driver/Src/stm32f0xx_hal_i2c.c **** /** @defgroup I2C I2C
 250:Drivers/STM32F0xx_HAL_Driver/Src/stm32f0xx_hal_i2c.c ****   * @brief I2C HAL module driver
 251:Drivers/STM32F0xx_HAL_Driver/Src/stm32f0xx_hal_i2c.c ****   * @{
 252:Drivers/STM32F0xx_HAL_Driver/Src/stm32f0xx_hal_i2c.c ****   */
 253:Drivers/STM32F0xx_HAL_Driver/Src/stm32f0xx_hal_i2c.c **** 
 254:Drivers/STM32F0xx_HAL_Driver/Src/stm32f0xx_hal_i2c.c **** #ifdef HAL_I2C_MODULE_ENABLED
 255:Drivers/STM32F0xx_HAL_Driver/Src/stm32f0xx_hal_i2c.c **** 
 256:Drivers/STM32F0xx_HAL_Driver/Src/stm32f0xx_hal_i2c.c **** /* Private typedef -----------------------------------------------------------*/
 257:Drivers/STM32F0xx_HAL_Driver/Src/stm32f0xx_hal_i2c.c **** /* Private define ------------------------------------------------------------*/
 258:Drivers/STM32F0xx_HAL_Driver/Src/stm32f0xx_hal_i2c.c **** 
 259:Drivers/STM32F0xx_HAL_Driver/Src/stm32f0xx_hal_i2c.c **** /** @defgroup I2C_Private_Define I2C Private Define
 260:Drivers/STM32F0xx_HAL_Driver/Src/stm32f0xx_hal_i2c.c ****   * @{
 261:Drivers/STM32F0xx_HAL_Driver/Src/stm32f0xx_hal_i2c.c ****   */
ARM GAS  /tmp/ccMxaoR5.s 			page 6


 262:Drivers/STM32F0xx_HAL_Driver/Src/stm32f0xx_hal_i2c.c **** #define TIMING_CLEAR_MASK   (0xF0FFFFFFU)  /*!< I2C TIMING clear register Mask */
 263:Drivers/STM32F0xx_HAL_Driver/Src/stm32f0xx_hal_i2c.c **** #define I2C_TIMEOUT_ADDR    (10000U)       /*!< 10 s  */
 264:Drivers/STM32F0xx_HAL_Driver/Src/stm32f0xx_hal_i2c.c **** #define I2C_TIMEOUT_BUSY    (25U)          /*!< 25 ms */
 265:Drivers/STM32F0xx_HAL_Driver/Src/stm32f0xx_hal_i2c.c **** #define I2C_TIMEOUT_DIR     (25U)          /*!< 25 ms */
 266:Drivers/STM32F0xx_HAL_Driver/Src/stm32f0xx_hal_i2c.c **** #define I2C_TIMEOUT_RXNE    (25U)          /*!< 25 ms */
 267:Drivers/STM32F0xx_HAL_Driver/Src/stm32f0xx_hal_i2c.c **** #define I2C_TIMEOUT_STOPF   (25U)          /*!< 25 ms */
 268:Drivers/STM32F0xx_HAL_Driver/Src/stm32f0xx_hal_i2c.c **** #define I2C_TIMEOUT_TC      (25U)          /*!< 25 ms */
 269:Drivers/STM32F0xx_HAL_Driver/Src/stm32f0xx_hal_i2c.c **** #define I2C_TIMEOUT_TCR     (25U)          /*!< 25 ms */
 270:Drivers/STM32F0xx_HAL_Driver/Src/stm32f0xx_hal_i2c.c **** #define I2C_TIMEOUT_TXIS    (25U)          /*!< 25 ms */
 271:Drivers/STM32F0xx_HAL_Driver/Src/stm32f0xx_hal_i2c.c **** #define I2C_TIMEOUT_FLAG    (25U)          /*!< 25 ms */
 272:Drivers/STM32F0xx_HAL_Driver/Src/stm32f0xx_hal_i2c.c **** 
 273:Drivers/STM32F0xx_HAL_Driver/Src/stm32f0xx_hal_i2c.c **** #define MAX_NBYTE_SIZE      255U
 274:Drivers/STM32F0xx_HAL_Driver/Src/stm32f0xx_hal_i2c.c **** #define SlaveAddr_SHIFT     7U
 275:Drivers/STM32F0xx_HAL_Driver/Src/stm32f0xx_hal_i2c.c **** #define SlaveAddr_MSK       0x06U
 276:Drivers/STM32F0xx_HAL_Driver/Src/stm32f0xx_hal_i2c.c **** 
 277:Drivers/STM32F0xx_HAL_Driver/Src/stm32f0xx_hal_i2c.c **** /* Private define for @ref PreviousState usage */
 278:Drivers/STM32F0xx_HAL_Driver/Src/stm32f0xx_hal_i2c.c **** #define I2C_STATE_MSK             ((uint32_t)((HAL_I2C_STATE_BUSY_TX | HAL_I2C_STATE_BUSY_RX) & (ui
 279:Drivers/STM32F0xx_HAL_Driver/Src/stm32f0xx_hal_i2c.c **** #define I2C_STATE_NONE            ((uint32_t)(HAL_I2C_MODE_NONE))                                  
 280:Drivers/STM32F0xx_HAL_Driver/Src/stm32f0xx_hal_i2c.c **** #define I2C_STATE_MASTER_BUSY_TX  ((uint32_t)((HAL_I2C_STATE_BUSY_TX & I2C_STATE_MSK) | HAL_I2C_MOD
 281:Drivers/STM32F0xx_HAL_Driver/Src/stm32f0xx_hal_i2c.c **** #define I2C_STATE_MASTER_BUSY_RX  ((uint32_t)((HAL_I2C_STATE_BUSY_RX & I2C_STATE_MSK) | HAL_I2C_MOD
 282:Drivers/STM32F0xx_HAL_Driver/Src/stm32f0xx_hal_i2c.c **** #define I2C_STATE_SLAVE_BUSY_TX   ((uint32_t)((HAL_I2C_STATE_BUSY_TX & I2C_STATE_MSK) | HAL_I2C_MOD
 283:Drivers/STM32F0xx_HAL_Driver/Src/stm32f0xx_hal_i2c.c **** #define I2C_STATE_SLAVE_BUSY_RX   ((uint32_t)((HAL_I2C_STATE_BUSY_RX & I2C_STATE_MSK) | HAL_I2C_MOD
 284:Drivers/STM32F0xx_HAL_Driver/Src/stm32f0xx_hal_i2c.c **** #define I2C_STATE_MEM_BUSY_TX     ((uint32_t)((HAL_I2C_STATE_BUSY_TX & I2C_STATE_MSK) | HAL_I2C_MOD
 285:Drivers/STM32F0xx_HAL_Driver/Src/stm32f0xx_hal_i2c.c **** #define I2C_STATE_MEM_BUSY_RX     ((uint32_t)((HAL_I2C_STATE_BUSY_RX & I2C_STATE_MSK) | HAL_I2C_MOD
 286:Drivers/STM32F0xx_HAL_Driver/Src/stm32f0xx_hal_i2c.c **** 
 287:Drivers/STM32F0xx_HAL_Driver/Src/stm32f0xx_hal_i2c.c **** 
 288:Drivers/STM32F0xx_HAL_Driver/Src/stm32f0xx_hal_i2c.c **** /* Private define to centralize the enable/disable of Interrupts */
 289:Drivers/STM32F0xx_HAL_Driver/Src/stm32f0xx_hal_i2c.c **** #define I2C_XFER_TX_IT          (0x00000001U)
 290:Drivers/STM32F0xx_HAL_Driver/Src/stm32f0xx_hal_i2c.c **** #define I2C_XFER_RX_IT          (0x00000002U)
 291:Drivers/STM32F0xx_HAL_Driver/Src/stm32f0xx_hal_i2c.c **** #define I2C_XFER_LISTEN_IT      (0x00000004U)
 292:Drivers/STM32F0xx_HAL_Driver/Src/stm32f0xx_hal_i2c.c **** 
 293:Drivers/STM32F0xx_HAL_Driver/Src/stm32f0xx_hal_i2c.c **** #define I2C_XFER_ERROR_IT       (0x00000011U)
 294:Drivers/STM32F0xx_HAL_Driver/Src/stm32f0xx_hal_i2c.c **** #define I2C_XFER_CPLT_IT        (0x00000012U)
 295:Drivers/STM32F0xx_HAL_Driver/Src/stm32f0xx_hal_i2c.c **** #define I2C_XFER_RELOAD_IT      (0x00000012U)
 296:Drivers/STM32F0xx_HAL_Driver/Src/stm32f0xx_hal_i2c.c **** /**
 297:Drivers/STM32F0xx_HAL_Driver/Src/stm32f0xx_hal_i2c.c ****   * @}
 298:Drivers/STM32F0xx_HAL_Driver/Src/stm32f0xx_hal_i2c.c ****   */ 
 299:Drivers/STM32F0xx_HAL_Driver/Src/stm32f0xx_hal_i2c.c **** 
 300:Drivers/STM32F0xx_HAL_Driver/Src/stm32f0xx_hal_i2c.c **** /* Private macro -------------------------------------------------------------*/
 301:Drivers/STM32F0xx_HAL_Driver/Src/stm32f0xx_hal_i2c.c **** #define I2C_GET_DMA_REMAIN_DATA(__HANDLE__) ((((__HANDLE__)->State) == HAL_I2C_STATE_BUSY_TX)   ? \
 302:Drivers/STM32F0xx_HAL_Driver/Src/stm32f0xx_hal_i2c.c ****                                             ((uint32_t)((__HANDLE__)->hdmatx->Instance->CNDTR)) : \
 303:Drivers/STM32F0xx_HAL_Driver/Src/stm32f0xx_hal_i2c.c ****                                             ((uint32_t)((__HANDLE__)->hdmarx->Instance->CNDTR)))
 304:Drivers/STM32F0xx_HAL_Driver/Src/stm32f0xx_hal_i2c.c **** 
 305:Drivers/STM32F0xx_HAL_Driver/Src/stm32f0xx_hal_i2c.c **** /* Private variables ---------------------------------------------------------*/
 306:Drivers/STM32F0xx_HAL_Driver/Src/stm32f0xx_hal_i2c.c **** /* Private function prototypes -----------------------------------------------*/
 307:Drivers/STM32F0xx_HAL_Driver/Src/stm32f0xx_hal_i2c.c **** 
 308:Drivers/STM32F0xx_HAL_Driver/Src/stm32f0xx_hal_i2c.c **** /** @defgroup I2C_Private_Functions I2C Private Functions
 309:Drivers/STM32F0xx_HAL_Driver/Src/stm32f0xx_hal_i2c.c ****   * @{
 310:Drivers/STM32F0xx_HAL_Driver/Src/stm32f0xx_hal_i2c.c ****   */
 311:Drivers/STM32F0xx_HAL_Driver/Src/stm32f0xx_hal_i2c.c **** /* Private functions to handle DMA transfer */
 312:Drivers/STM32F0xx_HAL_Driver/Src/stm32f0xx_hal_i2c.c **** static void I2C_DMAMasterTransmitCplt(DMA_HandleTypeDef *hdma);
 313:Drivers/STM32F0xx_HAL_Driver/Src/stm32f0xx_hal_i2c.c **** static void I2C_DMAMasterReceiveCplt(DMA_HandleTypeDef *hdma);
 314:Drivers/STM32F0xx_HAL_Driver/Src/stm32f0xx_hal_i2c.c **** static void I2C_DMASlaveTransmitCplt(DMA_HandleTypeDef *hdma);
 315:Drivers/STM32F0xx_HAL_Driver/Src/stm32f0xx_hal_i2c.c **** static void I2C_DMASlaveReceiveCplt(DMA_HandleTypeDef *hdma);
 316:Drivers/STM32F0xx_HAL_Driver/Src/stm32f0xx_hal_i2c.c **** static void I2C_DMAError(DMA_HandleTypeDef *hdma);
 317:Drivers/STM32F0xx_HAL_Driver/Src/stm32f0xx_hal_i2c.c **** static void I2C_DMAAbort(DMA_HandleTypeDef *hdma);
 318:Drivers/STM32F0xx_HAL_Driver/Src/stm32f0xx_hal_i2c.c **** 
ARM GAS  /tmp/ccMxaoR5.s 			page 7


 319:Drivers/STM32F0xx_HAL_Driver/Src/stm32f0xx_hal_i2c.c **** /* Private functions to handle IT transfer */
 320:Drivers/STM32F0xx_HAL_Driver/Src/stm32f0xx_hal_i2c.c **** static void I2C_ITAddrCplt(I2C_HandleTypeDef *hi2c, uint32_t ITFlags);
 321:Drivers/STM32F0xx_HAL_Driver/Src/stm32f0xx_hal_i2c.c **** static void I2C_ITMasterSequentialCplt(I2C_HandleTypeDef *hi2c);
 322:Drivers/STM32F0xx_HAL_Driver/Src/stm32f0xx_hal_i2c.c **** static void I2C_ITSlaveSequentialCplt(I2C_HandleTypeDef *hi2c);
 323:Drivers/STM32F0xx_HAL_Driver/Src/stm32f0xx_hal_i2c.c **** static void I2C_ITMasterCplt(I2C_HandleTypeDef *hi2c, uint32_t ITFlags);
 324:Drivers/STM32F0xx_HAL_Driver/Src/stm32f0xx_hal_i2c.c **** static void I2C_ITSlaveCplt(I2C_HandleTypeDef *hi2c, uint32_t ITFlags);
 325:Drivers/STM32F0xx_HAL_Driver/Src/stm32f0xx_hal_i2c.c **** static void I2C_ITListenCplt(I2C_HandleTypeDef *hi2c, uint32_t ITFlags);
 326:Drivers/STM32F0xx_HAL_Driver/Src/stm32f0xx_hal_i2c.c **** static void I2C_ITError(I2C_HandleTypeDef *hi2c, uint32_t ErrorCode);
 327:Drivers/STM32F0xx_HAL_Driver/Src/stm32f0xx_hal_i2c.c **** 
 328:Drivers/STM32F0xx_HAL_Driver/Src/stm32f0xx_hal_i2c.c **** /* Private functions to handle IT transfer */
 329:Drivers/STM32F0xx_HAL_Driver/Src/stm32f0xx_hal_i2c.c **** static HAL_StatusTypeDef I2C_RequestMemoryWrite(I2C_HandleTypeDef *hi2c, uint16_t DevAddress, uint1
 330:Drivers/STM32F0xx_HAL_Driver/Src/stm32f0xx_hal_i2c.c **** static HAL_StatusTypeDef I2C_RequestMemoryRead(I2C_HandleTypeDef *hi2c, uint16_t DevAddress, uint16
 331:Drivers/STM32F0xx_HAL_Driver/Src/stm32f0xx_hal_i2c.c **** 
 332:Drivers/STM32F0xx_HAL_Driver/Src/stm32f0xx_hal_i2c.c **** /* Private functions for I2C transfer IRQ handler */
 333:Drivers/STM32F0xx_HAL_Driver/Src/stm32f0xx_hal_i2c.c **** static HAL_StatusTypeDef I2C_Master_ISR_IT(struct __I2C_HandleTypeDef *hi2c, uint32_t ITFlags, uint
 334:Drivers/STM32F0xx_HAL_Driver/Src/stm32f0xx_hal_i2c.c **** static HAL_StatusTypeDef I2C_Slave_ISR_IT(struct __I2C_HandleTypeDef *hi2c, uint32_t ITFlags, uint3
 335:Drivers/STM32F0xx_HAL_Driver/Src/stm32f0xx_hal_i2c.c **** static HAL_StatusTypeDef I2C_Master_ISR_DMA(struct __I2C_HandleTypeDef *hi2c, uint32_t ITFlags, uin
 336:Drivers/STM32F0xx_HAL_Driver/Src/stm32f0xx_hal_i2c.c **** static HAL_StatusTypeDef I2C_Slave_ISR_DMA(struct __I2C_HandleTypeDef *hi2c, uint32_t ITFlags, uint
 337:Drivers/STM32F0xx_HAL_Driver/Src/stm32f0xx_hal_i2c.c **** 
 338:Drivers/STM32F0xx_HAL_Driver/Src/stm32f0xx_hal_i2c.c **** /* Private functions to handle flags during polling transfer */
 339:Drivers/STM32F0xx_HAL_Driver/Src/stm32f0xx_hal_i2c.c **** static HAL_StatusTypeDef I2C_WaitOnFlagUntilTimeout(I2C_HandleTypeDef *hi2c, uint32_t Flag, FlagSta
 340:Drivers/STM32F0xx_HAL_Driver/Src/stm32f0xx_hal_i2c.c **** static HAL_StatusTypeDef I2C_WaitOnTXISFlagUntilTimeout(I2C_HandleTypeDef *hi2c, uint32_t Timeout, 
 341:Drivers/STM32F0xx_HAL_Driver/Src/stm32f0xx_hal_i2c.c **** static HAL_StatusTypeDef I2C_WaitOnRXNEFlagUntilTimeout(I2C_HandleTypeDef *hi2c, uint32_t Timeout, 
 342:Drivers/STM32F0xx_HAL_Driver/Src/stm32f0xx_hal_i2c.c **** static HAL_StatusTypeDef I2C_WaitOnSTOPFlagUntilTimeout(I2C_HandleTypeDef *hi2c, uint32_t Timeout, 
 343:Drivers/STM32F0xx_HAL_Driver/Src/stm32f0xx_hal_i2c.c **** static HAL_StatusTypeDef I2C_IsAcknowledgeFailed(I2C_HandleTypeDef *hi2c, uint32_t Timeout, uint32_
 344:Drivers/STM32F0xx_HAL_Driver/Src/stm32f0xx_hal_i2c.c **** 
 345:Drivers/STM32F0xx_HAL_Driver/Src/stm32f0xx_hal_i2c.c **** /* Private functions to centralize the enable/disable of Interrupts */
 346:Drivers/STM32F0xx_HAL_Driver/Src/stm32f0xx_hal_i2c.c **** static HAL_StatusTypeDef I2C_Enable_IRQ(I2C_HandleTypeDef *hi2c, uint16_t InterruptRequest);
 347:Drivers/STM32F0xx_HAL_Driver/Src/stm32f0xx_hal_i2c.c **** static HAL_StatusTypeDef I2C_Disable_IRQ(I2C_HandleTypeDef *hi2c, uint16_t InterruptRequest);
 348:Drivers/STM32F0xx_HAL_Driver/Src/stm32f0xx_hal_i2c.c **** 
 349:Drivers/STM32F0xx_HAL_Driver/Src/stm32f0xx_hal_i2c.c **** /* Private functions to flush TXDR register */
 350:Drivers/STM32F0xx_HAL_Driver/Src/stm32f0xx_hal_i2c.c **** static void I2C_Flush_TXDR(I2C_HandleTypeDef *hi2c);
 351:Drivers/STM32F0xx_HAL_Driver/Src/stm32f0xx_hal_i2c.c **** 
 352:Drivers/STM32F0xx_HAL_Driver/Src/stm32f0xx_hal_i2c.c **** /* Private functions to handle  start, restart or stop a transfer */
 353:Drivers/STM32F0xx_HAL_Driver/Src/stm32f0xx_hal_i2c.c **** static void I2C_TransferConfig(I2C_HandleTypeDef *hi2c,  uint16_t DevAddress, uint8_t Size, uint32_
 354:Drivers/STM32F0xx_HAL_Driver/Src/stm32f0xx_hal_i2c.c **** /**
 355:Drivers/STM32F0xx_HAL_Driver/Src/stm32f0xx_hal_i2c.c ****   * @}
 356:Drivers/STM32F0xx_HAL_Driver/Src/stm32f0xx_hal_i2c.c ****   */ 
 357:Drivers/STM32F0xx_HAL_Driver/Src/stm32f0xx_hal_i2c.c **** 
 358:Drivers/STM32F0xx_HAL_Driver/Src/stm32f0xx_hal_i2c.c **** /* Exported functions --------------------------------------------------------*/
 359:Drivers/STM32F0xx_HAL_Driver/Src/stm32f0xx_hal_i2c.c **** 
 360:Drivers/STM32F0xx_HAL_Driver/Src/stm32f0xx_hal_i2c.c **** /** @defgroup I2C_Exported_Functions I2C Exported Functions
 361:Drivers/STM32F0xx_HAL_Driver/Src/stm32f0xx_hal_i2c.c ****   * @{
 362:Drivers/STM32F0xx_HAL_Driver/Src/stm32f0xx_hal_i2c.c ****   */
 363:Drivers/STM32F0xx_HAL_Driver/Src/stm32f0xx_hal_i2c.c **** 
 364:Drivers/STM32F0xx_HAL_Driver/Src/stm32f0xx_hal_i2c.c **** /** @defgroup I2C_Exported_Functions_Group1 Initialization and de-initialization functions
 365:Drivers/STM32F0xx_HAL_Driver/Src/stm32f0xx_hal_i2c.c ****  *  @brief    Initialization and Configuration functions 
 366:Drivers/STM32F0xx_HAL_Driver/Src/stm32f0xx_hal_i2c.c ****  *
 367:Drivers/STM32F0xx_HAL_Driver/Src/stm32f0xx_hal_i2c.c **** @verbatim
 368:Drivers/STM32F0xx_HAL_Driver/Src/stm32f0xx_hal_i2c.c ****  ===============================================================================
 369:Drivers/STM32F0xx_HAL_Driver/Src/stm32f0xx_hal_i2c.c ****               ##### Initialization and de-initialization functions #####
 370:Drivers/STM32F0xx_HAL_Driver/Src/stm32f0xx_hal_i2c.c ****  ===============================================================================
 371:Drivers/STM32F0xx_HAL_Driver/Src/stm32f0xx_hal_i2c.c ****     [..]  This subsection provides a set of functions allowing to initialize and 
 372:Drivers/STM32F0xx_HAL_Driver/Src/stm32f0xx_hal_i2c.c ****           deinitialize the I2Cx peripheral:
 373:Drivers/STM32F0xx_HAL_Driver/Src/stm32f0xx_hal_i2c.c **** 
 374:Drivers/STM32F0xx_HAL_Driver/Src/stm32f0xx_hal_i2c.c ****       (+) User must Implement HAL_I2C_MspInit() function in which he configures 
 375:Drivers/STM32F0xx_HAL_Driver/Src/stm32f0xx_hal_i2c.c ****           all related peripherals resources (CLOCK, GPIO, DMA, IT and NVIC ).
ARM GAS  /tmp/ccMxaoR5.s 			page 8


 376:Drivers/STM32F0xx_HAL_Driver/Src/stm32f0xx_hal_i2c.c **** 
 377:Drivers/STM32F0xx_HAL_Driver/Src/stm32f0xx_hal_i2c.c ****       (+) Call the function HAL_I2C_Init() to configure the selected device with 
 378:Drivers/STM32F0xx_HAL_Driver/Src/stm32f0xx_hal_i2c.c ****           the selected configuration:
 379:Drivers/STM32F0xx_HAL_Driver/Src/stm32f0xx_hal_i2c.c ****         (++) Clock Timing
 380:Drivers/STM32F0xx_HAL_Driver/Src/stm32f0xx_hal_i2c.c ****         (++) Own Address 1
 381:Drivers/STM32F0xx_HAL_Driver/Src/stm32f0xx_hal_i2c.c ****         (++) Addressing mode (Master, Slave)
 382:Drivers/STM32F0xx_HAL_Driver/Src/stm32f0xx_hal_i2c.c ****         (++) Dual Addressing mode
 383:Drivers/STM32F0xx_HAL_Driver/Src/stm32f0xx_hal_i2c.c ****         (++) Own Address 2
 384:Drivers/STM32F0xx_HAL_Driver/Src/stm32f0xx_hal_i2c.c ****         (++) Own Address 2 Mask
 385:Drivers/STM32F0xx_HAL_Driver/Src/stm32f0xx_hal_i2c.c ****         (++) General call mode
 386:Drivers/STM32F0xx_HAL_Driver/Src/stm32f0xx_hal_i2c.c ****         (++) Nostretch mode
 387:Drivers/STM32F0xx_HAL_Driver/Src/stm32f0xx_hal_i2c.c **** 
 388:Drivers/STM32F0xx_HAL_Driver/Src/stm32f0xx_hal_i2c.c ****       (+) Call the function HAL_I2C_DeInit() to restore the default configuration 
 389:Drivers/STM32F0xx_HAL_Driver/Src/stm32f0xx_hal_i2c.c ****           of the selected I2Cx peripheral.       
 390:Drivers/STM32F0xx_HAL_Driver/Src/stm32f0xx_hal_i2c.c **** 
 391:Drivers/STM32F0xx_HAL_Driver/Src/stm32f0xx_hal_i2c.c **** @endverbatim
 392:Drivers/STM32F0xx_HAL_Driver/Src/stm32f0xx_hal_i2c.c ****   * @{
 393:Drivers/STM32F0xx_HAL_Driver/Src/stm32f0xx_hal_i2c.c ****   */
 394:Drivers/STM32F0xx_HAL_Driver/Src/stm32f0xx_hal_i2c.c **** 
 395:Drivers/STM32F0xx_HAL_Driver/Src/stm32f0xx_hal_i2c.c **** /**
 396:Drivers/STM32F0xx_HAL_Driver/Src/stm32f0xx_hal_i2c.c ****   * @brief  Initializes the I2C according to the specified parameters 
 397:Drivers/STM32F0xx_HAL_Driver/Src/stm32f0xx_hal_i2c.c ****   *         in the I2C_InitTypeDef and initialize the associated handle.
 398:Drivers/STM32F0xx_HAL_Driver/Src/stm32f0xx_hal_i2c.c ****   * @param  hi2c Pointer to a I2C_HandleTypeDef structure that contains
 399:Drivers/STM32F0xx_HAL_Driver/Src/stm32f0xx_hal_i2c.c ****   *                the configuration information for the specified I2C.
 400:Drivers/STM32F0xx_HAL_Driver/Src/stm32f0xx_hal_i2c.c ****   * @retval HAL status
 401:Drivers/STM32F0xx_HAL_Driver/Src/stm32f0xx_hal_i2c.c ****   */
 402:Drivers/STM32F0xx_HAL_Driver/Src/stm32f0xx_hal_i2c.c **** HAL_StatusTypeDef HAL_I2C_Init(I2C_HandleTypeDef *hi2c)
 403:Drivers/STM32F0xx_HAL_Driver/Src/stm32f0xx_hal_i2c.c **** {
  26              		.loc 1 403 0
  27              		.cfi_startproc
  28 0000 80B5     		push	{r7, lr}
  29              	.LCFI0:
  30              		.cfi_def_cfa_offset 8
  31              		.cfi_offset 7, -8
  32              		.cfi_offset 14, -4
  33 0002 82B0     		sub	sp, sp, #8
  34              	.LCFI1:
  35              		.cfi_def_cfa_offset 16
  36 0004 00AF     		add	r7, sp, #0
  37              	.LCFI2:
  38              		.cfi_def_cfa_register 7
  39 0006 7860     		str	r0, [r7, #4]
 404:Drivers/STM32F0xx_HAL_Driver/Src/stm32f0xx_hal_i2c.c ****   /* Check the I2C handle allocation */
 405:Drivers/STM32F0xx_HAL_Driver/Src/stm32f0xx_hal_i2c.c ****   if(hi2c == NULL)
  40              		.loc 1 405 0
  41 0008 7B68     		ldr	r3, [r7, #4]
  42 000a 002B     		cmp	r3, #0
  43 000c 01D1     		bne	.L2
 406:Drivers/STM32F0xx_HAL_Driver/Src/stm32f0xx_hal_i2c.c ****   {
 407:Drivers/STM32F0xx_HAL_Driver/Src/stm32f0xx_hal_i2c.c ****     return HAL_ERROR;
  44              		.loc 1 407 0
  45 000e 0123     		movs	r3, #1
  46 0010 7DE0     		b	.L3
  47              	.L2:
 408:Drivers/STM32F0xx_HAL_Driver/Src/stm32f0xx_hal_i2c.c ****   }
 409:Drivers/STM32F0xx_HAL_Driver/Src/stm32f0xx_hal_i2c.c **** 
 410:Drivers/STM32F0xx_HAL_Driver/Src/stm32f0xx_hal_i2c.c ****   /* Check the parameters */
ARM GAS  /tmp/ccMxaoR5.s 			page 9


 411:Drivers/STM32F0xx_HAL_Driver/Src/stm32f0xx_hal_i2c.c ****   assert_param(IS_I2C_ALL_INSTANCE(hi2c->Instance));
 412:Drivers/STM32F0xx_HAL_Driver/Src/stm32f0xx_hal_i2c.c ****   assert_param(IS_I2C_OWN_ADDRESS1(hi2c->Init.OwnAddress1));
 413:Drivers/STM32F0xx_HAL_Driver/Src/stm32f0xx_hal_i2c.c ****   assert_param(IS_I2C_ADDRESSING_MODE(hi2c->Init.AddressingMode));
 414:Drivers/STM32F0xx_HAL_Driver/Src/stm32f0xx_hal_i2c.c ****   assert_param(IS_I2C_DUAL_ADDRESS(hi2c->Init.DualAddressMode));
 415:Drivers/STM32F0xx_HAL_Driver/Src/stm32f0xx_hal_i2c.c ****   assert_param(IS_I2C_OWN_ADDRESS2(hi2c->Init.OwnAddress2));
 416:Drivers/STM32F0xx_HAL_Driver/Src/stm32f0xx_hal_i2c.c ****   assert_param(IS_I2C_OWN_ADDRESS2_MASK(hi2c->Init.OwnAddress2Masks));
 417:Drivers/STM32F0xx_HAL_Driver/Src/stm32f0xx_hal_i2c.c ****   assert_param(IS_I2C_GENERAL_CALL(hi2c->Init.GeneralCallMode));
 418:Drivers/STM32F0xx_HAL_Driver/Src/stm32f0xx_hal_i2c.c ****   assert_param(IS_I2C_NO_STRETCH(hi2c->Init.NoStretchMode));
 419:Drivers/STM32F0xx_HAL_Driver/Src/stm32f0xx_hal_i2c.c **** 
 420:Drivers/STM32F0xx_HAL_Driver/Src/stm32f0xx_hal_i2c.c ****   if(hi2c->State == HAL_I2C_STATE_RESET)
  48              		.loc 1 420 0
  49 0012 7B68     		ldr	r3, [r7, #4]
  50 0014 4122     		movs	r2, #65
  51 0016 9B5C     		ldrb	r3, [r3, r2]
  52 0018 DBB2     		uxtb	r3, r3
  53 001a 002B     		cmp	r3, #0
  54 001c 07D1     		bne	.L4
 421:Drivers/STM32F0xx_HAL_Driver/Src/stm32f0xx_hal_i2c.c ****   {
 422:Drivers/STM32F0xx_HAL_Driver/Src/stm32f0xx_hal_i2c.c ****     /* Allocate lock resource and initialize it */
 423:Drivers/STM32F0xx_HAL_Driver/Src/stm32f0xx_hal_i2c.c ****     hi2c->Lock = HAL_UNLOCKED;
  55              		.loc 1 423 0
  56 001e 7B68     		ldr	r3, [r7, #4]
  57 0020 4022     		movs	r2, #64
  58 0022 0021     		movs	r1, #0
  59 0024 9954     		strb	r1, [r3, r2]
 424:Drivers/STM32F0xx_HAL_Driver/Src/stm32f0xx_hal_i2c.c ****     
 425:Drivers/STM32F0xx_HAL_Driver/Src/stm32f0xx_hal_i2c.c ****     /* Init the low level hardware : GPIO, CLOCK, CORTEX...etc */
 426:Drivers/STM32F0xx_HAL_Driver/Src/stm32f0xx_hal_i2c.c ****     HAL_I2C_MspInit(hi2c);
  60              		.loc 1 426 0
  61 0026 7B68     		ldr	r3, [r7, #4]
  62 0028 1800     		movs	r0, r3
  63 002a FFF7FEFF 		bl	HAL_I2C_MspInit
  64              	.L4:
 427:Drivers/STM32F0xx_HAL_Driver/Src/stm32f0xx_hal_i2c.c ****   }
 428:Drivers/STM32F0xx_HAL_Driver/Src/stm32f0xx_hal_i2c.c **** 
 429:Drivers/STM32F0xx_HAL_Driver/Src/stm32f0xx_hal_i2c.c ****   hi2c->State = HAL_I2C_STATE_BUSY;
  65              		.loc 1 429 0
  66 002e 7B68     		ldr	r3, [r7, #4]
  67 0030 4122     		movs	r2, #65
  68 0032 2421     		movs	r1, #36
  69 0034 9954     		strb	r1, [r3, r2]
 430:Drivers/STM32F0xx_HAL_Driver/Src/stm32f0xx_hal_i2c.c **** 
 431:Drivers/STM32F0xx_HAL_Driver/Src/stm32f0xx_hal_i2c.c ****   /* Disable the selected I2C peripheral */
 432:Drivers/STM32F0xx_HAL_Driver/Src/stm32f0xx_hal_i2c.c ****   __HAL_I2C_DISABLE(hi2c);
  70              		.loc 1 432 0
  71 0036 7B68     		ldr	r3, [r7, #4]
  72 0038 1B68     		ldr	r3, [r3]
  73 003a 7A68     		ldr	r2, [r7, #4]
  74 003c 1268     		ldr	r2, [r2]
  75 003e 1268     		ldr	r2, [r2]
  76 0040 0121     		movs	r1, #1
  77 0042 8A43     		bics	r2, r1
  78 0044 1A60     		str	r2, [r3]
 433:Drivers/STM32F0xx_HAL_Driver/Src/stm32f0xx_hal_i2c.c **** 
 434:Drivers/STM32F0xx_HAL_Driver/Src/stm32f0xx_hal_i2c.c ****   /*---------------------------- I2Cx TIMINGR Configuration ------------------*/
 435:Drivers/STM32F0xx_HAL_Driver/Src/stm32f0xx_hal_i2c.c ****   /* Configure I2Cx: Frequency range */
 436:Drivers/STM32F0xx_HAL_Driver/Src/stm32f0xx_hal_i2c.c ****   hi2c->Instance->TIMINGR = hi2c->Init.Timing & TIMING_CLEAR_MASK;
ARM GAS  /tmp/ccMxaoR5.s 			page 10


  79              		.loc 1 436 0
  80 0046 7B68     		ldr	r3, [r7, #4]
  81 0048 1B68     		ldr	r3, [r3]
  82 004a 7A68     		ldr	r2, [r7, #4]
  83 004c 5268     		ldr	r2, [r2, #4]
  84 004e 3249     		ldr	r1, .L8
  85 0050 0A40     		ands	r2, r1
  86 0052 1A61     		str	r2, [r3, #16]
 437:Drivers/STM32F0xx_HAL_Driver/Src/stm32f0xx_hal_i2c.c **** 
 438:Drivers/STM32F0xx_HAL_Driver/Src/stm32f0xx_hal_i2c.c ****   /*---------------------------- I2Cx OAR1 Configuration ---------------------*/
 439:Drivers/STM32F0xx_HAL_Driver/Src/stm32f0xx_hal_i2c.c ****   /* Configure I2Cx: Own Address1 and ack own address1 mode */
 440:Drivers/STM32F0xx_HAL_Driver/Src/stm32f0xx_hal_i2c.c ****   hi2c->Instance->OAR1 &= ~I2C_OAR1_OA1EN;
  87              		.loc 1 440 0
  88 0054 7B68     		ldr	r3, [r7, #4]
  89 0056 1B68     		ldr	r3, [r3]
  90 0058 7A68     		ldr	r2, [r7, #4]
  91 005a 1268     		ldr	r2, [r2]
  92 005c 9268     		ldr	r2, [r2, #8]
  93 005e 2F49     		ldr	r1, .L8+4
  94 0060 0A40     		ands	r2, r1
  95 0062 9A60     		str	r2, [r3, #8]
 441:Drivers/STM32F0xx_HAL_Driver/Src/stm32f0xx_hal_i2c.c ****   if(hi2c->Init.OwnAddress1 != 0U)
  96              		.loc 1 441 0
  97 0064 7B68     		ldr	r3, [r7, #4]
  98 0066 9B68     		ldr	r3, [r3, #8]
  99 0068 002B     		cmp	r3, #0
 100 006a 14D0     		beq	.L5
 442:Drivers/STM32F0xx_HAL_Driver/Src/stm32f0xx_hal_i2c.c ****   {
 443:Drivers/STM32F0xx_HAL_Driver/Src/stm32f0xx_hal_i2c.c ****     if(hi2c->Init.AddressingMode == I2C_ADDRESSINGMODE_7BIT)
 101              		.loc 1 443 0
 102 006c 7B68     		ldr	r3, [r7, #4]
 103 006e DB68     		ldr	r3, [r3, #12]
 104 0070 012B     		cmp	r3, #1
 105 0072 08D1     		bne	.L6
 444:Drivers/STM32F0xx_HAL_Driver/Src/stm32f0xx_hal_i2c.c ****     {
 445:Drivers/STM32F0xx_HAL_Driver/Src/stm32f0xx_hal_i2c.c ****       hi2c->Instance->OAR1 = (I2C_OAR1_OA1EN | hi2c->Init.OwnAddress1);
 106              		.loc 1 445 0
 107 0074 7B68     		ldr	r3, [r7, #4]
 108 0076 1B68     		ldr	r3, [r3]
 109 0078 7A68     		ldr	r2, [r7, #4]
 110 007a 9268     		ldr	r2, [r2, #8]
 111 007c 8021     		movs	r1, #128
 112 007e 0902     		lsls	r1, r1, #8
 113 0080 0A43     		orrs	r2, r1
 114 0082 9A60     		str	r2, [r3, #8]
 115 0084 07E0     		b	.L5
 116              	.L6:
 446:Drivers/STM32F0xx_HAL_Driver/Src/stm32f0xx_hal_i2c.c ****     }
 447:Drivers/STM32F0xx_HAL_Driver/Src/stm32f0xx_hal_i2c.c ****     else /* I2C_ADDRESSINGMODE_10BIT */
 448:Drivers/STM32F0xx_HAL_Driver/Src/stm32f0xx_hal_i2c.c ****     {
 449:Drivers/STM32F0xx_HAL_Driver/Src/stm32f0xx_hal_i2c.c ****       hi2c->Instance->OAR1 = (I2C_OAR1_OA1EN | I2C_OAR1_OA1MODE | hi2c->Init.OwnAddress1);
 117              		.loc 1 449 0
 118 0086 7B68     		ldr	r3, [r7, #4]
 119 0088 1B68     		ldr	r3, [r3]
 120 008a 7A68     		ldr	r2, [r7, #4]
 121 008c 9268     		ldr	r2, [r2, #8]
 122 008e 8421     		movs	r1, #132
ARM GAS  /tmp/ccMxaoR5.s 			page 11


 123 0090 0902     		lsls	r1, r1, #8
 124 0092 0A43     		orrs	r2, r1
 125 0094 9A60     		str	r2, [r3, #8]
 126              	.L5:
 450:Drivers/STM32F0xx_HAL_Driver/Src/stm32f0xx_hal_i2c.c ****     }
 451:Drivers/STM32F0xx_HAL_Driver/Src/stm32f0xx_hal_i2c.c ****   }
 452:Drivers/STM32F0xx_HAL_Driver/Src/stm32f0xx_hal_i2c.c **** 
 453:Drivers/STM32F0xx_HAL_Driver/Src/stm32f0xx_hal_i2c.c ****   /*---------------------------- I2Cx CR2 Configuration ----------------------*/
 454:Drivers/STM32F0xx_HAL_Driver/Src/stm32f0xx_hal_i2c.c ****   /* Configure I2Cx: Addressing Master mode */
 455:Drivers/STM32F0xx_HAL_Driver/Src/stm32f0xx_hal_i2c.c ****   if(hi2c->Init.AddressingMode == I2C_ADDRESSINGMODE_10BIT)
 127              		.loc 1 455 0
 128 0096 7B68     		ldr	r3, [r7, #4]
 129 0098 DB68     		ldr	r3, [r3, #12]
 130 009a 022B     		cmp	r3, #2
 131 009c 04D1     		bne	.L7
 456:Drivers/STM32F0xx_HAL_Driver/Src/stm32f0xx_hal_i2c.c ****   {
 457:Drivers/STM32F0xx_HAL_Driver/Src/stm32f0xx_hal_i2c.c ****     hi2c->Instance->CR2 = (I2C_CR2_ADD10);
 132              		.loc 1 457 0
 133 009e 7B68     		ldr	r3, [r7, #4]
 134 00a0 1B68     		ldr	r3, [r3]
 135 00a2 8022     		movs	r2, #128
 136 00a4 1201     		lsls	r2, r2, #4
 137 00a6 5A60     		str	r2, [r3, #4]
 138              	.L7:
 458:Drivers/STM32F0xx_HAL_Driver/Src/stm32f0xx_hal_i2c.c ****   }
 459:Drivers/STM32F0xx_HAL_Driver/Src/stm32f0xx_hal_i2c.c ****   /* Enable the AUTOEND by default, and enable NACK (should be disable only during Slave process */
 460:Drivers/STM32F0xx_HAL_Driver/Src/stm32f0xx_hal_i2c.c ****   hi2c->Instance->CR2 |= (I2C_CR2_AUTOEND | I2C_CR2_NACK);
 139              		.loc 1 460 0
 140 00a8 7B68     		ldr	r3, [r7, #4]
 141 00aa 1B68     		ldr	r3, [r3]
 142 00ac 7A68     		ldr	r2, [r7, #4]
 143 00ae 1268     		ldr	r2, [r2]
 144 00b0 5268     		ldr	r2, [r2, #4]
 145 00b2 1B49     		ldr	r1, .L8+8
 146 00b4 0A43     		orrs	r2, r1
 147 00b6 5A60     		str	r2, [r3, #4]
 461:Drivers/STM32F0xx_HAL_Driver/Src/stm32f0xx_hal_i2c.c **** 
 462:Drivers/STM32F0xx_HAL_Driver/Src/stm32f0xx_hal_i2c.c ****   /*---------------------------- I2Cx OAR2 Configuration ---------------------*/
 463:Drivers/STM32F0xx_HAL_Driver/Src/stm32f0xx_hal_i2c.c ****   /* Configure I2Cx: Dual mode and Own Address2 */
 464:Drivers/STM32F0xx_HAL_Driver/Src/stm32f0xx_hal_i2c.c ****   hi2c->Instance->OAR2 = (hi2c->Init.DualAddressMode | hi2c->Init.OwnAddress2 | (hi2c->Init.OwnAddr
 148              		.loc 1 464 0
 149 00b8 7B68     		ldr	r3, [r7, #4]
 150 00ba 1B68     		ldr	r3, [r3]
 151 00bc 7A68     		ldr	r2, [r7, #4]
 152 00be 1169     		ldr	r1, [r2, #16]
 153 00c0 7A68     		ldr	r2, [r7, #4]
 154 00c2 5269     		ldr	r2, [r2, #20]
 155 00c4 1143     		orrs	r1, r2
 156 00c6 7A68     		ldr	r2, [r7, #4]
 157 00c8 9269     		ldr	r2, [r2, #24]
 158 00ca 1202     		lsls	r2, r2, #8
 159 00cc 0A43     		orrs	r2, r1
 160 00ce DA60     		str	r2, [r3, #12]
 465:Drivers/STM32F0xx_HAL_Driver/Src/stm32f0xx_hal_i2c.c **** 
 466:Drivers/STM32F0xx_HAL_Driver/Src/stm32f0xx_hal_i2c.c ****   /*---------------------------- I2Cx CR1 Configuration ----------------------*/
 467:Drivers/STM32F0xx_HAL_Driver/Src/stm32f0xx_hal_i2c.c ****   /* Configure I2Cx: Generalcall and NoStretch mode */
 468:Drivers/STM32F0xx_HAL_Driver/Src/stm32f0xx_hal_i2c.c ****   hi2c->Instance->CR1 = (hi2c->Init.GeneralCallMode | hi2c->Init.NoStretchMode);
ARM GAS  /tmp/ccMxaoR5.s 			page 12


 161              		.loc 1 468 0
 162 00d0 7B68     		ldr	r3, [r7, #4]
 163 00d2 1B68     		ldr	r3, [r3]
 164 00d4 7A68     		ldr	r2, [r7, #4]
 165 00d6 D169     		ldr	r1, [r2, #28]
 166 00d8 7A68     		ldr	r2, [r7, #4]
 167 00da 126A     		ldr	r2, [r2, #32]
 168 00dc 0A43     		orrs	r2, r1
 169 00de 1A60     		str	r2, [r3]
 469:Drivers/STM32F0xx_HAL_Driver/Src/stm32f0xx_hal_i2c.c **** 
 470:Drivers/STM32F0xx_HAL_Driver/Src/stm32f0xx_hal_i2c.c ****   /* Enable the selected I2C peripheral */
 471:Drivers/STM32F0xx_HAL_Driver/Src/stm32f0xx_hal_i2c.c ****   __HAL_I2C_ENABLE(hi2c);
 170              		.loc 1 471 0
 171 00e0 7B68     		ldr	r3, [r7, #4]
 172 00e2 1B68     		ldr	r3, [r3]
 173 00e4 7A68     		ldr	r2, [r7, #4]
 174 00e6 1268     		ldr	r2, [r2]
 175 00e8 1268     		ldr	r2, [r2]
 176 00ea 0121     		movs	r1, #1
 177 00ec 0A43     		orrs	r2, r1
 178 00ee 1A60     		str	r2, [r3]
 472:Drivers/STM32F0xx_HAL_Driver/Src/stm32f0xx_hal_i2c.c **** 
 473:Drivers/STM32F0xx_HAL_Driver/Src/stm32f0xx_hal_i2c.c ****   hi2c->ErrorCode = HAL_I2C_ERROR_NONE;
 179              		.loc 1 473 0
 180 00f0 7B68     		ldr	r3, [r7, #4]
 181 00f2 0022     		movs	r2, #0
 182 00f4 5A64     		str	r2, [r3, #68]
 474:Drivers/STM32F0xx_HAL_Driver/Src/stm32f0xx_hal_i2c.c ****   hi2c->State = HAL_I2C_STATE_READY;
 183              		.loc 1 474 0
 184 00f6 7B68     		ldr	r3, [r7, #4]
 185 00f8 4122     		movs	r2, #65
 186 00fa 2021     		movs	r1, #32
 187 00fc 9954     		strb	r1, [r3, r2]
 475:Drivers/STM32F0xx_HAL_Driver/Src/stm32f0xx_hal_i2c.c ****   hi2c->PreviousState = I2C_STATE_NONE;
 188              		.loc 1 475 0
 189 00fe 7B68     		ldr	r3, [r7, #4]
 190 0100 0022     		movs	r2, #0
 191 0102 1A63     		str	r2, [r3, #48]
 476:Drivers/STM32F0xx_HAL_Driver/Src/stm32f0xx_hal_i2c.c ****   hi2c->Mode = HAL_I2C_MODE_NONE;
 192              		.loc 1 476 0
 193 0104 7B68     		ldr	r3, [r7, #4]
 194 0106 4222     		movs	r2, #66
 195 0108 0021     		movs	r1, #0
 196 010a 9954     		strb	r1, [r3, r2]
 477:Drivers/STM32F0xx_HAL_Driver/Src/stm32f0xx_hal_i2c.c **** 
 478:Drivers/STM32F0xx_HAL_Driver/Src/stm32f0xx_hal_i2c.c ****   return HAL_OK;
 197              		.loc 1 478 0
 198 010c 0023     		movs	r3, #0
 199              	.L3:
 479:Drivers/STM32F0xx_HAL_Driver/Src/stm32f0xx_hal_i2c.c **** }
 200              		.loc 1 479 0
 201 010e 1800     		movs	r0, r3
 202 0110 BD46     		mov	sp, r7
 203 0112 02B0     		add	sp, sp, #8
 204              		@ sp needed
 205 0114 80BD     		pop	{r7, pc}
 206              	.L9:
ARM GAS  /tmp/ccMxaoR5.s 			page 13


 207 0116 C046     		.align	2
 208              	.L8:
 209 0118 FFFFFFF0 		.word	-251658241
 210 011c FF7FFFFF 		.word	-32769
 211 0120 00800002 		.word	33587200
 212              		.cfi_endproc
 213              	.LFE35:
 215              		.section	.text.HAL_I2C_DeInit,"ax",%progbits
 216              		.align	1
 217              		.global	HAL_I2C_DeInit
 218              		.syntax unified
 219              		.code	16
 220              		.thumb_func
 221              		.fpu softvfp
 223              	HAL_I2C_DeInit:
 224              	.LFB36:
 480:Drivers/STM32F0xx_HAL_Driver/Src/stm32f0xx_hal_i2c.c **** 
 481:Drivers/STM32F0xx_HAL_Driver/Src/stm32f0xx_hal_i2c.c **** /**
 482:Drivers/STM32F0xx_HAL_Driver/Src/stm32f0xx_hal_i2c.c ****   * @brief  DeInitialize the I2C peripheral. 
 483:Drivers/STM32F0xx_HAL_Driver/Src/stm32f0xx_hal_i2c.c ****   * @param  hi2c Pointer to a I2C_HandleTypeDef structure that contains
 484:Drivers/STM32F0xx_HAL_Driver/Src/stm32f0xx_hal_i2c.c ****   *                the configuration information for the specified I2C.
 485:Drivers/STM32F0xx_HAL_Driver/Src/stm32f0xx_hal_i2c.c ****   * @retval HAL status
 486:Drivers/STM32F0xx_HAL_Driver/Src/stm32f0xx_hal_i2c.c ****   */
 487:Drivers/STM32F0xx_HAL_Driver/Src/stm32f0xx_hal_i2c.c **** HAL_StatusTypeDef HAL_I2C_DeInit(I2C_HandleTypeDef *hi2c)
 488:Drivers/STM32F0xx_HAL_Driver/Src/stm32f0xx_hal_i2c.c **** {
 225              		.loc 1 488 0
 226              		.cfi_startproc
 227 0000 80B5     		push	{r7, lr}
 228              	.LCFI3:
 229              		.cfi_def_cfa_offset 8
 230              		.cfi_offset 7, -8
 231              		.cfi_offset 14, -4
 232 0002 82B0     		sub	sp, sp, #8
 233              	.LCFI4:
 234              		.cfi_def_cfa_offset 16
 235 0004 00AF     		add	r7, sp, #0
 236              	.LCFI5:
 237              		.cfi_def_cfa_register 7
 238 0006 7860     		str	r0, [r7, #4]
 489:Drivers/STM32F0xx_HAL_Driver/Src/stm32f0xx_hal_i2c.c ****   /* Check the I2C handle allocation */
 490:Drivers/STM32F0xx_HAL_Driver/Src/stm32f0xx_hal_i2c.c ****   if(hi2c == NULL)
 239              		.loc 1 490 0
 240 0008 7B68     		ldr	r3, [r7, #4]
 241 000a 002B     		cmp	r3, #0
 242 000c 01D1     		bne	.L11
 491:Drivers/STM32F0xx_HAL_Driver/Src/stm32f0xx_hal_i2c.c ****   {
 492:Drivers/STM32F0xx_HAL_Driver/Src/stm32f0xx_hal_i2c.c ****     return HAL_ERROR;
 243              		.loc 1 492 0
 244 000e 0123     		movs	r3, #1
 245 0010 22E0     		b	.L12
 246              	.L11:
 493:Drivers/STM32F0xx_HAL_Driver/Src/stm32f0xx_hal_i2c.c ****   }
 494:Drivers/STM32F0xx_HAL_Driver/Src/stm32f0xx_hal_i2c.c **** 
 495:Drivers/STM32F0xx_HAL_Driver/Src/stm32f0xx_hal_i2c.c ****   /* Check the parameters */
 496:Drivers/STM32F0xx_HAL_Driver/Src/stm32f0xx_hal_i2c.c ****   assert_param(IS_I2C_ALL_INSTANCE(hi2c->Instance));
 497:Drivers/STM32F0xx_HAL_Driver/Src/stm32f0xx_hal_i2c.c **** 
 498:Drivers/STM32F0xx_HAL_Driver/Src/stm32f0xx_hal_i2c.c ****   hi2c->State = HAL_I2C_STATE_BUSY;
ARM GAS  /tmp/ccMxaoR5.s 			page 14


 247              		.loc 1 498 0
 248 0012 7B68     		ldr	r3, [r7, #4]
 249 0014 4122     		movs	r2, #65
 250 0016 2421     		movs	r1, #36
 251 0018 9954     		strb	r1, [r3, r2]
 499:Drivers/STM32F0xx_HAL_Driver/Src/stm32f0xx_hal_i2c.c **** 
 500:Drivers/STM32F0xx_HAL_Driver/Src/stm32f0xx_hal_i2c.c ****   /* Disable the I2C Peripheral Clock */
 501:Drivers/STM32F0xx_HAL_Driver/Src/stm32f0xx_hal_i2c.c ****   __HAL_I2C_DISABLE(hi2c);
 252              		.loc 1 501 0
 253 001a 7B68     		ldr	r3, [r7, #4]
 254 001c 1B68     		ldr	r3, [r3]
 255 001e 7A68     		ldr	r2, [r7, #4]
 256 0020 1268     		ldr	r2, [r2]
 257 0022 1268     		ldr	r2, [r2]
 258 0024 0121     		movs	r1, #1
 259 0026 8A43     		bics	r2, r1
 260 0028 1A60     		str	r2, [r3]
 502:Drivers/STM32F0xx_HAL_Driver/Src/stm32f0xx_hal_i2c.c **** 
 503:Drivers/STM32F0xx_HAL_Driver/Src/stm32f0xx_hal_i2c.c ****   /* DeInit the low level hardware: GPIO, CLOCK, NVIC */
 504:Drivers/STM32F0xx_HAL_Driver/Src/stm32f0xx_hal_i2c.c ****   HAL_I2C_MspDeInit(hi2c);
 261              		.loc 1 504 0
 262 002a 7B68     		ldr	r3, [r7, #4]
 263 002c 1800     		movs	r0, r3
 264 002e FFF7FEFF 		bl	HAL_I2C_MspDeInit
 505:Drivers/STM32F0xx_HAL_Driver/Src/stm32f0xx_hal_i2c.c **** 
 506:Drivers/STM32F0xx_HAL_Driver/Src/stm32f0xx_hal_i2c.c ****   hi2c->ErrorCode = HAL_I2C_ERROR_NONE;
 265              		.loc 1 506 0
 266 0032 7B68     		ldr	r3, [r7, #4]
 267 0034 0022     		movs	r2, #0
 268 0036 5A64     		str	r2, [r3, #68]
 507:Drivers/STM32F0xx_HAL_Driver/Src/stm32f0xx_hal_i2c.c ****   hi2c->State = HAL_I2C_STATE_RESET;
 269              		.loc 1 507 0
 270 0038 7B68     		ldr	r3, [r7, #4]
 271 003a 4122     		movs	r2, #65
 272 003c 0021     		movs	r1, #0
 273 003e 9954     		strb	r1, [r3, r2]
 508:Drivers/STM32F0xx_HAL_Driver/Src/stm32f0xx_hal_i2c.c ****   hi2c->PreviousState = I2C_STATE_NONE;
 274              		.loc 1 508 0
 275 0040 7B68     		ldr	r3, [r7, #4]
 276 0042 0022     		movs	r2, #0
 277 0044 1A63     		str	r2, [r3, #48]
 509:Drivers/STM32F0xx_HAL_Driver/Src/stm32f0xx_hal_i2c.c ****   hi2c->Mode = HAL_I2C_MODE_NONE;
 278              		.loc 1 509 0
 279 0046 7B68     		ldr	r3, [r7, #4]
 280 0048 4222     		movs	r2, #66
 281 004a 0021     		movs	r1, #0
 282 004c 9954     		strb	r1, [r3, r2]
 510:Drivers/STM32F0xx_HAL_Driver/Src/stm32f0xx_hal_i2c.c **** 
 511:Drivers/STM32F0xx_HAL_Driver/Src/stm32f0xx_hal_i2c.c ****   /* Release Lock */
 512:Drivers/STM32F0xx_HAL_Driver/Src/stm32f0xx_hal_i2c.c ****   __HAL_UNLOCK(hi2c);
 283              		.loc 1 512 0
 284 004e 7B68     		ldr	r3, [r7, #4]
 285 0050 4022     		movs	r2, #64
 286 0052 0021     		movs	r1, #0
 287 0054 9954     		strb	r1, [r3, r2]
 513:Drivers/STM32F0xx_HAL_Driver/Src/stm32f0xx_hal_i2c.c **** 
 514:Drivers/STM32F0xx_HAL_Driver/Src/stm32f0xx_hal_i2c.c ****   return HAL_OK;
ARM GAS  /tmp/ccMxaoR5.s 			page 15


 288              		.loc 1 514 0
 289 0056 0023     		movs	r3, #0
 290              	.L12:
 515:Drivers/STM32F0xx_HAL_Driver/Src/stm32f0xx_hal_i2c.c **** }
 291              		.loc 1 515 0
 292 0058 1800     		movs	r0, r3
 293 005a BD46     		mov	sp, r7
 294 005c 02B0     		add	sp, sp, #8
 295              		@ sp needed
 296 005e 80BD     		pop	{r7, pc}
 297              		.cfi_endproc
 298              	.LFE36:
 300              		.section	.text.HAL_I2C_MspInit,"ax",%progbits
 301              		.align	1
 302              		.weak	HAL_I2C_MspInit
 303              		.syntax unified
 304              		.code	16
 305              		.thumb_func
 306              		.fpu softvfp
 308              	HAL_I2C_MspInit:
 309              	.LFB37:
 516:Drivers/STM32F0xx_HAL_Driver/Src/stm32f0xx_hal_i2c.c **** 
 517:Drivers/STM32F0xx_HAL_Driver/Src/stm32f0xx_hal_i2c.c **** /**
 518:Drivers/STM32F0xx_HAL_Driver/Src/stm32f0xx_hal_i2c.c ****   * @brief Initialize the I2C MSP.
 519:Drivers/STM32F0xx_HAL_Driver/Src/stm32f0xx_hal_i2c.c ****   * @param  hi2c Pointer to a I2C_HandleTypeDef structure that contains
 520:Drivers/STM32F0xx_HAL_Driver/Src/stm32f0xx_hal_i2c.c ****   *                the configuration information for the specified I2C.
 521:Drivers/STM32F0xx_HAL_Driver/Src/stm32f0xx_hal_i2c.c ****   * @retval None
 522:Drivers/STM32F0xx_HAL_Driver/Src/stm32f0xx_hal_i2c.c ****   */
 523:Drivers/STM32F0xx_HAL_Driver/Src/stm32f0xx_hal_i2c.c ****  __weak void HAL_I2C_MspInit(I2C_HandleTypeDef *hi2c)
 524:Drivers/STM32F0xx_HAL_Driver/Src/stm32f0xx_hal_i2c.c **** {
 310              		.loc 1 524 0
 311              		.cfi_startproc
 312 0000 80B5     		push	{r7, lr}
 313              	.LCFI6:
 314              		.cfi_def_cfa_offset 8
 315              		.cfi_offset 7, -8
 316              		.cfi_offset 14, -4
 317 0002 82B0     		sub	sp, sp, #8
 318              	.LCFI7:
 319              		.cfi_def_cfa_offset 16
 320 0004 00AF     		add	r7, sp, #0
 321              	.LCFI8:
 322              		.cfi_def_cfa_register 7
 323 0006 7860     		str	r0, [r7, #4]
 525:Drivers/STM32F0xx_HAL_Driver/Src/stm32f0xx_hal_i2c.c ****   /* Prevent unused argument(s) compilation warning */
 526:Drivers/STM32F0xx_HAL_Driver/Src/stm32f0xx_hal_i2c.c ****   UNUSED(hi2c);
 527:Drivers/STM32F0xx_HAL_Driver/Src/stm32f0xx_hal_i2c.c **** 
 528:Drivers/STM32F0xx_HAL_Driver/Src/stm32f0xx_hal_i2c.c ****   /* NOTE : This function should not be modified, when the callback is needed,
 529:Drivers/STM32F0xx_HAL_Driver/Src/stm32f0xx_hal_i2c.c ****             the HAL_I2C_MspInit could be implemented in the user file
 530:Drivers/STM32F0xx_HAL_Driver/Src/stm32f0xx_hal_i2c.c ****    */ 
 531:Drivers/STM32F0xx_HAL_Driver/Src/stm32f0xx_hal_i2c.c **** }
 324              		.loc 1 531 0
 325 0008 C046     		nop
 326 000a BD46     		mov	sp, r7
 327 000c 02B0     		add	sp, sp, #8
 328              		@ sp needed
 329 000e 80BD     		pop	{r7, pc}
ARM GAS  /tmp/ccMxaoR5.s 			page 16


 330              		.cfi_endproc
 331              	.LFE37:
 333              		.section	.text.HAL_I2C_MspDeInit,"ax",%progbits
 334              		.align	1
 335              		.weak	HAL_I2C_MspDeInit
 336              		.syntax unified
 337              		.code	16
 338              		.thumb_func
 339              		.fpu softvfp
 341              	HAL_I2C_MspDeInit:
 342              	.LFB38:
 532:Drivers/STM32F0xx_HAL_Driver/Src/stm32f0xx_hal_i2c.c **** 
 533:Drivers/STM32F0xx_HAL_Driver/Src/stm32f0xx_hal_i2c.c **** /**
 534:Drivers/STM32F0xx_HAL_Driver/Src/stm32f0xx_hal_i2c.c ****   * @brief DeInitialize the I2C MSP.
 535:Drivers/STM32F0xx_HAL_Driver/Src/stm32f0xx_hal_i2c.c ****   * @param  hi2c Pointer to a I2C_HandleTypeDef structure that contains
 536:Drivers/STM32F0xx_HAL_Driver/Src/stm32f0xx_hal_i2c.c ****   *                the configuration information for the specified I2C.
 537:Drivers/STM32F0xx_HAL_Driver/Src/stm32f0xx_hal_i2c.c ****   * @retval None
 538:Drivers/STM32F0xx_HAL_Driver/Src/stm32f0xx_hal_i2c.c ****   */
 539:Drivers/STM32F0xx_HAL_Driver/Src/stm32f0xx_hal_i2c.c ****  __weak void HAL_I2C_MspDeInit(I2C_HandleTypeDef *hi2c)
 540:Drivers/STM32F0xx_HAL_Driver/Src/stm32f0xx_hal_i2c.c **** {
 343              		.loc 1 540 0
 344              		.cfi_startproc
 345 0000 80B5     		push	{r7, lr}
 346              	.LCFI9:
 347              		.cfi_def_cfa_offset 8
 348              		.cfi_offset 7, -8
 349              		.cfi_offset 14, -4
 350 0002 82B0     		sub	sp, sp, #8
 351              	.LCFI10:
 352              		.cfi_def_cfa_offset 16
 353 0004 00AF     		add	r7, sp, #0
 354              	.LCFI11:
 355              		.cfi_def_cfa_register 7
 356 0006 7860     		str	r0, [r7, #4]
 541:Drivers/STM32F0xx_HAL_Driver/Src/stm32f0xx_hal_i2c.c ****   /* Prevent unused argument(s) compilation warning */
 542:Drivers/STM32F0xx_HAL_Driver/Src/stm32f0xx_hal_i2c.c ****   UNUSED(hi2c);
 543:Drivers/STM32F0xx_HAL_Driver/Src/stm32f0xx_hal_i2c.c **** 
 544:Drivers/STM32F0xx_HAL_Driver/Src/stm32f0xx_hal_i2c.c ****   /* NOTE : This function should not be modified, when the callback is needed,
 545:Drivers/STM32F0xx_HAL_Driver/Src/stm32f0xx_hal_i2c.c ****             the HAL_I2C_MspDeInit could be implemented in the user file
 546:Drivers/STM32F0xx_HAL_Driver/Src/stm32f0xx_hal_i2c.c ****    */ 
 547:Drivers/STM32F0xx_HAL_Driver/Src/stm32f0xx_hal_i2c.c **** }
 357              		.loc 1 547 0
 358 0008 C046     		nop
 359 000a BD46     		mov	sp, r7
 360 000c 02B0     		add	sp, sp, #8
 361              		@ sp needed
 362 000e 80BD     		pop	{r7, pc}
 363              		.cfi_endproc
 364              	.LFE38:
 366              		.section	.text.HAL_I2C_Master_Transmit,"ax",%progbits
 367              		.align	1
 368              		.global	HAL_I2C_Master_Transmit
 369              		.syntax unified
 370              		.code	16
 371              		.thumb_func
 372              		.fpu softvfp
 374              	HAL_I2C_Master_Transmit:
ARM GAS  /tmp/ccMxaoR5.s 			page 17


 375              	.LFB39:
 548:Drivers/STM32F0xx_HAL_Driver/Src/stm32f0xx_hal_i2c.c **** 
 549:Drivers/STM32F0xx_HAL_Driver/Src/stm32f0xx_hal_i2c.c **** /**
 550:Drivers/STM32F0xx_HAL_Driver/Src/stm32f0xx_hal_i2c.c ****   * @}
 551:Drivers/STM32F0xx_HAL_Driver/Src/stm32f0xx_hal_i2c.c ****   */
 552:Drivers/STM32F0xx_HAL_Driver/Src/stm32f0xx_hal_i2c.c **** 
 553:Drivers/STM32F0xx_HAL_Driver/Src/stm32f0xx_hal_i2c.c **** /** @defgroup I2C_Exported_Functions_Group2 Input and Output operation functions 
 554:Drivers/STM32F0xx_HAL_Driver/Src/stm32f0xx_hal_i2c.c ****  *  @brief   Data transfers functions 
 555:Drivers/STM32F0xx_HAL_Driver/Src/stm32f0xx_hal_i2c.c ****  *
 556:Drivers/STM32F0xx_HAL_Driver/Src/stm32f0xx_hal_i2c.c **** @verbatim   
 557:Drivers/STM32F0xx_HAL_Driver/Src/stm32f0xx_hal_i2c.c ****  ===============================================================================
 558:Drivers/STM32F0xx_HAL_Driver/Src/stm32f0xx_hal_i2c.c ****                       ##### IO operation functions #####
 559:Drivers/STM32F0xx_HAL_Driver/Src/stm32f0xx_hal_i2c.c ****  ===============================================================================  
 560:Drivers/STM32F0xx_HAL_Driver/Src/stm32f0xx_hal_i2c.c ****     [..]
 561:Drivers/STM32F0xx_HAL_Driver/Src/stm32f0xx_hal_i2c.c ****     This subsection provides a set of functions allowing to manage the I2C data 
 562:Drivers/STM32F0xx_HAL_Driver/Src/stm32f0xx_hal_i2c.c ****     transfers.
 563:Drivers/STM32F0xx_HAL_Driver/Src/stm32f0xx_hal_i2c.c **** 
 564:Drivers/STM32F0xx_HAL_Driver/Src/stm32f0xx_hal_i2c.c ****     (#) There are two modes of transfer:
 565:Drivers/STM32F0xx_HAL_Driver/Src/stm32f0xx_hal_i2c.c ****        (++) Blocking mode : The communication is performed in the polling mode. 
 566:Drivers/STM32F0xx_HAL_Driver/Src/stm32f0xx_hal_i2c.c ****             The status of all data processing is returned by the same function 
 567:Drivers/STM32F0xx_HAL_Driver/Src/stm32f0xx_hal_i2c.c ****             after finishing transfer.  
 568:Drivers/STM32F0xx_HAL_Driver/Src/stm32f0xx_hal_i2c.c ****        (++) No-Blocking mode : The communication is performed using Interrupts 
 569:Drivers/STM32F0xx_HAL_Driver/Src/stm32f0xx_hal_i2c.c ****             or DMA. These functions return the status of the transfer startup.
 570:Drivers/STM32F0xx_HAL_Driver/Src/stm32f0xx_hal_i2c.c ****             The end of the data processing will be indicated through the 
 571:Drivers/STM32F0xx_HAL_Driver/Src/stm32f0xx_hal_i2c.c ****             dedicated I2C IRQ when using Interrupt mode or the DMA IRQ when 
 572:Drivers/STM32F0xx_HAL_Driver/Src/stm32f0xx_hal_i2c.c ****             using DMA mode.
 573:Drivers/STM32F0xx_HAL_Driver/Src/stm32f0xx_hal_i2c.c **** 
 574:Drivers/STM32F0xx_HAL_Driver/Src/stm32f0xx_hal_i2c.c ****     (#) Blocking mode functions are :
 575:Drivers/STM32F0xx_HAL_Driver/Src/stm32f0xx_hal_i2c.c ****         (++) HAL_I2C_Master_Transmit()
 576:Drivers/STM32F0xx_HAL_Driver/Src/stm32f0xx_hal_i2c.c ****         (++) HAL_I2C_Master_Receive()
 577:Drivers/STM32F0xx_HAL_Driver/Src/stm32f0xx_hal_i2c.c ****         (++) HAL_I2C_Slave_Transmit()
 578:Drivers/STM32F0xx_HAL_Driver/Src/stm32f0xx_hal_i2c.c ****         (++) HAL_I2C_Slave_Receive()
 579:Drivers/STM32F0xx_HAL_Driver/Src/stm32f0xx_hal_i2c.c ****         (++) HAL_I2C_Mem_Write()
 580:Drivers/STM32F0xx_HAL_Driver/Src/stm32f0xx_hal_i2c.c ****         (++) HAL_I2C_Mem_Read()
 581:Drivers/STM32F0xx_HAL_Driver/Src/stm32f0xx_hal_i2c.c ****         (++) HAL_I2C_IsDeviceReady()
 582:Drivers/STM32F0xx_HAL_Driver/Src/stm32f0xx_hal_i2c.c ****         
 583:Drivers/STM32F0xx_HAL_Driver/Src/stm32f0xx_hal_i2c.c ****     (#) No-Blocking mode functions with Interrupt are :
 584:Drivers/STM32F0xx_HAL_Driver/Src/stm32f0xx_hal_i2c.c ****         (++) HAL_I2C_Master_Transmit_IT()
 585:Drivers/STM32F0xx_HAL_Driver/Src/stm32f0xx_hal_i2c.c ****         (++) HAL_I2C_Master_Receive_IT()
 586:Drivers/STM32F0xx_HAL_Driver/Src/stm32f0xx_hal_i2c.c ****         (++) HAL_I2C_Slave_Transmit_IT()
 587:Drivers/STM32F0xx_HAL_Driver/Src/stm32f0xx_hal_i2c.c ****         (++) HAL_I2C_Slave_Receive_IT()
 588:Drivers/STM32F0xx_HAL_Driver/Src/stm32f0xx_hal_i2c.c ****         (++) HAL_I2C_Mem_Write_IT()
 589:Drivers/STM32F0xx_HAL_Driver/Src/stm32f0xx_hal_i2c.c ****         (++) HAL_I2C_Mem_Read_IT()
 590:Drivers/STM32F0xx_HAL_Driver/Src/stm32f0xx_hal_i2c.c **** 
 591:Drivers/STM32F0xx_HAL_Driver/Src/stm32f0xx_hal_i2c.c ****     (#) No-Blocking mode functions with DMA are :
 592:Drivers/STM32F0xx_HAL_Driver/Src/stm32f0xx_hal_i2c.c ****         (++) HAL_I2C_Master_Transmit_DMA()
 593:Drivers/STM32F0xx_HAL_Driver/Src/stm32f0xx_hal_i2c.c ****         (++) HAL_I2C_Master_Receive_DMA()
 594:Drivers/STM32F0xx_HAL_Driver/Src/stm32f0xx_hal_i2c.c ****         (++) HAL_I2C_Slave_Transmit_DMA()
 595:Drivers/STM32F0xx_HAL_Driver/Src/stm32f0xx_hal_i2c.c ****         (++) HAL_I2C_Slave_Receive_DMA()
 596:Drivers/STM32F0xx_HAL_Driver/Src/stm32f0xx_hal_i2c.c ****         (++) HAL_I2C_Mem_Write_DMA()
 597:Drivers/STM32F0xx_HAL_Driver/Src/stm32f0xx_hal_i2c.c ****         (++) HAL_I2C_Mem_Read_DMA()
 598:Drivers/STM32F0xx_HAL_Driver/Src/stm32f0xx_hal_i2c.c **** 
 599:Drivers/STM32F0xx_HAL_Driver/Src/stm32f0xx_hal_i2c.c ****     (#) A set of Transfer Complete Callbacks are provided in non Blocking mode:
 600:Drivers/STM32F0xx_HAL_Driver/Src/stm32f0xx_hal_i2c.c ****         (++) HAL_I2C_MemTxCpltCallback()
 601:Drivers/STM32F0xx_HAL_Driver/Src/stm32f0xx_hal_i2c.c ****         (++) HAL_I2C_MemRxCpltCallback()
 602:Drivers/STM32F0xx_HAL_Driver/Src/stm32f0xx_hal_i2c.c ****         (++) HAL_I2C_MasterTxCpltCallback()
 603:Drivers/STM32F0xx_HAL_Driver/Src/stm32f0xx_hal_i2c.c ****         (++) HAL_I2C_MasterRxCpltCallback()
ARM GAS  /tmp/ccMxaoR5.s 			page 18


 604:Drivers/STM32F0xx_HAL_Driver/Src/stm32f0xx_hal_i2c.c ****         (++) HAL_I2C_SlaveTxCpltCallback()
 605:Drivers/STM32F0xx_HAL_Driver/Src/stm32f0xx_hal_i2c.c ****         (++) HAL_I2C_SlaveRxCpltCallback()
 606:Drivers/STM32F0xx_HAL_Driver/Src/stm32f0xx_hal_i2c.c ****         (++) HAL_I2C_ErrorCallback()
 607:Drivers/STM32F0xx_HAL_Driver/Src/stm32f0xx_hal_i2c.c **** 
 608:Drivers/STM32F0xx_HAL_Driver/Src/stm32f0xx_hal_i2c.c **** @endverbatim
 609:Drivers/STM32F0xx_HAL_Driver/Src/stm32f0xx_hal_i2c.c ****   * @{
 610:Drivers/STM32F0xx_HAL_Driver/Src/stm32f0xx_hal_i2c.c ****   */
 611:Drivers/STM32F0xx_HAL_Driver/Src/stm32f0xx_hal_i2c.c **** 
 612:Drivers/STM32F0xx_HAL_Driver/Src/stm32f0xx_hal_i2c.c **** /**
 613:Drivers/STM32F0xx_HAL_Driver/Src/stm32f0xx_hal_i2c.c ****   * @brief  Transmits in master mode an amount of data in blocking mode.
 614:Drivers/STM32F0xx_HAL_Driver/Src/stm32f0xx_hal_i2c.c ****   * @param  hi2c Pointer to a I2C_HandleTypeDef structure that contains
 615:Drivers/STM32F0xx_HAL_Driver/Src/stm32f0xx_hal_i2c.c ****   *                the configuration information for the specified I2C.
 616:Drivers/STM32F0xx_HAL_Driver/Src/stm32f0xx_hal_i2c.c ****   * @param  DevAddress Target device address: The device 7 bits address value
 617:Drivers/STM32F0xx_HAL_Driver/Src/stm32f0xx_hal_i2c.c ****   *         in datasheet must be shift at right before call interface
 618:Drivers/STM32F0xx_HAL_Driver/Src/stm32f0xx_hal_i2c.c ****   * @param  pData Pointer to data buffer
 619:Drivers/STM32F0xx_HAL_Driver/Src/stm32f0xx_hal_i2c.c ****   * @param  Size Amount of data to be sent
 620:Drivers/STM32F0xx_HAL_Driver/Src/stm32f0xx_hal_i2c.c ****   * @param  Timeout Timeout duration
 621:Drivers/STM32F0xx_HAL_Driver/Src/stm32f0xx_hal_i2c.c ****   * @retval HAL status
 622:Drivers/STM32F0xx_HAL_Driver/Src/stm32f0xx_hal_i2c.c ****   */
 623:Drivers/STM32F0xx_HAL_Driver/Src/stm32f0xx_hal_i2c.c **** HAL_StatusTypeDef HAL_I2C_Master_Transmit(I2C_HandleTypeDef *hi2c, uint16_t DevAddress, uint8_t *pD
 624:Drivers/STM32F0xx_HAL_Driver/Src/stm32f0xx_hal_i2c.c **** {
 376              		.loc 1 624 0
 377              		.cfi_startproc
 378 0000 90B5     		push	{r4, r7, lr}
 379              	.LCFI12:
 380              		.cfi_def_cfa_offset 12
 381              		.cfi_offset 4, -12
 382              		.cfi_offset 7, -8
 383              		.cfi_offset 14, -4
 384 0002 89B0     		sub	sp, sp, #36
 385              	.LCFI13:
 386              		.cfi_def_cfa_offset 48
 387 0004 02AF     		add	r7, sp, #8
 388              	.LCFI14:
 389              		.cfi_def_cfa 7, 40
 390 0006 F860     		str	r0, [r7, #12]
 391 0008 0800     		movs	r0, r1
 392 000a 7A60     		str	r2, [r7, #4]
 393 000c 1900     		movs	r1, r3
 394 000e 0A23     		movs	r3, #10
 395 0010 FB18     		adds	r3, r7, r3
 396 0012 021C     		adds	r2, r0, #0
 397 0014 1A80     		strh	r2, [r3]
 398 0016 0823     		movs	r3, #8
 399 0018 FB18     		adds	r3, r7, r3
 400 001a 0A1C     		adds	r2, r1, #0
 401 001c 1A80     		strh	r2, [r3]
 625:Drivers/STM32F0xx_HAL_Driver/Src/stm32f0xx_hal_i2c.c ****   uint32_t tickstart = 0U;
 402              		.loc 1 625 0
 403 001e 0023     		movs	r3, #0
 404 0020 7B61     		str	r3, [r7, #20]
 626:Drivers/STM32F0xx_HAL_Driver/Src/stm32f0xx_hal_i2c.c **** 
 627:Drivers/STM32F0xx_HAL_Driver/Src/stm32f0xx_hal_i2c.c ****   if(hi2c->State == HAL_I2C_STATE_READY)
 405              		.loc 1 627 0
 406 0022 FB68     		ldr	r3, [r7, #12]
 407 0024 4122     		movs	r2, #65
 408 0026 9B5C     		ldrb	r3, [r3, r2]
ARM GAS  /tmp/ccMxaoR5.s 			page 19


 409 0028 DBB2     		uxtb	r3, r3
 410 002a 202B     		cmp	r3, #32
 411 002c 00D0     		beq	.LCB339
 412 002e F3E0     		b	.L16	@long jump
 413              	.LCB339:
 628:Drivers/STM32F0xx_HAL_Driver/Src/stm32f0xx_hal_i2c.c ****   {
 629:Drivers/STM32F0xx_HAL_Driver/Src/stm32f0xx_hal_i2c.c ****     /* Process Locked */
 630:Drivers/STM32F0xx_HAL_Driver/Src/stm32f0xx_hal_i2c.c ****     __HAL_LOCK(hi2c);
 414              		.loc 1 630 0
 415 0030 FB68     		ldr	r3, [r7, #12]
 416 0032 4022     		movs	r2, #64
 417 0034 9B5C     		ldrb	r3, [r3, r2]
 418 0036 012B     		cmp	r3, #1
 419 0038 01D1     		bne	.L17
 420              		.loc 1 630 0 is_stmt 0 discriminator 1
 421 003a 0223     		movs	r3, #2
 422 003c EDE0     		b	.L18
 423              	.L17:
 424              		.loc 1 630 0 discriminator 2
 425 003e FB68     		ldr	r3, [r7, #12]
 426 0040 4022     		movs	r2, #64
 427 0042 0121     		movs	r1, #1
 428 0044 9954     		strb	r1, [r3, r2]
 631:Drivers/STM32F0xx_HAL_Driver/Src/stm32f0xx_hal_i2c.c **** 
 632:Drivers/STM32F0xx_HAL_Driver/Src/stm32f0xx_hal_i2c.c ****     /* Init tickstart for timeout management*/
 633:Drivers/STM32F0xx_HAL_Driver/Src/stm32f0xx_hal_i2c.c ****     tickstart = HAL_GetTick();
 429              		.loc 1 633 0 is_stmt 1 discriminator 2
 430 0046 FFF7FEFF 		bl	HAL_GetTick
 431 004a 0300     		movs	r3, r0
 432 004c 7B61     		str	r3, [r7, #20]
 634:Drivers/STM32F0xx_HAL_Driver/Src/stm32f0xx_hal_i2c.c **** 
 635:Drivers/STM32F0xx_HAL_Driver/Src/stm32f0xx_hal_i2c.c ****     if(I2C_WaitOnFlagUntilTimeout(hi2c, I2C_FLAG_BUSY, SET, I2C_TIMEOUT_BUSY, tickstart) != HAL_OK)
 433              		.loc 1 635 0 discriminator 2
 434 004e 8023     		movs	r3, #128
 435 0050 1902     		lsls	r1, r3, #8
 436 0052 F868     		ldr	r0, [r7, #12]
 437 0054 7B69     		ldr	r3, [r7, #20]
 438 0056 0093     		str	r3, [sp]
 439 0058 1923     		movs	r3, #25
 440 005a 0122     		movs	r2, #1
 441 005c FFF7FEFF 		bl	I2C_WaitOnFlagUntilTimeout
 442 0060 031E     		subs	r3, r0, #0
 443 0062 01D0     		beq	.L19
 636:Drivers/STM32F0xx_HAL_Driver/Src/stm32f0xx_hal_i2c.c ****     {
 637:Drivers/STM32F0xx_HAL_Driver/Src/stm32f0xx_hal_i2c.c ****       return HAL_TIMEOUT;
 444              		.loc 1 637 0
 445 0064 0323     		movs	r3, #3
 446 0066 D8E0     		b	.L18
 447              	.L19:
 638:Drivers/STM32F0xx_HAL_Driver/Src/stm32f0xx_hal_i2c.c ****     }
 639:Drivers/STM32F0xx_HAL_Driver/Src/stm32f0xx_hal_i2c.c **** 
 640:Drivers/STM32F0xx_HAL_Driver/Src/stm32f0xx_hal_i2c.c ****     hi2c->State = HAL_I2C_STATE_BUSY_TX;
 448              		.loc 1 640 0
 449 0068 FB68     		ldr	r3, [r7, #12]
 450 006a 4122     		movs	r2, #65
 451 006c 2121     		movs	r1, #33
 452 006e 9954     		strb	r1, [r3, r2]
ARM GAS  /tmp/ccMxaoR5.s 			page 20


 641:Drivers/STM32F0xx_HAL_Driver/Src/stm32f0xx_hal_i2c.c ****     hi2c->Mode = HAL_I2C_MODE_MASTER;
 453              		.loc 1 641 0
 454 0070 FB68     		ldr	r3, [r7, #12]
 455 0072 4222     		movs	r2, #66
 456 0074 1021     		movs	r1, #16
 457 0076 9954     		strb	r1, [r3, r2]
 642:Drivers/STM32F0xx_HAL_Driver/Src/stm32f0xx_hal_i2c.c ****     hi2c->ErrorCode   = HAL_I2C_ERROR_NONE;
 458              		.loc 1 642 0
 459 0078 FB68     		ldr	r3, [r7, #12]
 460 007a 0022     		movs	r2, #0
 461 007c 5A64     		str	r2, [r3, #68]
 643:Drivers/STM32F0xx_HAL_Driver/Src/stm32f0xx_hal_i2c.c ****     
 644:Drivers/STM32F0xx_HAL_Driver/Src/stm32f0xx_hal_i2c.c ****     /* Prepare transfer parameters */
 645:Drivers/STM32F0xx_HAL_Driver/Src/stm32f0xx_hal_i2c.c ****     hi2c->pBuffPtr  = pData;
 462              		.loc 1 645 0
 463 007e FB68     		ldr	r3, [r7, #12]
 464 0080 7A68     		ldr	r2, [r7, #4]
 465 0082 5A62     		str	r2, [r3, #36]
 646:Drivers/STM32F0xx_HAL_Driver/Src/stm32f0xx_hal_i2c.c ****     hi2c->XferCount = Size;
 466              		.loc 1 646 0
 467 0084 FB68     		ldr	r3, [r7, #12]
 468 0086 0822     		movs	r2, #8
 469 0088 BA18     		adds	r2, r7, r2
 470 008a 1288     		ldrh	r2, [r2]
 471 008c 5A85     		strh	r2, [r3, #42]
 647:Drivers/STM32F0xx_HAL_Driver/Src/stm32f0xx_hal_i2c.c ****     hi2c->XferISR   = NULL;
 472              		.loc 1 647 0
 473 008e FB68     		ldr	r3, [r7, #12]
 474 0090 0022     		movs	r2, #0
 475 0092 5A63     		str	r2, [r3, #52]
 648:Drivers/STM32F0xx_HAL_Driver/Src/stm32f0xx_hal_i2c.c **** 
 649:Drivers/STM32F0xx_HAL_Driver/Src/stm32f0xx_hal_i2c.c ****     /* Send Slave Address */
 650:Drivers/STM32F0xx_HAL_Driver/Src/stm32f0xx_hal_i2c.c ****     /* Set NBYTES to write and reload if hi2c->XferCount > MAX_NBYTE_SIZE and generate RESTART */
 651:Drivers/STM32F0xx_HAL_Driver/Src/stm32f0xx_hal_i2c.c ****     if(hi2c->XferCount > MAX_NBYTE_SIZE)
 476              		.loc 1 651 0
 477 0094 FB68     		ldr	r3, [r7, #12]
 478 0096 5B8D     		ldrh	r3, [r3, #42]
 479 0098 9BB2     		uxth	r3, r3
 480 009a FF2B     		cmp	r3, #255
 481 009c 12D9     		bls	.L20
 652:Drivers/STM32F0xx_HAL_Driver/Src/stm32f0xx_hal_i2c.c ****     {
 653:Drivers/STM32F0xx_HAL_Driver/Src/stm32f0xx_hal_i2c.c ****       hi2c->XferSize = MAX_NBYTE_SIZE;
 482              		.loc 1 653 0
 483 009e FB68     		ldr	r3, [r7, #12]
 484 00a0 FF22     		movs	r2, #255
 485 00a2 1A85     		strh	r2, [r3, #40]
 654:Drivers/STM32F0xx_HAL_Driver/Src/stm32f0xx_hal_i2c.c ****       I2C_TransferConfig(hi2c, DevAddress, hi2c->XferSize, I2C_RELOAD_MODE, I2C_GENERATE_START_WRIT
 486              		.loc 1 654 0
 487 00a4 FB68     		ldr	r3, [r7, #12]
 488 00a6 1B8D     		ldrh	r3, [r3, #40]
 489 00a8 DAB2     		uxtb	r2, r3
 490 00aa 8023     		movs	r3, #128
 491 00ac 5C04     		lsls	r4, r3, #17
 492 00ae 0A23     		movs	r3, #10
 493 00b0 FB18     		adds	r3, r7, r3
 494 00b2 1988     		ldrh	r1, [r3]
 495 00b4 F868     		ldr	r0, [r7, #12]
ARM GAS  /tmp/ccMxaoR5.s 			page 21


 496 00b6 8023     		movs	r3, #128
 497 00b8 9B01     		lsls	r3, r3, #6
 498 00ba 0093     		str	r3, [sp]
 499 00bc 2300     		movs	r3, r4
 500 00be FFF7FEFF 		bl	I2C_TransferConfig
 501 00c2 7AE0     		b	.L22
 502              	.L20:
 655:Drivers/STM32F0xx_HAL_Driver/Src/stm32f0xx_hal_i2c.c ****     }
 656:Drivers/STM32F0xx_HAL_Driver/Src/stm32f0xx_hal_i2c.c ****     else
 657:Drivers/STM32F0xx_HAL_Driver/Src/stm32f0xx_hal_i2c.c ****     {
 658:Drivers/STM32F0xx_HAL_Driver/Src/stm32f0xx_hal_i2c.c ****       hi2c->XferSize = hi2c->XferCount;
 503              		.loc 1 658 0
 504 00c4 FB68     		ldr	r3, [r7, #12]
 505 00c6 5B8D     		ldrh	r3, [r3, #42]
 506 00c8 9AB2     		uxth	r2, r3
 507 00ca FB68     		ldr	r3, [r7, #12]
 508 00cc 1A85     		strh	r2, [r3, #40]
 659:Drivers/STM32F0xx_HAL_Driver/Src/stm32f0xx_hal_i2c.c ****       I2C_TransferConfig(hi2c, DevAddress, hi2c->XferSize, I2C_AUTOEND_MODE, I2C_GENERATE_START_WRI
 509              		.loc 1 659 0
 510 00ce FB68     		ldr	r3, [r7, #12]
 511 00d0 1B8D     		ldrh	r3, [r3, #40]
 512 00d2 DAB2     		uxtb	r2, r3
 513 00d4 8023     		movs	r3, #128
 514 00d6 9C04     		lsls	r4, r3, #18
 515 00d8 0A23     		movs	r3, #10
 516 00da FB18     		adds	r3, r7, r3
 517 00dc 1988     		ldrh	r1, [r3]
 518 00de F868     		ldr	r0, [r7, #12]
 519 00e0 8023     		movs	r3, #128
 520 00e2 9B01     		lsls	r3, r3, #6
 521 00e4 0093     		str	r3, [sp]
 522 00e6 2300     		movs	r3, r4
 523 00e8 FFF7FEFF 		bl	I2C_TransferConfig
 660:Drivers/STM32F0xx_HAL_Driver/Src/stm32f0xx_hal_i2c.c ****     }
 661:Drivers/STM32F0xx_HAL_Driver/Src/stm32f0xx_hal_i2c.c **** 
 662:Drivers/STM32F0xx_HAL_Driver/Src/stm32f0xx_hal_i2c.c ****     while(hi2c->XferCount > 0U)
 524              		.loc 1 662 0
 525 00ec 65E0     		b	.L22
 526              	.L27:
 663:Drivers/STM32F0xx_HAL_Driver/Src/stm32f0xx_hal_i2c.c ****     {
 664:Drivers/STM32F0xx_HAL_Driver/Src/stm32f0xx_hal_i2c.c ****       /* Wait until TXIS flag is set */
 665:Drivers/STM32F0xx_HAL_Driver/Src/stm32f0xx_hal_i2c.c ****       if(I2C_WaitOnTXISFlagUntilTimeout(hi2c, Timeout, tickstart) != HAL_OK)
 527              		.loc 1 665 0
 528 00ee 7A69     		ldr	r2, [r7, #20]
 529 00f0 B96A     		ldr	r1, [r7, #40]
 530 00f2 FB68     		ldr	r3, [r7, #12]
 531 00f4 1800     		movs	r0, r3
 532 00f6 FFF7FEFF 		bl	I2C_WaitOnTXISFlagUntilTimeout
 533 00fa 031E     		subs	r3, r0, #0
 534 00fc 07D0     		beq	.L23
 666:Drivers/STM32F0xx_HAL_Driver/Src/stm32f0xx_hal_i2c.c ****       {
 667:Drivers/STM32F0xx_HAL_Driver/Src/stm32f0xx_hal_i2c.c ****         if(hi2c->ErrorCode == HAL_I2C_ERROR_AF)
 535              		.loc 1 667 0
 536 00fe FB68     		ldr	r3, [r7, #12]
 537 0100 5B6C     		ldr	r3, [r3, #68]
 538 0102 042B     		cmp	r3, #4
 539 0104 01D1     		bne	.L24
ARM GAS  /tmp/ccMxaoR5.s 			page 22


 668:Drivers/STM32F0xx_HAL_Driver/Src/stm32f0xx_hal_i2c.c ****         {
 669:Drivers/STM32F0xx_HAL_Driver/Src/stm32f0xx_hal_i2c.c ****           return HAL_ERROR;
 540              		.loc 1 669 0
 541 0106 0123     		movs	r3, #1
 542 0108 87E0     		b	.L18
 543              	.L24:
 670:Drivers/STM32F0xx_HAL_Driver/Src/stm32f0xx_hal_i2c.c ****         }
 671:Drivers/STM32F0xx_HAL_Driver/Src/stm32f0xx_hal_i2c.c ****         else
 672:Drivers/STM32F0xx_HAL_Driver/Src/stm32f0xx_hal_i2c.c ****         {
 673:Drivers/STM32F0xx_HAL_Driver/Src/stm32f0xx_hal_i2c.c ****           return HAL_TIMEOUT;
 544              		.loc 1 673 0
 545 010a 0323     		movs	r3, #3
 546 010c 85E0     		b	.L18
 547              	.L23:
 674:Drivers/STM32F0xx_HAL_Driver/Src/stm32f0xx_hal_i2c.c ****         }
 675:Drivers/STM32F0xx_HAL_Driver/Src/stm32f0xx_hal_i2c.c ****       }
 676:Drivers/STM32F0xx_HAL_Driver/Src/stm32f0xx_hal_i2c.c ****       /* Write data to TXDR */
 677:Drivers/STM32F0xx_HAL_Driver/Src/stm32f0xx_hal_i2c.c ****       hi2c->Instance->TXDR = (*hi2c->pBuffPtr++);
 548              		.loc 1 677 0
 549 010e FB68     		ldr	r3, [r7, #12]
 550 0110 1B68     		ldr	r3, [r3]
 551 0112 FA68     		ldr	r2, [r7, #12]
 552 0114 526A     		ldr	r2, [r2, #36]
 553 0116 501C     		adds	r0, r2, #1
 554 0118 F968     		ldr	r1, [r7, #12]
 555 011a 4862     		str	r0, [r1, #36]
 556 011c 1278     		ldrb	r2, [r2]
 557 011e 9A62     		str	r2, [r3, #40]
 678:Drivers/STM32F0xx_HAL_Driver/Src/stm32f0xx_hal_i2c.c ****       hi2c->XferCount--;
 558              		.loc 1 678 0
 559 0120 FB68     		ldr	r3, [r7, #12]
 560 0122 5B8D     		ldrh	r3, [r3, #42]
 561 0124 9BB2     		uxth	r3, r3
 562 0126 013B     		subs	r3, r3, #1
 563 0128 9AB2     		uxth	r2, r3
 564 012a FB68     		ldr	r3, [r7, #12]
 565 012c 5A85     		strh	r2, [r3, #42]
 679:Drivers/STM32F0xx_HAL_Driver/Src/stm32f0xx_hal_i2c.c ****       hi2c->XferSize--;
 566              		.loc 1 679 0
 567 012e FB68     		ldr	r3, [r7, #12]
 568 0130 1B8D     		ldrh	r3, [r3, #40]
 569 0132 013B     		subs	r3, r3, #1
 570 0134 9AB2     		uxth	r2, r3
 571 0136 FB68     		ldr	r3, [r7, #12]
 572 0138 1A85     		strh	r2, [r3, #40]
 680:Drivers/STM32F0xx_HAL_Driver/Src/stm32f0xx_hal_i2c.c **** 
 681:Drivers/STM32F0xx_HAL_Driver/Src/stm32f0xx_hal_i2c.c ****       if((hi2c->XferSize == 0U) && (hi2c->XferCount!=0U))
 573              		.loc 1 681 0
 574 013a FB68     		ldr	r3, [r7, #12]
 575 013c 1B8D     		ldrh	r3, [r3, #40]
 576 013e 002B     		cmp	r3, #0
 577 0140 3BD1     		bne	.L22
 578              		.loc 1 681 0 is_stmt 0 discriminator 1
 579 0142 FB68     		ldr	r3, [r7, #12]
 580 0144 5B8D     		ldrh	r3, [r3, #42]
 581 0146 9BB2     		uxth	r3, r3
 582 0148 002B     		cmp	r3, #0
ARM GAS  /tmp/ccMxaoR5.s 			page 23


 583 014a 36D0     		beq	.L22
 682:Drivers/STM32F0xx_HAL_Driver/Src/stm32f0xx_hal_i2c.c ****       {
 683:Drivers/STM32F0xx_HAL_Driver/Src/stm32f0xx_hal_i2c.c ****         /* Wait until TCR flag is set */
 684:Drivers/STM32F0xx_HAL_Driver/Src/stm32f0xx_hal_i2c.c ****         if(I2C_WaitOnFlagUntilTimeout(hi2c, I2C_FLAG_TCR, RESET, Timeout, tickstart) != HAL_OK)
 584              		.loc 1 684 0 is_stmt 1
 585 014c BA6A     		ldr	r2, [r7, #40]
 586 014e F868     		ldr	r0, [r7, #12]
 587 0150 7B69     		ldr	r3, [r7, #20]
 588 0152 0093     		str	r3, [sp]
 589 0154 1300     		movs	r3, r2
 590 0156 0022     		movs	r2, #0
 591 0158 8021     		movs	r1, #128
 592 015a FFF7FEFF 		bl	I2C_WaitOnFlagUntilTimeout
 593 015e 031E     		subs	r3, r0, #0
 594 0160 01D0     		beq	.L25
 685:Drivers/STM32F0xx_HAL_Driver/Src/stm32f0xx_hal_i2c.c ****         {
 686:Drivers/STM32F0xx_HAL_Driver/Src/stm32f0xx_hal_i2c.c ****           return HAL_TIMEOUT;
 595              		.loc 1 686 0
 596 0162 0323     		movs	r3, #3
 597 0164 59E0     		b	.L18
 598              	.L25:
 687:Drivers/STM32F0xx_HAL_Driver/Src/stm32f0xx_hal_i2c.c ****         }
 688:Drivers/STM32F0xx_HAL_Driver/Src/stm32f0xx_hal_i2c.c ****         
 689:Drivers/STM32F0xx_HAL_Driver/Src/stm32f0xx_hal_i2c.c ****         if(hi2c->XferCount > MAX_NBYTE_SIZE)
 599              		.loc 1 689 0
 600 0166 FB68     		ldr	r3, [r7, #12]
 601 0168 5B8D     		ldrh	r3, [r3, #42]
 602 016a 9BB2     		uxth	r3, r3
 603 016c FF2B     		cmp	r3, #255
 604 016e 11D9     		bls	.L26
 690:Drivers/STM32F0xx_HAL_Driver/Src/stm32f0xx_hal_i2c.c ****         {
 691:Drivers/STM32F0xx_HAL_Driver/Src/stm32f0xx_hal_i2c.c ****           hi2c->XferSize = MAX_NBYTE_SIZE;
 605              		.loc 1 691 0
 606 0170 FB68     		ldr	r3, [r7, #12]
 607 0172 FF22     		movs	r2, #255
 608 0174 1A85     		strh	r2, [r3, #40]
 692:Drivers/STM32F0xx_HAL_Driver/Src/stm32f0xx_hal_i2c.c ****           I2C_TransferConfig(hi2c, DevAddress, hi2c->XferSize, I2C_RELOAD_MODE, I2C_NO_STARTSTOP);
 609              		.loc 1 692 0
 610 0176 FB68     		ldr	r3, [r7, #12]
 611 0178 1B8D     		ldrh	r3, [r3, #40]
 612 017a DAB2     		uxtb	r2, r3
 613 017c 8023     		movs	r3, #128
 614 017e 5C04     		lsls	r4, r3, #17
 615 0180 0A23     		movs	r3, #10
 616 0182 FB18     		adds	r3, r7, r3
 617 0184 1988     		ldrh	r1, [r3]
 618 0186 F868     		ldr	r0, [r7, #12]
 619 0188 0023     		movs	r3, #0
 620 018a 0093     		str	r3, [sp]
 621 018c 2300     		movs	r3, r4
 622 018e FFF7FEFF 		bl	I2C_TransferConfig
 623 0192 12E0     		b	.L22
 624              	.L26:
 693:Drivers/STM32F0xx_HAL_Driver/Src/stm32f0xx_hal_i2c.c ****         }
 694:Drivers/STM32F0xx_HAL_Driver/Src/stm32f0xx_hal_i2c.c ****         else
 695:Drivers/STM32F0xx_HAL_Driver/Src/stm32f0xx_hal_i2c.c ****         {
 696:Drivers/STM32F0xx_HAL_Driver/Src/stm32f0xx_hal_i2c.c ****           hi2c->XferSize = hi2c->XferCount;
ARM GAS  /tmp/ccMxaoR5.s 			page 24


 625              		.loc 1 696 0
 626 0194 FB68     		ldr	r3, [r7, #12]
 627 0196 5B8D     		ldrh	r3, [r3, #42]
 628 0198 9AB2     		uxth	r2, r3
 629 019a FB68     		ldr	r3, [r7, #12]
 630 019c 1A85     		strh	r2, [r3, #40]
 697:Drivers/STM32F0xx_HAL_Driver/Src/stm32f0xx_hal_i2c.c ****           I2C_TransferConfig(hi2c, DevAddress, hi2c->XferSize, I2C_AUTOEND_MODE, I2C_NO_STARTSTOP);
 631              		.loc 1 697 0
 632 019e FB68     		ldr	r3, [r7, #12]
 633 01a0 1B8D     		ldrh	r3, [r3, #40]
 634 01a2 DAB2     		uxtb	r2, r3
 635 01a4 8023     		movs	r3, #128
 636 01a6 9C04     		lsls	r4, r3, #18
 637 01a8 0A23     		movs	r3, #10
 638 01aa FB18     		adds	r3, r7, r3
 639 01ac 1988     		ldrh	r1, [r3]
 640 01ae F868     		ldr	r0, [r7, #12]
 641 01b0 0023     		movs	r3, #0
 642 01b2 0093     		str	r3, [sp]
 643 01b4 2300     		movs	r3, r4
 644 01b6 FFF7FEFF 		bl	I2C_TransferConfig
 645              	.L22:
 662:Drivers/STM32F0xx_HAL_Driver/Src/stm32f0xx_hal_i2c.c ****     {
 646              		.loc 1 662 0
 647 01ba FB68     		ldr	r3, [r7, #12]
 648 01bc 5B8D     		ldrh	r3, [r3, #42]
 649 01be 9BB2     		uxth	r3, r3
 650 01c0 002B     		cmp	r3, #0
 651 01c2 94D1     		bne	.L27
 698:Drivers/STM32F0xx_HAL_Driver/Src/stm32f0xx_hal_i2c.c ****         }
 699:Drivers/STM32F0xx_HAL_Driver/Src/stm32f0xx_hal_i2c.c ****       }
 700:Drivers/STM32F0xx_HAL_Driver/Src/stm32f0xx_hal_i2c.c ****     }
 701:Drivers/STM32F0xx_HAL_Driver/Src/stm32f0xx_hal_i2c.c ****   
 702:Drivers/STM32F0xx_HAL_Driver/Src/stm32f0xx_hal_i2c.c ****     /* No need to Check TC flag, with AUTOEND mode the stop is automatically generated */
 703:Drivers/STM32F0xx_HAL_Driver/Src/stm32f0xx_hal_i2c.c ****     /* Wait until STOPF flag is set */
 704:Drivers/STM32F0xx_HAL_Driver/Src/stm32f0xx_hal_i2c.c ****     if(I2C_WaitOnSTOPFlagUntilTimeout(hi2c, Timeout, tickstart) != HAL_OK)
 652              		.loc 1 704 0
 653 01c4 7A69     		ldr	r2, [r7, #20]
 654 01c6 B96A     		ldr	r1, [r7, #40]
 655 01c8 FB68     		ldr	r3, [r7, #12]
 656 01ca 1800     		movs	r0, r3
 657 01cc FFF7FEFF 		bl	I2C_WaitOnSTOPFlagUntilTimeout
 658 01d0 031E     		subs	r3, r0, #0
 659 01d2 07D0     		beq	.L28
 705:Drivers/STM32F0xx_HAL_Driver/Src/stm32f0xx_hal_i2c.c ****     {
 706:Drivers/STM32F0xx_HAL_Driver/Src/stm32f0xx_hal_i2c.c ****       if(hi2c->ErrorCode == HAL_I2C_ERROR_AF)
 660              		.loc 1 706 0
 661 01d4 FB68     		ldr	r3, [r7, #12]
 662 01d6 5B6C     		ldr	r3, [r3, #68]
 663 01d8 042B     		cmp	r3, #4
 664 01da 01D1     		bne	.L29
 707:Drivers/STM32F0xx_HAL_Driver/Src/stm32f0xx_hal_i2c.c ****       {
 708:Drivers/STM32F0xx_HAL_Driver/Src/stm32f0xx_hal_i2c.c ****         return HAL_ERROR;
 665              		.loc 1 708 0
 666 01dc 0123     		movs	r3, #1
 667 01de 1CE0     		b	.L18
 668              	.L29:
ARM GAS  /tmp/ccMxaoR5.s 			page 25


 709:Drivers/STM32F0xx_HAL_Driver/Src/stm32f0xx_hal_i2c.c ****       }
 710:Drivers/STM32F0xx_HAL_Driver/Src/stm32f0xx_hal_i2c.c ****       else
 711:Drivers/STM32F0xx_HAL_Driver/Src/stm32f0xx_hal_i2c.c ****       {
 712:Drivers/STM32F0xx_HAL_Driver/Src/stm32f0xx_hal_i2c.c ****         return HAL_TIMEOUT;
 669              		.loc 1 712 0
 670 01e0 0323     		movs	r3, #3
 671 01e2 1AE0     		b	.L18
 672              	.L28:
 713:Drivers/STM32F0xx_HAL_Driver/Src/stm32f0xx_hal_i2c.c ****       }
 714:Drivers/STM32F0xx_HAL_Driver/Src/stm32f0xx_hal_i2c.c ****     }
 715:Drivers/STM32F0xx_HAL_Driver/Src/stm32f0xx_hal_i2c.c **** 
 716:Drivers/STM32F0xx_HAL_Driver/Src/stm32f0xx_hal_i2c.c ****     /* Clear STOP Flag */
 717:Drivers/STM32F0xx_HAL_Driver/Src/stm32f0xx_hal_i2c.c ****     __HAL_I2C_CLEAR_FLAG(hi2c, I2C_FLAG_STOPF);
 673              		.loc 1 717 0
 674 01e4 FB68     		ldr	r3, [r7, #12]
 675 01e6 1B68     		ldr	r3, [r3]
 676 01e8 2022     		movs	r2, #32
 677 01ea DA61     		str	r2, [r3, #28]
 718:Drivers/STM32F0xx_HAL_Driver/Src/stm32f0xx_hal_i2c.c **** 
 719:Drivers/STM32F0xx_HAL_Driver/Src/stm32f0xx_hal_i2c.c ****     /* Clear Configuration Register 2 */
 720:Drivers/STM32F0xx_HAL_Driver/Src/stm32f0xx_hal_i2c.c ****     I2C_RESET_CR2(hi2c);
 678              		.loc 1 720 0
 679 01ec FB68     		ldr	r3, [r7, #12]
 680 01ee 1B68     		ldr	r3, [r3]
 681 01f0 FA68     		ldr	r2, [r7, #12]
 682 01f2 1268     		ldr	r2, [r2]
 683 01f4 5268     		ldr	r2, [r2, #4]
 684 01f6 0B49     		ldr	r1, .L30
 685 01f8 0A40     		ands	r2, r1
 686 01fa 5A60     		str	r2, [r3, #4]
 721:Drivers/STM32F0xx_HAL_Driver/Src/stm32f0xx_hal_i2c.c **** 
 722:Drivers/STM32F0xx_HAL_Driver/Src/stm32f0xx_hal_i2c.c ****     hi2c->State = HAL_I2C_STATE_READY;
 687              		.loc 1 722 0
 688 01fc FB68     		ldr	r3, [r7, #12]
 689 01fe 4122     		movs	r2, #65
 690 0200 2021     		movs	r1, #32
 691 0202 9954     		strb	r1, [r3, r2]
 723:Drivers/STM32F0xx_HAL_Driver/Src/stm32f0xx_hal_i2c.c ****     hi2c->Mode = HAL_I2C_MODE_NONE;
 692              		.loc 1 723 0
 693 0204 FB68     		ldr	r3, [r7, #12]
 694 0206 4222     		movs	r2, #66
 695 0208 0021     		movs	r1, #0
 696 020a 9954     		strb	r1, [r3, r2]
 724:Drivers/STM32F0xx_HAL_Driver/Src/stm32f0xx_hal_i2c.c ****     
 725:Drivers/STM32F0xx_HAL_Driver/Src/stm32f0xx_hal_i2c.c ****     /* Process Unlocked */
 726:Drivers/STM32F0xx_HAL_Driver/Src/stm32f0xx_hal_i2c.c ****     __HAL_UNLOCK(hi2c);
 697              		.loc 1 726 0
 698 020c FB68     		ldr	r3, [r7, #12]
 699 020e 4022     		movs	r2, #64
 700 0210 0021     		movs	r1, #0
 701 0212 9954     		strb	r1, [r3, r2]
 727:Drivers/STM32F0xx_HAL_Driver/Src/stm32f0xx_hal_i2c.c **** 
 728:Drivers/STM32F0xx_HAL_Driver/Src/stm32f0xx_hal_i2c.c ****     return HAL_OK;
 702              		.loc 1 728 0
 703 0214 0023     		movs	r3, #0
 704 0216 00E0     		b	.L18
 705              	.L16:
ARM GAS  /tmp/ccMxaoR5.s 			page 26


 729:Drivers/STM32F0xx_HAL_Driver/Src/stm32f0xx_hal_i2c.c ****   }
 730:Drivers/STM32F0xx_HAL_Driver/Src/stm32f0xx_hal_i2c.c ****   else
 731:Drivers/STM32F0xx_HAL_Driver/Src/stm32f0xx_hal_i2c.c ****   {
 732:Drivers/STM32F0xx_HAL_Driver/Src/stm32f0xx_hal_i2c.c ****     return HAL_BUSY;
 706              		.loc 1 732 0
 707 0218 0223     		movs	r3, #2
 708              	.L18:
 733:Drivers/STM32F0xx_HAL_Driver/Src/stm32f0xx_hal_i2c.c ****   }
 734:Drivers/STM32F0xx_HAL_Driver/Src/stm32f0xx_hal_i2c.c **** }
 709              		.loc 1 734 0
 710 021a 1800     		movs	r0, r3
 711 021c BD46     		mov	sp, r7
 712 021e 07B0     		add	sp, sp, #28
 713              		@ sp needed
 714 0220 90BD     		pop	{r4, r7, pc}
 715              	.L31:
 716 0222 C046     		.align	2
 717              	.L30:
 718 0224 00E800FE 		.word	-33495040
 719              		.cfi_endproc
 720              	.LFE39:
 722              		.section	.text.HAL_I2C_Master_Receive,"ax",%progbits
 723              		.align	1
 724              		.global	HAL_I2C_Master_Receive
 725              		.syntax unified
 726              		.code	16
 727              		.thumb_func
 728              		.fpu softvfp
 730              	HAL_I2C_Master_Receive:
 731              	.LFB40:
 735:Drivers/STM32F0xx_HAL_Driver/Src/stm32f0xx_hal_i2c.c **** 
 736:Drivers/STM32F0xx_HAL_Driver/Src/stm32f0xx_hal_i2c.c **** /**
 737:Drivers/STM32F0xx_HAL_Driver/Src/stm32f0xx_hal_i2c.c ****   * @brief  Receives in master mode an amount of data in blocking mode. 
 738:Drivers/STM32F0xx_HAL_Driver/Src/stm32f0xx_hal_i2c.c ****   * @param  hi2c Pointer to a I2C_HandleTypeDef structure that contains
 739:Drivers/STM32F0xx_HAL_Driver/Src/stm32f0xx_hal_i2c.c ****   *                the configuration information for the specified I2C.
 740:Drivers/STM32F0xx_HAL_Driver/Src/stm32f0xx_hal_i2c.c ****   * @param  DevAddress Target device address: The device 7 bits address value
 741:Drivers/STM32F0xx_HAL_Driver/Src/stm32f0xx_hal_i2c.c ****   *         in datasheet must be shift at right before call interface
 742:Drivers/STM32F0xx_HAL_Driver/Src/stm32f0xx_hal_i2c.c ****   * @param  pData Pointer to data buffer
 743:Drivers/STM32F0xx_HAL_Driver/Src/stm32f0xx_hal_i2c.c ****   * @param  Size Amount of data to be sent
 744:Drivers/STM32F0xx_HAL_Driver/Src/stm32f0xx_hal_i2c.c ****   * @param  Timeout Timeout duration
 745:Drivers/STM32F0xx_HAL_Driver/Src/stm32f0xx_hal_i2c.c ****   * @retval HAL status
 746:Drivers/STM32F0xx_HAL_Driver/Src/stm32f0xx_hal_i2c.c ****   */
 747:Drivers/STM32F0xx_HAL_Driver/Src/stm32f0xx_hal_i2c.c **** HAL_StatusTypeDef HAL_I2C_Master_Receive(I2C_HandleTypeDef *hi2c, uint16_t DevAddress, uint8_t *pDa
 748:Drivers/STM32F0xx_HAL_Driver/Src/stm32f0xx_hal_i2c.c **** {
 732              		.loc 1 748 0
 733              		.cfi_startproc
 734 0000 90B5     		push	{r4, r7, lr}
 735              	.LCFI15:
 736              		.cfi_def_cfa_offset 12
 737              		.cfi_offset 4, -12
 738              		.cfi_offset 7, -8
 739              		.cfi_offset 14, -4
 740 0002 89B0     		sub	sp, sp, #36
 741              	.LCFI16:
 742              		.cfi_def_cfa_offset 48
 743 0004 02AF     		add	r7, sp, #8
 744              	.LCFI17:
ARM GAS  /tmp/ccMxaoR5.s 			page 27


 745              		.cfi_def_cfa 7, 40
 746 0006 F860     		str	r0, [r7, #12]
 747 0008 0800     		movs	r0, r1
 748 000a 7A60     		str	r2, [r7, #4]
 749 000c 1900     		movs	r1, r3
 750 000e 0A23     		movs	r3, #10
 751 0010 FB18     		adds	r3, r7, r3
 752 0012 021C     		adds	r2, r0, #0
 753 0014 1A80     		strh	r2, [r3]
 754 0016 0823     		movs	r3, #8
 755 0018 FB18     		adds	r3, r7, r3
 756 001a 0A1C     		adds	r2, r1, #0
 757 001c 1A80     		strh	r2, [r3]
 749:Drivers/STM32F0xx_HAL_Driver/Src/stm32f0xx_hal_i2c.c ****   uint32_t tickstart = 0U;
 758              		.loc 1 749 0
 759 001e 0023     		movs	r3, #0
 760 0020 7B61     		str	r3, [r7, #20]
 750:Drivers/STM32F0xx_HAL_Driver/Src/stm32f0xx_hal_i2c.c **** 
 751:Drivers/STM32F0xx_HAL_Driver/Src/stm32f0xx_hal_i2c.c ****   if(hi2c->State == HAL_I2C_STATE_READY)
 761              		.loc 1 751 0
 762 0022 FB68     		ldr	r3, [r7, #12]
 763 0024 4122     		movs	r2, #65
 764 0026 9B5C     		ldrb	r3, [r3, r2]
 765 0028 DBB2     		uxtb	r3, r3
 766 002a 202B     		cmp	r3, #32
 767 002c 00D0     		beq	.LCB670
 768 002e F4E0     		b	.L33	@long jump
 769              	.LCB670:
 752:Drivers/STM32F0xx_HAL_Driver/Src/stm32f0xx_hal_i2c.c ****   {    
 753:Drivers/STM32F0xx_HAL_Driver/Src/stm32f0xx_hal_i2c.c ****     /* Process Locked */
 754:Drivers/STM32F0xx_HAL_Driver/Src/stm32f0xx_hal_i2c.c ****     __HAL_LOCK(hi2c);
 770              		.loc 1 754 0
 771 0030 FB68     		ldr	r3, [r7, #12]
 772 0032 4022     		movs	r2, #64
 773 0034 9B5C     		ldrb	r3, [r3, r2]
 774 0036 012B     		cmp	r3, #1
 775 0038 01D1     		bne	.L34
 776              		.loc 1 754 0 is_stmt 0 discriminator 1
 777 003a 0223     		movs	r3, #2
 778 003c EEE0     		b	.L35
 779              	.L34:
 780              		.loc 1 754 0 discriminator 2
 781 003e FB68     		ldr	r3, [r7, #12]
 782 0040 4022     		movs	r2, #64
 783 0042 0121     		movs	r1, #1
 784 0044 9954     		strb	r1, [r3, r2]
 755:Drivers/STM32F0xx_HAL_Driver/Src/stm32f0xx_hal_i2c.c ****     
 756:Drivers/STM32F0xx_HAL_Driver/Src/stm32f0xx_hal_i2c.c ****     /* Init tickstart for timeout management*/
 757:Drivers/STM32F0xx_HAL_Driver/Src/stm32f0xx_hal_i2c.c ****     tickstart = HAL_GetTick();
 785              		.loc 1 757 0 is_stmt 1 discriminator 2
 786 0046 FFF7FEFF 		bl	HAL_GetTick
 787 004a 0300     		movs	r3, r0
 788 004c 7B61     		str	r3, [r7, #20]
 758:Drivers/STM32F0xx_HAL_Driver/Src/stm32f0xx_hal_i2c.c **** 
 759:Drivers/STM32F0xx_HAL_Driver/Src/stm32f0xx_hal_i2c.c ****     if(I2C_WaitOnFlagUntilTimeout(hi2c, I2C_FLAG_BUSY, SET, I2C_TIMEOUT_BUSY, tickstart) != HAL_OK)
 789              		.loc 1 759 0 discriminator 2
 790 004e 8023     		movs	r3, #128
ARM GAS  /tmp/ccMxaoR5.s 			page 28


 791 0050 1902     		lsls	r1, r3, #8
 792 0052 F868     		ldr	r0, [r7, #12]
 793 0054 7B69     		ldr	r3, [r7, #20]
 794 0056 0093     		str	r3, [sp]
 795 0058 1923     		movs	r3, #25
 796 005a 0122     		movs	r2, #1
 797 005c FFF7FEFF 		bl	I2C_WaitOnFlagUntilTimeout
 798 0060 031E     		subs	r3, r0, #0
 799 0062 01D0     		beq	.L36
 760:Drivers/STM32F0xx_HAL_Driver/Src/stm32f0xx_hal_i2c.c ****     {
 761:Drivers/STM32F0xx_HAL_Driver/Src/stm32f0xx_hal_i2c.c ****       return HAL_TIMEOUT;
 800              		.loc 1 761 0
 801 0064 0323     		movs	r3, #3
 802 0066 D9E0     		b	.L35
 803              	.L36:
 762:Drivers/STM32F0xx_HAL_Driver/Src/stm32f0xx_hal_i2c.c ****     }
 763:Drivers/STM32F0xx_HAL_Driver/Src/stm32f0xx_hal_i2c.c **** 
 764:Drivers/STM32F0xx_HAL_Driver/Src/stm32f0xx_hal_i2c.c ****     hi2c->State = HAL_I2C_STATE_BUSY_RX;
 804              		.loc 1 764 0
 805 0068 FB68     		ldr	r3, [r7, #12]
 806 006a 4122     		movs	r2, #65
 807 006c 2221     		movs	r1, #34
 808 006e 9954     		strb	r1, [r3, r2]
 765:Drivers/STM32F0xx_HAL_Driver/Src/stm32f0xx_hal_i2c.c ****     hi2c->Mode = HAL_I2C_MODE_MASTER;
 809              		.loc 1 765 0
 810 0070 FB68     		ldr	r3, [r7, #12]
 811 0072 4222     		movs	r2, #66
 812 0074 1021     		movs	r1, #16
 813 0076 9954     		strb	r1, [r3, r2]
 766:Drivers/STM32F0xx_HAL_Driver/Src/stm32f0xx_hal_i2c.c ****     hi2c->ErrorCode   = HAL_I2C_ERROR_NONE;
 814              		.loc 1 766 0
 815 0078 FB68     		ldr	r3, [r7, #12]
 816 007a 0022     		movs	r2, #0
 817 007c 5A64     		str	r2, [r3, #68]
 767:Drivers/STM32F0xx_HAL_Driver/Src/stm32f0xx_hal_i2c.c ****     
 768:Drivers/STM32F0xx_HAL_Driver/Src/stm32f0xx_hal_i2c.c ****     /* Prepare transfer parameters */
 769:Drivers/STM32F0xx_HAL_Driver/Src/stm32f0xx_hal_i2c.c ****     hi2c->pBuffPtr  = pData;
 818              		.loc 1 769 0
 819 007e FB68     		ldr	r3, [r7, #12]
 820 0080 7A68     		ldr	r2, [r7, #4]
 821 0082 5A62     		str	r2, [r3, #36]
 770:Drivers/STM32F0xx_HAL_Driver/Src/stm32f0xx_hal_i2c.c ****     hi2c->XferCount = Size;
 822              		.loc 1 770 0
 823 0084 FB68     		ldr	r3, [r7, #12]
 824 0086 0822     		movs	r2, #8
 825 0088 BA18     		adds	r2, r7, r2
 826 008a 1288     		ldrh	r2, [r2]
 827 008c 5A85     		strh	r2, [r3, #42]
 771:Drivers/STM32F0xx_HAL_Driver/Src/stm32f0xx_hal_i2c.c ****     hi2c->XferISR   = NULL;
 828              		.loc 1 771 0
 829 008e FB68     		ldr	r3, [r7, #12]
 830 0090 0022     		movs	r2, #0
 831 0092 5A63     		str	r2, [r3, #52]
 772:Drivers/STM32F0xx_HAL_Driver/Src/stm32f0xx_hal_i2c.c ****       
 773:Drivers/STM32F0xx_HAL_Driver/Src/stm32f0xx_hal_i2c.c ****     /* Send Slave Address */
 774:Drivers/STM32F0xx_HAL_Driver/Src/stm32f0xx_hal_i2c.c ****     /* Set NBYTES to write and reload if hi2c->XferCount > MAX_NBYTE_SIZE and generate RESTART */
 775:Drivers/STM32F0xx_HAL_Driver/Src/stm32f0xx_hal_i2c.c ****     if(hi2c->XferCount > MAX_NBYTE_SIZE)
ARM GAS  /tmp/ccMxaoR5.s 			page 29


 832              		.loc 1 775 0
 833 0094 FB68     		ldr	r3, [r7, #12]
 834 0096 5B8D     		ldrh	r3, [r3, #42]
 835 0098 9BB2     		uxth	r3, r3
 836 009a FF2B     		cmp	r3, #255
 837 009c 12D9     		bls	.L37
 776:Drivers/STM32F0xx_HAL_Driver/Src/stm32f0xx_hal_i2c.c ****     {
 777:Drivers/STM32F0xx_HAL_Driver/Src/stm32f0xx_hal_i2c.c ****       hi2c->XferSize = MAX_NBYTE_SIZE;
 838              		.loc 1 777 0
 839 009e FB68     		ldr	r3, [r7, #12]
 840 00a0 FF22     		movs	r2, #255
 841 00a2 1A85     		strh	r2, [r3, #40]
 778:Drivers/STM32F0xx_HAL_Driver/Src/stm32f0xx_hal_i2c.c ****       I2C_TransferConfig(hi2c, DevAddress, hi2c->XferSize, I2C_RELOAD_MODE, I2C_GENERATE_START_READ
 842              		.loc 1 778 0
 843 00a4 FB68     		ldr	r3, [r7, #12]
 844 00a6 1B8D     		ldrh	r3, [r3, #40]
 845 00a8 DAB2     		uxtb	r2, r3
 846 00aa 8023     		movs	r3, #128
 847 00ac 5C04     		lsls	r4, r3, #17
 848 00ae 0A23     		movs	r3, #10
 849 00b0 FB18     		adds	r3, r7, r3
 850 00b2 1988     		ldrh	r1, [r3]
 851 00b4 F868     		ldr	r0, [r7, #12]
 852 00b6 9023     		movs	r3, #144
 853 00b8 9B01     		lsls	r3, r3, #6
 854 00ba 0093     		str	r3, [sp]
 855 00bc 2300     		movs	r3, r4
 856 00be FFF7FEFF 		bl	I2C_TransferConfig
 857 00c2 7BE0     		b	.L39
 858              	.L37:
 779:Drivers/STM32F0xx_HAL_Driver/Src/stm32f0xx_hal_i2c.c ****     }
 780:Drivers/STM32F0xx_HAL_Driver/Src/stm32f0xx_hal_i2c.c ****     else
 781:Drivers/STM32F0xx_HAL_Driver/Src/stm32f0xx_hal_i2c.c ****     {
 782:Drivers/STM32F0xx_HAL_Driver/Src/stm32f0xx_hal_i2c.c ****       hi2c->XferSize = hi2c->XferCount;
 859              		.loc 1 782 0
 860 00c4 FB68     		ldr	r3, [r7, #12]
 861 00c6 5B8D     		ldrh	r3, [r3, #42]
 862 00c8 9AB2     		uxth	r2, r3
 863 00ca FB68     		ldr	r3, [r7, #12]
 864 00cc 1A85     		strh	r2, [r3, #40]
 783:Drivers/STM32F0xx_HAL_Driver/Src/stm32f0xx_hal_i2c.c ****       I2C_TransferConfig(hi2c, DevAddress, hi2c->XferSize, I2C_AUTOEND_MODE, I2C_GENERATE_START_REA
 865              		.loc 1 783 0
 866 00ce FB68     		ldr	r3, [r7, #12]
 867 00d0 1B8D     		ldrh	r3, [r3, #40]
 868 00d2 DAB2     		uxtb	r2, r3
 869 00d4 8023     		movs	r3, #128
 870 00d6 9C04     		lsls	r4, r3, #18
 871 00d8 0A23     		movs	r3, #10
 872 00da FB18     		adds	r3, r7, r3
 873 00dc 1988     		ldrh	r1, [r3]
 874 00de F868     		ldr	r0, [r7, #12]
 875 00e0 9023     		movs	r3, #144
 876 00e2 9B01     		lsls	r3, r3, #6
 877 00e4 0093     		str	r3, [sp]
 878 00e6 2300     		movs	r3, r4
 879 00e8 FFF7FEFF 		bl	I2C_TransferConfig
 784:Drivers/STM32F0xx_HAL_Driver/Src/stm32f0xx_hal_i2c.c ****     }
ARM GAS  /tmp/ccMxaoR5.s 			page 30


 785:Drivers/STM32F0xx_HAL_Driver/Src/stm32f0xx_hal_i2c.c **** 
 786:Drivers/STM32F0xx_HAL_Driver/Src/stm32f0xx_hal_i2c.c ****     while(hi2c->XferCount > 0U)
 880              		.loc 1 786 0
 881 00ec 66E0     		b	.L39
 882              	.L44:
 787:Drivers/STM32F0xx_HAL_Driver/Src/stm32f0xx_hal_i2c.c ****     {
 788:Drivers/STM32F0xx_HAL_Driver/Src/stm32f0xx_hal_i2c.c ****       /* Wait until RXNE flag is set */
 789:Drivers/STM32F0xx_HAL_Driver/Src/stm32f0xx_hal_i2c.c ****       if(I2C_WaitOnRXNEFlagUntilTimeout(hi2c, Timeout, tickstart) != HAL_OK)
 883              		.loc 1 789 0
 884 00ee 7A69     		ldr	r2, [r7, #20]
 885 00f0 B96A     		ldr	r1, [r7, #40]
 886 00f2 FB68     		ldr	r3, [r7, #12]
 887 00f4 1800     		movs	r0, r3
 888 00f6 FFF7FEFF 		bl	I2C_WaitOnRXNEFlagUntilTimeout
 889 00fa 031E     		subs	r3, r0, #0
 890 00fc 07D0     		beq	.L40
 790:Drivers/STM32F0xx_HAL_Driver/Src/stm32f0xx_hal_i2c.c ****       {
 791:Drivers/STM32F0xx_HAL_Driver/Src/stm32f0xx_hal_i2c.c ****         if(hi2c->ErrorCode == HAL_I2C_ERROR_AF)
 891              		.loc 1 791 0
 892 00fe FB68     		ldr	r3, [r7, #12]
 893 0100 5B6C     		ldr	r3, [r3, #68]
 894 0102 042B     		cmp	r3, #4
 895 0104 01D1     		bne	.L41
 792:Drivers/STM32F0xx_HAL_Driver/Src/stm32f0xx_hal_i2c.c ****         {
 793:Drivers/STM32F0xx_HAL_Driver/Src/stm32f0xx_hal_i2c.c ****           return HAL_ERROR;
 896              		.loc 1 793 0
 897 0106 0123     		movs	r3, #1
 898 0108 88E0     		b	.L35
 899              	.L41:
 794:Drivers/STM32F0xx_HAL_Driver/Src/stm32f0xx_hal_i2c.c ****         }
 795:Drivers/STM32F0xx_HAL_Driver/Src/stm32f0xx_hal_i2c.c ****         else
 796:Drivers/STM32F0xx_HAL_Driver/Src/stm32f0xx_hal_i2c.c ****         {
 797:Drivers/STM32F0xx_HAL_Driver/Src/stm32f0xx_hal_i2c.c ****           return HAL_TIMEOUT;
 900              		.loc 1 797 0
 901 010a 0323     		movs	r3, #3
 902 010c 86E0     		b	.L35
 903              	.L40:
 798:Drivers/STM32F0xx_HAL_Driver/Src/stm32f0xx_hal_i2c.c ****         }
 799:Drivers/STM32F0xx_HAL_Driver/Src/stm32f0xx_hal_i2c.c ****       }
 800:Drivers/STM32F0xx_HAL_Driver/Src/stm32f0xx_hal_i2c.c **** 
 801:Drivers/STM32F0xx_HAL_Driver/Src/stm32f0xx_hal_i2c.c ****       /* Read data from RXDR */
 802:Drivers/STM32F0xx_HAL_Driver/Src/stm32f0xx_hal_i2c.c ****       (*hi2c->pBuffPtr++) = hi2c->Instance->RXDR;
 904              		.loc 1 802 0
 905 010e FB68     		ldr	r3, [r7, #12]
 906 0110 5B6A     		ldr	r3, [r3, #36]
 907 0112 591C     		adds	r1, r3, #1
 908 0114 FA68     		ldr	r2, [r7, #12]
 909 0116 5162     		str	r1, [r2, #36]
 910 0118 FA68     		ldr	r2, [r7, #12]
 911 011a 1268     		ldr	r2, [r2]
 912 011c 526A     		ldr	r2, [r2, #36]
 913 011e D2B2     		uxtb	r2, r2
 914 0120 1A70     		strb	r2, [r3]
 803:Drivers/STM32F0xx_HAL_Driver/Src/stm32f0xx_hal_i2c.c ****       hi2c->XferSize--;
 915              		.loc 1 803 0
 916 0122 FB68     		ldr	r3, [r7, #12]
 917 0124 1B8D     		ldrh	r3, [r3, #40]
ARM GAS  /tmp/ccMxaoR5.s 			page 31


 918 0126 013B     		subs	r3, r3, #1
 919 0128 9AB2     		uxth	r2, r3
 920 012a FB68     		ldr	r3, [r7, #12]
 921 012c 1A85     		strh	r2, [r3, #40]
 804:Drivers/STM32F0xx_HAL_Driver/Src/stm32f0xx_hal_i2c.c ****       hi2c->XferCount--;
 922              		.loc 1 804 0
 923 012e FB68     		ldr	r3, [r7, #12]
 924 0130 5B8D     		ldrh	r3, [r3, #42]
 925 0132 9BB2     		uxth	r3, r3
 926 0134 013B     		subs	r3, r3, #1
 927 0136 9AB2     		uxth	r2, r3
 928 0138 FB68     		ldr	r3, [r7, #12]
 929 013a 5A85     		strh	r2, [r3, #42]
 805:Drivers/STM32F0xx_HAL_Driver/Src/stm32f0xx_hal_i2c.c **** 
 806:Drivers/STM32F0xx_HAL_Driver/Src/stm32f0xx_hal_i2c.c ****       if((hi2c->XferSize == 0U) && (hi2c->XferCount != 0U))
 930              		.loc 1 806 0
 931 013c FB68     		ldr	r3, [r7, #12]
 932 013e 1B8D     		ldrh	r3, [r3, #40]
 933 0140 002B     		cmp	r3, #0
 934 0142 3BD1     		bne	.L39
 935              		.loc 1 806 0 is_stmt 0 discriminator 1
 936 0144 FB68     		ldr	r3, [r7, #12]
 937 0146 5B8D     		ldrh	r3, [r3, #42]
 938 0148 9BB2     		uxth	r3, r3
 939 014a 002B     		cmp	r3, #0
 940 014c 36D0     		beq	.L39
 807:Drivers/STM32F0xx_HAL_Driver/Src/stm32f0xx_hal_i2c.c ****       {
 808:Drivers/STM32F0xx_HAL_Driver/Src/stm32f0xx_hal_i2c.c ****         /* Wait until TCR flag is set */
 809:Drivers/STM32F0xx_HAL_Driver/Src/stm32f0xx_hal_i2c.c ****         if(I2C_WaitOnFlagUntilTimeout(hi2c, I2C_FLAG_TCR, RESET, Timeout, tickstart) != HAL_OK)
 941              		.loc 1 809 0 is_stmt 1
 942 014e BA6A     		ldr	r2, [r7, #40]
 943 0150 F868     		ldr	r0, [r7, #12]
 944 0152 7B69     		ldr	r3, [r7, #20]
 945 0154 0093     		str	r3, [sp]
 946 0156 1300     		movs	r3, r2
 947 0158 0022     		movs	r2, #0
 948 015a 8021     		movs	r1, #128
 949 015c FFF7FEFF 		bl	I2C_WaitOnFlagUntilTimeout
 950 0160 031E     		subs	r3, r0, #0
 951 0162 01D0     		beq	.L42
 810:Drivers/STM32F0xx_HAL_Driver/Src/stm32f0xx_hal_i2c.c ****         {
 811:Drivers/STM32F0xx_HAL_Driver/Src/stm32f0xx_hal_i2c.c ****           return HAL_TIMEOUT;
 952              		.loc 1 811 0
 953 0164 0323     		movs	r3, #3
 954 0166 59E0     		b	.L35
 955              	.L42:
 812:Drivers/STM32F0xx_HAL_Driver/Src/stm32f0xx_hal_i2c.c ****         }
 813:Drivers/STM32F0xx_HAL_Driver/Src/stm32f0xx_hal_i2c.c ****         
 814:Drivers/STM32F0xx_HAL_Driver/Src/stm32f0xx_hal_i2c.c ****         if(hi2c->XferCount > MAX_NBYTE_SIZE)
 956              		.loc 1 814 0
 957 0168 FB68     		ldr	r3, [r7, #12]
 958 016a 5B8D     		ldrh	r3, [r3, #42]
 959 016c 9BB2     		uxth	r3, r3
 960 016e FF2B     		cmp	r3, #255
 961 0170 11D9     		bls	.L43
 815:Drivers/STM32F0xx_HAL_Driver/Src/stm32f0xx_hal_i2c.c ****         {
 816:Drivers/STM32F0xx_HAL_Driver/Src/stm32f0xx_hal_i2c.c ****           hi2c->XferSize = MAX_NBYTE_SIZE;
ARM GAS  /tmp/ccMxaoR5.s 			page 32


 962              		.loc 1 816 0
 963 0172 FB68     		ldr	r3, [r7, #12]
 964 0174 FF22     		movs	r2, #255
 965 0176 1A85     		strh	r2, [r3, #40]
 817:Drivers/STM32F0xx_HAL_Driver/Src/stm32f0xx_hal_i2c.c ****           I2C_TransferConfig(hi2c, DevAddress, hi2c->XferSize, I2C_RELOAD_MODE, I2C_NO_STARTSTOP);
 966              		.loc 1 817 0
 967 0178 FB68     		ldr	r3, [r7, #12]
 968 017a 1B8D     		ldrh	r3, [r3, #40]
 969 017c DAB2     		uxtb	r2, r3
 970 017e 8023     		movs	r3, #128
 971 0180 5C04     		lsls	r4, r3, #17
 972 0182 0A23     		movs	r3, #10
 973 0184 FB18     		adds	r3, r7, r3
 974 0186 1988     		ldrh	r1, [r3]
 975 0188 F868     		ldr	r0, [r7, #12]
 976 018a 0023     		movs	r3, #0
 977 018c 0093     		str	r3, [sp]
 978 018e 2300     		movs	r3, r4
 979 0190 FFF7FEFF 		bl	I2C_TransferConfig
 980 0194 12E0     		b	.L39
 981              	.L43:
 818:Drivers/STM32F0xx_HAL_Driver/Src/stm32f0xx_hal_i2c.c ****         }
 819:Drivers/STM32F0xx_HAL_Driver/Src/stm32f0xx_hal_i2c.c ****         else
 820:Drivers/STM32F0xx_HAL_Driver/Src/stm32f0xx_hal_i2c.c ****         {
 821:Drivers/STM32F0xx_HAL_Driver/Src/stm32f0xx_hal_i2c.c ****           hi2c->XferSize = hi2c->XferCount;
 982              		.loc 1 821 0
 983 0196 FB68     		ldr	r3, [r7, #12]
 984 0198 5B8D     		ldrh	r3, [r3, #42]
 985 019a 9AB2     		uxth	r2, r3
 986 019c FB68     		ldr	r3, [r7, #12]
 987 019e 1A85     		strh	r2, [r3, #40]
 822:Drivers/STM32F0xx_HAL_Driver/Src/stm32f0xx_hal_i2c.c ****           I2C_TransferConfig(hi2c, DevAddress, hi2c->XferSize, I2C_AUTOEND_MODE, I2C_NO_STARTSTOP);
 988              		.loc 1 822 0
 989 01a0 FB68     		ldr	r3, [r7, #12]
 990 01a2 1B8D     		ldrh	r3, [r3, #40]
 991 01a4 DAB2     		uxtb	r2, r3
 992 01a6 8023     		movs	r3, #128
 993 01a8 9C04     		lsls	r4, r3, #18
 994 01aa 0A23     		movs	r3, #10
 995 01ac FB18     		adds	r3, r7, r3
 996 01ae 1988     		ldrh	r1, [r3]
 997 01b0 F868     		ldr	r0, [r7, #12]
 998 01b2 0023     		movs	r3, #0
 999 01b4 0093     		str	r3, [sp]
 1000 01b6 2300     		movs	r3, r4
 1001 01b8 FFF7FEFF 		bl	I2C_TransferConfig
 1002              	.L39:
 786:Drivers/STM32F0xx_HAL_Driver/Src/stm32f0xx_hal_i2c.c ****     {
 1003              		.loc 1 786 0
 1004 01bc FB68     		ldr	r3, [r7, #12]
 1005 01be 5B8D     		ldrh	r3, [r3, #42]
 1006 01c0 9BB2     		uxth	r3, r3
 1007 01c2 002B     		cmp	r3, #0
 1008 01c4 93D1     		bne	.L44
 823:Drivers/STM32F0xx_HAL_Driver/Src/stm32f0xx_hal_i2c.c ****         }
 824:Drivers/STM32F0xx_HAL_Driver/Src/stm32f0xx_hal_i2c.c ****       }
 825:Drivers/STM32F0xx_HAL_Driver/Src/stm32f0xx_hal_i2c.c ****     }
ARM GAS  /tmp/ccMxaoR5.s 			page 33


 826:Drivers/STM32F0xx_HAL_Driver/Src/stm32f0xx_hal_i2c.c **** 
 827:Drivers/STM32F0xx_HAL_Driver/Src/stm32f0xx_hal_i2c.c ****     /* No need to Check TC flag, with AUTOEND mode the stop is automatically generated */
 828:Drivers/STM32F0xx_HAL_Driver/Src/stm32f0xx_hal_i2c.c ****     /* Wait until STOPF flag is set */
 829:Drivers/STM32F0xx_HAL_Driver/Src/stm32f0xx_hal_i2c.c ****     if(I2C_WaitOnSTOPFlagUntilTimeout(hi2c, Timeout, tickstart) != HAL_OK)
 1009              		.loc 1 829 0
 1010 01c6 7A69     		ldr	r2, [r7, #20]
 1011 01c8 B96A     		ldr	r1, [r7, #40]
 1012 01ca FB68     		ldr	r3, [r7, #12]
 1013 01cc 1800     		movs	r0, r3
 1014 01ce FFF7FEFF 		bl	I2C_WaitOnSTOPFlagUntilTimeout
 1015 01d2 031E     		subs	r3, r0, #0
 1016 01d4 07D0     		beq	.L45
 830:Drivers/STM32F0xx_HAL_Driver/Src/stm32f0xx_hal_i2c.c ****     {
 831:Drivers/STM32F0xx_HAL_Driver/Src/stm32f0xx_hal_i2c.c ****       if(hi2c->ErrorCode == HAL_I2C_ERROR_AF)
 1017              		.loc 1 831 0
 1018 01d6 FB68     		ldr	r3, [r7, #12]
 1019 01d8 5B6C     		ldr	r3, [r3, #68]
 1020 01da 042B     		cmp	r3, #4
 1021 01dc 01D1     		bne	.L46
 832:Drivers/STM32F0xx_HAL_Driver/Src/stm32f0xx_hal_i2c.c ****       {
 833:Drivers/STM32F0xx_HAL_Driver/Src/stm32f0xx_hal_i2c.c ****         return HAL_ERROR;
 1022              		.loc 1 833 0
 1023 01de 0123     		movs	r3, #1
 1024 01e0 1CE0     		b	.L35
 1025              	.L46:
 834:Drivers/STM32F0xx_HAL_Driver/Src/stm32f0xx_hal_i2c.c ****       }
 835:Drivers/STM32F0xx_HAL_Driver/Src/stm32f0xx_hal_i2c.c ****       else
 836:Drivers/STM32F0xx_HAL_Driver/Src/stm32f0xx_hal_i2c.c ****       {
 837:Drivers/STM32F0xx_HAL_Driver/Src/stm32f0xx_hal_i2c.c ****         return HAL_TIMEOUT;
 1026              		.loc 1 837 0
 1027 01e2 0323     		movs	r3, #3
 1028 01e4 1AE0     		b	.L35
 1029              	.L45:
 838:Drivers/STM32F0xx_HAL_Driver/Src/stm32f0xx_hal_i2c.c ****       }
 839:Drivers/STM32F0xx_HAL_Driver/Src/stm32f0xx_hal_i2c.c ****     }
 840:Drivers/STM32F0xx_HAL_Driver/Src/stm32f0xx_hal_i2c.c **** 
 841:Drivers/STM32F0xx_HAL_Driver/Src/stm32f0xx_hal_i2c.c ****     /* Clear STOP Flag */
 842:Drivers/STM32F0xx_HAL_Driver/Src/stm32f0xx_hal_i2c.c ****     __HAL_I2C_CLEAR_FLAG(hi2c, I2C_FLAG_STOPF);
 1030              		.loc 1 842 0
 1031 01e6 FB68     		ldr	r3, [r7, #12]
 1032 01e8 1B68     		ldr	r3, [r3]
 1033 01ea 2022     		movs	r2, #32
 1034 01ec DA61     		str	r2, [r3, #28]
 843:Drivers/STM32F0xx_HAL_Driver/Src/stm32f0xx_hal_i2c.c **** 
 844:Drivers/STM32F0xx_HAL_Driver/Src/stm32f0xx_hal_i2c.c ****     /* Clear Configuration Register 2 */
 845:Drivers/STM32F0xx_HAL_Driver/Src/stm32f0xx_hal_i2c.c ****     I2C_RESET_CR2(hi2c);
 1035              		.loc 1 845 0
 1036 01ee FB68     		ldr	r3, [r7, #12]
 1037 01f0 1B68     		ldr	r3, [r3]
 1038 01f2 FA68     		ldr	r2, [r7, #12]
 1039 01f4 1268     		ldr	r2, [r2]
 1040 01f6 5268     		ldr	r2, [r2, #4]
 1041 01f8 0A49     		ldr	r1, .L47
 1042 01fa 0A40     		ands	r2, r1
 1043 01fc 5A60     		str	r2, [r3, #4]
 846:Drivers/STM32F0xx_HAL_Driver/Src/stm32f0xx_hal_i2c.c **** 
 847:Drivers/STM32F0xx_HAL_Driver/Src/stm32f0xx_hal_i2c.c ****     hi2c->State = HAL_I2C_STATE_READY;
ARM GAS  /tmp/ccMxaoR5.s 			page 34


 1044              		.loc 1 847 0
 1045 01fe FB68     		ldr	r3, [r7, #12]
 1046 0200 4122     		movs	r2, #65
 1047 0202 2021     		movs	r1, #32
 1048 0204 9954     		strb	r1, [r3, r2]
 848:Drivers/STM32F0xx_HAL_Driver/Src/stm32f0xx_hal_i2c.c ****     hi2c->Mode = HAL_I2C_MODE_NONE;
 1049              		.loc 1 848 0
 1050 0206 FB68     		ldr	r3, [r7, #12]
 1051 0208 4222     		movs	r2, #66
 1052 020a 0021     		movs	r1, #0
 1053 020c 9954     		strb	r1, [r3, r2]
 849:Drivers/STM32F0xx_HAL_Driver/Src/stm32f0xx_hal_i2c.c **** 
 850:Drivers/STM32F0xx_HAL_Driver/Src/stm32f0xx_hal_i2c.c ****     /* Process Unlocked */
 851:Drivers/STM32F0xx_HAL_Driver/Src/stm32f0xx_hal_i2c.c ****     __HAL_UNLOCK(hi2c);
 1054              		.loc 1 851 0
 1055 020e FB68     		ldr	r3, [r7, #12]
 1056 0210 4022     		movs	r2, #64
 1057 0212 0021     		movs	r1, #0
 1058 0214 9954     		strb	r1, [r3, r2]
 852:Drivers/STM32F0xx_HAL_Driver/Src/stm32f0xx_hal_i2c.c ****     
 853:Drivers/STM32F0xx_HAL_Driver/Src/stm32f0xx_hal_i2c.c ****     return HAL_OK;
 1059              		.loc 1 853 0
 1060 0216 0023     		movs	r3, #0
 1061 0218 00E0     		b	.L35
 1062              	.L33:
 854:Drivers/STM32F0xx_HAL_Driver/Src/stm32f0xx_hal_i2c.c ****   }
 855:Drivers/STM32F0xx_HAL_Driver/Src/stm32f0xx_hal_i2c.c ****   else
 856:Drivers/STM32F0xx_HAL_Driver/Src/stm32f0xx_hal_i2c.c ****   {
 857:Drivers/STM32F0xx_HAL_Driver/Src/stm32f0xx_hal_i2c.c ****     return HAL_BUSY;
 1063              		.loc 1 857 0
 1064 021a 0223     		movs	r3, #2
 1065              	.L35:
 858:Drivers/STM32F0xx_HAL_Driver/Src/stm32f0xx_hal_i2c.c ****   }
 859:Drivers/STM32F0xx_HAL_Driver/Src/stm32f0xx_hal_i2c.c **** }
 1066              		.loc 1 859 0
 1067 021c 1800     		movs	r0, r3
 1068 021e BD46     		mov	sp, r7
 1069 0220 07B0     		add	sp, sp, #28
 1070              		@ sp needed
 1071 0222 90BD     		pop	{r4, r7, pc}
 1072              	.L48:
 1073              		.align	2
 1074              	.L47:
 1075 0224 00E800FE 		.word	-33495040
 1076              		.cfi_endproc
 1077              	.LFE40:
 1079              		.section	.text.HAL_I2C_Slave_Transmit,"ax",%progbits
 1080              		.align	1
 1081              		.global	HAL_I2C_Slave_Transmit
 1082              		.syntax unified
 1083              		.code	16
 1084              		.thumb_func
 1085              		.fpu softvfp
 1087              	HAL_I2C_Slave_Transmit:
 1088              	.LFB41:
 860:Drivers/STM32F0xx_HAL_Driver/Src/stm32f0xx_hal_i2c.c **** 
 861:Drivers/STM32F0xx_HAL_Driver/Src/stm32f0xx_hal_i2c.c **** /**
ARM GAS  /tmp/ccMxaoR5.s 			page 35


 862:Drivers/STM32F0xx_HAL_Driver/Src/stm32f0xx_hal_i2c.c ****   * @brief  Transmits in slave mode an amount of data in blocking mode. 
 863:Drivers/STM32F0xx_HAL_Driver/Src/stm32f0xx_hal_i2c.c ****   * @param  hi2c Pointer to a I2C_HandleTypeDef structure that contains
 864:Drivers/STM32F0xx_HAL_Driver/Src/stm32f0xx_hal_i2c.c ****   *                the configuration information for the specified I2C.
 865:Drivers/STM32F0xx_HAL_Driver/Src/stm32f0xx_hal_i2c.c ****   * @param  pData Pointer to data buffer
 866:Drivers/STM32F0xx_HAL_Driver/Src/stm32f0xx_hal_i2c.c ****   * @param  Size Amount of data to be sent
 867:Drivers/STM32F0xx_HAL_Driver/Src/stm32f0xx_hal_i2c.c ****   * @param  Timeout Timeout duration
 868:Drivers/STM32F0xx_HAL_Driver/Src/stm32f0xx_hal_i2c.c ****   * @retval HAL status
 869:Drivers/STM32F0xx_HAL_Driver/Src/stm32f0xx_hal_i2c.c ****   */
 870:Drivers/STM32F0xx_HAL_Driver/Src/stm32f0xx_hal_i2c.c **** HAL_StatusTypeDef HAL_I2C_Slave_Transmit(I2C_HandleTypeDef *hi2c, uint8_t *pData, uint16_t Size, ui
 871:Drivers/STM32F0xx_HAL_Driver/Src/stm32f0xx_hal_i2c.c **** {
 1089              		.loc 1 871 0
 1090              		.cfi_startproc
 1091 0000 80B5     		push	{r7, lr}
 1092              	.LCFI18:
 1093              		.cfi_def_cfa_offset 8
 1094              		.cfi_offset 7, -8
 1095              		.cfi_offset 14, -4
 1096 0002 88B0     		sub	sp, sp, #32
 1097              	.LCFI19:
 1098              		.cfi_def_cfa_offset 40
 1099 0004 02AF     		add	r7, sp, #8
 1100              	.LCFI20:
 1101              		.cfi_def_cfa 7, 32
 1102 0006 F860     		str	r0, [r7, #12]
 1103 0008 B960     		str	r1, [r7, #8]
 1104 000a 3B60     		str	r3, [r7]
 1105 000c BB1D     		adds	r3, r7, #6
 1106 000e 1A80     		strh	r2, [r3]
 872:Drivers/STM32F0xx_HAL_Driver/Src/stm32f0xx_hal_i2c.c ****   uint32_t tickstart = 0U;
 1107              		.loc 1 872 0
 1108 0010 0023     		movs	r3, #0
 1109 0012 7B61     		str	r3, [r7, #20]
 873:Drivers/STM32F0xx_HAL_Driver/Src/stm32f0xx_hal_i2c.c **** 
 874:Drivers/STM32F0xx_HAL_Driver/Src/stm32f0xx_hal_i2c.c ****   if(hi2c->State == HAL_I2C_STATE_READY)
 1110              		.loc 1 874 0
 1111 0014 FB68     		ldr	r3, [r7, #12]
 1112 0016 4122     		movs	r2, #65
 1113 0018 9B5C     		ldrb	r3, [r3, r2]
 1114 001a DBB2     		uxtb	r3, r3
 1115 001c 202B     		cmp	r3, #32
 1116 001e 00D0     		beq	.LCB994
 1117 0020 FEE0     		b	.L50	@long jump
 1118              	.LCB994:
 875:Drivers/STM32F0xx_HAL_Driver/Src/stm32f0xx_hal_i2c.c ****   {    
 876:Drivers/STM32F0xx_HAL_Driver/Src/stm32f0xx_hal_i2c.c ****     if((pData == NULL) || (Size == 0U))
 1119              		.loc 1 876 0
 1120 0022 BB68     		ldr	r3, [r7, #8]
 1121 0024 002B     		cmp	r3, #0
 1122 0026 03D0     		beq	.L51
 1123              		.loc 1 876 0 is_stmt 0 discriminator 1
 1124 0028 BB1D     		adds	r3, r7, #6
 1125 002a 1B88     		ldrh	r3, [r3]
 1126 002c 002B     		cmp	r3, #0
 1127 002e 01D1     		bne	.L52
 1128              	.L51:
 877:Drivers/STM32F0xx_HAL_Driver/Src/stm32f0xx_hal_i2c.c ****     {
 878:Drivers/STM32F0xx_HAL_Driver/Src/stm32f0xx_hal_i2c.c ****       return  HAL_ERROR;
ARM GAS  /tmp/ccMxaoR5.s 			page 36


 1129              		.loc 1 878 0 is_stmt 1
 1130 0030 0123     		movs	r3, #1
 1131 0032 F6E0     		b	.L53
 1132              	.L52:
 879:Drivers/STM32F0xx_HAL_Driver/Src/stm32f0xx_hal_i2c.c ****     }
 880:Drivers/STM32F0xx_HAL_Driver/Src/stm32f0xx_hal_i2c.c ****     /* Process Locked */
 881:Drivers/STM32F0xx_HAL_Driver/Src/stm32f0xx_hal_i2c.c ****     __HAL_LOCK(hi2c);
 1133              		.loc 1 881 0
 1134 0034 FB68     		ldr	r3, [r7, #12]
 1135 0036 4022     		movs	r2, #64
 1136 0038 9B5C     		ldrb	r3, [r3, r2]
 1137 003a 012B     		cmp	r3, #1
 1138 003c 01D1     		bne	.L54
 1139              		.loc 1 881 0 is_stmt 0 discriminator 1
 1140 003e 0223     		movs	r3, #2
 1141 0040 EFE0     		b	.L53
 1142              	.L54:
 1143              		.loc 1 881 0 discriminator 2
 1144 0042 FB68     		ldr	r3, [r7, #12]
 1145 0044 4022     		movs	r2, #64
 1146 0046 0121     		movs	r1, #1
 1147 0048 9954     		strb	r1, [r3, r2]
 882:Drivers/STM32F0xx_HAL_Driver/Src/stm32f0xx_hal_i2c.c **** 
 883:Drivers/STM32F0xx_HAL_Driver/Src/stm32f0xx_hal_i2c.c ****     /* Init tickstart for timeout management*/
 884:Drivers/STM32F0xx_HAL_Driver/Src/stm32f0xx_hal_i2c.c ****     tickstart = HAL_GetTick();
 1148              		.loc 1 884 0 is_stmt 1 discriminator 2
 1149 004a FFF7FEFF 		bl	HAL_GetTick
 1150 004e 0300     		movs	r3, r0
 1151 0050 7B61     		str	r3, [r7, #20]
 885:Drivers/STM32F0xx_HAL_Driver/Src/stm32f0xx_hal_i2c.c **** 
 886:Drivers/STM32F0xx_HAL_Driver/Src/stm32f0xx_hal_i2c.c ****     hi2c->State = HAL_I2C_STATE_BUSY_TX;
 1152              		.loc 1 886 0 discriminator 2
 1153 0052 FB68     		ldr	r3, [r7, #12]
 1154 0054 4122     		movs	r2, #65
 1155 0056 2121     		movs	r1, #33
 1156 0058 9954     		strb	r1, [r3, r2]
 887:Drivers/STM32F0xx_HAL_Driver/Src/stm32f0xx_hal_i2c.c ****     hi2c->Mode = HAL_I2C_MODE_SLAVE;
 1157              		.loc 1 887 0 discriminator 2
 1158 005a FB68     		ldr	r3, [r7, #12]
 1159 005c 4222     		movs	r2, #66
 1160 005e 2021     		movs	r1, #32
 1161 0060 9954     		strb	r1, [r3, r2]
 888:Drivers/STM32F0xx_HAL_Driver/Src/stm32f0xx_hal_i2c.c ****     hi2c->ErrorCode   = HAL_I2C_ERROR_NONE;
 1162              		.loc 1 888 0 discriminator 2
 1163 0062 FB68     		ldr	r3, [r7, #12]
 1164 0064 0022     		movs	r2, #0
 1165 0066 5A64     		str	r2, [r3, #68]
 889:Drivers/STM32F0xx_HAL_Driver/Src/stm32f0xx_hal_i2c.c ****     
 890:Drivers/STM32F0xx_HAL_Driver/Src/stm32f0xx_hal_i2c.c ****     /* Prepare transfer parameters */
 891:Drivers/STM32F0xx_HAL_Driver/Src/stm32f0xx_hal_i2c.c ****     hi2c->pBuffPtr  = pData;
 1166              		.loc 1 891 0 discriminator 2
 1167 0068 FB68     		ldr	r3, [r7, #12]
 1168 006a BA68     		ldr	r2, [r7, #8]
 1169 006c 5A62     		str	r2, [r3, #36]
 892:Drivers/STM32F0xx_HAL_Driver/Src/stm32f0xx_hal_i2c.c ****     hi2c->XferCount = Size;
 1170              		.loc 1 892 0 discriminator 2
 1171 006e FB68     		ldr	r3, [r7, #12]
ARM GAS  /tmp/ccMxaoR5.s 			page 37


 1172 0070 BA1D     		adds	r2, r7, #6
 1173 0072 1288     		ldrh	r2, [r2]
 1174 0074 5A85     		strh	r2, [r3, #42]
 893:Drivers/STM32F0xx_HAL_Driver/Src/stm32f0xx_hal_i2c.c ****     hi2c->XferISR   = NULL;
 1175              		.loc 1 893 0 discriminator 2
 1176 0076 FB68     		ldr	r3, [r7, #12]
 1177 0078 0022     		movs	r2, #0
 1178 007a 5A63     		str	r2, [r3, #52]
 894:Drivers/STM32F0xx_HAL_Driver/Src/stm32f0xx_hal_i2c.c **** 
 895:Drivers/STM32F0xx_HAL_Driver/Src/stm32f0xx_hal_i2c.c ****     /* Enable Address Acknowledge */
 896:Drivers/STM32F0xx_HAL_Driver/Src/stm32f0xx_hal_i2c.c ****     hi2c->Instance->CR2 &= ~I2C_CR2_NACK;
 1179              		.loc 1 896 0 discriminator 2
 1180 007c FB68     		ldr	r3, [r7, #12]
 1181 007e 1B68     		ldr	r3, [r3]
 1182 0080 FA68     		ldr	r2, [r7, #12]
 1183 0082 1268     		ldr	r2, [r2]
 1184 0084 5268     		ldr	r2, [r2, #4]
 1185 0086 6949     		ldr	r1, .L66
 1186 0088 0A40     		ands	r2, r1
 1187 008a 5A60     		str	r2, [r3, #4]
 897:Drivers/STM32F0xx_HAL_Driver/Src/stm32f0xx_hal_i2c.c **** 
 898:Drivers/STM32F0xx_HAL_Driver/Src/stm32f0xx_hal_i2c.c ****     /* Wait until ADDR flag is set */
 899:Drivers/STM32F0xx_HAL_Driver/Src/stm32f0xx_hal_i2c.c ****     if(I2C_WaitOnFlagUntilTimeout(hi2c, I2C_FLAG_ADDR, RESET, Timeout, tickstart) != HAL_OK)
 1188              		.loc 1 899 0 discriminator 2
 1189 008c 3A68     		ldr	r2, [r7]
 1190 008e F868     		ldr	r0, [r7, #12]
 1191 0090 7B69     		ldr	r3, [r7, #20]
 1192 0092 0093     		str	r3, [sp]
 1193 0094 1300     		movs	r3, r2
 1194 0096 0022     		movs	r2, #0
 1195 0098 0821     		movs	r1, #8
 1196 009a FFF7FEFF 		bl	I2C_WaitOnFlagUntilTimeout
 1197 009e 031E     		subs	r3, r0, #0
 1198 00a0 0AD0     		beq	.L55
 900:Drivers/STM32F0xx_HAL_Driver/Src/stm32f0xx_hal_i2c.c ****     {
 901:Drivers/STM32F0xx_HAL_Driver/Src/stm32f0xx_hal_i2c.c ****       /* Disable Address Acknowledge */
 902:Drivers/STM32F0xx_HAL_Driver/Src/stm32f0xx_hal_i2c.c ****       hi2c->Instance->CR2 |= I2C_CR2_NACK;
 1199              		.loc 1 902 0
 1200 00a2 FB68     		ldr	r3, [r7, #12]
 1201 00a4 1B68     		ldr	r3, [r3]
 1202 00a6 FA68     		ldr	r2, [r7, #12]
 1203 00a8 1268     		ldr	r2, [r2]
 1204 00aa 5268     		ldr	r2, [r2, #4]
 1205 00ac 8021     		movs	r1, #128
 1206 00ae 0902     		lsls	r1, r1, #8
 1207 00b0 0A43     		orrs	r2, r1
 1208 00b2 5A60     		str	r2, [r3, #4]
 903:Drivers/STM32F0xx_HAL_Driver/Src/stm32f0xx_hal_i2c.c ****       return HAL_TIMEOUT;
 1209              		.loc 1 903 0
 1210 00b4 0323     		movs	r3, #3
 1211 00b6 B4E0     		b	.L53
 1212              	.L55:
 904:Drivers/STM32F0xx_HAL_Driver/Src/stm32f0xx_hal_i2c.c ****     }
 905:Drivers/STM32F0xx_HAL_Driver/Src/stm32f0xx_hal_i2c.c **** 
 906:Drivers/STM32F0xx_HAL_Driver/Src/stm32f0xx_hal_i2c.c ****     /* Clear ADDR flag */
 907:Drivers/STM32F0xx_HAL_Driver/Src/stm32f0xx_hal_i2c.c ****     __HAL_I2C_CLEAR_FLAG(hi2c,I2C_FLAG_ADDR);
 1213              		.loc 1 907 0
ARM GAS  /tmp/ccMxaoR5.s 			page 38


 1214 00b8 FB68     		ldr	r3, [r7, #12]
 1215 00ba 1B68     		ldr	r3, [r3]
 1216 00bc 0822     		movs	r2, #8
 1217 00be DA61     		str	r2, [r3, #28]
 908:Drivers/STM32F0xx_HAL_Driver/Src/stm32f0xx_hal_i2c.c **** 
 909:Drivers/STM32F0xx_HAL_Driver/Src/stm32f0xx_hal_i2c.c ****     /* If 10bit addressing mode is selected */
 910:Drivers/STM32F0xx_HAL_Driver/Src/stm32f0xx_hal_i2c.c ****     if(hi2c->Init.AddressingMode == I2C_ADDRESSINGMODE_10BIT)
 1218              		.loc 1 910 0
 1219 00c0 FB68     		ldr	r3, [r7, #12]
 1220 00c2 DB68     		ldr	r3, [r3, #12]
 1221 00c4 022B     		cmp	r3, #2
 1222 00c6 19D1     		bne	.L56
 911:Drivers/STM32F0xx_HAL_Driver/Src/stm32f0xx_hal_i2c.c ****     {
 912:Drivers/STM32F0xx_HAL_Driver/Src/stm32f0xx_hal_i2c.c ****       /* Wait until ADDR flag is set */
 913:Drivers/STM32F0xx_HAL_Driver/Src/stm32f0xx_hal_i2c.c ****       if(I2C_WaitOnFlagUntilTimeout(hi2c, I2C_FLAG_ADDR, RESET, Timeout, tickstart) != HAL_OK)
 1223              		.loc 1 913 0
 1224 00c8 3A68     		ldr	r2, [r7]
 1225 00ca F868     		ldr	r0, [r7, #12]
 1226 00cc 7B69     		ldr	r3, [r7, #20]
 1227 00ce 0093     		str	r3, [sp]
 1228 00d0 1300     		movs	r3, r2
 1229 00d2 0022     		movs	r2, #0
 1230 00d4 0821     		movs	r1, #8
 1231 00d6 FFF7FEFF 		bl	I2C_WaitOnFlagUntilTimeout
 1232 00da 031E     		subs	r3, r0, #0
 1233 00dc 0AD0     		beq	.L57
 914:Drivers/STM32F0xx_HAL_Driver/Src/stm32f0xx_hal_i2c.c ****       {
 915:Drivers/STM32F0xx_HAL_Driver/Src/stm32f0xx_hal_i2c.c ****         /* Disable Address Acknowledge */
 916:Drivers/STM32F0xx_HAL_Driver/Src/stm32f0xx_hal_i2c.c ****         hi2c->Instance->CR2 |= I2C_CR2_NACK;
 1234              		.loc 1 916 0
 1235 00de FB68     		ldr	r3, [r7, #12]
 1236 00e0 1B68     		ldr	r3, [r3]
 1237 00e2 FA68     		ldr	r2, [r7, #12]
 1238 00e4 1268     		ldr	r2, [r2]
 1239 00e6 5268     		ldr	r2, [r2, #4]
 1240 00e8 8021     		movs	r1, #128
 1241 00ea 0902     		lsls	r1, r1, #8
 1242 00ec 0A43     		orrs	r2, r1
 1243 00ee 5A60     		str	r2, [r3, #4]
 917:Drivers/STM32F0xx_HAL_Driver/Src/stm32f0xx_hal_i2c.c ****         return HAL_TIMEOUT;
 1244              		.loc 1 917 0
 1245 00f0 0323     		movs	r3, #3
 1246 00f2 96E0     		b	.L53
 1247              	.L57:
 918:Drivers/STM32F0xx_HAL_Driver/Src/stm32f0xx_hal_i2c.c ****       }
 919:Drivers/STM32F0xx_HAL_Driver/Src/stm32f0xx_hal_i2c.c **** 
 920:Drivers/STM32F0xx_HAL_Driver/Src/stm32f0xx_hal_i2c.c ****       /* Clear ADDR flag */
 921:Drivers/STM32F0xx_HAL_Driver/Src/stm32f0xx_hal_i2c.c ****       __HAL_I2C_CLEAR_FLAG(hi2c,I2C_FLAG_ADDR);
 1248              		.loc 1 921 0
 1249 00f4 FB68     		ldr	r3, [r7, #12]
 1250 00f6 1B68     		ldr	r3, [r3]
 1251 00f8 0822     		movs	r2, #8
 1252 00fa DA61     		str	r2, [r3, #28]
 1253              	.L56:
 922:Drivers/STM32F0xx_HAL_Driver/Src/stm32f0xx_hal_i2c.c ****     }
 923:Drivers/STM32F0xx_HAL_Driver/Src/stm32f0xx_hal_i2c.c **** 
 924:Drivers/STM32F0xx_HAL_Driver/Src/stm32f0xx_hal_i2c.c ****     /* Wait until DIR flag is set Transmitter mode */
ARM GAS  /tmp/ccMxaoR5.s 			page 39


 925:Drivers/STM32F0xx_HAL_Driver/Src/stm32f0xx_hal_i2c.c ****     if(I2C_WaitOnFlagUntilTimeout(hi2c, I2C_FLAG_DIR, RESET, Timeout, tickstart) != HAL_OK)
 1254              		.loc 1 925 0
 1255 00fc 3A68     		ldr	r2, [r7]
 1256 00fe 8023     		movs	r3, #128
 1257 0100 5902     		lsls	r1, r3, #9
 1258 0102 F868     		ldr	r0, [r7, #12]
 1259 0104 7B69     		ldr	r3, [r7, #20]
 1260 0106 0093     		str	r3, [sp]
 1261 0108 1300     		movs	r3, r2
 1262 010a 0022     		movs	r2, #0
 1263 010c FFF7FEFF 		bl	I2C_WaitOnFlagUntilTimeout
 1264 0110 031E     		subs	r3, r0, #0
 1265 0112 33D0     		beq	.L59
 926:Drivers/STM32F0xx_HAL_Driver/Src/stm32f0xx_hal_i2c.c ****     {
 927:Drivers/STM32F0xx_HAL_Driver/Src/stm32f0xx_hal_i2c.c ****       /* Disable Address Acknowledge */
 928:Drivers/STM32F0xx_HAL_Driver/Src/stm32f0xx_hal_i2c.c ****       hi2c->Instance->CR2 |= I2C_CR2_NACK;
 1266              		.loc 1 928 0
 1267 0114 FB68     		ldr	r3, [r7, #12]
 1268 0116 1B68     		ldr	r3, [r3]
 1269 0118 FA68     		ldr	r2, [r7, #12]
 1270 011a 1268     		ldr	r2, [r2]
 1271 011c 5268     		ldr	r2, [r2, #4]
 1272 011e 8021     		movs	r1, #128
 1273 0120 0902     		lsls	r1, r1, #8
 1274 0122 0A43     		orrs	r2, r1
 1275 0124 5A60     		str	r2, [r3, #4]
 929:Drivers/STM32F0xx_HAL_Driver/Src/stm32f0xx_hal_i2c.c ****       return HAL_TIMEOUT;
 1276              		.loc 1 929 0
 1277 0126 0323     		movs	r3, #3
 1278 0128 7BE0     		b	.L53
 1279              	.L62:
 930:Drivers/STM32F0xx_HAL_Driver/Src/stm32f0xx_hal_i2c.c ****     }
 931:Drivers/STM32F0xx_HAL_Driver/Src/stm32f0xx_hal_i2c.c **** 
 932:Drivers/STM32F0xx_HAL_Driver/Src/stm32f0xx_hal_i2c.c ****     while(hi2c->XferCount > 0U)
 933:Drivers/STM32F0xx_HAL_Driver/Src/stm32f0xx_hal_i2c.c ****     {
 934:Drivers/STM32F0xx_HAL_Driver/Src/stm32f0xx_hal_i2c.c ****       /* Wait until TXIS flag is set */
 935:Drivers/STM32F0xx_HAL_Driver/Src/stm32f0xx_hal_i2c.c ****       if(I2C_WaitOnTXISFlagUntilTimeout(hi2c, Timeout, tickstart) != HAL_OK)
 1280              		.loc 1 935 0
 1281 012a 7A69     		ldr	r2, [r7, #20]
 1282 012c 3968     		ldr	r1, [r7]
 1283 012e FB68     		ldr	r3, [r7, #12]
 1284 0130 1800     		movs	r0, r3
 1285 0132 FFF7FEFF 		bl	I2C_WaitOnTXISFlagUntilTimeout
 1286 0136 031E     		subs	r3, r0, #0
 1287 0138 10D0     		beq	.L60
 936:Drivers/STM32F0xx_HAL_Driver/Src/stm32f0xx_hal_i2c.c ****       {
 937:Drivers/STM32F0xx_HAL_Driver/Src/stm32f0xx_hal_i2c.c ****         /* Disable Address Acknowledge */
 938:Drivers/STM32F0xx_HAL_Driver/Src/stm32f0xx_hal_i2c.c ****         hi2c->Instance->CR2 |= I2C_CR2_NACK;
 1288              		.loc 1 938 0
 1289 013a FB68     		ldr	r3, [r7, #12]
 1290 013c 1B68     		ldr	r3, [r3]
 1291 013e FA68     		ldr	r2, [r7, #12]
 1292 0140 1268     		ldr	r2, [r2]
 1293 0142 5268     		ldr	r2, [r2, #4]
 1294 0144 8021     		movs	r1, #128
 1295 0146 0902     		lsls	r1, r1, #8
 1296 0148 0A43     		orrs	r2, r1
ARM GAS  /tmp/ccMxaoR5.s 			page 40


 1297 014a 5A60     		str	r2, [r3, #4]
 939:Drivers/STM32F0xx_HAL_Driver/Src/stm32f0xx_hal_i2c.c **** 
 940:Drivers/STM32F0xx_HAL_Driver/Src/stm32f0xx_hal_i2c.c ****         if(hi2c->ErrorCode == HAL_I2C_ERROR_AF)
 1298              		.loc 1 940 0
 1299 014c FB68     		ldr	r3, [r7, #12]
 1300 014e 5B6C     		ldr	r3, [r3, #68]
 1301 0150 042B     		cmp	r3, #4
 1302 0152 01D1     		bne	.L61
 941:Drivers/STM32F0xx_HAL_Driver/Src/stm32f0xx_hal_i2c.c ****         {
 942:Drivers/STM32F0xx_HAL_Driver/Src/stm32f0xx_hal_i2c.c ****           return HAL_ERROR;
 1303              		.loc 1 942 0
 1304 0154 0123     		movs	r3, #1
 1305 0156 64E0     		b	.L53
 1306              	.L61:
 943:Drivers/STM32F0xx_HAL_Driver/Src/stm32f0xx_hal_i2c.c ****         }
 944:Drivers/STM32F0xx_HAL_Driver/Src/stm32f0xx_hal_i2c.c ****         else
 945:Drivers/STM32F0xx_HAL_Driver/Src/stm32f0xx_hal_i2c.c ****         {
 946:Drivers/STM32F0xx_HAL_Driver/Src/stm32f0xx_hal_i2c.c ****           return HAL_TIMEOUT;
 1307              		.loc 1 946 0
 1308 0158 0323     		movs	r3, #3
 1309 015a 62E0     		b	.L53
 1310              	.L60:
 947:Drivers/STM32F0xx_HAL_Driver/Src/stm32f0xx_hal_i2c.c ****         }
 948:Drivers/STM32F0xx_HAL_Driver/Src/stm32f0xx_hal_i2c.c ****       }
 949:Drivers/STM32F0xx_HAL_Driver/Src/stm32f0xx_hal_i2c.c ****       
 950:Drivers/STM32F0xx_HAL_Driver/Src/stm32f0xx_hal_i2c.c ****       /* Write data to TXDR */
 951:Drivers/STM32F0xx_HAL_Driver/Src/stm32f0xx_hal_i2c.c ****       hi2c->Instance->TXDR = (*hi2c->pBuffPtr++);
 1311              		.loc 1 951 0
 1312 015c FB68     		ldr	r3, [r7, #12]
 1313 015e 1B68     		ldr	r3, [r3]
 1314 0160 FA68     		ldr	r2, [r7, #12]
 1315 0162 526A     		ldr	r2, [r2, #36]
 1316 0164 501C     		adds	r0, r2, #1
 1317 0166 F968     		ldr	r1, [r7, #12]
 1318 0168 4862     		str	r0, [r1, #36]
 1319 016a 1278     		ldrb	r2, [r2]
 1320 016c 9A62     		str	r2, [r3, #40]
 952:Drivers/STM32F0xx_HAL_Driver/Src/stm32f0xx_hal_i2c.c ****       hi2c->XferCount--;
 1321              		.loc 1 952 0
 1322 016e FB68     		ldr	r3, [r7, #12]
 1323 0170 5B8D     		ldrh	r3, [r3, #42]
 1324 0172 9BB2     		uxth	r3, r3
 1325 0174 013B     		subs	r3, r3, #1
 1326 0176 9AB2     		uxth	r2, r3
 1327 0178 FB68     		ldr	r3, [r7, #12]
 1328 017a 5A85     		strh	r2, [r3, #42]
 1329              	.L59:
 932:Drivers/STM32F0xx_HAL_Driver/Src/stm32f0xx_hal_i2c.c ****     {
 1330              		.loc 1 932 0
 1331 017c FB68     		ldr	r3, [r7, #12]
 1332 017e 5B8D     		ldrh	r3, [r3, #42]
 1333 0180 9BB2     		uxth	r3, r3
 1334 0182 002B     		cmp	r3, #0
 1335 0184 D1D1     		bne	.L62
 953:Drivers/STM32F0xx_HAL_Driver/Src/stm32f0xx_hal_i2c.c ****     }
 954:Drivers/STM32F0xx_HAL_Driver/Src/stm32f0xx_hal_i2c.c **** 
 955:Drivers/STM32F0xx_HAL_Driver/Src/stm32f0xx_hal_i2c.c ****     /* Wait until STOP flag is set */
ARM GAS  /tmp/ccMxaoR5.s 			page 41


 956:Drivers/STM32F0xx_HAL_Driver/Src/stm32f0xx_hal_i2c.c ****     if(I2C_WaitOnSTOPFlagUntilTimeout(hi2c, Timeout, tickstart) != HAL_OK)
 1336              		.loc 1 956 0
 1337 0186 7A69     		ldr	r2, [r7, #20]
 1338 0188 3968     		ldr	r1, [r7]
 1339 018a FB68     		ldr	r3, [r7, #12]
 1340 018c 1800     		movs	r0, r3
 1341 018e FFF7FEFF 		bl	I2C_WaitOnSTOPFlagUntilTimeout
 1342 0192 031E     		subs	r3, r0, #0
 1343 0194 12D0     		beq	.L63
 957:Drivers/STM32F0xx_HAL_Driver/Src/stm32f0xx_hal_i2c.c ****     {
 958:Drivers/STM32F0xx_HAL_Driver/Src/stm32f0xx_hal_i2c.c ****       /* Disable Address Acknowledge */
 959:Drivers/STM32F0xx_HAL_Driver/Src/stm32f0xx_hal_i2c.c ****       hi2c->Instance->CR2 |= I2C_CR2_NACK;
 1344              		.loc 1 959 0
 1345 0196 FB68     		ldr	r3, [r7, #12]
 1346 0198 1B68     		ldr	r3, [r3]
 1347 019a FA68     		ldr	r2, [r7, #12]
 1348 019c 1268     		ldr	r2, [r2]
 1349 019e 5268     		ldr	r2, [r2, #4]
 1350 01a0 8021     		movs	r1, #128
 1351 01a2 0902     		lsls	r1, r1, #8
 1352 01a4 0A43     		orrs	r2, r1
 1353 01a6 5A60     		str	r2, [r3, #4]
 960:Drivers/STM32F0xx_HAL_Driver/Src/stm32f0xx_hal_i2c.c **** 
 961:Drivers/STM32F0xx_HAL_Driver/Src/stm32f0xx_hal_i2c.c ****       if(hi2c->ErrorCode == HAL_I2C_ERROR_AF)
 1354              		.loc 1 961 0
 1355 01a8 FB68     		ldr	r3, [r7, #12]
 1356 01aa 5B6C     		ldr	r3, [r3, #68]
 1357 01ac 042B     		cmp	r3, #4
 1358 01ae 03D1     		bne	.L64
 962:Drivers/STM32F0xx_HAL_Driver/Src/stm32f0xx_hal_i2c.c ****       {
 963:Drivers/STM32F0xx_HAL_Driver/Src/stm32f0xx_hal_i2c.c **** 	/* Normal use case for Transmitter mode */
 964:Drivers/STM32F0xx_HAL_Driver/Src/stm32f0xx_hal_i2c.c **** 	/* A NACK is generated to confirm the end of transfer */
 965:Drivers/STM32F0xx_HAL_Driver/Src/stm32f0xx_hal_i2c.c **** 	hi2c->ErrorCode = HAL_I2C_ERROR_NONE;
 1359              		.loc 1 965 0
 1360 01b0 FB68     		ldr	r3, [r7, #12]
 1361 01b2 0022     		movs	r2, #0
 1362 01b4 5A64     		str	r2, [r3, #68]
 1363 01b6 01E0     		b	.L63
 1364              	.L64:
 966:Drivers/STM32F0xx_HAL_Driver/Src/stm32f0xx_hal_i2c.c ****       }
 967:Drivers/STM32F0xx_HAL_Driver/Src/stm32f0xx_hal_i2c.c ****       else
 968:Drivers/STM32F0xx_HAL_Driver/Src/stm32f0xx_hal_i2c.c ****       {
 969:Drivers/STM32F0xx_HAL_Driver/Src/stm32f0xx_hal_i2c.c ****         return HAL_TIMEOUT;
 1365              		.loc 1 969 0
 1366 01b8 0323     		movs	r3, #3
 1367 01ba 32E0     		b	.L53
 1368              	.L63:
 970:Drivers/STM32F0xx_HAL_Driver/Src/stm32f0xx_hal_i2c.c ****       }
 971:Drivers/STM32F0xx_HAL_Driver/Src/stm32f0xx_hal_i2c.c ****     }
 972:Drivers/STM32F0xx_HAL_Driver/Src/stm32f0xx_hal_i2c.c ****     
 973:Drivers/STM32F0xx_HAL_Driver/Src/stm32f0xx_hal_i2c.c ****     /* Clear STOP flag */
 974:Drivers/STM32F0xx_HAL_Driver/Src/stm32f0xx_hal_i2c.c ****     __HAL_I2C_CLEAR_FLAG(hi2c,I2C_FLAG_STOPF);
 1369              		.loc 1 974 0
 1370 01bc FB68     		ldr	r3, [r7, #12]
 1371 01be 1B68     		ldr	r3, [r3]
 1372 01c0 2022     		movs	r2, #32
 1373 01c2 DA61     		str	r2, [r3, #28]
ARM GAS  /tmp/ccMxaoR5.s 			page 42


 975:Drivers/STM32F0xx_HAL_Driver/Src/stm32f0xx_hal_i2c.c ****     
 976:Drivers/STM32F0xx_HAL_Driver/Src/stm32f0xx_hal_i2c.c ****     /* Wait until BUSY flag is reset */ 
 977:Drivers/STM32F0xx_HAL_Driver/Src/stm32f0xx_hal_i2c.c ****     if(I2C_WaitOnFlagUntilTimeout(hi2c, I2C_FLAG_BUSY, SET, Timeout, tickstart) != HAL_OK)
 1374              		.loc 1 977 0
 1375 01c4 3A68     		ldr	r2, [r7]
 1376 01c6 8023     		movs	r3, #128
 1377 01c8 1902     		lsls	r1, r3, #8
 1378 01ca F868     		ldr	r0, [r7, #12]
 1379 01cc 7B69     		ldr	r3, [r7, #20]
 1380 01ce 0093     		str	r3, [sp]
 1381 01d0 1300     		movs	r3, r2
 1382 01d2 0122     		movs	r2, #1
 1383 01d4 FFF7FEFF 		bl	I2C_WaitOnFlagUntilTimeout
 1384 01d8 031E     		subs	r3, r0, #0
 1385 01da 0AD0     		beq	.L65
 978:Drivers/STM32F0xx_HAL_Driver/Src/stm32f0xx_hal_i2c.c ****     {
 979:Drivers/STM32F0xx_HAL_Driver/Src/stm32f0xx_hal_i2c.c ****       /* Disable Address Acknowledge */
 980:Drivers/STM32F0xx_HAL_Driver/Src/stm32f0xx_hal_i2c.c ****       hi2c->Instance->CR2 |= I2C_CR2_NACK;
 1386              		.loc 1 980 0
 1387 01dc FB68     		ldr	r3, [r7, #12]
 1388 01de 1B68     		ldr	r3, [r3]
 1389 01e0 FA68     		ldr	r2, [r7, #12]
 1390 01e2 1268     		ldr	r2, [r2]
 1391 01e4 5268     		ldr	r2, [r2, #4]
 1392 01e6 8021     		movs	r1, #128
 1393 01e8 0902     		lsls	r1, r1, #8
 1394 01ea 0A43     		orrs	r2, r1
 1395 01ec 5A60     		str	r2, [r3, #4]
 981:Drivers/STM32F0xx_HAL_Driver/Src/stm32f0xx_hal_i2c.c ****       return HAL_TIMEOUT;
 1396              		.loc 1 981 0
 1397 01ee 0323     		movs	r3, #3
 1398 01f0 17E0     		b	.L53
 1399              	.L65:
 982:Drivers/STM32F0xx_HAL_Driver/Src/stm32f0xx_hal_i2c.c ****     }
 983:Drivers/STM32F0xx_HAL_Driver/Src/stm32f0xx_hal_i2c.c **** 
 984:Drivers/STM32F0xx_HAL_Driver/Src/stm32f0xx_hal_i2c.c ****     /* Disable Address Acknowledge */
 985:Drivers/STM32F0xx_HAL_Driver/Src/stm32f0xx_hal_i2c.c ****     hi2c->Instance->CR2 |= I2C_CR2_NACK;
 1400              		.loc 1 985 0
 1401 01f2 FB68     		ldr	r3, [r7, #12]
 1402 01f4 1B68     		ldr	r3, [r3]
 1403 01f6 FA68     		ldr	r2, [r7, #12]
 1404 01f8 1268     		ldr	r2, [r2]
 1405 01fa 5268     		ldr	r2, [r2, #4]
 1406 01fc 8021     		movs	r1, #128
 1407 01fe 0902     		lsls	r1, r1, #8
 1408 0200 0A43     		orrs	r2, r1
 1409 0202 5A60     		str	r2, [r3, #4]
 986:Drivers/STM32F0xx_HAL_Driver/Src/stm32f0xx_hal_i2c.c **** 
 987:Drivers/STM32F0xx_HAL_Driver/Src/stm32f0xx_hal_i2c.c ****     hi2c->State = HAL_I2C_STATE_READY;
 1410              		.loc 1 987 0
 1411 0204 FB68     		ldr	r3, [r7, #12]
 1412 0206 4122     		movs	r2, #65
 1413 0208 2021     		movs	r1, #32
 1414 020a 9954     		strb	r1, [r3, r2]
 988:Drivers/STM32F0xx_HAL_Driver/Src/stm32f0xx_hal_i2c.c ****     hi2c->Mode = HAL_I2C_MODE_NONE;
 1415              		.loc 1 988 0
 1416 020c FB68     		ldr	r3, [r7, #12]
ARM GAS  /tmp/ccMxaoR5.s 			page 43


 1417 020e 4222     		movs	r2, #66
 1418 0210 0021     		movs	r1, #0
 1419 0212 9954     		strb	r1, [r3, r2]
 989:Drivers/STM32F0xx_HAL_Driver/Src/stm32f0xx_hal_i2c.c **** 
 990:Drivers/STM32F0xx_HAL_Driver/Src/stm32f0xx_hal_i2c.c ****     /* Process Unlocked */
 991:Drivers/STM32F0xx_HAL_Driver/Src/stm32f0xx_hal_i2c.c ****     __HAL_UNLOCK(hi2c);
 1420              		.loc 1 991 0
 1421 0214 FB68     		ldr	r3, [r7, #12]
 1422 0216 4022     		movs	r2, #64
 1423 0218 0021     		movs	r1, #0
 1424 021a 9954     		strb	r1, [r3, r2]
 992:Drivers/STM32F0xx_HAL_Driver/Src/stm32f0xx_hal_i2c.c **** 
 993:Drivers/STM32F0xx_HAL_Driver/Src/stm32f0xx_hal_i2c.c ****     return HAL_OK;
 1425              		.loc 1 993 0
 1426 021c 0023     		movs	r3, #0
 1427 021e 00E0     		b	.L53
 1428              	.L50:
 994:Drivers/STM32F0xx_HAL_Driver/Src/stm32f0xx_hal_i2c.c ****   }
 995:Drivers/STM32F0xx_HAL_Driver/Src/stm32f0xx_hal_i2c.c ****   else
 996:Drivers/STM32F0xx_HAL_Driver/Src/stm32f0xx_hal_i2c.c ****   {
 997:Drivers/STM32F0xx_HAL_Driver/Src/stm32f0xx_hal_i2c.c ****     return HAL_BUSY;
 1429              		.loc 1 997 0
 1430 0220 0223     		movs	r3, #2
 1431              	.L53:
 998:Drivers/STM32F0xx_HAL_Driver/Src/stm32f0xx_hal_i2c.c ****   }
 999:Drivers/STM32F0xx_HAL_Driver/Src/stm32f0xx_hal_i2c.c **** }
 1432              		.loc 1 999 0
 1433 0222 1800     		movs	r0, r3
 1434 0224 BD46     		mov	sp, r7
 1435 0226 06B0     		add	sp, sp, #24
 1436              		@ sp needed
 1437 0228 80BD     		pop	{r7, pc}
 1438              	.L67:
 1439 022a C046     		.align	2
 1440              	.L66:
 1441 022c FF7FFFFF 		.word	-32769
 1442              		.cfi_endproc
 1443              	.LFE41:
 1445              		.section	.text.HAL_I2C_Slave_Receive,"ax",%progbits
 1446              		.align	1
 1447              		.global	HAL_I2C_Slave_Receive
 1448              		.syntax unified
 1449              		.code	16
 1450              		.thumb_func
 1451              		.fpu softvfp
 1453              	HAL_I2C_Slave_Receive:
 1454              	.LFB42:
1000:Drivers/STM32F0xx_HAL_Driver/Src/stm32f0xx_hal_i2c.c **** 
1001:Drivers/STM32F0xx_HAL_Driver/Src/stm32f0xx_hal_i2c.c **** /**
1002:Drivers/STM32F0xx_HAL_Driver/Src/stm32f0xx_hal_i2c.c ****   * @brief  Receive in slave mode an amount of data in blocking mode 
1003:Drivers/STM32F0xx_HAL_Driver/Src/stm32f0xx_hal_i2c.c ****   * @param  hi2c Pointer to a I2C_HandleTypeDef structure that contains
1004:Drivers/STM32F0xx_HAL_Driver/Src/stm32f0xx_hal_i2c.c ****   *                the configuration information for the specified I2C.
1005:Drivers/STM32F0xx_HAL_Driver/Src/stm32f0xx_hal_i2c.c ****   * @param  pData Pointer to data buffer
1006:Drivers/STM32F0xx_HAL_Driver/Src/stm32f0xx_hal_i2c.c ****   * @param  Size Amount of data to be sent
1007:Drivers/STM32F0xx_HAL_Driver/Src/stm32f0xx_hal_i2c.c ****   * @param  Timeout Timeout duration
1008:Drivers/STM32F0xx_HAL_Driver/Src/stm32f0xx_hal_i2c.c ****   * @retval HAL status
1009:Drivers/STM32F0xx_HAL_Driver/Src/stm32f0xx_hal_i2c.c ****   */
ARM GAS  /tmp/ccMxaoR5.s 			page 44


1010:Drivers/STM32F0xx_HAL_Driver/Src/stm32f0xx_hal_i2c.c **** HAL_StatusTypeDef HAL_I2C_Slave_Receive(I2C_HandleTypeDef *hi2c, uint8_t *pData, uint16_t Size, uin
1011:Drivers/STM32F0xx_HAL_Driver/Src/stm32f0xx_hal_i2c.c **** {
 1455              		.loc 1 1011 0
 1456              		.cfi_startproc
 1457 0000 80B5     		push	{r7, lr}
 1458              	.LCFI21:
 1459              		.cfi_def_cfa_offset 8
 1460              		.cfi_offset 7, -8
 1461              		.cfi_offset 14, -4
 1462 0002 88B0     		sub	sp, sp, #32
 1463              	.LCFI22:
 1464              		.cfi_def_cfa_offset 40
 1465 0004 02AF     		add	r7, sp, #8
 1466              	.LCFI23:
 1467              		.cfi_def_cfa 7, 32
 1468 0006 F860     		str	r0, [r7, #12]
 1469 0008 B960     		str	r1, [r7, #8]
 1470 000a 3B60     		str	r3, [r7]
 1471 000c BB1D     		adds	r3, r7, #6
 1472 000e 1A80     		strh	r2, [r3]
1012:Drivers/STM32F0xx_HAL_Driver/Src/stm32f0xx_hal_i2c.c ****   uint32_t tickstart = 0U;
 1473              		.loc 1 1012 0
 1474 0010 0023     		movs	r3, #0
 1475 0012 7B61     		str	r3, [r7, #20]
1013:Drivers/STM32F0xx_HAL_Driver/Src/stm32f0xx_hal_i2c.c **** 
1014:Drivers/STM32F0xx_HAL_Driver/Src/stm32f0xx_hal_i2c.c ****   if(hi2c->State == HAL_I2C_STATE_READY)
 1476              		.loc 1 1014 0
 1477 0014 FB68     		ldr	r3, [r7, #12]
 1478 0016 4122     		movs	r2, #65
 1479 0018 9B5C     		ldrb	r3, [r3, r2]
 1480 001a DBB2     		uxtb	r3, r3
 1481 001c 202B     		cmp	r3, #32
 1482 001e 00D0     		beq	.LCB1334
 1483 0020 F7E0     		b	.L69	@long jump
 1484              	.LCB1334:
1015:Drivers/STM32F0xx_HAL_Driver/Src/stm32f0xx_hal_i2c.c ****   {
1016:Drivers/STM32F0xx_HAL_Driver/Src/stm32f0xx_hal_i2c.c ****     if((pData == NULL) || (Size == 0U))
 1485              		.loc 1 1016 0
 1486 0022 BB68     		ldr	r3, [r7, #8]
 1487 0024 002B     		cmp	r3, #0
 1488 0026 03D0     		beq	.L70
 1489              		.loc 1 1016 0 is_stmt 0 discriminator 1
 1490 0028 BB1D     		adds	r3, r7, #6
 1491 002a 1B88     		ldrh	r3, [r3]
 1492 002c 002B     		cmp	r3, #0
 1493 002e 01D1     		bne	.L71
 1494              	.L70:
1017:Drivers/STM32F0xx_HAL_Driver/Src/stm32f0xx_hal_i2c.c ****     {
1018:Drivers/STM32F0xx_HAL_Driver/Src/stm32f0xx_hal_i2c.c ****       return  HAL_ERROR;
 1495              		.loc 1 1018 0 is_stmt 1
 1496 0030 0123     		movs	r3, #1
 1497 0032 EFE0     		b	.L72
 1498              	.L71:
1019:Drivers/STM32F0xx_HAL_Driver/Src/stm32f0xx_hal_i2c.c ****     }
1020:Drivers/STM32F0xx_HAL_Driver/Src/stm32f0xx_hal_i2c.c ****     /* Process Locked */
1021:Drivers/STM32F0xx_HAL_Driver/Src/stm32f0xx_hal_i2c.c ****     __HAL_LOCK(hi2c);
 1499              		.loc 1 1021 0
ARM GAS  /tmp/ccMxaoR5.s 			page 45


 1500 0034 FB68     		ldr	r3, [r7, #12]
 1501 0036 4022     		movs	r2, #64
 1502 0038 9B5C     		ldrb	r3, [r3, r2]
 1503 003a 012B     		cmp	r3, #1
 1504 003c 01D1     		bne	.L73
 1505              		.loc 1 1021 0 is_stmt 0 discriminator 1
 1506 003e 0223     		movs	r3, #2
 1507 0040 E8E0     		b	.L72
 1508              	.L73:
 1509              		.loc 1 1021 0 discriminator 2
 1510 0042 FB68     		ldr	r3, [r7, #12]
 1511 0044 4022     		movs	r2, #64
 1512 0046 0121     		movs	r1, #1
 1513 0048 9954     		strb	r1, [r3, r2]
1022:Drivers/STM32F0xx_HAL_Driver/Src/stm32f0xx_hal_i2c.c **** 
1023:Drivers/STM32F0xx_HAL_Driver/Src/stm32f0xx_hal_i2c.c ****     /* Init tickstart for timeout management*/
1024:Drivers/STM32F0xx_HAL_Driver/Src/stm32f0xx_hal_i2c.c ****     tickstart = HAL_GetTick();
 1514              		.loc 1 1024 0 is_stmt 1 discriminator 2
 1515 004a FFF7FEFF 		bl	HAL_GetTick
 1516 004e 0300     		movs	r3, r0
 1517 0050 7B61     		str	r3, [r7, #20]
1025:Drivers/STM32F0xx_HAL_Driver/Src/stm32f0xx_hal_i2c.c **** 
1026:Drivers/STM32F0xx_HAL_Driver/Src/stm32f0xx_hal_i2c.c ****     hi2c->State = HAL_I2C_STATE_BUSY_RX;
 1518              		.loc 1 1026 0 discriminator 2
 1519 0052 FB68     		ldr	r3, [r7, #12]
 1520 0054 4122     		movs	r2, #65
 1521 0056 2221     		movs	r1, #34
 1522 0058 9954     		strb	r1, [r3, r2]
1027:Drivers/STM32F0xx_HAL_Driver/Src/stm32f0xx_hal_i2c.c ****     hi2c->Mode = HAL_I2C_MODE_SLAVE;
 1523              		.loc 1 1027 0 discriminator 2
 1524 005a FB68     		ldr	r3, [r7, #12]
 1525 005c 4222     		movs	r2, #66
 1526 005e 2021     		movs	r1, #32
 1527 0060 9954     		strb	r1, [r3, r2]
1028:Drivers/STM32F0xx_HAL_Driver/Src/stm32f0xx_hal_i2c.c ****     hi2c->ErrorCode   = HAL_I2C_ERROR_NONE;
 1528              		.loc 1 1028 0 discriminator 2
 1529 0062 FB68     		ldr	r3, [r7, #12]
 1530 0064 0022     		movs	r2, #0
 1531 0066 5A64     		str	r2, [r3, #68]
1029:Drivers/STM32F0xx_HAL_Driver/Src/stm32f0xx_hal_i2c.c **** 
1030:Drivers/STM32F0xx_HAL_Driver/Src/stm32f0xx_hal_i2c.c ****     /* Prepare transfer parameters */
1031:Drivers/STM32F0xx_HAL_Driver/Src/stm32f0xx_hal_i2c.c ****     hi2c->pBuffPtr  = pData;
 1532              		.loc 1 1031 0 discriminator 2
 1533 0068 FB68     		ldr	r3, [r7, #12]
 1534 006a BA68     		ldr	r2, [r7, #8]
 1535 006c 5A62     		str	r2, [r3, #36]
1032:Drivers/STM32F0xx_HAL_Driver/Src/stm32f0xx_hal_i2c.c ****     hi2c->XferCount = Size;
 1536              		.loc 1 1032 0 discriminator 2
 1537 006e FB68     		ldr	r3, [r7, #12]
 1538 0070 BA1D     		adds	r2, r7, #6
 1539 0072 1288     		ldrh	r2, [r2]
 1540 0074 5A85     		strh	r2, [r3, #42]
1033:Drivers/STM32F0xx_HAL_Driver/Src/stm32f0xx_hal_i2c.c ****     hi2c->XferISR   = NULL;
 1541              		.loc 1 1033 0 discriminator 2
 1542 0076 FB68     		ldr	r3, [r7, #12]
 1543 0078 0022     		movs	r2, #0
 1544 007a 5A63     		str	r2, [r3, #52]
ARM GAS  /tmp/ccMxaoR5.s 			page 46


1034:Drivers/STM32F0xx_HAL_Driver/Src/stm32f0xx_hal_i2c.c **** 
1035:Drivers/STM32F0xx_HAL_Driver/Src/stm32f0xx_hal_i2c.c ****     /* Enable Address Acknowledge */
1036:Drivers/STM32F0xx_HAL_Driver/Src/stm32f0xx_hal_i2c.c ****     hi2c->Instance->CR2 &= ~I2C_CR2_NACK;
 1545              		.loc 1 1036 0 discriminator 2
 1546 007c FB68     		ldr	r3, [r7, #12]
 1547 007e 1B68     		ldr	r3, [r3]
 1548 0080 FA68     		ldr	r2, [r7, #12]
 1549 0082 1268     		ldr	r2, [r2]
 1550 0084 5268     		ldr	r2, [r2, #4]
 1551 0086 6549     		ldr	r1, .L84
 1552 0088 0A40     		ands	r2, r1
 1553 008a 5A60     		str	r2, [r3, #4]
1037:Drivers/STM32F0xx_HAL_Driver/Src/stm32f0xx_hal_i2c.c **** 
1038:Drivers/STM32F0xx_HAL_Driver/Src/stm32f0xx_hal_i2c.c ****     /* Wait until ADDR flag is set */
1039:Drivers/STM32F0xx_HAL_Driver/Src/stm32f0xx_hal_i2c.c ****     if(I2C_WaitOnFlagUntilTimeout(hi2c, I2C_FLAG_ADDR, RESET, Timeout, tickstart) != HAL_OK)
 1554              		.loc 1 1039 0 discriminator 2
 1555 008c 3A68     		ldr	r2, [r7]
 1556 008e F868     		ldr	r0, [r7, #12]
 1557 0090 7B69     		ldr	r3, [r7, #20]
 1558 0092 0093     		str	r3, [sp]
 1559 0094 1300     		movs	r3, r2
 1560 0096 0022     		movs	r2, #0
 1561 0098 0821     		movs	r1, #8
 1562 009a FFF7FEFF 		bl	I2C_WaitOnFlagUntilTimeout
 1563 009e 031E     		subs	r3, r0, #0
 1564 00a0 0AD0     		beq	.L74
1040:Drivers/STM32F0xx_HAL_Driver/Src/stm32f0xx_hal_i2c.c ****     {
1041:Drivers/STM32F0xx_HAL_Driver/Src/stm32f0xx_hal_i2c.c ****       /* Disable Address Acknowledge */
1042:Drivers/STM32F0xx_HAL_Driver/Src/stm32f0xx_hal_i2c.c ****       hi2c->Instance->CR2 |= I2C_CR2_NACK;
 1565              		.loc 1 1042 0
 1566 00a2 FB68     		ldr	r3, [r7, #12]
 1567 00a4 1B68     		ldr	r3, [r3]
 1568 00a6 FA68     		ldr	r2, [r7, #12]
 1569 00a8 1268     		ldr	r2, [r2]
 1570 00aa 5268     		ldr	r2, [r2, #4]
 1571 00ac 8021     		movs	r1, #128
 1572 00ae 0902     		lsls	r1, r1, #8
 1573 00b0 0A43     		orrs	r2, r1
 1574 00b2 5A60     		str	r2, [r3, #4]
1043:Drivers/STM32F0xx_HAL_Driver/Src/stm32f0xx_hal_i2c.c ****       return HAL_TIMEOUT;
 1575              		.loc 1 1043 0
 1576 00b4 0323     		movs	r3, #3
 1577 00b6 ADE0     		b	.L72
 1578              	.L74:
1044:Drivers/STM32F0xx_HAL_Driver/Src/stm32f0xx_hal_i2c.c ****     }
1045:Drivers/STM32F0xx_HAL_Driver/Src/stm32f0xx_hal_i2c.c **** 
1046:Drivers/STM32F0xx_HAL_Driver/Src/stm32f0xx_hal_i2c.c ****     /* Clear ADDR flag */
1047:Drivers/STM32F0xx_HAL_Driver/Src/stm32f0xx_hal_i2c.c ****     __HAL_I2C_CLEAR_FLAG(hi2c,I2C_FLAG_ADDR);
 1579              		.loc 1 1047 0
 1580 00b8 FB68     		ldr	r3, [r7, #12]
 1581 00ba 1B68     		ldr	r3, [r3]
 1582 00bc 0822     		movs	r2, #8
 1583 00be DA61     		str	r2, [r3, #28]
1048:Drivers/STM32F0xx_HAL_Driver/Src/stm32f0xx_hal_i2c.c **** 
1049:Drivers/STM32F0xx_HAL_Driver/Src/stm32f0xx_hal_i2c.c ****     /* Wait until DIR flag is reset Receiver mode */
1050:Drivers/STM32F0xx_HAL_Driver/Src/stm32f0xx_hal_i2c.c ****     if(I2C_WaitOnFlagUntilTimeout(hi2c, I2C_FLAG_DIR, SET, Timeout, tickstart) != HAL_OK)
 1584              		.loc 1 1050 0
ARM GAS  /tmp/ccMxaoR5.s 			page 47


 1585 00c0 3A68     		ldr	r2, [r7]
 1586 00c2 8023     		movs	r3, #128
 1587 00c4 5902     		lsls	r1, r3, #9
 1588 00c6 F868     		ldr	r0, [r7, #12]
 1589 00c8 7B69     		ldr	r3, [r7, #20]
 1590 00ca 0093     		str	r3, [sp]
 1591 00cc 1300     		movs	r3, r2
 1592 00ce 0122     		movs	r2, #1
 1593 00d0 FFF7FEFF 		bl	I2C_WaitOnFlagUntilTimeout
 1594 00d4 031E     		subs	r3, r0, #0
 1595 00d6 4CD0     		beq	.L76
1051:Drivers/STM32F0xx_HAL_Driver/Src/stm32f0xx_hal_i2c.c ****     {
1052:Drivers/STM32F0xx_HAL_Driver/Src/stm32f0xx_hal_i2c.c ****       /* Disable Address Acknowledge */
1053:Drivers/STM32F0xx_HAL_Driver/Src/stm32f0xx_hal_i2c.c ****       hi2c->Instance->CR2 |= I2C_CR2_NACK;
 1596              		.loc 1 1053 0
 1597 00d8 FB68     		ldr	r3, [r7, #12]
 1598 00da 1B68     		ldr	r3, [r3]
 1599 00dc FA68     		ldr	r2, [r7, #12]
 1600 00de 1268     		ldr	r2, [r2]
 1601 00e0 5268     		ldr	r2, [r2, #4]
 1602 00e2 8021     		movs	r1, #128
 1603 00e4 0902     		lsls	r1, r1, #8
 1604 00e6 0A43     		orrs	r2, r1
 1605 00e8 5A60     		str	r2, [r3, #4]
1054:Drivers/STM32F0xx_HAL_Driver/Src/stm32f0xx_hal_i2c.c ****       return HAL_TIMEOUT;
 1606              		.loc 1 1054 0
 1607 00ea 0323     		movs	r3, #3
 1608 00ec 92E0     		b	.L72
 1609              	.L80:
1055:Drivers/STM32F0xx_HAL_Driver/Src/stm32f0xx_hal_i2c.c ****     }
1056:Drivers/STM32F0xx_HAL_Driver/Src/stm32f0xx_hal_i2c.c **** 
1057:Drivers/STM32F0xx_HAL_Driver/Src/stm32f0xx_hal_i2c.c ****     while(hi2c->XferCount > 0U)
1058:Drivers/STM32F0xx_HAL_Driver/Src/stm32f0xx_hal_i2c.c ****     {
1059:Drivers/STM32F0xx_HAL_Driver/Src/stm32f0xx_hal_i2c.c ****       /* Wait until RXNE flag is set */
1060:Drivers/STM32F0xx_HAL_Driver/Src/stm32f0xx_hal_i2c.c ****       if(I2C_WaitOnRXNEFlagUntilTimeout(hi2c, Timeout, tickstart) != HAL_OK)
 1610              		.loc 1 1060 0
 1611 00ee 7A69     		ldr	r2, [r7, #20]
 1612 00f0 3968     		ldr	r1, [r7]
 1613 00f2 FB68     		ldr	r3, [r7, #12]
 1614 00f4 1800     		movs	r0, r3
 1615 00f6 FFF7FEFF 		bl	I2C_WaitOnRXNEFlagUntilTimeout
 1616 00fa 031E     		subs	r3, r0, #0
 1617 00fc 28D0     		beq	.L77
1061:Drivers/STM32F0xx_HAL_Driver/Src/stm32f0xx_hal_i2c.c ****       {
1062:Drivers/STM32F0xx_HAL_Driver/Src/stm32f0xx_hal_i2c.c ****         /* Disable Address Acknowledge */
1063:Drivers/STM32F0xx_HAL_Driver/Src/stm32f0xx_hal_i2c.c ****         hi2c->Instance->CR2 |= I2C_CR2_NACK;
 1618              		.loc 1 1063 0
 1619 00fe FB68     		ldr	r3, [r7, #12]
 1620 0100 1B68     		ldr	r3, [r3]
 1621 0102 FA68     		ldr	r2, [r7, #12]
 1622 0104 1268     		ldr	r2, [r2]
 1623 0106 5268     		ldr	r2, [r2, #4]
 1624 0108 8021     		movs	r1, #128
 1625 010a 0902     		lsls	r1, r1, #8
 1626 010c 0A43     		orrs	r2, r1
 1627 010e 5A60     		str	r2, [r3, #4]
1064:Drivers/STM32F0xx_HAL_Driver/Src/stm32f0xx_hal_i2c.c **** 
ARM GAS  /tmp/ccMxaoR5.s 			page 48


1065:Drivers/STM32F0xx_HAL_Driver/Src/stm32f0xx_hal_i2c.c ****         /* Store Last receive data if any */
1066:Drivers/STM32F0xx_HAL_Driver/Src/stm32f0xx_hal_i2c.c ****         if(__HAL_I2C_GET_FLAG(hi2c, I2C_FLAG_RXNE) == SET)
 1628              		.loc 1 1066 0
 1629 0110 FB68     		ldr	r3, [r7, #12]
 1630 0112 1B68     		ldr	r3, [r3]
 1631 0114 9B69     		ldr	r3, [r3, #24]
 1632 0116 0422     		movs	r2, #4
 1633 0118 1340     		ands	r3, r2
 1634 011a 042B     		cmp	r3, #4
 1635 011c 10D1     		bne	.L78
1067:Drivers/STM32F0xx_HAL_Driver/Src/stm32f0xx_hal_i2c.c ****         {
1068:Drivers/STM32F0xx_HAL_Driver/Src/stm32f0xx_hal_i2c.c ****           /* Read data from RXDR */
1069:Drivers/STM32F0xx_HAL_Driver/Src/stm32f0xx_hal_i2c.c ****           (*hi2c->pBuffPtr++) = hi2c->Instance->RXDR;
 1636              		.loc 1 1069 0
 1637 011e FB68     		ldr	r3, [r7, #12]
 1638 0120 5B6A     		ldr	r3, [r3, #36]
 1639 0122 591C     		adds	r1, r3, #1
 1640 0124 FA68     		ldr	r2, [r7, #12]
 1641 0126 5162     		str	r1, [r2, #36]
 1642 0128 FA68     		ldr	r2, [r7, #12]
 1643 012a 1268     		ldr	r2, [r2]
 1644 012c 526A     		ldr	r2, [r2, #36]
 1645 012e D2B2     		uxtb	r2, r2
 1646 0130 1A70     		strb	r2, [r3]
1070:Drivers/STM32F0xx_HAL_Driver/Src/stm32f0xx_hal_i2c.c ****           hi2c->XferCount--;
 1647              		.loc 1 1070 0
 1648 0132 FB68     		ldr	r3, [r7, #12]
 1649 0134 5B8D     		ldrh	r3, [r3, #42]
 1650 0136 9BB2     		uxth	r3, r3
 1651 0138 013B     		subs	r3, r3, #1
 1652 013a 9AB2     		uxth	r2, r3
 1653 013c FB68     		ldr	r3, [r7, #12]
 1654 013e 5A85     		strh	r2, [r3, #42]
 1655              	.L78:
1071:Drivers/STM32F0xx_HAL_Driver/Src/stm32f0xx_hal_i2c.c ****         }
1072:Drivers/STM32F0xx_HAL_Driver/Src/stm32f0xx_hal_i2c.c **** 
1073:Drivers/STM32F0xx_HAL_Driver/Src/stm32f0xx_hal_i2c.c ****         if(hi2c->ErrorCode == HAL_I2C_ERROR_TIMEOUT)
 1656              		.loc 1 1073 0
 1657 0140 FB68     		ldr	r3, [r7, #12]
 1658 0142 5B6C     		ldr	r3, [r3, #68]
 1659 0144 202B     		cmp	r3, #32
 1660 0146 01D1     		bne	.L79
1074:Drivers/STM32F0xx_HAL_Driver/Src/stm32f0xx_hal_i2c.c ****         {
1075:Drivers/STM32F0xx_HAL_Driver/Src/stm32f0xx_hal_i2c.c ****           return HAL_TIMEOUT;
 1661              		.loc 1 1075 0
 1662 0148 0323     		movs	r3, #3
 1663 014a 63E0     		b	.L72
 1664              	.L79:
1076:Drivers/STM32F0xx_HAL_Driver/Src/stm32f0xx_hal_i2c.c ****         }
1077:Drivers/STM32F0xx_HAL_Driver/Src/stm32f0xx_hal_i2c.c ****         else
1078:Drivers/STM32F0xx_HAL_Driver/Src/stm32f0xx_hal_i2c.c ****         {
1079:Drivers/STM32F0xx_HAL_Driver/Src/stm32f0xx_hal_i2c.c ****           return HAL_ERROR;
 1665              		.loc 1 1079 0
 1666 014c 0123     		movs	r3, #1
 1667 014e 61E0     		b	.L72
 1668              	.L77:
1080:Drivers/STM32F0xx_HAL_Driver/Src/stm32f0xx_hal_i2c.c ****         }
ARM GAS  /tmp/ccMxaoR5.s 			page 49


1081:Drivers/STM32F0xx_HAL_Driver/Src/stm32f0xx_hal_i2c.c ****       }
1082:Drivers/STM32F0xx_HAL_Driver/Src/stm32f0xx_hal_i2c.c ****  
1083:Drivers/STM32F0xx_HAL_Driver/Src/stm32f0xx_hal_i2c.c ****       /* Read data from RXDR */
1084:Drivers/STM32F0xx_HAL_Driver/Src/stm32f0xx_hal_i2c.c ****       (*hi2c->pBuffPtr++) = hi2c->Instance->RXDR;
 1669              		.loc 1 1084 0
 1670 0150 FB68     		ldr	r3, [r7, #12]
 1671 0152 5B6A     		ldr	r3, [r3, #36]
 1672 0154 591C     		adds	r1, r3, #1
 1673 0156 FA68     		ldr	r2, [r7, #12]
 1674 0158 5162     		str	r1, [r2, #36]
 1675 015a FA68     		ldr	r2, [r7, #12]
 1676 015c 1268     		ldr	r2, [r2]
 1677 015e 526A     		ldr	r2, [r2, #36]
 1678 0160 D2B2     		uxtb	r2, r2
 1679 0162 1A70     		strb	r2, [r3]
1085:Drivers/STM32F0xx_HAL_Driver/Src/stm32f0xx_hal_i2c.c ****       hi2c->XferCount--;
 1680              		.loc 1 1085 0
 1681 0164 FB68     		ldr	r3, [r7, #12]
 1682 0166 5B8D     		ldrh	r3, [r3, #42]
 1683 0168 9BB2     		uxth	r3, r3
 1684 016a 013B     		subs	r3, r3, #1
 1685 016c 9AB2     		uxth	r2, r3
 1686 016e FB68     		ldr	r3, [r7, #12]
 1687 0170 5A85     		strh	r2, [r3, #42]
 1688              	.L76:
1057:Drivers/STM32F0xx_HAL_Driver/Src/stm32f0xx_hal_i2c.c ****     {
 1689              		.loc 1 1057 0
 1690 0172 FB68     		ldr	r3, [r7, #12]
 1691 0174 5B8D     		ldrh	r3, [r3, #42]
 1692 0176 9BB2     		uxth	r3, r3
 1693 0178 002B     		cmp	r3, #0
 1694 017a B8D1     		bne	.L80
1086:Drivers/STM32F0xx_HAL_Driver/Src/stm32f0xx_hal_i2c.c ****     }
1087:Drivers/STM32F0xx_HAL_Driver/Src/stm32f0xx_hal_i2c.c **** 
1088:Drivers/STM32F0xx_HAL_Driver/Src/stm32f0xx_hal_i2c.c ****     /* Wait until STOP flag is set */
1089:Drivers/STM32F0xx_HAL_Driver/Src/stm32f0xx_hal_i2c.c ****     if(I2C_WaitOnSTOPFlagUntilTimeout(hi2c, Timeout, tickstart) != HAL_OK)
 1695              		.loc 1 1089 0
 1696 017c 7A69     		ldr	r2, [r7, #20]
 1697 017e 3968     		ldr	r1, [r7]
 1698 0180 FB68     		ldr	r3, [r7, #12]
 1699 0182 1800     		movs	r0, r3
 1700 0184 FFF7FEFF 		bl	I2C_WaitOnSTOPFlagUntilTimeout
 1701 0188 031E     		subs	r3, r0, #0
 1702 018a 10D0     		beq	.L81
1090:Drivers/STM32F0xx_HAL_Driver/Src/stm32f0xx_hal_i2c.c ****     {
1091:Drivers/STM32F0xx_HAL_Driver/Src/stm32f0xx_hal_i2c.c ****       /* Disable Address Acknowledge */
1092:Drivers/STM32F0xx_HAL_Driver/Src/stm32f0xx_hal_i2c.c ****       hi2c->Instance->CR2 |= I2C_CR2_NACK;
 1703              		.loc 1 1092 0
 1704 018c FB68     		ldr	r3, [r7, #12]
 1705 018e 1B68     		ldr	r3, [r3]
 1706 0190 FA68     		ldr	r2, [r7, #12]
 1707 0192 1268     		ldr	r2, [r2]
 1708 0194 5268     		ldr	r2, [r2, #4]
 1709 0196 8021     		movs	r1, #128
 1710 0198 0902     		lsls	r1, r1, #8
 1711 019a 0A43     		orrs	r2, r1
 1712 019c 5A60     		str	r2, [r3, #4]
ARM GAS  /tmp/ccMxaoR5.s 			page 50


1093:Drivers/STM32F0xx_HAL_Driver/Src/stm32f0xx_hal_i2c.c **** 
1094:Drivers/STM32F0xx_HAL_Driver/Src/stm32f0xx_hal_i2c.c ****       if(hi2c->ErrorCode == HAL_I2C_ERROR_AF)
 1713              		.loc 1 1094 0
 1714 019e FB68     		ldr	r3, [r7, #12]
 1715 01a0 5B6C     		ldr	r3, [r3, #68]
 1716 01a2 042B     		cmp	r3, #4
 1717 01a4 01D1     		bne	.L82
1095:Drivers/STM32F0xx_HAL_Driver/Src/stm32f0xx_hal_i2c.c ****       {
1096:Drivers/STM32F0xx_HAL_Driver/Src/stm32f0xx_hal_i2c.c ****         return HAL_ERROR;
 1718              		.loc 1 1096 0
 1719 01a6 0123     		movs	r3, #1
 1720 01a8 34E0     		b	.L72
 1721              	.L82:
1097:Drivers/STM32F0xx_HAL_Driver/Src/stm32f0xx_hal_i2c.c ****       }
1098:Drivers/STM32F0xx_HAL_Driver/Src/stm32f0xx_hal_i2c.c ****       else
1099:Drivers/STM32F0xx_HAL_Driver/Src/stm32f0xx_hal_i2c.c ****       {
1100:Drivers/STM32F0xx_HAL_Driver/Src/stm32f0xx_hal_i2c.c ****         return HAL_TIMEOUT;
 1722              		.loc 1 1100 0
 1723 01aa 0323     		movs	r3, #3
 1724 01ac 32E0     		b	.L72
 1725              	.L81:
1101:Drivers/STM32F0xx_HAL_Driver/Src/stm32f0xx_hal_i2c.c ****       }
1102:Drivers/STM32F0xx_HAL_Driver/Src/stm32f0xx_hal_i2c.c ****     }
1103:Drivers/STM32F0xx_HAL_Driver/Src/stm32f0xx_hal_i2c.c **** 
1104:Drivers/STM32F0xx_HAL_Driver/Src/stm32f0xx_hal_i2c.c ****     /* Clear STOP flag */
1105:Drivers/STM32F0xx_HAL_Driver/Src/stm32f0xx_hal_i2c.c ****     __HAL_I2C_CLEAR_FLAG(hi2c,I2C_FLAG_STOPF);
 1726              		.loc 1 1105 0
 1727 01ae FB68     		ldr	r3, [r7, #12]
 1728 01b0 1B68     		ldr	r3, [r3]
 1729 01b2 2022     		movs	r2, #32
 1730 01b4 DA61     		str	r2, [r3, #28]
1106:Drivers/STM32F0xx_HAL_Driver/Src/stm32f0xx_hal_i2c.c **** 
1107:Drivers/STM32F0xx_HAL_Driver/Src/stm32f0xx_hal_i2c.c ****     /* Wait until BUSY flag is reset */ 
1108:Drivers/STM32F0xx_HAL_Driver/Src/stm32f0xx_hal_i2c.c ****     if(I2C_WaitOnFlagUntilTimeout(hi2c, I2C_FLAG_BUSY, SET, Timeout, tickstart) != HAL_OK)
 1731              		.loc 1 1108 0
 1732 01b6 3A68     		ldr	r2, [r7]
 1733 01b8 8023     		movs	r3, #128
 1734 01ba 1902     		lsls	r1, r3, #8
 1735 01bc F868     		ldr	r0, [r7, #12]
 1736 01be 7B69     		ldr	r3, [r7, #20]
 1737 01c0 0093     		str	r3, [sp]
 1738 01c2 1300     		movs	r3, r2
 1739 01c4 0122     		movs	r2, #1
 1740 01c6 FFF7FEFF 		bl	I2C_WaitOnFlagUntilTimeout
 1741 01ca 031E     		subs	r3, r0, #0
 1742 01cc 0AD0     		beq	.L83
1109:Drivers/STM32F0xx_HAL_Driver/Src/stm32f0xx_hal_i2c.c ****     {
1110:Drivers/STM32F0xx_HAL_Driver/Src/stm32f0xx_hal_i2c.c ****       /* Disable Address Acknowledge */
1111:Drivers/STM32F0xx_HAL_Driver/Src/stm32f0xx_hal_i2c.c ****       hi2c->Instance->CR2 |= I2C_CR2_NACK;
 1743              		.loc 1 1111 0
 1744 01ce FB68     		ldr	r3, [r7, #12]
 1745 01d0 1B68     		ldr	r3, [r3]
 1746 01d2 FA68     		ldr	r2, [r7, #12]
 1747 01d4 1268     		ldr	r2, [r2]
 1748 01d6 5268     		ldr	r2, [r2, #4]
 1749 01d8 8021     		movs	r1, #128
 1750 01da 0902     		lsls	r1, r1, #8
ARM GAS  /tmp/ccMxaoR5.s 			page 51


 1751 01dc 0A43     		orrs	r2, r1
 1752 01de 5A60     		str	r2, [r3, #4]
1112:Drivers/STM32F0xx_HAL_Driver/Src/stm32f0xx_hal_i2c.c ****       return HAL_TIMEOUT;
 1753              		.loc 1 1112 0
 1754 01e0 0323     		movs	r3, #3
 1755 01e2 17E0     		b	.L72
 1756              	.L83:
1113:Drivers/STM32F0xx_HAL_Driver/Src/stm32f0xx_hal_i2c.c ****     }
1114:Drivers/STM32F0xx_HAL_Driver/Src/stm32f0xx_hal_i2c.c **** 
1115:Drivers/STM32F0xx_HAL_Driver/Src/stm32f0xx_hal_i2c.c ****     /* Disable Address Acknowledge */
1116:Drivers/STM32F0xx_HAL_Driver/Src/stm32f0xx_hal_i2c.c ****     hi2c->Instance->CR2 |= I2C_CR2_NACK;
 1757              		.loc 1 1116 0
 1758 01e4 FB68     		ldr	r3, [r7, #12]
 1759 01e6 1B68     		ldr	r3, [r3]
 1760 01e8 FA68     		ldr	r2, [r7, #12]
 1761 01ea 1268     		ldr	r2, [r2]
 1762 01ec 5268     		ldr	r2, [r2, #4]
 1763 01ee 8021     		movs	r1, #128
 1764 01f0 0902     		lsls	r1, r1, #8
 1765 01f2 0A43     		orrs	r2, r1
 1766 01f4 5A60     		str	r2, [r3, #4]
1117:Drivers/STM32F0xx_HAL_Driver/Src/stm32f0xx_hal_i2c.c **** 
1118:Drivers/STM32F0xx_HAL_Driver/Src/stm32f0xx_hal_i2c.c ****     hi2c->State = HAL_I2C_STATE_READY;
 1767              		.loc 1 1118 0
 1768 01f6 FB68     		ldr	r3, [r7, #12]
 1769 01f8 4122     		movs	r2, #65
 1770 01fa 2021     		movs	r1, #32
 1771 01fc 9954     		strb	r1, [r3, r2]
1119:Drivers/STM32F0xx_HAL_Driver/Src/stm32f0xx_hal_i2c.c ****     hi2c->Mode = HAL_I2C_MODE_NONE;
 1772              		.loc 1 1119 0
 1773 01fe FB68     		ldr	r3, [r7, #12]
 1774 0200 4222     		movs	r2, #66
 1775 0202 0021     		movs	r1, #0
 1776 0204 9954     		strb	r1, [r3, r2]
1120:Drivers/STM32F0xx_HAL_Driver/Src/stm32f0xx_hal_i2c.c **** 
1121:Drivers/STM32F0xx_HAL_Driver/Src/stm32f0xx_hal_i2c.c ****     /* Process Unlocked */
1122:Drivers/STM32F0xx_HAL_Driver/Src/stm32f0xx_hal_i2c.c ****     __HAL_UNLOCK(hi2c);
 1777              		.loc 1 1122 0
 1778 0206 FB68     		ldr	r3, [r7, #12]
 1779 0208 4022     		movs	r2, #64
 1780 020a 0021     		movs	r1, #0
 1781 020c 9954     		strb	r1, [r3, r2]
1123:Drivers/STM32F0xx_HAL_Driver/Src/stm32f0xx_hal_i2c.c **** 
1124:Drivers/STM32F0xx_HAL_Driver/Src/stm32f0xx_hal_i2c.c ****     return HAL_OK;
 1782              		.loc 1 1124 0
 1783 020e 0023     		movs	r3, #0
 1784 0210 00E0     		b	.L72
 1785              	.L69:
1125:Drivers/STM32F0xx_HAL_Driver/Src/stm32f0xx_hal_i2c.c ****   }
1126:Drivers/STM32F0xx_HAL_Driver/Src/stm32f0xx_hal_i2c.c ****   else
1127:Drivers/STM32F0xx_HAL_Driver/Src/stm32f0xx_hal_i2c.c ****   {
1128:Drivers/STM32F0xx_HAL_Driver/Src/stm32f0xx_hal_i2c.c ****     return HAL_BUSY;
 1786              		.loc 1 1128 0
 1787 0212 0223     		movs	r3, #2
 1788              	.L72:
1129:Drivers/STM32F0xx_HAL_Driver/Src/stm32f0xx_hal_i2c.c ****   }
1130:Drivers/STM32F0xx_HAL_Driver/Src/stm32f0xx_hal_i2c.c **** }
ARM GAS  /tmp/ccMxaoR5.s 			page 52


 1789              		.loc 1 1130 0
 1790 0214 1800     		movs	r0, r3
 1791 0216 BD46     		mov	sp, r7
 1792 0218 06B0     		add	sp, sp, #24
 1793              		@ sp needed
 1794 021a 80BD     		pop	{r7, pc}
 1795              	.L85:
 1796              		.align	2
 1797              	.L84:
 1798 021c FF7FFFFF 		.word	-32769
 1799              		.cfi_endproc
 1800              	.LFE42:
 1802              		.section	.text.HAL_I2C_Master_Transmit_IT,"ax",%progbits
 1803              		.align	1
 1804              		.global	HAL_I2C_Master_Transmit_IT
 1805              		.syntax unified
 1806              		.code	16
 1807              		.thumb_func
 1808              		.fpu softvfp
 1810              	HAL_I2C_Master_Transmit_IT:
 1811              	.LFB43:
1131:Drivers/STM32F0xx_HAL_Driver/Src/stm32f0xx_hal_i2c.c **** 
1132:Drivers/STM32F0xx_HAL_Driver/Src/stm32f0xx_hal_i2c.c **** /**
1133:Drivers/STM32F0xx_HAL_Driver/Src/stm32f0xx_hal_i2c.c ****   * @brief  Transmit in master mode an amount of data in non-blocking mode with Interrupt
1134:Drivers/STM32F0xx_HAL_Driver/Src/stm32f0xx_hal_i2c.c ****   * @param  hi2c Pointer to a I2C_HandleTypeDef structure that contains
1135:Drivers/STM32F0xx_HAL_Driver/Src/stm32f0xx_hal_i2c.c ****   *                the configuration information for the specified I2C.
1136:Drivers/STM32F0xx_HAL_Driver/Src/stm32f0xx_hal_i2c.c ****   * @param  DevAddress Target device address: The device 7 bits address value
1137:Drivers/STM32F0xx_HAL_Driver/Src/stm32f0xx_hal_i2c.c ****   *         in datasheet must be shift at right before call interface
1138:Drivers/STM32F0xx_HAL_Driver/Src/stm32f0xx_hal_i2c.c ****   * @param  pData Pointer to data buffer
1139:Drivers/STM32F0xx_HAL_Driver/Src/stm32f0xx_hal_i2c.c ****   * @param  Size Amount of data to be sent
1140:Drivers/STM32F0xx_HAL_Driver/Src/stm32f0xx_hal_i2c.c ****   * @retval HAL status
1141:Drivers/STM32F0xx_HAL_Driver/Src/stm32f0xx_hal_i2c.c ****   */
1142:Drivers/STM32F0xx_HAL_Driver/Src/stm32f0xx_hal_i2c.c **** HAL_StatusTypeDef HAL_I2C_Master_Transmit_IT(I2C_HandleTypeDef *hi2c, uint16_t DevAddress, uint8_t 
1143:Drivers/STM32F0xx_HAL_Driver/Src/stm32f0xx_hal_i2c.c **** {
 1812              		.loc 1 1143 0
 1813              		.cfi_startproc
 1814 0000 90B5     		push	{r4, r7, lr}
 1815              	.LCFI24:
 1816              		.cfi_def_cfa_offset 12
 1817              		.cfi_offset 4, -12
 1818              		.cfi_offset 7, -8
 1819              		.cfi_offset 14, -4
 1820 0002 89B0     		sub	sp, sp, #36
 1821              	.LCFI25:
 1822              		.cfi_def_cfa_offset 48
 1823 0004 02AF     		add	r7, sp, #8
 1824              	.LCFI26:
 1825              		.cfi_def_cfa 7, 40
 1826 0006 F860     		str	r0, [r7, #12]
 1827 0008 0800     		movs	r0, r1
 1828 000a 7A60     		str	r2, [r7, #4]
 1829 000c 1900     		movs	r1, r3
 1830 000e 0A23     		movs	r3, #10
 1831 0010 FB18     		adds	r3, r7, r3
 1832 0012 021C     		adds	r2, r0, #0
 1833 0014 1A80     		strh	r2, [r3]
 1834 0016 0823     		movs	r3, #8
ARM GAS  /tmp/ccMxaoR5.s 			page 53


 1835 0018 FB18     		adds	r3, r7, r3
 1836 001a 0A1C     		adds	r2, r1, #0
 1837 001c 1A80     		strh	r2, [r3]
1144:Drivers/STM32F0xx_HAL_Driver/Src/stm32f0xx_hal_i2c.c ****   uint32_t xfermode = 0U;
 1838              		.loc 1 1144 0
 1839 001e 0023     		movs	r3, #0
 1840 0020 7B61     		str	r3, [r7, #20]
1145:Drivers/STM32F0xx_HAL_Driver/Src/stm32f0xx_hal_i2c.c **** 
1146:Drivers/STM32F0xx_HAL_Driver/Src/stm32f0xx_hal_i2c.c ****   if(hi2c->State == HAL_I2C_STATE_READY)
 1841              		.loc 1 1146 0
 1842 0022 FB68     		ldr	r3, [r7, #12]
 1843 0024 4122     		movs	r2, #65
 1844 0026 9B5C     		ldrb	r3, [r3, r2]
 1845 0028 DBB2     		uxtb	r3, r3
 1846 002a 202B     		cmp	r3, #32
 1847 002c 5CD1     		bne	.L87
1147:Drivers/STM32F0xx_HAL_Driver/Src/stm32f0xx_hal_i2c.c ****   {
1148:Drivers/STM32F0xx_HAL_Driver/Src/stm32f0xx_hal_i2c.c ****     if(__HAL_I2C_GET_FLAG(hi2c, I2C_FLAG_BUSY) == SET)
 1848              		.loc 1 1148 0
 1849 002e FB68     		ldr	r3, [r7, #12]
 1850 0030 1B68     		ldr	r3, [r3]
 1851 0032 9A69     		ldr	r2, [r3, #24]
 1852 0034 8023     		movs	r3, #128
 1853 0036 1B02     		lsls	r3, r3, #8
 1854 0038 1A40     		ands	r2, r3
 1855 003a 8023     		movs	r3, #128
 1856 003c 1B02     		lsls	r3, r3, #8
 1857 003e 9A42     		cmp	r2, r3
 1858 0040 01D1     		bne	.L88
1149:Drivers/STM32F0xx_HAL_Driver/Src/stm32f0xx_hal_i2c.c ****     {
1150:Drivers/STM32F0xx_HAL_Driver/Src/stm32f0xx_hal_i2c.c ****       return HAL_BUSY;
 1859              		.loc 1 1150 0
 1860 0042 0223     		movs	r3, #2
 1861 0044 51E0     		b	.L89
 1862              	.L88:
1151:Drivers/STM32F0xx_HAL_Driver/Src/stm32f0xx_hal_i2c.c ****     }
1152:Drivers/STM32F0xx_HAL_Driver/Src/stm32f0xx_hal_i2c.c **** 
1153:Drivers/STM32F0xx_HAL_Driver/Src/stm32f0xx_hal_i2c.c ****     /* Process Locked */
1154:Drivers/STM32F0xx_HAL_Driver/Src/stm32f0xx_hal_i2c.c ****     __HAL_LOCK(hi2c);
 1863              		.loc 1 1154 0
 1864 0046 FB68     		ldr	r3, [r7, #12]
 1865 0048 4022     		movs	r2, #64
 1866 004a 9B5C     		ldrb	r3, [r3, r2]
 1867 004c 012B     		cmp	r3, #1
 1868 004e 01D1     		bne	.L90
 1869              		.loc 1 1154 0 is_stmt 0 discriminator 1
 1870 0050 0223     		movs	r3, #2
 1871 0052 4AE0     		b	.L89
 1872              	.L90:
 1873              		.loc 1 1154 0 discriminator 2
 1874 0054 FB68     		ldr	r3, [r7, #12]
 1875 0056 4022     		movs	r2, #64
 1876 0058 0121     		movs	r1, #1
 1877 005a 9954     		strb	r1, [r3, r2]
1155:Drivers/STM32F0xx_HAL_Driver/Src/stm32f0xx_hal_i2c.c **** 
1156:Drivers/STM32F0xx_HAL_Driver/Src/stm32f0xx_hal_i2c.c ****     hi2c->State = HAL_I2C_STATE_BUSY_TX;
 1878              		.loc 1 1156 0 is_stmt 1 discriminator 2
ARM GAS  /tmp/ccMxaoR5.s 			page 54


 1879 005c FB68     		ldr	r3, [r7, #12]
 1880 005e 4122     		movs	r2, #65
 1881 0060 2121     		movs	r1, #33
 1882 0062 9954     		strb	r1, [r3, r2]
1157:Drivers/STM32F0xx_HAL_Driver/Src/stm32f0xx_hal_i2c.c ****     hi2c->Mode = HAL_I2C_MODE_MASTER;
 1883              		.loc 1 1157 0 discriminator 2
 1884 0064 FB68     		ldr	r3, [r7, #12]
 1885 0066 4222     		movs	r2, #66
 1886 0068 1021     		movs	r1, #16
 1887 006a 9954     		strb	r1, [r3, r2]
1158:Drivers/STM32F0xx_HAL_Driver/Src/stm32f0xx_hal_i2c.c ****     hi2c->ErrorCode   = HAL_I2C_ERROR_NONE;
 1888              		.loc 1 1158 0 discriminator 2
 1889 006c FB68     		ldr	r3, [r7, #12]
 1890 006e 0022     		movs	r2, #0
 1891 0070 5A64     		str	r2, [r3, #68]
1159:Drivers/STM32F0xx_HAL_Driver/Src/stm32f0xx_hal_i2c.c **** 
1160:Drivers/STM32F0xx_HAL_Driver/Src/stm32f0xx_hal_i2c.c ****     /* Prepare transfer parameters */
1161:Drivers/STM32F0xx_HAL_Driver/Src/stm32f0xx_hal_i2c.c ****     hi2c->pBuffPtr = pData;
 1892              		.loc 1 1161 0 discriminator 2
 1893 0072 FB68     		ldr	r3, [r7, #12]
 1894 0074 7A68     		ldr	r2, [r7, #4]
 1895 0076 5A62     		str	r2, [r3, #36]
1162:Drivers/STM32F0xx_HAL_Driver/Src/stm32f0xx_hal_i2c.c ****     hi2c->XferCount = Size;
 1896              		.loc 1 1162 0 discriminator 2
 1897 0078 FB68     		ldr	r3, [r7, #12]
 1898 007a 0822     		movs	r2, #8
 1899 007c BA18     		adds	r2, r7, r2
 1900 007e 1288     		ldrh	r2, [r2]
 1901 0080 5A85     		strh	r2, [r3, #42]
1163:Drivers/STM32F0xx_HAL_Driver/Src/stm32f0xx_hal_i2c.c ****     hi2c->XferOptions = I2C_NO_OPTION_FRAME;
 1902              		.loc 1 1163 0 discriminator 2
 1903 0082 FB68     		ldr	r3, [r7, #12]
 1904 0084 1B4A     		ldr	r2, .L93
 1905 0086 DA62     		str	r2, [r3, #44]
1164:Drivers/STM32F0xx_HAL_Driver/Src/stm32f0xx_hal_i2c.c ****     hi2c->XferISR     = I2C_Master_ISR_IT;
 1906              		.loc 1 1164 0 discriminator 2
 1907 0088 FB68     		ldr	r3, [r7, #12]
 1908 008a 1B4A     		ldr	r2, .L93+4
 1909 008c 5A63     		str	r2, [r3, #52]
1165:Drivers/STM32F0xx_HAL_Driver/Src/stm32f0xx_hal_i2c.c **** 
1166:Drivers/STM32F0xx_HAL_Driver/Src/stm32f0xx_hal_i2c.c ****     if(hi2c->XferCount > MAX_NBYTE_SIZE)
 1910              		.loc 1 1166 0 discriminator 2
 1911 008e FB68     		ldr	r3, [r7, #12]
 1912 0090 5B8D     		ldrh	r3, [r3, #42]
 1913 0092 9BB2     		uxth	r3, r3
 1914 0094 FF2B     		cmp	r3, #255
 1915 0096 06D9     		bls	.L91
1167:Drivers/STM32F0xx_HAL_Driver/Src/stm32f0xx_hal_i2c.c ****     {
1168:Drivers/STM32F0xx_HAL_Driver/Src/stm32f0xx_hal_i2c.c ****       hi2c->XferSize = MAX_NBYTE_SIZE;
 1916              		.loc 1 1168 0
 1917 0098 FB68     		ldr	r3, [r7, #12]
 1918 009a FF22     		movs	r2, #255
 1919 009c 1A85     		strh	r2, [r3, #40]
1169:Drivers/STM32F0xx_HAL_Driver/Src/stm32f0xx_hal_i2c.c ****       xfermode = I2C_RELOAD_MODE;
 1920              		.loc 1 1169 0
 1921 009e 8023     		movs	r3, #128
 1922 00a0 5B04     		lsls	r3, r3, #17
ARM GAS  /tmp/ccMxaoR5.s 			page 55


 1923 00a2 7B61     		str	r3, [r7, #20]
 1924 00a4 07E0     		b	.L92
 1925              	.L91:
1170:Drivers/STM32F0xx_HAL_Driver/Src/stm32f0xx_hal_i2c.c ****     }
1171:Drivers/STM32F0xx_HAL_Driver/Src/stm32f0xx_hal_i2c.c ****     else
1172:Drivers/STM32F0xx_HAL_Driver/Src/stm32f0xx_hal_i2c.c ****     {
1173:Drivers/STM32F0xx_HAL_Driver/Src/stm32f0xx_hal_i2c.c ****       hi2c->XferSize = hi2c->XferCount;
 1926              		.loc 1 1173 0
 1927 00a6 FB68     		ldr	r3, [r7, #12]
 1928 00a8 5B8D     		ldrh	r3, [r3, #42]
 1929 00aa 9AB2     		uxth	r2, r3
 1930 00ac FB68     		ldr	r3, [r7, #12]
 1931 00ae 1A85     		strh	r2, [r3, #40]
1174:Drivers/STM32F0xx_HAL_Driver/Src/stm32f0xx_hal_i2c.c ****       xfermode = I2C_AUTOEND_MODE;
 1932              		.loc 1 1174 0
 1933 00b0 8023     		movs	r3, #128
 1934 00b2 9B04     		lsls	r3, r3, #18
 1935 00b4 7B61     		str	r3, [r7, #20]
 1936              	.L92:
1175:Drivers/STM32F0xx_HAL_Driver/Src/stm32f0xx_hal_i2c.c ****     }
1176:Drivers/STM32F0xx_HAL_Driver/Src/stm32f0xx_hal_i2c.c **** 
1177:Drivers/STM32F0xx_HAL_Driver/Src/stm32f0xx_hal_i2c.c ****     /* Send Slave Address */
1178:Drivers/STM32F0xx_HAL_Driver/Src/stm32f0xx_hal_i2c.c ****     /* Set NBYTES to write and reload if hi2c->XferCount > MAX_NBYTE_SIZE */
1179:Drivers/STM32F0xx_HAL_Driver/Src/stm32f0xx_hal_i2c.c ****     I2C_TransferConfig(hi2c, DevAddress, hi2c->XferSize, xfermode, I2C_GENERATE_START_WRITE);
 1937              		.loc 1 1179 0
 1938 00b6 FB68     		ldr	r3, [r7, #12]
 1939 00b8 1B8D     		ldrh	r3, [r3, #40]
 1940 00ba DAB2     		uxtb	r2, r3
 1941 00bc 7C69     		ldr	r4, [r7, #20]
 1942 00be 0A23     		movs	r3, #10
 1943 00c0 FB18     		adds	r3, r7, r3
 1944 00c2 1988     		ldrh	r1, [r3]
 1945 00c4 F868     		ldr	r0, [r7, #12]
 1946 00c6 8023     		movs	r3, #128
 1947 00c8 9B01     		lsls	r3, r3, #6
 1948 00ca 0093     		str	r3, [sp]
 1949 00cc 2300     		movs	r3, r4
 1950 00ce FFF7FEFF 		bl	I2C_TransferConfig
1180:Drivers/STM32F0xx_HAL_Driver/Src/stm32f0xx_hal_i2c.c **** 
1181:Drivers/STM32F0xx_HAL_Driver/Src/stm32f0xx_hal_i2c.c ****     /* Process Unlocked */
1182:Drivers/STM32F0xx_HAL_Driver/Src/stm32f0xx_hal_i2c.c ****     __HAL_UNLOCK(hi2c); 
 1951              		.loc 1 1182 0
 1952 00d2 FB68     		ldr	r3, [r7, #12]
 1953 00d4 4022     		movs	r2, #64
 1954 00d6 0021     		movs	r1, #0
 1955 00d8 9954     		strb	r1, [r3, r2]
1183:Drivers/STM32F0xx_HAL_Driver/Src/stm32f0xx_hal_i2c.c **** 
1184:Drivers/STM32F0xx_HAL_Driver/Src/stm32f0xx_hal_i2c.c ****     /* Note : The I2C interrupts must be enabled after unlocking current process 
1185:Drivers/STM32F0xx_HAL_Driver/Src/stm32f0xx_hal_i2c.c ****               to avoid the risk of I2C interrupt handle execution before current
1186:Drivers/STM32F0xx_HAL_Driver/Src/stm32f0xx_hal_i2c.c ****               process unlock */
1187:Drivers/STM32F0xx_HAL_Driver/Src/stm32f0xx_hal_i2c.c **** 
1188:Drivers/STM32F0xx_HAL_Driver/Src/stm32f0xx_hal_i2c.c ****     /* Enable ERR, TC, STOP, NACK, TXI interrupt */
1189:Drivers/STM32F0xx_HAL_Driver/Src/stm32f0xx_hal_i2c.c ****     /* possible to enable all of these */
1190:Drivers/STM32F0xx_HAL_Driver/Src/stm32f0xx_hal_i2c.c ****     /* I2C_IT_ERRI | I2C_IT_TCI| I2C_IT_STOPI| I2C_IT_NACKI | I2C_IT_ADDRI | I2C_IT_RXI | I2C_IT_TX
1191:Drivers/STM32F0xx_HAL_Driver/Src/stm32f0xx_hal_i2c.c ****     I2C_Enable_IRQ(hi2c, I2C_XFER_TX_IT);
 1956              		.loc 1 1191 0
 1957 00da FB68     		ldr	r3, [r7, #12]
ARM GAS  /tmp/ccMxaoR5.s 			page 56


 1958 00dc 0121     		movs	r1, #1
 1959 00de 1800     		movs	r0, r3
 1960 00e0 FFF7FEFF 		bl	I2C_Enable_IRQ
1192:Drivers/STM32F0xx_HAL_Driver/Src/stm32f0xx_hal_i2c.c **** 
1193:Drivers/STM32F0xx_HAL_Driver/Src/stm32f0xx_hal_i2c.c ****     return HAL_OK;
 1961              		.loc 1 1193 0
 1962 00e4 0023     		movs	r3, #0
 1963 00e6 00E0     		b	.L89
 1964              	.L87:
1194:Drivers/STM32F0xx_HAL_Driver/Src/stm32f0xx_hal_i2c.c ****   }
1195:Drivers/STM32F0xx_HAL_Driver/Src/stm32f0xx_hal_i2c.c ****   else
1196:Drivers/STM32F0xx_HAL_Driver/Src/stm32f0xx_hal_i2c.c ****   {
1197:Drivers/STM32F0xx_HAL_Driver/Src/stm32f0xx_hal_i2c.c ****     return HAL_BUSY;
 1965              		.loc 1 1197 0
 1966 00e8 0223     		movs	r3, #2
 1967              	.L89:
1198:Drivers/STM32F0xx_HAL_Driver/Src/stm32f0xx_hal_i2c.c ****   } 
1199:Drivers/STM32F0xx_HAL_Driver/Src/stm32f0xx_hal_i2c.c **** }
 1968              		.loc 1 1199 0
 1969 00ea 1800     		movs	r0, r3
 1970 00ec BD46     		mov	sp, r7
 1971 00ee 07B0     		add	sp, sp, #28
 1972              		@ sp needed
 1973 00f0 90BD     		pop	{r4, r7, pc}
 1974              	.L94:
 1975 00f2 C046     		.align	2
 1976              	.L93:
 1977 00f4 0000FFFF 		.word	-65536
 1978 00f8 00000000 		.word	I2C_Master_ISR_IT
 1979              		.cfi_endproc
 1980              	.LFE43:
 1982              		.section	.text.HAL_I2C_Master_Receive_IT,"ax",%progbits
 1983              		.align	1
 1984              		.global	HAL_I2C_Master_Receive_IT
 1985              		.syntax unified
 1986              		.code	16
 1987              		.thumb_func
 1988              		.fpu softvfp
 1990              	HAL_I2C_Master_Receive_IT:
 1991              	.LFB44:
1200:Drivers/STM32F0xx_HAL_Driver/Src/stm32f0xx_hal_i2c.c **** 
1201:Drivers/STM32F0xx_HAL_Driver/Src/stm32f0xx_hal_i2c.c **** /**
1202:Drivers/STM32F0xx_HAL_Driver/Src/stm32f0xx_hal_i2c.c ****   * @brief  Receive in master mode an amount of data in non-blocking mode with Interrupt
1203:Drivers/STM32F0xx_HAL_Driver/Src/stm32f0xx_hal_i2c.c ****   * @param  hi2c Pointer to a I2C_HandleTypeDef structure that contains
1204:Drivers/STM32F0xx_HAL_Driver/Src/stm32f0xx_hal_i2c.c ****   *                the configuration information for the specified I2C.
1205:Drivers/STM32F0xx_HAL_Driver/Src/stm32f0xx_hal_i2c.c ****   * @param  DevAddress Target device address: The device 7 bits address value
1206:Drivers/STM32F0xx_HAL_Driver/Src/stm32f0xx_hal_i2c.c ****   *         in datasheet must be shift at right before call interface
1207:Drivers/STM32F0xx_HAL_Driver/Src/stm32f0xx_hal_i2c.c ****   * @param  pData Pointer to data buffer
1208:Drivers/STM32F0xx_HAL_Driver/Src/stm32f0xx_hal_i2c.c ****   * @param  Size Amount of data to be sent
1209:Drivers/STM32F0xx_HAL_Driver/Src/stm32f0xx_hal_i2c.c ****   * @retval HAL status
1210:Drivers/STM32F0xx_HAL_Driver/Src/stm32f0xx_hal_i2c.c ****   */
1211:Drivers/STM32F0xx_HAL_Driver/Src/stm32f0xx_hal_i2c.c **** HAL_StatusTypeDef HAL_I2C_Master_Receive_IT(I2C_HandleTypeDef *hi2c, uint16_t DevAddress, uint8_t *
1212:Drivers/STM32F0xx_HAL_Driver/Src/stm32f0xx_hal_i2c.c **** {
 1992              		.loc 1 1212 0
 1993              		.cfi_startproc
 1994 0000 90B5     		push	{r4, r7, lr}
 1995              	.LCFI27:
ARM GAS  /tmp/ccMxaoR5.s 			page 57


 1996              		.cfi_def_cfa_offset 12
 1997              		.cfi_offset 4, -12
 1998              		.cfi_offset 7, -8
 1999              		.cfi_offset 14, -4
 2000 0002 89B0     		sub	sp, sp, #36
 2001              	.LCFI28:
 2002              		.cfi_def_cfa_offset 48
 2003 0004 02AF     		add	r7, sp, #8
 2004              	.LCFI29:
 2005              		.cfi_def_cfa 7, 40
 2006 0006 F860     		str	r0, [r7, #12]
 2007 0008 0800     		movs	r0, r1
 2008 000a 7A60     		str	r2, [r7, #4]
 2009 000c 1900     		movs	r1, r3
 2010 000e 0A23     		movs	r3, #10
 2011 0010 FB18     		adds	r3, r7, r3
 2012 0012 021C     		adds	r2, r0, #0
 2013 0014 1A80     		strh	r2, [r3]
 2014 0016 0823     		movs	r3, #8
 2015 0018 FB18     		adds	r3, r7, r3
 2016 001a 0A1C     		adds	r2, r1, #0
 2017 001c 1A80     		strh	r2, [r3]
1213:Drivers/STM32F0xx_HAL_Driver/Src/stm32f0xx_hal_i2c.c ****   uint32_t xfermode = 0U;
 2018              		.loc 1 1213 0
 2019 001e 0023     		movs	r3, #0
 2020 0020 7B61     		str	r3, [r7, #20]
1214:Drivers/STM32F0xx_HAL_Driver/Src/stm32f0xx_hal_i2c.c **** 
1215:Drivers/STM32F0xx_HAL_Driver/Src/stm32f0xx_hal_i2c.c ****   if(hi2c->State == HAL_I2C_STATE_READY)
 2021              		.loc 1 1215 0
 2022 0022 FB68     		ldr	r3, [r7, #12]
 2023 0024 4122     		movs	r2, #65
 2024 0026 9B5C     		ldrb	r3, [r3, r2]
 2025 0028 DBB2     		uxtb	r3, r3
 2026 002a 202B     		cmp	r3, #32
 2027 002c 5CD1     		bne	.L96
1216:Drivers/STM32F0xx_HAL_Driver/Src/stm32f0xx_hal_i2c.c ****   {
1217:Drivers/STM32F0xx_HAL_Driver/Src/stm32f0xx_hal_i2c.c ****     if(__HAL_I2C_GET_FLAG(hi2c, I2C_FLAG_BUSY) == SET)
 2028              		.loc 1 1217 0
 2029 002e FB68     		ldr	r3, [r7, #12]
 2030 0030 1B68     		ldr	r3, [r3]
 2031 0032 9A69     		ldr	r2, [r3, #24]
 2032 0034 8023     		movs	r3, #128
 2033 0036 1B02     		lsls	r3, r3, #8
 2034 0038 1A40     		ands	r2, r3
 2035 003a 8023     		movs	r3, #128
 2036 003c 1B02     		lsls	r3, r3, #8
 2037 003e 9A42     		cmp	r2, r3
 2038 0040 01D1     		bne	.L97
1218:Drivers/STM32F0xx_HAL_Driver/Src/stm32f0xx_hal_i2c.c ****     {
1219:Drivers/STM32F0xx_HAL_Driver/Src/stm32f0xx_hal_i2c.c ****       return HAL_BUSY;
 2039              		.loc 1 1219 0
 2040 0042 0223     		movs	r3, #2
 2041 0044 51E0     		b	.L98
 2042              	.L97:
1220:Drivers/STM32F0xx_HAL_Driver/Src/stm32f0xx_hal_i2c.c ****     }
1221:Drivers/STM32F0xx_HAL_Driver/Src/stm32f0xx_hal_i2c.c **** 
1222:Drivers/STM32F0xx_HAL_Driver/Src/stm32f0xx_hal_i2c.c ****     /* Process Locked */
ARM GAS  /tmp/ccMxaoR5.s 			page 58


1223:Drivers/STM32F0xx_HAL_Driver/Src/stm32f0xx_hal_i2c.c ****     __HAL_LOCK(hi2c);
 2043              		.loc 1 1223 0
 2044 0046 FB68     		ldr	r3, [r7, #12]
 2045 0048 4022     		movs	r2, #64
 2046 004a 9B5C     		ldrb	r3, [r3, r2]
 2047 004c 012B     		cmp	r3, #1
 2048 004e 01D1     		bne	.L99
 2049              		.loc 1 1223 0 is_stmt 0 discriminator 1
 2050 0050 0223     		movs	r3, #2
 2051 0052 4AE0     		b	.L98
 2052              	.L99:
 2053              		.loc 1 1223 0 discriminator 2
 2054 0054 FB68     		ldr	r3, [r7, #12]
 2055 0056 4022     		movs	r2, #64
 2056 0058 0121     		movs	r1, #1
 2057 005a 9954     		strb	r1, [r3, r2]
1224:Drivers/STM32F0xx_HAL_Driver/Src/stm32f0xx_hal_i2c.c **** 
1225:Drivers/STM32F0xx_HAL_Driver/Src/stm32f0xx_hal_i2c.c ****     hi2c->State = HAL_I2C_STATE_BUSY_RX;
 2058              		.loc 1 1225 0 is_stmt 1 discriminator 2
 2059 005c FB68     		ldr	r3, [r7, #12]
 2060 005e 4122     		movs	r2, #65
 2061 0060 2221     		movs	r1, #34
 2062 0062 9954     		strb	r1, [r3, r2]
1226:Drivers/STM32F0xx_HAL_Driver/Src/stm32f0xx_hal_i2c.c ****     hi2c->Mode = HAL_I2C_MODE_MASTER;
 2063              		.loc 1 1226 0 discriminator 2
 2064 0064 FB68     		ldr	r3, [r7, #12]
 2065 0066 4222     		movs	r2, #66
 2066 0068 1021     		movs	r1, #16
 2067 006a 9954     		strb	r1, [r3, r2]
1227:Drivers/STM32F0xx_HAL_Driver/Src/stm32f0xx_hal_i2c.c ****     hi2c->ErrorCode   = HAL_I2C_ERROR_NONE;
 2068              		.loc 1 1227 0 discriminator 2
 2069 006c FB68     		ldr	r3, [r7, #12]
 2070 006e 0022     		movs	r2, #0
 2071 0070 5A64     		str	r2, [r3, #68]
1228:Drivers/STM32F0xx_HAL_Driver/Src/stm32f0xx_hal_i2c.c **** 
1229:Drivers/STM32F0xx_HAL_Driver/Src/stm32f0xx_hal_i2c.c ****     /* Prepare transfer parameters */
1230:Drivers/STM32F0xx_HAL_Driver/Src/stm32f0xx_hal_i2c.c ****     hi2c->pBuffPtr = pData;
 2072              		.loc 1 1230 0 discriminator 2
 2073 0072 FB68     		ldr	r3, [r7, #12]
 2074 0074 7A68     		ldr	r2, [r7, #4]
 2075 0076 5A62     		str	r2, [r3, #36]
1231:Drivers/STM32F0xx_HAL_Driver/Src/stm32f0xx_hal_i2c.c ****     hi2c->XferCount = Size;
 2076              		.loc 1 1231 0 discriminator 2
 2077 0078 FB68     		ldr	r3, [r7, #12]
 2078 007a 0822     		movs	r2, #8
 2079 007c BA18     		adds	r2, r7, r2
 2080 007e 1288     		ldrh	r2, [r2]
 2081 0080 5A85     		strh	r2, [r3, #42]
1232:Drivers/STM32F0xx_HAL_Driver/Src/stm32f0xx_hal_i2c.c ****     hi2c->XferOptions = I2C_NO_OPTION_FRAME;
 2082              		.loc 1 1232 0 discriminator 2
 2083 0082 FB68     		ldr	r3, [r7, #12]
 2084 0084 1B4A     		ldr	r2, .L102
 2085 0086 DA62     		str	r2, [r3, #44]
1233:Drivers/STM32F0xx_HAL_Driver/Src/stm32f0xx_hal_i2c.c ****     hi2c->XferISR     = I2C_Master_ISR_IT;
 2086              		.loc 1 1233 0 discriminator 2
 2087 0088 FB68     		ldr	r3, [r7, #12]
 2088 008a 1B4A     		ldr	r2, .L102+4
ARM GAS  /tmp/ccMxaoR5.s 			page 59


 2089 008c 5A63     		str	r2, [r3, #52]
1234:Drivers/STM32F0xx_HAL_Driver/Src/stm32f0xx_hal_i2c.c **** 
1235:Drivers/STM32F0xx_HAL_Driver/Src/stm32f0xx_hal_i2c.c ****     if(hi2c->XferCount > MAX_NBYTE_SIZE)
 2090              		.loc 1 1235 0 discriminator 2
 2091 008e FB68     		ldr	r3, [r7, #12]
 2092 0090 5B8D     		ldrh	r3, [r3, #42]
 2093 0092 9BB2     		uxth	r3, r3
 2094 0094 FF2B     		cmp	r3, #255
 2095 0096 06D9     		bls	.L100
1236:Drivers/STM32F0xx_HAL_Driver/Src/stm32f0xx_hal_i2c.c ****     {
1237:Drivers/STM32F0xx_HAL_Driver/Src/stm32f0xx_hal_i2c.c ****       hi2c->XferSize = MAX_NBYTE_SIZE;
 2096              		.loc 1 1237 0
 2097 0098 FB68     		ldr	r3, [r7, #12]
 2098 009a FF22     		movs	r2, #255
 2099 009c 1A85     		strh	r2, [r3, #40]
1238:Drivers/STM32F0xx_HAL_Driver/Src/stm32f0xx_hal_i2c.c ****       xfermode = I2C_RELOAD_MODE;
 2100              		.loc 1 1238 0
 2101 009e 8023     		movs	r3, #128
 2102 00a0 5B04     		lsls	r3, r3, #17
 2103 00a2 7B61     		str	r3, [r7, #20]
 2104 00a4 07E0     		b	.L101
 2105              	.L100:
1239:Drivers/STM32F0xx_HAL_Driver/Src/stm32f0xx_hal_i2c.c ****     }
1240:Drivers/STM32F0xx_HAL_Driver/Src/stm32f0xx_hal_i2c.c ****     else
1241:Drivers/STM32F0xx_HAL_Driver/Src/stm32f0xx_hal_i2c.c ****     {
1242:Drivers/STM32F0xx_HAL_Driver/Src/stm32f0xx_hal_i2c.c ****       hi2c->XferSize = hi2c->XferCount;
 2106              		.loc 1 1242 0
 2107 00a6 FB68     		ldr	r3, [r7, #12]
 2108 00a8 5B8D     		ldrh	r3, [r3, #42]
 2109 00aa 9AB2     		uxth	r2, r3
 2110 00ac FB68     		ldr	r3, [r7, #12]
 2111 00ae 1A85     		strh	r2, [r3, #40]
1243:Drivers/STM32F0xx_HAL_Driver/Src/stm32f0xx_hal_i2c.c ****       xfermode = I2C_AUTOEND_MODE;
 2112              		.loc 1 1243 0
 2113 00b0 8023     		movs	r3, #128
 2114 00b2 9B04     		lsls	r3, r3, #18
 2115 00b4 7B61     		str	r3, [r7, #20]
 2116              	.L101:
1244:Drivers/STM32F0xx_HAL_Driver/Src/stm32f0xx_hal_i2c.c ****     }
1245:Drivers/STM32F0xx_HAL_Driver/Src/stm32f0xx_hal_i2c.c **** 
1246:Drivers/STM32F0xx_HAL_Driver/Src/stm32f0xx_hal_i2c.c ****     /* Send Slave Address */
1247:Drivers/STM32F0xx_HAL_Driver/Src/stm32f0xx_hal_i2c.c ****     /* Set NBYTES to write and reload if hi2c->XferCount > MAX_NBYTE_SIZE */
1248:Drivers/STM32F0xx_HAL_Driver/Src/stm32f0xx_hal_i2c.c ****     I2C_TransferConfig(hi2c, DevAddress, hi2c->XferSize, xfermode, I2C_GENERATE_START_READ);
 2117              		.loc 1 1248 0
 2118 00b6 FB68     		ldr	r3, [r7, #12]
 2119 00b8 1B8D     		ldrh	r3, [r3, #40]
 2120 00ba DAB2     		uxtb	r2, r3
 2121 00bc 7C69     		ldr	r4, [r7, #20]
 2122 00be 0A23     		movs	r3, #10
 2123 00c0 FB18     		adds	r3, r7, r3
 2124 00c2 1988     		ldrh	r1, [r3]
 2125 00c4 F868     		ldr	r0, [r7, #12]
 2126 00c6 9023     		movs	r3, #144
 2127 00c8 9B01     		lsls	r3, r3, #6
 2128 00ca 0093     		str	r3, [sp]
 2129 00cc 2300     		movs	r3, r4
 2130 00ce FFF7FEFF 		bl	I2C_TransferConfig
ARM GAS  /tmp/ccMxaoR5.s 			page 60


1249:Drivers/STM32F0xx_HAL_Driver/Src/stm32f0xx_hal_i2c.c **** 
1250:Drivers/STM32F0xx_HAL_Driver/Src/stm32f0xx_hal_i2c.c ****     /* Process Unlocked */
1251:Drivers/STM32F0xx_HAL_Driver/Src/stm32f0xx_hal_i2c.c ****     __HAL_UNLOCK(hi2c); 
 2131              		.loc 1 1251 0
 2132 00d2 FB68     		ldr	r3, [r7, #12]
 2133 00d4 4022     		movs	r2, #64
 2134 00d6 0021     		movs	r1, #0
 2135 00d8 9954     		strb	r1, [r3, r2]
1252:Drivers/STM32F0xx_HAL_Driver/Src/stm32f0xx_hal_i2c.c **** 
1253:Drivers/STM32F0xx_HAL_Driver/Src/stm32f0xx_hal_i2c.c ****     /* Note : The I2C interrupts must be enabled after unlocking current process 
1254:Drivers/STM32F0xx_HAL_Driver/Src/stm32f0xx_hal_i2c.c ****               to avoid the risk of I2C interrupt handle execution before current
1255:Drivers/STM32F0xx_HAL_Driver/Src/stm32f0xx_hal_i2c.c ****               process unlock */
1256:Drivers/STM32F0xx_HAL_Driver/Src/stm32f0xx_hal_i2c.c **** 
1257:Drivers/STM32F0xx_HAL_Driver/Src/stm32f0xx_hal_i2c.c ****     /* Enable ERR, TC, STOP, NACK, RXI interrupt */
1258:Drivers/STM32F0xx_HAL_Driver/Src/stm32f0xx_hal_i2c.c ****     /* possible to enable all of these */
1259:Drivers/STM32F0xx_HAL_Driver/Src/stm32f0xx_hal_i2c.c ****     /* I2C_IT_ERRI | I2C_IT_TCI| I2C_IT_STOPI| I2C_IT_NACKI | I2C_IT_ADDRI | I2C_IT_RXI | I2C_IT_TX
1260:Drivers/STM32F0xx_HAL_Driver/Src/stm32f0xx_hal_i2c.c ****     I2C_Enable_IRQ(hi2c, I2C_XFER_RX_IT);
 2136              		.loc 1 1260 0
 2137 00da FB68     		ldr	r3, [r7, #12]
 2138 00dc 0221     		movs	r1, #2
 2139 00de 1800     		movs	r0, r3
 2140 00e0 FFF7FEFF 		bl	I2C_Enable_IRQ
1261:Drivers/STM32F0xx_HAL_Driver/Src/stm32f0xx_hal_i2c.c **** 
1262:Drivers/STM32F0xx_HAL_Driver/Src/stm32f0xx_hal_i2c.c ****     return HAL_OK;
 2141              		.loc 1 1262 0
 2142 00e4 0023     		movs	r3, #0
 2143 00e6 00E0     		b	.L98
 2144              	.L96:
1263:Drivers/STM32F0xx_HAL_Driver/Src/stm32f0xx_hal_i2c.c ****   }
1264:Drivers/STM32F0xx_HAL_Driver/Src/stm32f0xx_hal_i2c.c ****   else
1265:Drivers/STM32F0xx_HAL_Driver/Src/stm32f0xx_hal_i2c.c ****   {
1266:Drivers/STM32F0xx_HAL_Driver/Src/stm32f0xx_hal_i2c.c ****     return HAL_BUSY; 
 2145              		.loc 1 1266 0
 2146 00e8 0223     		movs	r3, #2
 2147              	.L98:
1267:Drivers/STM32F0xx_HAL_Driver/Src/stm32f0xx_hal_i2c.c ****   }
1268:Drivers/STM32F0xx_HAL_Driver/Src/stm32f0xx_hal_i2c.c **** }
 2148              		.loc 1 1268 0
 2149 00ea 1800     		movs	r0, r3
 2150 00ec BD46     		mov	sp, r7
 2151 00ee 07B0     		add	sp, sp, #28
 2152              		@ sp needed
 2153 00f0 90BD     		pop	{r4, r7, pc}
 2154              	.L103:
 2155 00f2 C046     		.align	2
 2156              	.L102:
 2157 00f4 0000FFFF 		.word	-65536
 2158 00f8 00000000 		.word	I2C_Master_ISR_IT
 2159              		.cfi_endproc
 2160              	.LFE44:
 2162              		.section	.text.HAL_I2C_Slave_Transmit_IT,"ax",%progbits
 2163              		.align	1
 2164              		.global	HAL_I2C_Slave_Transmit_IT
 2165              		.syntax unified
 2166              		.code	16
 2167              		.thumb_func
 2168              		.fpu softvfp
ARM GAS  /tmp/ccMxaoR5.s 			page 61


 2170              	HAL_I2C_Slave_Transmit_IT:
 2171              	.LFB45:
1269:Drivers/STM32F0xx_HAL_Driver/Src/stm32f0xx_hal_i2c.c **** 
1270:Drivers/STM32F0xx_HAL_Driver/Src/stm32f0xx_hal_i2c.c **** /**
1271:Drivers/STM32F0xx_HAL_Driver/Src/stm32f0xx_hal_i2c.c ****   * @brief  Transmit in slave mode an amount of data in non-blocking mode with Interrupt 
1272:Drivers/STM32F0xx_HAL_Driver/Src/stm32f0xx_hal_i2c.c ****   * @param  hi2c Pointer to a I2C_HandleTypeDef structure that contains
1273:Drivers/STM32F0xx_HAL_Driver/Src/stm32f0xx_hal_i2c.c ****   *                the configuration information for the specified I2C.
1274:Drivers/STM32F0xx_HAL_Driver/Src/stm32f0xx_hal_i2c.c ****   * @param  pData Pointer to data buffer
1275:Drivers/STM32F0xx_HAL_Driver/Src/stm32f0xx_hal_i2c.c ****   * @param  Size Amount of data to be sent
1276:Drivers/STM32F0xx_HAL_Driver/Src/stm32f0xx_hal_i2c.c ****   * @retval HAL status
1277:Drivers/STM32F0xx_HAL_Driver/Src/stm32f0xx_hal_i2c.c ****   */
1278:Drivers/STM32F0xx_HAL_Driver/Src/stm32f0xx_hal_i2c.c **** HAL_StatusTypeDef HAL_I2C_Slave_Transmit_IT(I2C_HandleTypeDef *hi2c, uint8_t *pData, uint16_t Size)
1279:Drivers/STM32F0xx_HAL_Driver/Src/stm32f0xx_hal_i2c.c **** {
 2172              		.loc 1 1279 0
 2173              		.cfi_startproc
 2174 0000 80B5     		push	{r7, lr}
 2175              	.LCFI30:
 2176              		.cfi_def_cfa_offset 8
 2177              		.cfi_offset 7, -8
 2178              		.cfi_offset 14, -4
 2179 0002 84B0     		sub	sp, sp, #16
 2180              	.LCFI31:
 2181              		.cfi_def_cfa_offset 24
 2182 0004 00AF     		add	r7, sp, #0
 2183              	.LCFI32:
 2184              		.cfi_def_cfa_register 7
 2185 0006 F860     		str	r0, [r7, #12]
 2186 0008 B960     		str	r1, [r7, #8]
 2187 000a BB1D     		adds	r3, r7, #6
 2188 000c 1A80     		strh	r2, [r3]
1280:Drivers/STM32F0xx_HAL_Driver/Src/stm32f0xx_hal_i2c.c ****   if(hi2c->State == HAL_I2C_STATE_READY)
 2189              		.loc 1 1280 0
 2190 000e FB68     		ldr	r3, [r7, #12]
 2191 0010 4122     		movs	r2, #65
 2192 0012 9B5C     		ldrb	r3, [r3, r2]
 2193 0014 DBB2     		uxtb	r3, r3
 2194 0016 202B     		cmp	r3, #32
 2195 0018 3AD1     		bne	.L105
1281:Drivers/STM32F0xx_HAL_Driver/Src/stm32f0xx_hal_i2c.c ****   {
1282:Drivers/STM32F0xx_HAL_Driver/Src/stm32f0xx_hal_i2c.c ****     /* Process Locked */
1283:Drivers/STM32F0xx_HAL_Driver/Src/stm32f0xx_hal_i2c.c ****     __HAL_LOCK(hi2c);
 2196              		.loc 1 1283 0
 2197 001a FB68     		ldr	r3, [r7, #12]
 2198 001c 4022     		movs	r2, #64
 2199 001e 9B5C     		ldrb	r3, [r3, r2]
 2200 0020 012B     		cmp	r3, #1
 2201 0022 01D1     		bne	.L106
 2202              		.loc 1 1283 0 is_stmt 0 discriminator 1
 2203 0024 0223     		movs	r3, #2
 2204 0026 34E0     		b	.L107
 2205              	.L106:
 2206              		.loc 1 1283 0 discriminator 2
 2207 0028 FB68     		ldr	r3, [r7, #12]
 2208 002a 4022     		movs	r2, #64
 2209 002c 0121     		movs	r1, #1
 2210 002e 9954     		strb	r1, [r3, r2]
1284:Drivers/STM32F0xx_HAL_Driver/Src/stm32f0xx_hal_i2c.c **** 
ARM GAS  /tmp/ccMxaoR5.s 			page 62


1285:Drivers/STM32F0xx_HAL_Driver/Src/stm32f0xx_hal_i2c.c ****     hi2c->State = HAL_I2C_STATE_BUSY_TX;
 2211              		.loc 1 1285 0 is_stmt 1 discriminator 2
 2212 0030 FB68     		ldr	r3, [r7, #12]
 2213 0032 4122     		movs	r2, #65
 2214 0034 2121     		movs	r1, #33
 2215 0036 9954     		strb	r1, [r3, r2]
1286:Drivers/STM32F0xx_HAL_Driver/Src/stm32f0xx_hal_i2c.c ****     hi2c->Mode = HAL_I2C_MODE_SLAVE;
 2216              		.loc 1 1286 0 discriminator 2
 2217 0038 FB68     		ldr	r3, [r7, #12]
 2218 003a 4222     		movs	r2, #66
 2219 003c 2021     		movs	r1, #32
 2220 003e 9954     		strb	r1, [r3, r2]
1287:Drivers/STM32F0xx_HAL_Driver/Src/stm32f0xx_hal_i2c.c ****     hi2c->ErrorCode   = HAL_I2C_ERROR_NONE;
 2221              		.loc 1 1287 0 discriminator 2
 2222 0040 FB68     		ldr	r3, [r7, #12]
 2223 0042 0022     		movs	r2, #0
 2224 0044 5A64     		str	r2, [r3, #68]
1288:Drivers/STM32F0xx_HAL_Driver/Src/stm32f0xx_hal_i2c.c ****     
1289:Drivers/STM32F0xx_HAL_Driver/Src/stm32f0xx_hal_i2c.c ****     /* Enable Address Acknowledge */
1290:Drivers/STM32F0xx_HAL_Driver/Src/stm32f0xx_hal_i2c.c ****     hi2c->Instance->CR2 &= ~I2C_CR2_NACK;
 2225              		.loc 1 1290 0 discriminator 2
 2226 0046 FB68     		ldr	r3, [r7, #12]
 2227 0048 1B68     		ldr	r3, [r3]
 2228 004a FA68     		ldr	r2, [r7, #12]
 2229 004c 1268     		ldr	r2, [r2]
 2230 004e 5268     		ldr	r2, [r2, #4]
 2231 0050 1249     		ldr	r1, .L108
 2232 0052 0A40     		ands	r2, r1
 2233 0054 5A60     		str	r2, [r3, #4]
1291:Drivers/STM32F0xx_HAL_Driver/Src/stm32f0xx_hal_i2c.c **** 
1292:Drivers/STM32F0xx_HAL_Driver/Src/stm32f0xx_hal_i2c.c ****     /* Prepare transfer parameters */
1293:Drivers/STM32F0xx_HAL_Driver/Src/stm32f0xx_hal_i2c.c ****     hi2c->pBuffPtr = pData;
 2234              		.loc 1 1293 0 discriminator 2
 2235 0056 FB68     		ldr	r3, [r7, #12]
 2236 0058 BA68     		ldr	r2, [r7, #8]
 2237 005a 5A62     		str	r2, [r3, #36]
1294:Drivers/STM32F0xx_HAL_Driver/Src/stm32f0xx_hal_i2c.c ****     hi2c->XferCount = Size;
 2238              		.loc 1 1294 0 discriminator 2
 2239 005c FB68     		ldr	r3, [r7, #12]
 2240 005e BA1D     		adds	r2, r7, #6
 2241 0060 1288     		ldrh	r2, [r2]
 2242 0062 5A85     		strh	r2, [r3, #42]
1295:Drivers/STM32F0xx_HAL_Driver/Src/stm32f0xx_hal_i2c.c ****     hi2c->XferSize    = hi2c->XferCount;
 2243              		.loc 1 1295 0 discriminator 2
 2244 0064 FB68     		ldr	r3, [r7, #12]
 2245 0066 5B8D     		ldrh	r3, [r3, #42]
 2246 0068 9AB2     		uxth	r2, r3
 2247 006a FB68     		ldr	r3, [r7, #12]
 2248 006c 1A85     		strh	r2, [r3, #40]
1296:Drivers/STM32F0xx_HAL_Driver/Src/stm32f0xx_hal_i2c.c ****     hi2c->XferOptions = I2C_NO_OPTION_FRAME;
 2249              		.loc 1 1296 0 discriminator 2
 2250 006e FB68     		ldr	r3, [r7, #12]
 2251 0070 0B4A     		ldr	r2, .L108+4
 2252 0072 DA62     		str	r2, [r3, #44]
1297:Drivers/STM32F0xx_HAL_Driver/Src/stm32f0xx_hal_i2c.c ****     hi2c->XferISR     = I2C_Slave_ISR_IT;
 2253              		.loc 1 1297 0 discriminator 2
 2254 0074 FB68     		ldr	r3, [r7, #12]
ARM GAS  /tmp/ccMxaoR5.s 			page 63


 2255 0076 0B4A     		ldr	r2, .L108+8
 2256 0078 5A63     		str	r2, [r3, #52]
1298:Drivers/STM32F0xx_HAL_Driver/Src/stm32f0xx_hal_i2c.c **** 
1299:Drivers/STM32F0xx_HAL_Driver/Src/stm32f0xx_hal_i2c.c ****     /* Process Unlocked */
1300:Drivers/STM32F0xx_HAL_Driver/Src/stm32f0xx_hal_i2c.c ****     __HAL_UNLOCK(hi2c); 
 2257              		.loc 1 1300 0 discriminator 2
 2258 007a FB68     		ldr	r3, [r7, #12]
 2259 007c 4022     		movs	r2, #64
 2260 007e 0021     		movs	r1, #0
 2261 0080 9954     		strb	r1, [r3, r2]
1301:Drivers/STM32F0xx_HAL_Driver/Src/stm32f0xx_hal_i2c.c **** 
1302:Drivers/STM32F0xx_HAL_Driver/Src/stm32f0xx_hal_i2c.c ****     /* Note : The I2C interrupts must be enabled after unlocking current process 
1303:Drivers/STM32F0xx_HAL_Driver/Src/stm32f0xx_hal_i2c.c ****               to avoid the risk of I2C interrupt handle execution before current
1304:Drivers/STM32F0xx_HAL_Driver/Src/stm32f0xx_hal_i2c.c ****               process unlock */
1305:Drivers/STM32F0xx_HAL_Driver/Src/stm32f0xx_hal_i2c.c **** 
1306:Drivers/STM32F0xx_HAL_Driver/Src/stm32f0xx_hal_i2c.c ****     /* Enable ERR, TC, STOP, NACK, TXI interrupt */
1307:Drivers/STM32F0xx_HAL_Driver/Src/stm32f0xx_hal_i2c.c ****     /* possible to enable all of these */
1308:Drivers/STM32F0xx_HAL_Driver/Src/stm32f0xx_hal_i2c.c ****     /* I2C_IT_ERRI | I2C_IT_TCI| I2C_IT_STOPI| I2C_IT_NACKI | I2C_IT_ADDRI | I2C_IT_RXI | I2C_IT_TX
1309:Drivers/STM32F0xx_HAL_Driver/Src/stm32f0xx_hal_i2c.c ****     I2C_Enable_IRQ(hi2c, I2C_XFER_TX_IT | I2C_XFER_LISTEN_IT);
 2262              		.loc 1 1309 0 discriminator 2
 2263 0082 FB68     		ldr	r3, [r7, #12]
 2264 0084 0521     		movs	r1, #5
 2265 0086 1800     		movs	r0, r3
 2266 0088 FFF7FEFF 		bl	I2C_Enable_IRQ
1310:Drivers/STM32F0xx_HAL_Driver/Src/stm32f0xx_hal_i2c.c **** 
1311:Drivers/STM32F0xx_HAL_Driver/Src/stm32f0xx_hal_i2c.c ****     return HAL_OK;
 2267              		.loc 1 1311 0 discriminator 2
 2268 008c 0023     		movs	r3, #0
 2269 008e 00E0     		b	.L107
 2270              	.L105:
1312:Drivers/STM32F0xx_HAL_Driver/Src/stm32f0xx_hal_i2c.c ****   }
1313:Drivers/STM32F0xx_HAL_Driver/Src/stm32f0xx_hal_i2c.c ****   else
1314:Drivers/STM32F0xx_HAL_Driver/Src/stm32f0xx_hal_i2c.c ****   {
1315:Drivers/STM32F0xx_HAL_Driver/Src/stm32f0xx_hal_i2c.c ****     return HAL_BUSY; 
 2271              		.loc 1 1315 0
 2272 0090 0223     		movs	r3, #2
 2273              	.L107:
1316:Drivers/STM32F0xx_HAL_Driver/Src/stm32f0xx_hal_i2c.c ****   } 
1317:Drivers/STM32F0xx_HAL_Driver/Src/stm32f0xx_hal_i2c.c **** }
 2274              		.loc 1 1317 0
 2275 0092 1800     		movs	r0, r3
 2276 0094 BD46     		mov	sp, r7
 2277 0096 04B0     		add	sp, sp, #16
 2278              		@ sp needed
 2279 0098 80BD     		pop	{r7, pc}
 2280              	.L109:
 2281 009a C046     		.align	2
 2282              	.L108:
 2283 009c FF7FFFFF 		.word	-32769
 2284 00a0 0000FFFF 		.word	-65536
 2285 00a4 00000000 		.word	I2C_Slave_ISR_IT
 2286              		.cfi_endproc
 2287              	.LFE45:
 2289              		.section	.text.HAL_I2C_Slave_Receive_IT,"ax",%progbits
 2290              		.align	1
 2291              		.global	HAL_I2C_Slave_Receive_IT
 2292              		.syntax unified
ARM GAS  /tmp/ccMxaoR5.s 			page 64


 2293              		.code	16
 2294              		.thumb_func
 2295              		.fpu softvfp
 2297              	HAL_I2C_Slave_Receive_IT:
 2298              	.LFB46:
1318:Drivers/STM32F0xx_HAL_Driver/Src/stm32f0xx_hal_i2c.c **** 
1319:Drivers/STM32F0xx_HAL_Driver/Src/stm32f0xx_hal_i2c.c **** /**
1320:Drivers/STM32F0xx_HAL_Driver/Src/stm32f0xx_hal_i2c.c ****   * @brief  Receive in slave mode an amount of data in non-blocking mode with Interrupt 
1321:Drivers/STM32F0xx_HAL_Driver/Src/stm32f0xx_hal_i2c.c ****   * @param  hi2c Pointer to a I2C_HandleTypeDef structure that contains
1322:Drivers/STM32F0xx_HAL_Driver/Src/stm32f0xx_hal_i2c.c ****   *                the configuration information for the specified I2C.
1323:Drivers/STM32F0xx_HAL_Driver/Src/stm32f0xx_hal_i2c.c ****   * @param  pData Pointer to data buffer
1324:Drivers/STM32F0xx_HAL_Driver/Src/stm32f0xx_hal_i2c.c ****   * @param  Size Amount of data to be sent
1325:Drivers/STM32F0xx_HAL_Driver/Src/stm32f0xx_hal_i2c.c ****   * @retval HAL status
1326:Drivers/STM32F0xx_HAL_Driver/Src/stm32f0xx_hal_i2c.c ****   */
1327:Drivers/STM32F0xx_HAL_Driver/Src/stm32f0xx_hal_i2c.c **** HAL_StatusTypeDef HAL_I2C_Slave_Receive_IT(I2C_HandleTypeDef *hi2c, uint8_t *pData, uint16_t Size)
1328:Drivers/STM32F0xx_HAL_Driver/Src/stm32f0xx_hal_i2c.c **** {
 2299              		.loc 1 1328 0
 2300              		.cfi_startproc
 2301 0000 80B5     		push	{r7, lr}
 2302              	.LCFI33:
 2303              		.cfi_def_cfa_offset 8
 2304              		.cfi_offset 7, -8
 2305              		.cfi_offset 14, -4
 2306 0002 84B0     		sub	sp, sp, #16
 2307              	.LCFI34:
 2308              		.cfi_def_cfa_offset 24
 2309 0004 00AF     		add	r7, sp, #0
 2310              	.LCFI35:
 2311              		.cfi_def_cfa_register 7
 2312 0006 F860     		str	r0, [r7, #12]
 2313 0008 B960     		str	r1, [r7, #8]
 2314 000a BB1D     		adds	r3, r7, #6
 2315 000c 1A80     		strh	r2, [r3]
1329:Drivers/STM32F0xx_HAL_Driver/Src/stm32f0xx_hal_i2c.c ****   if(hi2c->State == HAL_I2C_STATE_READY)
 2316              		.loc 1 1329 0
 2317 000e FB68     		ldr	r3, [r7, #12]
 2318 0010 4122     		movs	r2, #65
 2319 0012 9B5C     		ldrb	r3, [r3, r2]
 2320 0014 DBB2     		uxtb	r3, r3
 2321 0016 202B     		cmp	r3, #32
 2322 0018 3AD1     		bne	.L111
1330:Drivers/STM32F0xx_HAL_Driver/Src/stm32f0xx_hal_i2c.c ****   {
1331:Drivers/STM32F0xx_HAL_Driver/Src/stm32f0xx_hal_i2c.c ****     /* Process Locked */
1332:Drivers/STM32F0xx_HAL_Driver/Src/stm32f0xx_hal_i2c.c ****     __HAL_LOCK(hi2c);
 2323              		.loc 1 1332 0
 2324 001a FB68     		ldr	r3, [r7, #12]
 2325 001c 4022     		movs	r2, #64
 2326 001e 9B5C     		ldrb	r3, [r3, r2]
 2327 0020 012B     		cmp	r3, #1
 2328 0022 01D1     		bne	.L112
 2329              		.loc 1 1332 0 is_stmt 0 discriminator 1
 2330 0024 0223     		movs	r3, #2
 2331 0026 34E0     		b	.L113
 2332              	.L112:
 2333              		.loc 1 1332 0 discriminator 2
 2334 0028 FB68     		ldr	r3, [r7, #12]
 2335 002a 4022     		movs	r2, #64
ARM GAS  /tmp/ccMxaoR5.s 			page 65


 2336 002c 0121     		movs	r1, #1
 2337 002e 9954     		strb	r1, [r3, r2]
1333:Drivers/STM32F0xx_HAL_Driver/Src/stm32f0xx_hal_i2c.c **** 
1334:Drivers/STM32F0xx_HAL_Driver/Src/stm32f0xx_hal_i2c.c ****     hi2c->State = HAL_I2C_STATE_BUSY_RX;
 2338              		.loc 1 1334 0 is_stmt 1 discriminator 2
 2339 0030 FB68     		ldr	r3, [r7, #12]
 2340 0032 4122     		movs	r2, #65
 2341 0034 2221     		movs	r1, #34
 2342 0036 9954     		strb	r1, [r3, r2]
1335:Drivers/STM32F0xx_HAL_Driver/Src/stm32f0xx_hal_i2c.c ****     hi2c->Mode = HAL_I2C_MODE_SLAVE;
 2343              		.loc 1 1335 0 discriminator 2
 2344 0038 FB68     		ldr	r3, [r7, #12]
 2345 003a 4222     		movs	r2, #66
 2346 003c 2021     		movs	r1, #32
 2347 003e 9954     		strb	r1, [r3, r2]
1336:Drivers/STM32F0xx_HAL_Driver/Src/stm32f0xx_hal_i2c.c ****     hi2c->ErrorCode   = HAL_I2C_ERROR_NONE;
 2348              		.loc 1 1336 0 discriminator 2
 2349 0040 FB68     		ldr	r3, [r7, #12]
 2350 0042 0022     		movs	r2, #0
 2351 0044 5A64     		str	r2, [r3, #68]
1337:Drivers/STM32F0xx_HAL_Driver/Src/stm32f0xx_hal_i2c.c **** 
1338:Drivers/STM32F0xx_HAL_Driver/Src/stm32f0xx_hal_i2c.c ****     /* Enable Address Acknowledge */
1339:Drivers/STM32F0xx_HAL_Driver/Src/stm32f0xx_hal_i2c.c ****     hi2c->Instance->CR2 &= ~I2C_CR2_NACK;
 2352              		.loc 1 1339 0 discriminator 2
 2353 0046 FB68     		ldr	r3, [r7, #12]
 2354 0048 1B68     		ldr	r3, [r3]
 2355 004a FA68     		ldr	r2, [r7, #12]
 2356 004c 1268     		ldr	r2, [r2]
 2357 004e 5268     		ldr	r2, [r2, #4]
 2358 0050 1249     		ldr	r1, .L114
 2359 0052 0A40     		ands	r2, r1
 2360 0054 5A60     		str	r2, [r3, #4]
1340:Drivers/STM32F0xx_HAL_Driver/Src/stm32f0xx_hal_i2c.c **** 
1341:Drivers/STM32F0xx_HAL_Driver/Src/stm32f0xx_hal_i2c.c ****     /* Prepare transfer parameters */
1342:Drivers/STM32F0xx_HAL_Driver/Src/stm32f0xx_hal_i2c.c ****     hi2c->pBuffPtr = pData;
 2361              		.loc 1 1342 0 discriminator 2
 2362 0056 FB68     		ldr	r3, [r7, #12]
 2363 0058 BA68     		ldr	r2, [r7, #8]
 2364 005a 5A62     		str	r2, [r3, #36]
1343:Drivers/STM32F0xx_HAL_Driver/Src/stm32f0xx_hal_i2c.c ****     hi2c->XferCount = Size;
 2365              		.loc 1 1343 0 discriminator 2
 2366 005c FB68     		ldr	r3, [r7, #12]
 2367 005e BA1D     		adds	r2, r7, #6
 2368 0060 1288     		ldrh	r2, [r2]
 2369 0062 5A85     		strh	r2, [r3, #42]
1344:Drivers/STM32F0xx_HAL_Driver/Src/stm32f0xx_hal_i2c.c ****     hi2c->XferSize    = hi2c->XferCount;
 2370              		.loc 1 1344 0 discriminator 2
 2371 0064 FB68     		ldr	r3, [r7, #12]
 2372 0066 5B8D     		ldrh	r3, [r3, #42]
 2373 0068 9AB2     		uxth	r2, r3
 2374 006a FB68     		ldr	r3, [r7, #12]
 2375 006c 1A85     		strh	r2, [r3, #40]
1345:Drivers/STM32F0xx_HAL_Driver/Src/stm32f0xx_hal_i2c.c ****     hi2c->XferOptions = I2C_NO_OPTION_FRAME;
 2376              		.loc 1 1345 0 discriminator 2
 2377 006e FB68     		ldr	r3, [r7, #12]
 2378 0070 0B4A     		ldr	r2, .L114+4
 2379 0072 DA62     		str	r2, [r3, #44]
ARM GAS  /tmp/ccMxaoR5.s 			page 66


1346:Drivers/STM32F0xx_HAL_Driver/Src/stm32f0xx_hal_i2c.c ****     hi2c->XferISR     = I2C_Slave_ISR_IT;
 2380              		.loc 1 1346 0 discriminator 2
 2381 0074 FB68     		ldr	r3, [r7, #12]
 2382 0076 0B4A     		ldr	r2, .L114+8
 2383 0078 5A63     		str	r2, [r3, #52]
1347:Drivers/STM32F0xx_HAL_Driver/Src/stm32f0xx_hal_i2c.c **** 
1348:Drivers/STM32F0xx_HAL_Driver/Src/stm32f0xx_hal_i2c.c ****     /* Process Unlocked */
1349:Drivers/STM32F0xx_HAL_Driver/Src/stm32f0xx_hal_i2c.c ****     __HAL_UNLOCK(hi2c); 
 2384              		.loc 1 1349 0 discriminator 2
 2385 007a FB68     		ldr	r3, [r7, #12]
 2386 007c 4022     		movs	r2, #64
 2387 007e 0021     		movs	r1, #0
 2388 0080 9954     		strb	r1, [r3, r2]
1350:Drivers/STM32F0xx_HAL_Driver/Src/stm32f0xx_hal_i2c.c **** 
1351:Drivers/STM32F0xx_HAL_Driver/Src/stm32f0xx_hal_i2c.c ****     /* Note : The I2C interrupts must be enabled after unlocking current process 
1352:Drivers/STM32F0xx_HAL_Driver/Src/stm32f0xx_hal_i2c.c ****               to avoid the risk of I2C interrupt handle execution before current
1353:Drivers/STM32F0xx_HAL_Driver/Src/stm32f0xx_hal_i2c.c ****               process unlock */
1354:Drivers/STM32F0xx_HAL_Driver/Src/stm32f0xx_hal_i2c.c **** 
1355:Drivers/STM32F0xx_HAL_Driver/Src/stm32f0xx_hal_i2c.c ****     /* Enable ERR, TC, STOP, NACK, RXI interrupt */
1356:Drivers/STM32F0xx_HAL_Driver/Src/stm32f0xx_hal_i2c.c ****     /* possible to enable all of these */
1357:Drivers/STM32F0xx_HAL_Driver/Src/stm32f0xx_hal_i2c.c ****     /* I2C_IT_ERRI | I2C_IT_TCI| I2C_IT_STOPI| I2C_IT_NACKI | I2C_IT_ADDRI | I2C_IT_RXI | I2C_IT_TX
1358:Drivers/STM32F0xx_HAL_Driver/Src/stm32f0xx_hal_i2c.c ****     I2C_Enable_IRQ(hi2c, I2C_XFER_RX_IT | I2C_XFER_LISTEN_IT);
 2389              		.loc 1 1358 0 discriminator 2
 2390 0082 FB68     		ldr	r3, [r7, #12]
 2391 0084 0621     		movs	r1, #6
 2392 0086 1800     		movs	r0, r3
 2393 0088 FFF7FEFF 		bl	I2C_Enable_IRQ
1359:Drivers/STM32F0xx_HAL_Driver/Src/stm32f0xx_hal_i2c.c ****     
1360:Drivers/STM32F0xx_HAL_Driver/Src/stm32f0xx_hal_i2c.c ****     return HAL_OK;
 2394              		.loc 1 1360 0 discriminator 2
 2395 008c 0023     		movs	r3, #0
 2396 008e 00E0     		b	.L113
 2397              	.L111:
1361:Drivers/STM32F0xx_HAL_Driver/Src/stm32f0xx_hal_i2c.c ****   }
1362:Drivers/STM32F0xx_HAL_Driver/Src/stm32f0xx_hal_i2c.c ****   else
1363:Drivers/STM32F0xx_HAL_Driver/Src/stm32f0xx_hal_i2c.c ****   {
1364:Drivers/STM32F0xx_HAL_Driver/Src/stm32f0xx_hal_i2c.c ****     return HAL_BUSY; 
 2398              		.loc 1 1364 0
 2399 0090 0223     		movs	r3, #2
 2400              	.L113:
1365:Drivers/STM32F0xx_HAL_Driver/Src/stm32f0xx_hal_i2c.c ****   }
1366:Drivers/STM32F0xx_HAL_Driver/Src/stm32f0xx_hal_i2c.c **** }
 2401              		.loc 1 1366 0
 2402 0092 1800     		movs	r0, r3
 2403 0094 BD46     		mov	sp, r7
 2404 0096 04B0     		add	sp, sp, #16
 2405              		@ sp needed
 2406 0098 80BD     		pop	{r7, pc}
 2407              	.L115:
 2408 009a C046     		.align	2
 2409              	.L114:
 2410 009c FF7FFFFF 		.word	-32769
 2411 00a0 0000FFFF 		.word	-65536
 2412 00a4 00000000 		.word	I2C_Slave_ISR_IT
 2413              		.cfi_endproc
 2414              	.LFE46:
 2416              		.section	.text.HAL_I2C_Master_Transmit_DMA,"ax",%progbits
ARM GAS  /tmp/ccMxaoR5.s 			page 67


 2417              		.align	1
 2418              		.global	HAL_I2C_Master_Transmit_DMA
 2419              		.syntax unified
 2420              		.code	16
 2421              		.thumb_func
 2422              		.fpu softvfp
 2424              	HAL_I2C_Master_Transmit_DMA:
 2425              	.LFB47:
1367:Drivers/STM32F0xx_HAL_Driver/Src/stm32f0xx_hal_i2c.c **** 
1368:Drivers/STM32F0xx_HAL_Driver/Src/stm32f0xx_hal_i2c.c **** /**
1369:Drivers/STM32F0xx_HAL_Driver/Src/stm32f0xx_hal_i2c.c ****   * @brief  Transmit in master mode an amount of data in non-blocking mode with DMA
1370:Drivers/STM32F0xx_HAL_Driver/Src/stm32f0xx_hal_i2c.c ****   * @param  hi2c Pointer to a I2C_HandleTypeDef structure that contains
1371:Drivers/STM32F0xx_HAL_Driver/Src/stm32f0xx_hal_i2c.c ****   *                the configuration information for the specified I2C.
1372:Drivers/STM32F0xx_HAL_Driver/Src/stm32f0xx_hal_i2c.c ****   * @param  DevAddress Target device address: The device 7 bits address value
1373:Drivers/STM32F0xx_HAL_Driver/Src/stm32f0xx_hal_i2c.c ****   *         in datasheet must be shift at right before call interface
1374:Drivers/STM32F0xx_HAL_Driver/Src/stm32f0xx_hal_i2c.c ****   * @param  pData Pointer to data buffer
1375:Drivers/STM32F0xx_HAL_Driver/Src/stm32f0xx_hal_i2c.c ****   * @param  Size Amount of data to be sent
1376:Drivers/STM32F0xx_HAL_Driver/Src/stm32f0xx_hal_i2c.c ****   * @retval HAL status
1377:Drivers/STM32F0xx_HAL_Driver/Src/stm32f0xx_hal_i2c.c ****   */
1378:Drivers/STM32F0xx_HAL_Driver/Src/stm32f0xx_hal_i2c.c **** HAL_StatusTypeDef HAL_I2C_Master_Transmit_DMA(I2C_HandleTypeDef *hi2c, uint16_t DevAddress, uint8_t
1379:Drivers/STM32F0xx_HAL_Driver/Src/stm32f0xx_hal_i2c.c **** {
 2426              		.loc 1 1379 0
 2427              		.cfi_startproc
 2428 0000 90B5     		push	{r4, r7, lr}
 2429              	.LCFI36:
 2430              		.cfi_def_cfa_offset 12
 2431              		.cfi_offset 4, -12
 2432              		.cfi_offset 7, -8
 2433              		.cfi_offset 14, -4
 2434 0002 89B0     		sub	sp, sp, #36
 2435              	.LCFI37:
 2436              		.cfi_def_cfa_offset 48
 2437 0004 02AF     		add	r7, sp, #8
 2438              	.LCFI38:
 2439              		.cfi_def_cfa 7, 40
 2440 0006 F860     		str	r0, [r7, #12]
 2441 0008 0800     		movs	r0, r1
 2442 000a 7A60     		str	r2, [r7, #4]
 2443 000c 1900     		movs	r1, r3
 2444 000e 0A23     		movs	r3, #10
 2445 0010 FB18     		adds	r3, r7, r3
 2446 0012 021C     		adds	r2, r0, #0
 2447 0014 1A80     		strh	r2, [r3]
 2448 0016 0823     		movs	r3, #8
 2449 0018 FB18     		adds	r3, r7, r3
 2450 001a 0A1C     		adds	r2, r1, #0
 2451 001c 1A80     		strh	r2, [r3]
1380:Drivers/STM32F0xx_HAL_Driver/Src/stm32f0xx_hal_i2c.c ****   uint32_t xfermode = 0U;
 2452              		.loc 1 1380 0
 2453 001e 0023     		movs	r3, #0
 2454 0020 7B61     		str	r3, [r7, #20]
1381:Drivers/STM32F0xx_HAL_Driver/Src/stm32f0xx_hal_i2c.c **** 
1382:Drivers/STM32F0xx_HAL_Driver/Src/stm32f0xx_hal_i2c.c ****   if(hi2c->State == HAL_I2C_STATE_READY)
 2455              		.loc 1 1382 0
 2456 0022 FB68     		ldr	r3, [r7, #12]
 2457 0024 4122     		movs	r2, #65
 2458 0026 9B5C     		ldrb	r3, [r3, r2]
ARM GAS  /tmp/ccMxaoR5.s 			page 68


 2459 0028 DBB2     		uxtb	r3, r3
 2460 002a 202B     		cmp	r3, #32
 2461 002c 00D0     		beq	.LCB2220
 2462 002e A9E0     		b	.L117	@long jump
 2463              	.LCB2220:
1383:Drivers/STM32F0xx_HAL_Driver/Src/stm32f0xx_hal_i2c.c ****   {
1384:Drivers/STM32F0xx_HAL_Driver/Src/stm32f0xx_hal_i2c.c ****     if(__HAL_I2C_GET_FLAG(hi2c, I2C_FLAG_BUSY) == SET)
 2464              		.loc 1 1384 0
 2465 0030 FB68     		ldr	r3, [r7, #12]
 2466 0032 1B68     		ldr	r3, [r3]
 2467 0034 9A69     		ldr	r2, [r3, #24]
 2468 0036 8023     		movs	r3, #128
 2469 0038 1B02     		lsls	r3, r3, #8
 2470 003a 1A40     		ands	r2, r3
 2471 003c 8023     		movs	r3, #128
 2472 003e 1B02     		lsls	r3, r3, #8
 2473 0040 9A42     		cmp	r2, r3
 2474 0042 01D1     		bne	.L118
1385:Drivers/STM32F0xx_HAL_Driver/Src/stm32f0xx_hal_i2c.c ****     {
1386:Drivers/STM32F0xx_HAL_Driver/Src/stm32f0xx_hal_i2c.c ****       return HAL_BUSY;
 2475              		.loc 1 1386 0
 2476 0044 0223     		movs	r3, #2
 2477 0046 9EE0     		b	.L119
 2478              	.L118:
1387:Drivers/STM32F0xx_HAL_Driver/Src/stm32f0xx_hal_i2c.c ****     }
1388:Drivers/STM32F0xx_HAL_Driver/Src/stm32f0xx_hal_i2c.c **** 
1389:Drivers/STM32F0xx_HAL_Driver/Src/stm32f0xx_hal_i2c.c ****     /* Process Locked */
1390:Drivers/STM32F0xx_HAL_Driver/Src/stm32f0xx_hal_i2c.c ****     __HAL_LOCK(hi2c);
 2479              		.loc 1 1390 0
 2480 0048 FB68     		ldr	r3, [r7, #12]
 2481 004a 4022     		movs	r2, #64
 2482 004c 9B5C     		ldrb	r3, [r3, r2]
 2483 004e 012B     		cmp	r3, #1
 2484 0050 01D1     		bne	.L120
 2485              		.loc 1 1390 0 is_stmt 0 discriminator 1
 2486 0052 0223     		movs	r3, #2
 2487 0054 97E0     		b	.L119
 2488              	.L120:
 2489              		.loc 1 1390 0 discriminator 2
 2490 0056 FB68     		ldr	r3, [r7, #12]
 2491 0058 4022     		movs	r2, #64
 2492 005a 0121     		movs	r1, #1
 2493 005c 9954     		strb	r1, [r3, r2]
1391:Drivers/STM32F0xx_HAL_Driver/Src/stm32f0xx_hal_i2c.c **** 
1392:Drivers/STM32F0xx_HAL_Driver/Src/stm32f0xx_hal_i2c.c ****     hi2c->State = HAL_I2C_STATE_BUSY_TX;
 2494              		.loc 1 1392 0 is_stmt 1 discriminator 2
 2495 005e FB68     		ldr	r3, [r7, #12]
 2496 0060 4122     		movs	r2, #65
 2497 0062 2121     		movs	r1, #33
 2498 0064 9954     		strb	r1, [r3, r2]
1393:Drivers/STM32F0xx_HAL_Driver/Src/stm32f0xx_hal_i2c.c ****     hi2c->Mode = HAL_I2C_MODE_MASTER;
 2499              		.loc 1 1393 0 discriminator 2
 2500 0066 FB68     		ldr	r3, [r7, #12]
 2501 0068 4222     		movs	r2, #66
 2502 006a 1021     		movs	r1, #16
 2503 006c 9954     		strb	r1, [r3, r2]
1394:Drivers/STM32F0xx_HAL_Driver/Src/stm32f0xx_hal_i2c.c ****     hi2c->ErrorCode   = HAL_I2C_ERROR_NONE;
ARM GAS  /tmp/ccMxaoR5.s 			page 69


 2504              		.loc 1 1394 0 discriminator 2
 2505 006e FB68     		ldr	r3, [r7, #12]
 2506 0070 0022     		movs	r2, #0
 2507 0072 5A64     		str	r2, [r3, #68]
1395:Drivers/STM32F0xx_HAL_Driver/Src/stm32f0xx_hal_i2c.c **** 
1396:Drivers/STM32F0xx_HAL_Driver/Src/stm32f0xx_hal_i2c.c ****     /* Prepare transfer parameters */
1397:Drivers/STM32F0xx_HAL_Driver/Src/stm32f0xx_hal_i2c.c ****     hi2c->pBuffPtr = pData;
 2508              		.loc 1 1397 0 discriminator 2
 2509 0074 FB68     		ldr	r3, [r7, #12]
 2510 0076 7A68     		ldr	r2, [r7, #4]
 2511 0078 5A62     		str	r2, [r3, #36]
1398:Drivers/STM32F0xx_HAL_Driver/Src/stm32f0xx_hal_i2c.c ****     hi2c->XferCount = Size;
 2512              		.loc 1 1398 0 discriminator 2
 2513 007a FB68     		ldr	r3, [r7, #12]
 2514 007c 0822     		movs	r2, #8
 2515 007e BA18     		adds	r2, r7, r2
 2516 0080 1288     		ldrh	r2, [r2]
 2517 0082 5A85     		strh	r2, [r3, #42]
1399:Drivers/STM32F0xx_HAL_Driver/Src/stm32f0xx_hal_i2c.c ****     hi2c->XferOptions = I2C_NO_OPTION_FRAME;
 2518              		.loc 1 1399 0 discriminator 2
 2519 0084 FB68     		ldr	r3, [r7, #12]
 2520 0086 424A     		ldr	r2, .L125
 2521 0088 DA62     		str	r2, [r3, #44]
1400:Drivers/STM32F0xx_HAL_Driver/Src/stm32f0xx_hal_i2c.c ****     hi2c->XferISR     = I2C_Master_ISR_DMA;
 2522              		.loc 1 1400 0 discriminator 2
 2523 008a FB68     		ldr	r3, [r7, #12]
 2524 008c 414A     		ldr	r2, .L125+4
 2525 008e 5A63     		str	r2, [r3, #52]
1401:Drivers/STM32F0xx_HAL_Driver/Src/stm32f0xx_hal_i2c.c ****     
1402:Drivers/STM32F0xx_HAL_Driver/Src/stm32f0xx_hal_i2c.c ****     if(hi2c->XferCount > MAX_NBYTE_SIZE)
 2526              		.loc 1 1402 0 discriminator 2
 2527 0090 FB68     		ldr	r3, [r7, #12]
 2528 0092 5B8D     		ldrh	r3, [r3, #42]
 2529 0094 9BB2     		uxth	r3, r3
 2530 0096 FF2B     		cmp	r3, #255
 2531 0098 06D9     		bls	.L121
1403:Drivers/STM32F0xx_HAL_Driver/Src/stm32f0xx_hal_i2c.c ****     {
1404:Drivers/STM32F0xx_HAL_Driver/Src/stm32f0xx_hal_i2c.c ****       hi2c->XferSize = MAX_NBYTE_SIZE;
 2532              		.loc 1 1404 0
 2533 009a FB68     		ldr	r3, [r7, #12]
 2534 009c FF22     		movs	r2, #255
 2535 009e 1A85     		strh	r2, [r3, #40]
1405:Drivers/STM32F0xx_HAL_Driver/Src/stm32f0xx_hal_i2c.c ****       xfermode = I2C_RELOAD_MODE;
 2536              		.loc 1 1405 0
 2537 00a0 8023     		movs	r3, #128
 2538 00a2 5B04     		lsls	r3, r3, #17
 2539 00a4 7B61     		str	r3, [r7, #20]
 2540 00a6 07E0     		b	.L122
 2541              	.L121:
1406:Drivers/STM32F0xx_HAL_Driver/Src/stm32f0xx_hal_i2c.c ****     }
1407:Drivers/STM32F0xx_HAL_Driver/Src/stm32f0xx_hal_i2c.c ****     else
1408:Drivers/STM32F0xx_HAL_Driver/Src/stm32f0xx_hal_i2c.c ****     {
1409:Drivers/STM32F0xx_HAL_Driver/Src/stm32f0xx_hal_i2c.c ****       hi2c->XferSize = hi2c->XferCount;
 2542              		.loc 1 1409 0
 2543 00a8 FB68     		ldr	r3, [r7, #12]
 2544 00aa 5B8D     		ldrh	r3, [r3, #42]
 2545 00ac 9AB2     		uxth	r2, r3
ARM GAS  /tmp/ccMxaoR5.s 			page 70


 2546 00ae FB68     		ldr	r3, [r7, #12]
 2547 00b0 1A85     		strh	r2, [r3, #40]
1410:Drivers/STM32F0xx_HAL_Driver/Src/stm32f0xx_hal_i2c.c ****       xfermode = I2C_AUTOEND_MODE;
 2548              		.loc 1 1410 0
 2549 00b2 8023     		movs	r3, #128
 2550 00b4 9B04     		lsls	r3, r3, #18
 2551 00b6 7B61     		str	r3, [r7, #20]
 2552              	.L122:
1411:Drivers/STM32F0xx_HAL_Driver/Src/stm32f0xx_hal_i2c.c ****     }
1412:Drivers/STM32F0xx_HAL_Driver/Src/stm32f0xx_hal_i2c.c **** 
1413:Drivers/STM32F0xx_HAL_Driver/Src/stm32f0xx_hal_i2c.c ****     if(hi2c->XferSize > 0U)
 2553              		.loc 1 1413 0
 2554 00b8 FB68     		ldr	r3, [r7, #12]
 2555 00ba 1B8D     		ldrh	r3, [r3, #40]
 2556 00bc 002B     		cmp	r3, #0
 2557 00be 44D0     		beq	.L123
1414:Drivers/STM32F0xx_HAL_Driver/Src/stm32f0xx_hal_i2c.c ****     {
1415:Drivers/STM32F0xx_HAL_Driver/Src/stm32f0xx_hal_i2c.c ****       /* Set the I2C DMA transfer complete callback */
1416:Drivers/STM32F0xx_HAL_Driver/Src/stm32f0xx_hal_i2c.c ****       hi2c->hdmatx->XferCpltCallback = I2C_DMAMasterTransmitCplt;
 2558              		.loc 1 1416 0
 2559 00c0 FB68     		ldr	r3, [r7, #12]
 2560 00c2 9B6B     		ldr	r3, [r3, #56]
 2561 00c4 344A     		ldr	r2, .L125+8
 2562 00c6 9A62     		str	r2, [r3, #40]
1417:Drivers/STM32F0xx_HAL_Driver/Src/stm32f0xx_hal_i2c.c **** 
1418:Drivers/STM32F0xx_HAL_Driver/Src/stm32f0xx_hal_i2c.c ****       /* Set the DMA error callback */
1419:Drivers/STM32F0xx_HAL_Driver/Src/stm32f0xx_hal_i2c.c ****       hi2c->hdmatx->XferErrorCallback = I2C_DMAError;
 2563              		.loc 1 1419 0
 2564 00c8 FB68     		ldr	r3, [r7, #12]
 2565 00ca 9B6B     		ldr	r3, [r3, #56]
 2566 00cc 334A     		ldr	r2, .L125+12
 2567 00ce 1A63     		str	r2, [r3, #48]
1420:Drivers/STM32F0xx_HAL_Driver/Src/stm32f0xx_hal_i2c.c **** 
1421:Drivers/STM32F0xx_HAL_Driver/Src/stm32f0xx_hal_i2c.c ****       /* Set the unused DMA callbacks to NULL */
1422:Drivers/STM32F0xx_HAL_Driver/Src/stm32f0xx_hal_i2c.c ****       hi2c->hdmatx->XferHalfCpltCallback = NULL;
 2568              		.loc 1 1422 0
 2569 00d0 FB68     		ldr	r3, [r7, #12]
 2570 00d2 9B6B     		ldr	r3, [r3, #56]
 2571 00d4 0022     		movs	r2, #0
 2572 00d6 DA62     		str	r2, [r3, #44]
1423:Drivers/STM32F0xx_HAL_Driver/Src/stm32f0xx_hal_i2c.c ****       hi2c->hdmatx->XferAbortCallback = NULL;
 2573              		.loc 1 1423 0
 2574 00d8 FB68     		ldr	r3, [r7, #12]
 2575 00da 9B6B     		ldr	r3, [r3, #56]
 2576 00dc 0022     		movs	r2, #0
 2577 00de 5A63     		str	r2, [r3, #52]
1424:Drivers/STM32F0xx_HAL_Driver/Src/stm32f0xx_hal_i2c.c **** 
1425:Drivers/STM32F0xx_HAL_Driver/Src/stm32f0xx_hal_i2c.c ****       /* Enable the DMA channel */
1426:Drivers/STM32F0xx_HAL_Driver/Src/stm32f0xx_hal_i2c.c ****       HAL_DMA_Start_IT(hi2c->hdmatx, (uint32_t)pData, (uint32_t)&hi2c->Instance->TXDR, hi2c->XferSi
 2578              		.loc 1 1426 0
 2579 00e0 FB68     		ldr	r3, [r7, #12]
 2580 00e2 986B     		ldr	r0, [r3, #56]
 2581 00e4 7968     		ldr	r1, [r7, #4]
 2582 00e6 FB68     		ldr	r3, [r7, #12]
 2583 00e8 1B68     		ldr	r3, [r3]
 2584 00ea 2833     		adds	r3, r3, #40
 2585 00ec 1A00     		movs	r2, r3
ARM GAS  /tmp/ccMxaoR5.s 			page 71


 2586 00ee FB68     		ldr	r3, [r7, #12]
 2587 00f0 1B8D     		ldrh	r3, [r3, #40]
 2588 00f2 FFF7FEFF 		bl	HAL_DMA_Start_IT
1427:Drivers/STM32F0xx_HAL_Driver/Src/stm32f0xx_hal_i2c.c **** 
1428:Drivers/STM32F0xx_HAL_Driver/Src/stm32f0xx_hal_i2c.c ****       /* Send Slave Address */
1429:Drivers/STM32F0xx_HAL_Driver/Src/stm32f0xx_hal_i2c.c ****       /* Set NBYTES to write and reload if hi2c->XferCount > MAX_NBYTE_SIZE and generate RESTART */
1430:Drivers/STM32F0xx_HAL_Driver/Src/stm32f0xx_hal_i2c.c ****       I2C_TransferConfig(hi2c, DevAddress, hi2c->XferSize, xfermode, I2C_GENERATE_START_WRITE);
 2589              		.loc 1 1430 0
 2590 00f6 FB68     		ldr	r3, [r7, #12]
 2591 00f8 1B8D     		ldrh	r3, [r3, #40]
 2592 00fa DAB2     		uxtb	r2, r3
 2593 00fc 7C69     		ldr	r4, [r7, #20]
 2594 00fe 0A23     		movs	r3, #10
 2595 0100 FB18     		adds	r3, r7, r3
 2596 0102 1988     		ldrh	r1, [r3]
 2597 0104 F868     		ldr	r0, [r7, #12]
 2598 0106 8023     		movs	r3, #128
 2599 0108 9B01     		lsls	r3, r3, #6
 2600 010a 0093     		str	r3, [sp]
 2601 010c 2300     		movs	r3, r4
 2602 010e FFF7FEFF 		bl	I2C_TransferConfig
1431:Drivers/STM32F0xx_HAL_Driver/Src/stm32f0xx_hal_i2c.c **** 
1432:Drivers/STM32F0xx_HAL_Driver/Src/stm32f0xx_hal_i2c.c ****       /* Update XferCount value */
1433:Drivers/STM32F0xx_HAL_Driver/Src/stm32f0xx_hal_i2c.c ****       hi2c->XferCount -= hi2c->XferSize;
 2603              		.loc 1 1433 0
 2604 0112 FB68     		ldr	r3, [r7, #12]
 2605 0114 5B8D     		ldrh	r3, [r3, #42]
 2606 0116 9AB2     		uxth	r2, r3
 2607 0118 FB68     		ldr	r3, [r7, #12]
 2608 011a 1B8D     		ldrh	r3, [r3, #40]
 2609 011c D31A     		subs	r3, r2, r3
 2610 011e 9AB2     		uxth	r2, r3
 2611 0120 FB68     		ldr	r3, [r7, #12]
 2612 0122 5A85     		strh	r2, [r3, #42]
1434:Drivers/STM32F0xx_HAL_Driver/Src/stm32f0xx_hal_i2c.c **** 
1435:Drivers/STM32F0xx_HAL_Driver/Src/stm32f0xx_hal_i2c.c ****       /* Process Unlocked */
1436:Drivers/STM32F0xx_HAL_Driver/Src/stm32f0xx_hal_i2c.c ****       __HAL_UNLOCK(hi2c);
 2613              		.loc 1 1436 0
 2614 0124 FB68     		ldr	r3, [r7, #12]
 2615 0126 4022     		movs	r2, #64
 2616 0128 0021     		movs	r1, #0
 2617 012a 9954     		strb	r1, [r3, r2]
1437:Drivers/STM32F0xx_HAL_Driver/Src/stm32f0xx_hal_i2c.c **** 
1438:Drivers/STM32F0xx_HAL_Driver/Src/stm32f0xx_hal_i2c.c ****       /* Note : The I2C interrupts must be enabled after unlocking current process
1439:Drivers/STM32F0xx_HAL_Driver/Src/stm32f0xx_hal_i2c.c ****                 to avoid the risk of I2C interrupt handle execution before current
1440:Drivers/STM32F0xx_HAL_Driver/Src/stm32f0xx_hal_i2c.c ****                 process unlock */
1441:Drivers/STM32F0xx_HAL_Driver/Src/stm32f0xx_hal_i2c.c ****       /* Enable ERR and NACK interrupts */
1442:Drivers/STM32F0xx_HAL_Driver/Src/stm32f0xx_hal_i2c.c ****       I2C_Enable_IRQ(hi2c, I2C_XFER_ERROR_IT);
 2618              		.loc 1 1442 0
 2619 012c FB68     		ldr	r3, [r7, #12]
 2620 012e 1121     		movs	r1, #17
 2621 0130 1800     		movs	r0, r3
 2622 0132 FFF7FEFF 		bl	I2C_Enable_IRQ
1443:Drivers/STM32F0xx_HAL_Driver/Src/stm32f0xx_hal_i2c.c **** 
1444:Drivers/STM32F0xx_HAL_Driver/Src/stm32f0xx_hal_i2c.c ****       /* Enable DMA Request */
1445:Drivers/STM32F0xx_HAL_Driver/Src/stm32f0xx_hal_i2c.c ****       hi2c->Instance->CR1 |= I2C_CR1_TXDMAEN;
 2623              		.loc 1 1445 0
ARM GAS  /tmp/ccMxaoR5.s 			page 72


 2624 0136 FB68     		ldr	r3, [r7, #12]
 2625 0138 1B68     		ldr	r3, [r3]
 2626 013a FA68     		ldr	r2, [r7, #12]
 2627 013c 1268     		ldr	r2, [r2]
 2628 013e 1268     		ldr	r2, [r2]
 2629 0140 8021     		movs	r1, #128
 2630 0142 C901     		lsls	r1, r1, #7
 2631 0144 0A43     		orrs	r2, r1
 2632 0146 1A60     		str	r2, [r3]
 2633 0148 1AE0     		b	.L124
 2634              	.L123:
1446:Drivers/STM32F0xx_HAL_Driver/Src/stm32f0xx_hal_i2c.c ****     }
1447:Drivers/STM32F0xx_HAL_Driver/Src/stm32f0xx_hal_i2c.c ****     else
1448:Drivers/STM32F0xx_HAL_Driver/Src/stm32f0xx_hal_i2c.c ****     {
1449:Drivers/STM32F0xx_HAL_Driver/Src/stm32f0xx_hal_i2c.c ****       /* Update Transfer ISR function pointer */
1450:Drivers/STM32F0xx_HAL_Driver/Src/stm32f0xx_hal_i2c.c ****       hi2c->XferISR = I2C_Master_ISR_IT;
 2635              		.loc 1 1450 0
 2636 014a FB68     		ldr	r3, [r7, #12]
 2637 014c 144A     		ldr	r2, .L125+16
 2638 014e 5A63     		str	r2, [r3, #52]
1451:Drivers/STM32F0xx_HAL_Driver/Src/stm32f0xx_hal_i2c.c ****       
1452:Drivers/STM32F0xx_HAL_Driver/Src/stm32f0xx_hal_i2c.c ****       /* Send Slave Address */
1453:Drivers/STM32F0xx_HAL_Driver/Src/stm32f0xx_hal_i2c.c ****       /* Set NBYTES to write and generate START condition */
1454:Drivers/STM32F0xx_HAL_Driver/Src/stm32f0xx_hal_i2c.c ****       I2C_TransferConfig(hi2c, DevAddress, hi2c->XferSize, I2C_AUTOEND_MODE, I2C_GENERATE_START_WRI
 2639              		.loc 1 1454 0
 2640 0150 FB68     		ldr	r3, [r7, #12]
 2641 0152 1B8D     		ldrh	r3, [r3, #40]
 2642 0154 DAB2     		uxtb	r2, r3
 2643 0156 8023     		movs	r3, #128
 2644 0158 9C04     		lsls	r4, r3, #18
 2645 015a 0A23     		movs	r3, #10
 2646 015c FB18     		adds	r3, r7, r3
 2647 015e 1988     		ldrh	r1, [r3]
 2648 0160 F868     		ldr	r0, [r7, #12]
 2649 0162 8023     		movs	r3, #128
 2650 0164 9B01     		lsls	r3, r3, #6
 2651 0166 0093     		str	r3, [sp]
 2652 0168 2300     		movs	r3, r4
 2653 016a FFF7FEFF 		bl	I2C_TransferConfig
1455:Drivers/STM32F0xx_HAL_Driver/Src/stm32f0xx_hal_i2c.c **** 
1456:Drivers/STM32F0xx_HAL_Driver/Src/stm32f0xx_hal_i2c.c ****       /* Process Unlocked */
1457:Drivers/STM32F0xx_HAL_Driver/Src/stm32f0xx_hal_i2c.c ****       __HAL_UNLOCK(hi2c);
 2654              		.loc 1 1457 0
 2655 016e FB68     		ldr	r3, [r7, #12]
 2656 0170 4022     		movs	r2, #64
 2657 0172 0021     		movs	r1, #0
 2658 0174 9954     		strb	r1, [r3, r2]
1458:Drivers/STM32F0xx_HAL_Driver/Src/stm32f0xx_hal_i2c.c **** 
1459:Drivers/STM32F0xx_HAL_Driver/Src/stm32f0xx_hal_i2c.c ****       /* Note : The I2C interrupts must be enabled after unlocking current process
1460:Drivers/STM32F0xx_HAL_Driver/Src/stm32f0xx_hal_i2c.c ****                 to avoid the risk of I2C interrupt handle execution before current
1461:Drivers/STM32F0xx_HAL_Driver/Src/stm32f0xx_hal_i2c.c ****                 process unlock */
1462:Drivers/STM32F0xx_HAL_Driver/Src/stm32f0xx_hal_i2c.c ****       /* Enable ERR, TC, STOP, NACK, TXI interrupt */
1463:Drivers/STM32F0xx_HAL_Driver/Src/stm32f0xx_hal_i2c.c ****       /* possible to enable all of these */
1464:Drivers/STM32F0xx_HAL_Driver/Src/stm32f0xx_hal_i2c.c ****       /* I2C_IT_ERRI | I2C_IT_TCI| I2C_IT_STOPI| I2C_IT_NACKI | I2C_IT_ADDRI | I2C_IT_RXI | I2C_IT_
1465:Drivers/STM32F0xx_HAL_Driver/Src/stm32f0xx_hal_i2c.c ****       I2C_Enable_IRQ(hi2c, I2C_XFER_TX_IT);
 2659              		.loc 1 1465 0
 2660 0176 FB68     		ldr	r3, [r7, #12]
ARM GAS  /tmp/ccMxaoR5.s 			page 73


 2661 0178 0121     		movs	r1, #1
 2662 017a 1800     		movs	r0, r3
 2663 017c FFF7FEFF 		bl	I2C_Enable_IRQ
 2664              	.L124:
1466:Drivers/STM32F0xx_HAL_Driver/Src/stm32f0xx_hal_i2c.c ****     }
1467:Drivers/STM32F0xx_HAL_Driver/Src/stm32f0xx_hal_i2c.c **** 
1468:Drivers/STM32F0xx_HAL_Driver/Src/stm32f0xx_hal_i2c.c ****     return HAL_OK;
 2665              		.loc 1 1468 0
 2666 0180 0023     		movs	r3, #0
 2667 0182 00E0     		b	.L119
 2668              	.L117:
1469:Drivers/STM32F0xx_HAL_Driver/Src/stm32f0xx_hal_i2c.c ****   }
1470:Drivers/STM32F0xx_HAL_Driver/Src/stm32f0xx_hal_i2c.c ****   else
1471:Drivers/STM32F0xx_HAL_Driver/Src/stm32f0xx_hal_i2c.c ****   {
1472:Drivers/STM32F0xx_HAL_Driver/Src/stm32f0xx_hal_i2c.c ****     return HAL_BUSY;
 2669              		.loc 1 1472 0
 2670 0184 0223     		movs	r3, #2
 2671              	.L119:
1473:Drivers/STM32F0xx_HAL_Driver/Src/stm32f0xx_hal_i2c.c ****   }
1474:Drivers/STM32F0xx_HAL_Driver/Src/stm32f0xx_hal_i2c.c **** }
 2672              		.loc 1 1474 0
 2673 0186 1800     		movs	r0, r3
 2674 0188 BD46     		mov	sp, r7
 2675 018a 07B0     		add	sp, sp, #28
 2676              		@ sp needed
 2677 018c 90BD     		pop	{r4, r7, pc}
 2678              	.L126:
 2679 018e C046     		.align	2
 2680              	.L125:
 2681 0190 0000FFFF 		.word	-65536
 2682 0194 00000000 		.word	I2C_Master_ISR_DMA
 2683 0198 00000000 		.word	I2C_DMAMasterTransmitCplt
 2684 019c 00000000 		.word	I2C_DMAError
 2685 01a0 00000000 		.word	I2C_Master_ISR_IT
 2686              		.cfi_endproc
 2687              	.LFE47:
 2689              		.section	.text.HAL_I2C_Master_Receive_DMA,"ax",%progbits
 2690              		.align	1
 2691              		.global	HAL_I2C_Master_Receive_DMA
 2692              		.syntax unified
 2693              		.code	16
 2694              		.thumb_func
 2695              		.fpu softvfp
 2697              	HAL_I2C_Master_Receive_DMA:
 2698              	.LFB48:
1475:Drivers/STM32F0xx_HAL_Driver/Src/stm32f0xx_hal_i2c.c **** 
1476:Drivers/STM32F0xx_HAL_Driver/Src/stm32f0xx_hal_i2c.c **** /**
1477:Drivers/STM32F0xx_HAL_Driver/Src/stm32f0xx_hal_i2c.c ****   * @brief  Receive in master mode an amount of data in non-blocking mode with DMA 
1478:Drivers/STM32F0xx_HAL_Driver/Src/stm32f0xx_hal_i2c.c ****   * @param  hi2c Pointer to a I2C_HandleTypeDef structure that contains
1479:Drivers/STM32F0xx_HAL_Driver/Src/stm32f0xx_hal_i2c.c ****   *                the configuration information for the specified I2C.
1480:Drivers/STM32F0xx_HAL_Driver/Src/stm32f0xx_hal_i2c.c ****   * @param  DevAddress Target device address: The device 7 bits address value
1481:Drivers/STM32F0xx_HAL_Driver/Src/stm32f0xx_hal_i2c.c ****   *         in datasheet must be shift at right before call interface
1482:Drivers/STM32F0xx_HAL_Driver/Src/stm32f0xx_hal_i2c.c ****   * @param  pData Pointer to data buffer
1483:Drivers/STM32F0xx_HAL_Driver/Src/stm32f0xx_hal_i2c.c ****   * @param  Size Amount of data to be sent
1484:Drivers/STM32F0xx_HAL_Driver/Src/stm32f0xx_hal_i2c.c ****   * @retval HAL status
