ARM GAS  /tmp/ccUvWnju.s 			page 1


   1              		.cpu cortex-m0
   2              		.eabi_attribute 20, 1
   3              		.eabi_attribute 21, 1
   4              		.eabi_attribute 23, 3
   5              		.eabi_attribute 24, 1
   6              		.eabi_attribute 25, 1
   7              		.eabi_attribute 26, 1
   8              		.eabi_attribute 30, 4
   9              		.eabi_attribute 34, 0
  10              		.eabi_attribute 18, 4
  11              		.file	"stm32f0xx_hal_dma.c"
  12              		.text
  13              	.Ltext0:
  14              		.cfi_sections	.debug_frame
  15              		.section	.text.HAL_DMA_Init,"ax",%progbits
  16              		.align	1
  17              		.global	HAL_DMA_Init
  18              		.syntax unified
  19              		.code	16
  20              		.thumb_func
  21              		.fpu softvfp
  23              	HAL_DMA_Init:
  24              	.LFB35:
  25              		.file 1 "Drivers/STM32F0xx_HAL_Driver/Src/stm32f0xx_hal_dma.c"
   1:Drivers/STM32F0xx_HAL_Driver/Src/stm32f0xx_hal_dma.c **** /**
   2:Drivers/STM32F0xx_HAL_Driver/Src/stm32f0xx_hal_dma.c ****   ******************************************************************************
   3:Drivers/STM32F0xx_HAL_Driver/Src/stm32f0xx_hal_dma.c ****   * @file    stm32f0xx_hal_dma.c
   4:Drivers/STM32F0xx_HAL_Driver/Src/stm32f0xx_hal_dma.c ****   * @author  MCD Application Team
   5:Drivers/STM32F0xx_HAL_Driver/Src/stm32f0xx_hal_dma.c ****   * @version V1.4.0
   6:Drivers/STM32F0xx_HAL_Driver/Src/stm32f0xx_hal_dma.c ****   * @date    27-May-2016
   7:Drivers/STM32F0xx_HAL_Driver/Src/stm32f0xx_hal_dma.c ****   * @brief   DMA HAL module driver.
   8:Drivers/STM32F0xx_HAL_Driver/Src/stm32f0xx_hal_dma.c ****   *    
   9:Drivers/STM32F0xx_HAL_Driver/Src/stm32f0xx_hal_dma.c ****   *         This file provides firmware functions to manage the following 
  10:Drivers/STM32F0xx_HAL_Driver/Src/stm32f0xx_hal_dma.c ****   *         functionalities of the Direct Memory Access (DMA) peripheral:
  11:Drivers/STM32F0xx_HAL_Driver/Src/stm32f0xx_hal_dma.c ****   *           + Initialization and de-initialization functions
  12:Drivers/STM32F0xx_HAL_Driver/Src/stm32f0xx_hal_dma.c ****   *           + IO operation functions
  13:Drivers/STM32F0xx_HAL_Driver/Src/stm32f0xx_hal_dma.c ****   *           + Peripheral State and errors functions
  14:Drivers/STM32F0xx_HAL_Driver/Src/stm32f0xx_hal_dma.c ****   @verbatim     
  15:Drivers/STM32F0xx_HAL_Driver/Src/stm32f0xx_hal_dma.c ****   ==============================================================================      
  16:Drivers/STM32F0xx_HAL_Driver/Src/stm32f0xx_hal_dma.c ****                         ##### How to use this driver #####
  17:Drivers/STM32F0xx_HAL_Driver/Src/stm32f0xx_hal_dma.c ****   ============================================================================== 
  18:Drivers/STM32F0xx_HAL_Driver/Src/stm32f0xx_hal_dma.c ****   [..]
  19:Drivers/STM32F0xx_HAL_Driver/Src/stm32f0xx_hal_dma.c ****    (#) Enable and configure the peripheral to be connected to the DMA Channel
  20:Drivers/STM32F0xx_HAL_Driver/Src/stm32f0xx_hal_dma.c ****        (except for internal SRAM / FLASH memories: no initialization is 
  21:Drivers/STM32F0xx_HAL_Driver/Src/stm32f0xx_hal_dma.c ****        necessary) please refer to Reference manual for connection between peripherals
  22:Drivers/STM32F0xx_HAL_Driver/Src/stm32f0xx_hal_dma.c ****        and DMA requests .
  23:Drivers/STM32F0xx_HAL_Driver/Src/stm32f0xx_hal_dma.c **** 
  24:Drivers/STM32F0xx_HAL_Driver/Src/stm32f0xx_hal_dma.c ****    (#) For a given Channel, program the required configuration through the following parameters:   
  25:Drivers/STM32F0xx_HAL_Driver/Src/stm32f0xx_hal_dma.c ****        Transfer Direction, Source and Destination data formats, 
  26:Drivers/STM32F0xx_HAL_Driver/Src/stm32f0xx_hal_dma.c ****        Circular or Normal mode, Channel Priority level, Source and Destination Increment mode, 
  27:Drivers/STM32F0xx_HAL_Driver/Src/stm32f0xx_hal_dma.c ****        using HAL_DMA_Init() function.
  28:Drivers/STM32F0xx_HAL_Driver/Src/stm32f0xx_hal_dma.c **** 
  29:Drivers/STM32F0xx_HAL_Driver/Src/stm32f0xx_hal_dma.c ****    (#) Use HAL_DMA_GetState() function to return the DMA state and HAL_DMA_GetError() in case of er
  30:Drivers/STM32F0xx_HAL_Driver/Src/stm32f0xx_hal_dma.c ****        detection.
  31:Drivers/STM32F0xx_HAL_Driver/Src/stm32f0xx_hal_dma.c ****                     
  32:Drivers/STM32F0xx_HAL_Driver/Src/stm32f0xx_hal_dma.c ****    (#) Use HAL_DMA_Abort() function to abort the current transfer
  33:Drivers/STM32F0xx_HAL_Driver/Src/stm32f0xx_hal_dma.c ****                    
ARM GAS  /tmp/ccUvWnju.s 			page 2


  34:Drivers/STM32F0xx_HAL_Driver/Src/stm32f0xx_hal_dma.c ****      -@-   In Memory-to-Memory transfer mode, Circular mode is not allowed.
  35:Drivers/STM32F0xx_HAL_Driver/Src/stm32f0xx_hal_dma.c ****      *** Polling mode IO operation ***
  36:Drivers/STM32F0xx_HAL_Driver/Src/stm32f0xx_hal_dma.c ****      =================================   
  37:Drivers/STM32F0xx_HAL_Driver/Src/stm32f0xx_hal_dma.c ****     [..] 
  38:Drivers/STM32F0xx_HAL_Driver/Src/stm32f0xx_hal_dma.c ****       (+) Use HAL_DMA_Start() to start DMA transfer after the configuration of Source 
  39:Drivers/STM32F0xx_HAL_Driver/Src/stm32f0xx_hal_dma.c ****           address and destination address and the Length of data to be transferred
  40:Drivers/STM32F0xx_HAL_Driver/Src/stm32f0xx_hal_dma.c ****       (+) Use HAL_DMA_PollForTransfer() to poll for the end of current transfer, in this  
  41:Drivers/STM32F0xx_HAL_Driver/Src/stm32f0xx_hal_dma.c ****           case a fixed Timeout can be configured by User depending from his application.
  42:Drivers/STM32F0xx_HAL_Driver/Src/stm32f0xx_hal_dma.c **** 
  43:Drivers/STM32F0xx_HAL_Driver/Src/stm32f0xx_hal_dma.c ****      *** Interrupt mode IO operation ***    
  44:Drivers/STM32F0xx_HAL_Driver/Src/stm32f0xx_hal_dma.c ****      =================================== 
  45:Drivers/STM32F0xx_HAL_Driver/Src/stm32f0xx_hal_dma.c ****     [..]
  46:Drivers/STM32F0xx_HAL_Driver/Src/stm32f0xx_hal_dma.c ****       (+) Configure the DMA interrupt priority using HAL_NVIC_SetPriority()
  47:Drivers/STM32F0xx_HAL_Driver/Src/stm32f0xx_hal_dma.c ****       (+) Enable the DMA IRQ handler using HAL_NVIC_EnableIRQ() 
  48:Drivers/STM32F0xx_HAL_Driver/Src/stm32f0xx_hal_dma.c ****       (+) Use HAL_DMA_Start_IT() to start DMA transfer after the configuration of  
  49:Drivers/STM32F0xx_HAL_Driver/Src/stm32f0xx_hal_dma.c ****           Source address and destination address and the Length of data to be transferred. 
  50:Drivers/STM32F0xx_HAL_Driver/Src/stm32f0xx_hal_dma.c ****           In this case the DMA interrupt is configured 
  51:Drivers/STM32F0xx_HAL_Driver/Src/stm32f0xx_hal_dma.c ****       (+) Use HAL_DMAy_Channelx_IRQHandler() called under DMA_IRQHandler() Interrupt subroutine
  52:Drivers/STM32F0xx_HAL_Driver/Src/stm32f0xx_hal_dma.c ****       (+) At the end of data transfer HAL_DMA_IRQHandler() function is executed and user can 
  53:Drivers/STM32F0xx_HAL_Driver/Src/stm32f0xx_hal_dma.c ****           add his own function by customization of function pointer XferCpltCallback and 
  54:Drivers/STM32F0xx_HAL_Driver/Src/stm32f0xx_hal_dma.c ****           XferErrorCallback (i.e a member of DMA handle structure). 
  55:Drivers/STM32F0xx_HAL_Driver/Src/stm32f0xx_hal_dma.c **** 
  56:Drivers/STM32F0xx_HAL_Driver/Src/stm32f0xx_hal_dma.c ****      *** DMA HAL driver macros list ***
  57:Drivers/STM32F0xx_HAL_Driver/Src/stm32f0xx_hal_dma.c ****      ============================================= 
  58:Drivers/STM32F0xx_HAL_Driver/Src/stm32f0xx_hal_dma.c ****      [..]
  59:Drivers/STM32F0xx_HAL_Driver/Src/stm32f0xx_hal_dma.c ****        Below the list of most used macros in DMA HAL driver.
  60:Drivers/STM32F0xx_HAL_Driver/Src/stm32f0xx_hal_dma.c **** 
  61:Drivers/STM32F0xx_HAL_Driver/Src/stm32f0xx_hal_dma.c ****        (+) __HAL_DMA_ENABLE: Enable the specified DMA Channel.
  62:Drivers/STM32F0xx_HAL_Driver/Src/stm32f0xx_hal_dma.c ****        (+) __HAL_DMA_DISABLE: Disable the specified DMA Channel.
  63:Drivers/STM32F0xx_HAL_Driver/Src/stm32f0xx_hal_dma.c ****        (+) __HAL_DMA_GET_FLAG: Get the DMA Channel pending flags.
  64:Drivers/STM32F0xx_HAL_Driver/Src/stm32f0xx_hal_dma.c ****        (+) __HAL_DMA_CLEAR_FLAG: Clear the DMA Channel pending flags.
  65:Drivers/STM32F0xx_HAL_Driver/Src/stm32f0xx_hal_dma.c ****        (+) __HAL_DMA_ENABLE_IT: Enable the specified DMA Channel interrupts.
  66:Drivers/STM32F0xx_HAL_Driver/Src/stm32f0xx_hal_dma.c ****        (+) __HAL_DMA_DISABLE_IT: Disable the specified DMA Channel interrupts.
  67:Drivers/STM32F0xx_HAL_Driver/Src/stm32f0xx_hal_dma.c ****        (+) __HAL_DMA_GET_IT_SOURCE: Check whether the specified DMA Channel interrupt has occurred 
  68:Drivers/STM32F0xx_HAL_Driver/Src/stm32f0xx_hal_dma.c **** 
  69:Drivers/STM32F0xx_HAL_Driver/Src/stm32f0xx_hal_dma.c ****      [..] 
  70:Drivers/STM32F0xx_HAL_Driver/Src/stm32f0xx_hal_dma.c ****       (@) You can refer to the DMA HAL driver header file for more useful macros  
  71:Drivers/STM32F0xx_HAL_Driver/Src/stm32f0xx_hal_dma.c **** 
  72:Drivers/STM32F0xx_HAL_Driver/Src/stm32f0xx_hal_dma.c ****   @endverbatim
  73:Drivers/STM32F0xx_HAL_Driver/Src/stm32f0xx_hal_dma.c ****   ******************************************************************************
  74:Drivers/STM32F0xx_HAL_Driver/Src/stm32f0xx_hal_dma.c ****   * @attention
  75:Drivers/STM32F0xx_HAL_Driver/Src/stm32f0xx_hal_dma.c ****   *
  76:Drivers/STM32F0xx_HAL_Driver/Src/stm32f0xx_hal_dma.c ****   * <h2><center>&copy; COPYRIGHT(c) 2016 STMicroelectronics</center></h2>
  77:Drivers/STM32F0xx_HAL_Driver/Src/stm32f0xx_hal_dma.c ****   *
  78:Drivers/STM32F0xx_HAL_Driver/Src/stm32f0xx_hal_dma.c ****   * Redistribution and use in source and binary forms, with or without modification,
  79:Drivers/STM32F0xx_HAL_Driver/Src/stm32f0xx_hal_dma.c ****   * are permitted provided that the following conditions are met:
  80:Drivers/STM32F0xx_HAL_Driver/Src/stm32f0xx_hal_dma.c ****   *   1. Redistributions of source code must retain the above copyright notice,
  81:Drivers/STM32F0xx_HAL_Driver/Src/stm32f0xx_hal_dma.c ****   *      this list of conditions and the following disclaimer.
  82:Drivers/STM32F0xx_HAL_Driver/Src/stm32f0xx_hal_dma.c ****   *   2. Redistributions in binary form must reproduce the above copyright notice,
  83:Drivers/STM32F0xx_HAL_Driver/Src/stm32f0xx_hal_dma.c ****   *      this list of conditions and the following disclaimer in the documentation
  84:Drivers/STM32F0xx_HAL_Driver/Src/stm32f0xx_hal_dma.c ****   *      and/or other materials provided with the distribution.
  85:Drivers/STM32F0xx_HAL_Driver/Src/stm32f0xx_hal_dma.c ****   *   3. Neither the name of STMicroelectronics nor the names of its contributors
  86:Drivers/STM32F0xx_HAL_Driver/Src/stm32f0xx_hal_dma.c ****   *      may be used to endorse or promote products derived from this software
  87:Drivers/STM32F0xx_HAL_Driver/Src/stm32f0xx_hal_dma.c ****   *      without specific prior written permission.
  88:Drivers/STM32F0xx_HAL_Driver/Src/stm32f0xx_hal_dma.c ****   *
  89:Drivers/STM32F0xx_HAL_Driver/Src/stm32f0xx_hal_dma.c ****   * THIS SOFTWARE IS PROVIDED BY THE COPYRIGHT HOLDERS AND CONTRIBUTORS "AS IS"
  90:Drivers/STM32F0xx_HAL_Driver/Src/stm32f0xx_hal_dma.c ****   * AND ANY EXPRESS OR IMPLIED WARRANTIES, INCLUDING, BUT NOT LIMITED TO, THE
ARM GAS  /tmp/ccUvWnju.s 			page 3


  91:Drivers/STM32F0xx_HAL_Driver/Src/stm32f0xx_hal_dma.c ****   * IMPLIED WARRANTIES OF MERCHANTABILITY AND FITNESS FOR A PARTICULAR PURPOSE ARE
  92:Drivers/STM32F0xx_HAL_Driver/Src/stm32f0xx_hal_dma.c ****   * DISCLAIMED. IN NO EVENT SHALL THE COPYRIGHT HOLDER OR CONTRIBUTORS BE LIABLE
  93:Drivers/STM32F0xx_HAL_Driver/Src/stm32f0xx_hal_dma.c ****   * FOR ANY DIRECT, INDIRECT, INCIDENTAL, SPECIAL, EXEMPLARY, OR CONSEQUENTIAL
  94:Drivers/STM32F0xx_HAL_Driver/Src/stm32f0xx_hal_dma.c ****   * DAMAGES (INCLUDING, BUT NOT LIMITED TO, PROCUREMENT OF SUBSTITUTE GOODS OR
  95:Drivers/STM32F0xx_HAL_Driver/Src/stm32f0xx_hal_dma.c ****   * SERVICES; LOSS OF USE, DATA, OR PROFITS; OR BUSINESS INTERRUPTION) HOWEVER
  96:Drivers/STM32F0xx_HAL_Driver/Src/stm32f0xx_hal_dma.c ****   * CAUSED AND ON ANY THEORY OF LIABILITY, WHETHER IN CONTRACT, STRICT LIABILITY,
  97:Drivers/STM32F0xx_HAL_Driver/Src/stm32f0xx_hal_dma.c ****   * OR TORT (INCLUDING NEGLIGENCE OR OTHERWISE) ARISING IN ANY WAY OUT OF THE USE
  98:Drivers/STM32F0xx_HAL_Driver/Src/stm32f0xx_hal_dma.c ****   * OF THIS SOFTWARE, EVEN IF ADVISED OF THE POSSIBILITY OF SUCH DAMAGE.
  99:Drivers/STM32F0xx_HAL_Driver/Src/stm32f0xx_hal_dma.c ****   *
 100:Drivers/STM32F0xx_HAL_Driver/Src/stm32f0xx_hal_dma.c ****   ******************************************************************************
 101:Drivers/STM32F0xx_HAL_Driver/Src/stm32f0xx_hal_dma.c ****   */ 
 102:Drivers/STM32F0xx_HAL_Driver/Src/stm32f0xx_hal_dma.c **** 
 103:Drivers/STM32F0xx_HAL_Driver/Src/stm32f0xx_hal_dma.c **** /* Includes ------------------------------------------------------------------*/
 104:Drivers/STM32F0xx_HAL_Driver/Src/stm32f0xx_hal_dma.c **** #include "stm32f0xx_hal.h"
 105:Drivers/STM32F0xx_HAL_Driver/Src/stm32f0xx_hal_dma.c **** 
 106:Drivers/STM32F0xx_HAL_Driver/Src/stm32f0xx_hal_dma.c **** /** @addtogroup STM32F0xx_HAL_Driver
 107:Drivers/STM32F0xx_HAL_Driver/Src/stm32f0xx_hal_dma.c ****   * @{
 108:Drivers/STM32F0xx_HAL_Driver/Src/stm32f0xx_hal_dma.c ****   */
 109:Drivers/STM32F0xx_HAL_Driver/Src/stm32f0xx_hal_dma.c **** 
 110:Drivers/STM32F0xx_HAL_Driver/Src/stm32f0xx_hal_dma.c **** #ifdef HAL_DMA_MODULE_ENABLED
 111:Drivers/STM32F0xx_HAL_Driver/Src/stm32f0xx_hal_dma.c **** 
 112:Drivers/STM32F0xx_HAL_Driver/Src/stm32f0xx_hal_dma.c **** /** @defgroup DMA DMA
 113:Drivers/STM32F0xx_HAL_Driver/Src/stm32f0xx_hal_dma.c ****   * @brief DMA HAL module driver
 114:Drivers/STM32F0xx_HAL_Driver/Src/stm32f0xx_hal_dma.c ****   * @{
 115:Drivers/STM32F0xx_HAL_Driver/Src/stm32f0xx_hal_dma.c ****   */
 116:Drivers/STM32F0xx_HAL_Driver/Src/stm32f0xx_hal_dma.c **** 
 117:Drivers/STM32F0xx_HAL_Driver/Src/stm32f0xx_hal_dma.c **** 
 118:Drivers/STM32F0xx_HAL_Driver/Src/stm32f0xx_hal_dma.c **** /* Private typedef -----------------------------------------------------------*/
 119:Drivers/STM32F0xx_HAL_Driver/Src/stm32f0xx_hal_dma.c **** /* Private define ------------------------------------------------------------*/
 120:Drivers/STM32F0xx_HAL_Driver/Src/stm32f0xx_hal_dma.c **** /** @defgroup DMA_Private_Constants DMA Private Constants
 121:Drivers/STM32F0xx_HAL_Driver/Src/stm32f0xx_hal_dma.c ****   * @{
 122:Drivers/STM32F0xx_HAL_Driver/Src/stm32f0xx_hal_dma.c ****   */
 123:Drivers/STM32F0xx_HAL_Driver/Src/stm32f0xx_hal_dma.c **** #define HAL_TIMEOUT_DMA_ABORT    ((uint32_t)1000)  /* 1s  */
 124:Drivers/STM32F0xx_HAL_Driver/Src/stm32f0xx_hal_dma.c **** /**
 125:Drivers/STM32F0xx_HAL_Driver/Src/stm32f0xx_hal_dma.c ****   * @}
 126:Drivers/STM32F0xx_HAL_Driver/Src/stm32f0xx_hal_dma.c ****   */
 127:Drivers/STM32F0xx_HAL_Driver/Src/stm32f0xx_hal_dma.c **** 
 128:Drivers/STM32F0xx_HAL_Driver/Src/stm32f0xx_hal_dma.c **** /* Private macro -------------------------------------------------------------*/
 129:Drivers/STM32F0xx_HAL_Driver/Src/stm32f0xx_hal_dma.c **** /* Private macros ------------------------------------------------------------*/
 130:Drivers/STM32F0xx_HAL_Driver/Src/stm32f0xx_hal_dma.c **** /** @defgroup DMA_Private_Macros DMA Private Macros
 131:Drivers/STM32F0xx_HAL_Driver/Src/stm32f0xx_hal_dma.c ****   * @{
 132:Drivers/STM32F0xx_HAL_Driver/Src/stm32f0xx_hal_dma.c ****   */
 133:Drivers/STM32F0xx_HAL_Driver/Src/stm32f0xx_hal_dma.c **** /**
 134:Drivers/STM32F0xx_HAL_Driver/Src/stm32f0xx_hal_dma.c ****   * @}
 135:Drivers/STM32F0xx_HAL_Driver/Src/stm32f0xx_hal_dma.c ****   */
 136:Drivers/STM32F0xx_HAL_Driver/Src/stm32f0xx_hal_dma.c **** /* Private variables ---------------------------------------------------------*/
 137:Drivers/STM32F0xx_HAL_Driver/Src/stm32f0xx_hal_dma.c **** /* Private function prototypes -----------------------------------------------*/
 138:Drivers/STM32F0xx_HAL_Driver/Src/stm32f0xx_hal_dma.c **** /** @defgroup DMA_Private_Functions DMA Private Functions
 139:Drivers/STM32F0xx_HAL_Driver/Src/stm32f0xx_hal_dma.c ****   * @{
 140:Drivers/STM32F0xx_HAL_Driver/Src/stm32f0xx_hal_dma.c ****   */
 141:Drivers/STM32F0xx_HAL_Driver/Src/stm32f0xx_hal_dma.c **** static void DMA_SetConfig(DMA_HandleTypeDef *hdma, uint32_t SrcAddress, uint32_t DstAddress, uint32
 142:Drivers/STM32F0xx_HAL_Driver/Src/stm32f0xx_hal_dma.c **** /**
 143:Drivers/STM32F0xx_HAL_Driver/Src/stm32f0xx_hal_dma.c ****   * @}
 144:Drivers/STM32F0xx_HAL_Driver/Src/stm32f0xx_hal_dma.c ****   */
 145:Drivers/STM32F0xx_HAL_Driver/Src/stm32f0xx_hal_dma.c **** 
 146:Drivers/STM32F0xx_HAL_Driver/Src/stm32f0xx_hal_dma.c **** /* Exported functions ---------------------------------------------------------*/
 147:Drivers/STM32F0xx_HAL_Driver/Src/stm32f0xx_hal_dma.c **** 
ARM GAS  /tmp/ccUvWnju.s 			page 4


 148:Drivers/STM32F0xx_HAL_Driver/Src/stm32f0xx_hal_dma.c **** /** @defgroup DMA_Exported_Functions DMA Exported Functions
 149:Drivers/STM32F0xx_HAL_Driver/Src/stm32f0xx_hal_dma.c ****   * @{
 150:Drivers/STM32F0xx_HAL_Driver/Src/stm32f0xx_hal_dma.c ****   */
 151:Drivers/STM32F0xx_HAL_Driver/Src/stm32f0xx_hal_dma.c **** 
 152:Drivers/STM32F0xx_HAL_Driver/Src/stm32f0xx_hal_dma.c **** /** @defgroup DMA_Exported_Functions_Group1 Initialization and de-initialization functions
 153:Drivers/STM32F0xx_HAL_Driver/Src/stm32f0xx_hal_dma.c ****  *  @brief   Initialization and de-initialization functions 
 154:Drivers/STM32F0xx_HAL_Driver/Src/stm32f0xx_hal_dma.c ****  *
 155:Drivers/STM32F0xx_HAL_Driver/Src/stm32f0xx_hal_dma.c **** @verbatim   
 156:Drivers/STM32F0xx_HAL_Driver/Src/stm32f0xx_hal_dma.c ****  ===============================================================================
 157:Drivers/STM32F0xx_HAL_Driver/Src/stm32f0xx_hal_dma.c ****              ##### Initialization and de-initialization functions  #####
 158:Drivers/STM32F0xx_HAL_Driver/Src/stm32f0xx_hal_dma.c ****  ===============================================================================  
 159:Drivers/STM32F0xx_HAL_Driver/Src/stm32f0xx_hal_dma.c ****     [..]
 160:Drivers/STM32F0xx_HAL_Driver/Src/stm32f0xx_hal_dma.c ****     This section provides functions allowing to initialize the DMA Channel source
 161:Drivers/STM32F0xx_HAL_Driver/Src/stm32f0xx_hal_dma.c ****     and destination addresses, incrementation and data sizes, transfer direction, 
 162:Drivers/STM32F0xx_HAL_Driver/Src/stm32f0xx_hal_dma.c ****     circular/normal mode selection, memory-to-memory mode selection and Channel priority value.
 163:Drivers/STM32F0xx_HAL_Driver/Src/stm32f0xx_hal_dma.c ****     [..]
 164:Drivers/STM32F0xx_HAL_Driver/Src/stm32f0xx_hal_dma.c ****     The HAL_DMA_Init() function follows the DMA configuration procedures as described in
 165:Drivers/STM32F0xx_HAL_Driver/Src/stm32f0xx_hal_dma.c ****     reference manual.  
 166:Drivers/STM32F0xx_HAL_Driver/Src/stm32f0xx_hal_dma.c **** 
 167:Drivers/STM32F0xx_HAL_Driver/Src/stm32f0xx_hal_dma.c **** @endverbatim
 168:Drivers/STM32F0xx_HAL_Driver/Src/stm32f0xx_hal_dma.c ****   * @{
 169:Drivers/STM32F0xx_HAL_Driver/Src/stm32f0xx_hal_dma.c ****   */
 170:Drivers/STM32F0xx_HAL_Driver/Src/stm32f0xx_hal_dma.c ****   
 171:Drivers/STM32F0xx_HAL_Driver/Src/stm32f0xx_hal_dma.c **** /**
 172:Drivers/STM32F0xx_HAL_Driver/Src/stm32f0xx_hal_dma.c ****   * @brief  Initializes the DMA according to the specified
 173:Drivers/STM32F0xx_HAL_Driver/Src/stm32f0xx_hal_dma.c ****   *         parameters in the DMA_InitTypeDef and create the associated handle.
 174:Drivers/STM32F0xx_HAL_Driver/Src/stm32f0xx_hal_dma.c ****   * @param  hdma: Pointer to a DMA_HandleTypeDef structure that contains
 175:Drivers/STM32F0xx_HAL_Driver/Src/stm32f0xx_hal_dma.c ****   *               the configuration information for the specified DMA Channel.  
 176:Drivers/STM32F0xx_HAL_Driver/Src/stm32f0xx_hal_dma.c ****   * @retval HAL status
 177:Drivers/STM32F0xx_HAL_Driver/Src/stm32f0xx_hal_dma.c ****   */
 178:Drivers/STM32F0xx_HAL_Driver/Src/stm32f0xx_hal_dma.c **** HAL_StatusTypeDef HAL_DMA_Init(DMA_HandleTypeDef *hdma)
 179:Drivers/STM32F0xx_HAL_Driver/Src/stm32f0xx_hal_dma.c **** { 
  26              		.loc 1 179 0
  27              		.cfi_startproc
  28              	.LVL0:
  29 0000 0200     		movs	r2, r0
  30 0002 30B5     		push	{r4, r5, lr}
  31              	.LCFI0:
  32              		.cfi_def_cfa_offset 12
  33              		.cfi_offset 4, -12
  34              		.cfi_offset 5, -8
  35              		.cfi_offset 14, -4
 180:Drivers/STM32F0xx_HAL_Driver/Src/stm32f0xx_hal_dma.c ****   uint32_t tmp = 0;
 181:Drivers/STM32F0xx_HAL_Driver/Src/stm32f0xx_hal_dma.c ****   
 182:Drivers/STM32F0xx_HAL_Driver/Src/stm32f0xx_hal_dma.c ****   /* Check the DMA handle allocation */
 183:Drivers/STM32F0xx_HAL_Driver/Src/stm32f0xx_hal_dma.c ****   if(hdma == NULL)
 184:Drivers/STM32F0xx_HAL_Driver/Src/stm32f0xx_hal_dma.c ****   {
 185:Drivers/STM32F0xx_HAL_Driver/Src/stm32f0xx_hal_dma.c ****     return HAL_ERROR;
  36              		.loc 1 185 0
  37 0004 0120     		movs	r0, #1
  38              	.LVL1:
 183:Drivers/STM32F0xx_HAL_Driver/Src/stm32f0xx_hal_dma.c ****   {
  39              		.loc 1 183 0
  40 0006 002A     		cmp	r2, #0
  41 0008 1FD0     		beq	.L2
 186:Drivers/STM32F0xx_HAL_Driver/Src/stm32f0xx_hal_dma.c ****   }
 187:Drivers/STM32F0xx_HAL_Driver/Src/stm32f0xx_hal_dma.c ****   
ARM GAS  /tmp/ccUvWnju.s 			page 5


 188:Drivers/STM32F0xx_HAL_Driver/Src/stm32f0xx_hal_dma.c ****   /* Check the parameters */
 189:Drivers/STM32F0xx_HAL_Driver/Src/stm32f0xx_hal_dma.c ****   assert_param(IS_DMA_ALL_INSTANCE(hdma->Instance));
 190:Drivers/STM32F0xx_HAL_Driver/Src/stm32f0xx_hal_dma.c ****   assert_param(IS_DMA_DIRECTION(hdma->Init.Direction));
 191:Drivers/STM32F0xx_HAL_Driver/Src/stm32f0xx_hal_dma.c ****   assert_param(IS_DMA_PERIPHERAL_INC_STATE(hdma->Init.PeriphInc));
 192:Drivers/STM32F0xx_HAL_Driver/Src/stm32f0xx_hal_dma.c ****   assert_param(IS_DMA_MEMORY_INC_STATE(hdma->Init.MemInc));
 193:Drivers/STM32F0xx_HAL_Driver/Src/stm32f0xx_hal_dma.c ****   assert_param(IS_DMA_PERIPHERAL_DATA_SIZE(hdma->Init.PeriphDataAlignment));
 194:Drivers/STM32F0xx_HAL_Driver/Src/stm32f0xx_hal_dma.c ****   assert_param(IS_DMA_MEMORY_DATA_SIZE(hdma->Init.MemDataAlignment));
 195:Drivers/STM32F0xx_HAL_Driver/Src/stm32f0xx_hal_dma.c ****   assert_param(IS_DMA_MODE(hdma->Init.Mode));
 196:Drivers/STM32F0xx_HAL_Driver/Src/stm32f0xx_hal_dma.c ****   assert_param(IS_DMA_PRIORITY(hdma->Init.Priority));
 197:Drivers/STM32F0xx_HAL_Driver/Src/stm32f0xx_hal_dma.c **** 
 198:Drivers/STM32F0xx_HAL_Driver/Src/stm32f0xx_hal_dma.c ****   if(hdma->State == HAL_DMA_STATE_RESET)
  42              		.loc 1 198 0
  43 000a 911C     		adds	r1, r2, #2
  44 000c CB7F     		ldrb	r3, [r1, #31]
  45 000e DBB2     		uxtb	r3, r3
  46 0010 002B     		cmp	r3, #0
  47 0012 01D1     		bne	.L3
 199:Drivers/STM32F0xx_HAL_Driver/Src/stm32f0xx_hal_dma.c ****   {  
 200:Drivers/STM32F0xx_HAL_Driver/Src/stm32f0xx_hal_dma.c ****     /* Allocate lock resource and initialize it */
 201:Drivers/STM32F0xx_HAL_Driver/Src/stm32f0xx_hal_dma.c ****     hdma->Lock = HAL_UNLOCKED;
  48              		.loc 1 201 0
  49 0014 1018     		adds	r0, r2, r0
  50 0016 C377     		strb	r3, [r0, #31]
  51              	.L3:
 202:Drivers/STM32F0xx_HAL_Driver/Src/stm32f0xx_hal_dma.c ****   }
 203:Drivers/STM32F0xx_HAL_Driver/Src/stm32f0xx_hal_dma.c ****   
 204:Drivers/STM32F0xx_HAL_Driver/Src/stm32f0xx_hal_dma.c ****   /* Change DMA peripheral state */
 205:Drivers/STM32F0xx_HAL_Driver/Src/stm32f0xx_hal_dma.c ****   hdma->State = HAL_DMA_STATE_BUSY;
  52              		.loc 1 205 0
  53 0018 0223     		movs	r3, #2
 206:Drivers/STM32F0xx_HAL_Driver/Src/stm32f0xx_hal_dma.c **** 
 207:Drivers/STM32F0xx_HAL_Driver/Src/stm32f0xx_hal_dma.c ****   /* Get the CR register value */
 208:Drivers/STM32F0xx_HAL_Driver/Src/stm32f0xx_hal_dma.c ****   tmp = hdma->Instance->CCR;
  54              		.loc 1 208 0
  55 001a 1068     		ldr	r0, [r2]
 205:Drivers/STM32F0xx_HAL_Driver/Src/stm32f0xx_hal_dma.c **** 
  56              		.loc 1 205 0
  57 001c CB77     		strb	r3, [r1, #31]
  58              		.loc 1 208 0
  59 001e 0468     		ldr	r4, [r0]
  60              	.LVL2:
 209:Drivers/STM32F0xx_HAL_Driver/Src/stm32f0xx_hal_dma.c ****   
 210:Drivers/STM32F0xx_HAL_Driver/Src/stm32f0xx_hal_dma.c ****   /* Clear PL, MSIZE, PSIZE, MINC, PINC, CIRC, DIR bits */
 211:Drivers/STM32F0xx_HAL_Driver/Src/stm32f0xx_hal_dma.c ****   tmp &= ((uint32_t)~(DMA_CCR_PL    | DMA_CCR_MSIZE  | DMA_CCR_PSIZE  | \
  61              		.loc 1 211 0
  62 0020 0A4B     		ldr	r3, .L5
 212:Drivers/STM32F0xx_HAL_Driver/Src/stm32f0xx_hal_dma.c ****                       DMA_CCR_MINC  | DMA_CCR_PINC   | DMA_CCR_CIRC   | \
 213:Drivers/STM32F0xx_HAL_Driver/Src/stm32f0xx_hal_dma.c ****                       DMA_CCR_DIR));
 214:Drivers/STM32F0xx_HAL_Driver/Src/stm32f0xx_hal_dma.c ****   
 215:Drivers/STM32F0xx_HAL_Driver/Src/stm32f0xx_hal_dma.c ****   /* Prepare the DMA Channel configuration */
 216:Drivers/STM32F0xx_HAL_Driver/Src/stm32f0xx_hal_dma.c ****   tmp |=  hdma->Init.Direction        |
  63              		.loc 1 216 0
  64 0022 9568     		ldr	r5, [r2, #8]
 211:Drivers/STM32F0xx_HAL_Driver/Src/stm32f0xx_hal_dma.c ****                       DMA_CCR_MINC  | DMA_CCR_PINC   | DMA_CCR_CIRC   | \
  65              		.loc 1 211 0
  66 0024 1C40     		ands	r4, r3
  67              	.LVL3:
ARM GAS  /tmp/ccUvWnju.s 			page 6


  68              		.loc 1 216 0
  69 0026 5368     		ldr	r3, [r2, #4]
  70 0028 2B43     		orrs	r3, r5
 217:Drivers/STM32F0xx_HAL_Driver/Src/stm32f0xx_hal_dma.c ****           hdma->Init.PeriphInc           | hdma->Init.MemInc           |
  71              		.loc 1 217 0
  72 002a D568     		ldr	r5, [r2, #12]
  73 002c 2B43     		orrs	r3, r5
  74 002e 1569     		ldr	r5, [r2, #16]
  75 0030 2B43     		orrs	r3, r5
 218:Drivers/STM32F0xx_HAL_Driver/Src/stm32f0xx_hal_dma.c ****           hdma->Init.PeriphDataAlignment | hdma->Init.MemDataAlignment |
  76              		.loc 1 218 0
  77 0032 5569     		ldr	r5, [r2, #20]
  78 0034 2B43     		orrs	r3, r5
  79 0036 9569     		ldr	r5, [r2, #24]
  80 0038 2B43     		orrs	r3, r5
 219:Drivers/STM32F0xx_HAL_Driver/Src/stm32f0xx_hal_dma.c ****           hdma->Init.Mode                | hdma->Init.Priority;
  81              		.loc 1 219 0
  82 003a D569     		ldr	r5, [r2, #28]
  83 003c 2B43     		orrs	r3, r5
 216:Drivers/STM32F0xx_HAL_Driver/Src/stm32f0xx_hal_dma.c ****           hdma->Init.PeriphInc           | hdma->Init.MemInc           |
  84              		.loc 1 216 0
  85 003e 2343     		orrs	r3, r4
  86              	.LVL4:
 220:Drivers/STM32F0xx_HAL_Driver/Src/stm32f0xx_hal_dma.c **** 
 221:Drivers/STM32F0xx_HAL_Driver/Src/stm32f0xx_hal_dma.c ****   /* Write to DMA Channel CR register */
 222:Drivers/STM32F0xx_HAL_Driver/Src/stm32f0xx_hal_dma.c ****   hdma->Instance->CCR = tmp;  
  87              		.loc 1 222 0
  88 0040 0360     		str	r3, [r0]
 223:Drivers/STM32F0xx_HAL_Driver/Src/stm32f0xx_hal_dma.c ****   
 224:Drivers/STM32F0xx_HAL_Driver/Src/stm32f0xx_hal_dma.c ****   /* Initialise the error code */
 225:Drivers/STM32F0xx_HAL_Driver/Src/stm32f0xx_hal_dma.c ****   hdma->ErrorCode = HAL_DMA_ERROR_NONE;
  89              		.loc 1 225 0
  90 0042 0020     		movs	r0, #0
 226:Drivers/STM32F0xx_HAL_Driver/Src/stm32f0xx_hal_dma.c **** 
 227:Drivers/STM32F0xx_HAL_Driver/Src/stm32f0xx_hal_dma.c ****   /* Initialize the DMA state*/
 228:Drivers/STM32F0xx_HAL_Driver/Src/stm32f0xx_hal_dma.c ****   hdma->State  = HAL_DMA_STATE_READY;
  91              		.loc 1 228 0
  92 0044 0123     		movs	r3, #1
  93              	.LVL5:
 225:Drivers/STM32F0xx_HAL_Driver/Src/stm32f0xx_hal_dma.c **** 
  94              		.loc 1 225 0
  95 0046 9063     		str	r0, [r2, #56]
  96              	.LVL6:
  97              		.loc 1 228 0
  98 0048 CB77     		strb	r3, [r1, #31]
  99              	.LVL7:
 100              	.L2:
 229:Drivers/STM32F0xx_HAL_Driver/Src/stm32f0xx_hal_dma.c ****   
 230:Drivers/STM32F0xx_HAL_Driver/Src/stm32f0xx_hal_dma.c ****   return HAL_OK;
 231:Drivers/STM32F0xx_HAL_Driver/Src/stm32f0xx_hal_dma.c **** }  
 101              		.loc 1 231 0
 102              		@ sp needed
 103 004a 30BD     		pop	{r4, r5, pc}
 104              	.L6:
 105              		.align	2
 106              	.L5:
 107 004c 0FC0FFFF 		.word	-16369
ARM GAS  /tmp/ccUvWnju.s 			page 7


 108              		.cfi_endproc
 109              	.LFE35:
 111              		.section	.text.HAL_DMA_DeInit,"ax",%progbits
 112              		.align	1
 113              		.global	HAL_DMA_DeInit
 114              		.syntax unified
 115              		.code	16
 116              		.thumb_func
 117              		.fpu softvfp
 119              	HAL_DMA_DeInit:
 120              	.LFB36:
 232:Drivers/STM32F0xx_HAL_Driver/Src/stm32f0xx_hal_dma.c ****   
 233:Drivers/STM32F0xx_HAL_Driver/Src/stm32f0xx_hal_dma.c **** /**
 234:Drivers/STM32F0xx_HAL_Driver/Src/stm32f0xx_hal_dma.c ****   * @brief  DeInitializes the DMA peripheral 
 235:Drivers/STM32F0xx_HAL_Driver/Src/stm32f0xx_hal_dma.c ****   * @param  hdma: pointer to a DMA_HandleTypeDef structure that contains
 236:Drivers/STM32F0xx_HAL_Driver/Src/stm32f0xx_hal_dma.c ****   *               the configuration information for the specified DMA Channel.  
 237:Drivers/STM32F0xx_HAL_Driver/Src/stm32f0xx_hal_dma.c ****   * @retval HAL status
 238:Drivers/STM32F0xx_HAL_Driver/Src/stm32f0xx_hal_dma.c ****   */
 239:Drivers/STM32F0xx_HAL_Driver/Src/stm32f0xx_hal_dma.c **** HAL_StatusTypeDef HAL_DMA_DeInit(DMA_HandleTypeDef *hdma)
 240:Drivers/STM32F0xx_HAL_Driver/Src/stm32f0xx_hal_dma.c **** {
 121              		.loc 1 240 0
 122              		.cfi_startproc
 123              	.LVL8:
 124 0000 0121     		movs	r1, #1
 125 0002 30B5     		push	{r4, r5, lr}
 126              	.LCFI1:
 127              		.cfi_def_cfa_offset 12
 128              		.cfi_offset 4, -12
 129              		.cfi_offset 5, -8
 130              		.cfi_offset 14, -4
 241:Drivers/STM32F0xx_HAL_Driver/Src/stm32f0xx_hal_dma.c ****   /* Check the DMA handle allocation */
 242:Drivers/STM32F0xx_HAL_Driver/Src/stm32f0xx_hal_dma.c ****   if(hdma == NULL)
 243:Drivers/STM32F0xx_HAL_Driver/Src/stm32f0xx_hal_dma.c ****   {
 244:Drivers/STM32F0xx_HAL_Driver/Src/stm32f0xx_hal_dma.c ****     return HAL_ERROR;
 131              		.loc 1 244 0
 132 0004 0B00     		movs	r3, r1
 242:Drivers/STM32F0xx_HAL_Driver/Src/stm32f0xx_hal_dma.c ****   {
 133              		.loc 1 242 0
 134 0006 0028     		cmp	r0, #0
 135 0008 52D0     		beq	.L8
 245:Drivers/STM32F0xx_HAL_Driver/Src/stm32f0xx_hal_dma.c ****   }
 246:Drivers/STM32F0xx_HAL_Driver/Src/stm32f0xx_hal_dma.c ****   
 247:Drivers/STM32F0xx_HAL_Driver/Src/stm32f0xx_hal_dma.c ****   /* Check the parameters */
 248:Drivers/STM32F0xx_HAL_Driver/Src/stm32f0xx_hal_dma.c ****   assert_param(IS_DMA_ALL_INSTANCE(hdma->Instance));
 249:Drivers/STM32F0xx_HAL_Driver/Src/stm32f0xx_hal_dma.c **** 
 250:Drivers/STM32F0xx_HAL_Driver/Src/stm32f0xx_hal_dma.c ****   /* Disable the selected DMA Channelx */
 251:Drivers/STM32F0xx_HAL_Driver/Src/stm32f0xx_hal_dma.c ****   __HAL_DMA_DISABLE(hdma);
 136              		.loc 1 251 0
 137 000a 0368     		ldr	r3, [r0]
 252:Drivers/STM32F0xx_HAL_Driver/Src/stm32f0xx_hal_dma.c **** 
 253:Drivers/STM32F0xx_HAL_Driver/Src/stm32f0xx_hal_dma.c ****   /* Reset DMA Channel control register */
 254:Drivers/STM32F0xx_HAL_Driver/Src/stm32f0xx_hal_dma.c ****   hdma->Instance->CCR  = 0;
 255:Drivers/STM32F0xx_HAL_Driver/Src/stm32f0xx_hal_dma.c **** 
 256:Drivers/STM32F0xx_HAL_Driver/Src/stm32f0xx_hal_dma.c ****   /* Reset DMA Channel Number of Data to Transfer register */
 257:Drivers/STM32F0xx_HAL_Driver/Src/stm32f0xx_hal_dma.c ****   hdma->Instance->CNDTR = 0;
 258:Drivers/STM32F0xx_HAL_Driver/Src/stm32f0xx_hal_dma.c **** 
 259:Drivers/STM32F0xx_HAL_Driver/Src/stm32f0xx_hal_dma.c ****   /* Reset DMA Channel peripheral address register */
ARM GAS  /tmp/ccUvWnju.s 			page 8


 260:Drivers/STM32F0xx_HAL_Driver/Src/stm32f0xx_hal_dma.c ****   hdma->Instance->CPAR  = 0;
 261:Drivers/STM32F0xx_HAL_Driver/Src/stm32f0xx_hal_dma.c ****   
 262:Drivers/STM32F0xx_HAL_Driver/Src/stm32f0xx_hal_dma.c ****   /* Reset DMA Channel memory address register */
 263:Drivers/STM32F0xx_HAL_Driver/Src/stm32f0xx_hal_dma.c ****   hdma->Instance->CMAR = 0;
 264:Drivers/STM32F0xx_HAL_Driver/Src/stm32f0xx_hal_dma.c **** 
 265:Drivers/STM32F0xx_HAL_Driver/Src/stm32f0xx_hal_dma.c ****   /* Clear all flags */
 266:Drivers/STM32F0xx_HAL_Driver/Src/stm32f0xx_hal_dma.c ****   __HAL_DMA_CLEAR_FLAG(hdma, __HAL_DMA_GET_TC_FLAG_INDEX(hdma));
 138              		.loc 1 266 0
 139 000c 3B4C     		ldr	r4, .L31
 251:Drivers/STM32F0xx_HAL_Driver/Src/stm32f0xx_hal_dma.c **** 
 140              		.loc 1 251 0
 141 000e 1A68     		ldr	r2, [r3]
 142 0010 8A43     		bics	r2, r1
 143 0012 1A60     		str	r2, [r3]
 254:Drivers/STM32F0xx_HAL_Driver/Src/stm32f0xx_hal_dma.c **** 
 144              		.loc 1 254 0
 145 0014 0022     		movs	r2, #0
 146 0016 1A60     		str	r2, [r3]
 257:Drivers/STM32F0xx_HAL_Driver/Src/stm32f0xx_hal_dma.c **** 
 147              		.loc 1 257 0
 148 0018 5A60     		str	r2, [r3, #4]
 260:Drivers/STM32F0xx_HAL_Driver/Src/stm32f0xx_hal_dma.c ****   
 149              		.loc 1 260 0
 150 001a 9A60     		str	r2, [r3, #8]
 263:Drivers/STM32F0xx_HAL_Driver/Src/stm32f0xx_hal_dma.c **** 
 151              		.loc 1 263 0
 152 001c DA60     		str	r2, [r3, #12]
 153              		.loc 1 266 0
 154 001e 0232     		adds	r2, r2, #2
 155 0020 A342     		cmp	r3, r4
 156 0022 11D0     		beq	.L9
 157              		.loc 1 266 0 is_stmt 0 discriminator 1
 158 0024 3649     		ldr	r1, .L31+4
 159 0026 1E32     		adds	r2, r2, #30
 160 0028 8B42     		cmp	r3, r1
 161 002a 0DD0     		beq	.L9
 162              		.loc 1 266 0 discriminator 3
 163 002c 354A     		ldr	r2, .L31+8
 164 002e 9342     		cmp	r3, r2
 165 0030 40D0     		beq	.L15
 166              		.loc 1 266 0 discriminator 5
 167 0032 354A     		ldr	r2, .L31+12
 168 0034 9342     		cmp	r3, r2
 169 0036 40D0     		beq	.L16
 170              		.loc 1 266 0 discriminator 7
 171 0038 344A     		ldr	r2, .L31+16
 172 003a 9342     		cmp	r3, r2
 173 003c 40D0     		beq	.L17
 174              		.loc 1 266 0 discriminator 9
 175 003e 344A     		ldr	r2, .L31+20
 176 0040 9342     		cmp	r3, r2
 177 0042 40D0     		beq	.L18
 178              		.loc 1 266 0
 179 0044 8022     		movs	r2, #128
 180 0046 9204     		lsls	r2, r2, #18
 181              	.L9:
 182              		.loc 1 266 0 discriminator 24
ARM GAS  /tmp/ccUvWnju.s 			page 9


 183 0048 3249     		ldr	r1, .L31+24
 184 004a 4A60     		str	r2, [r1, #4]
 267:Drivers/STM32F0xx_HAL_Driver/Src/stm32f0xx_hal_dma.c ****   __HAL_DMA_CLEAR_FLAG(hdma, __HAL_DMA_GET_TE_FLAG_INDEX(hdma));
 185              		.loc 1 267 0 is_stmt 1 discriminator 24
 186 004c 0822     		movs	r2, #8
 187 004e A342     		cmp	r3, r4
 188 0050 11D0     		beq	.L10
 189              		.loc 1 267 0 is_stmt 0 discriminator 1
 190 0052 2B4D     		ldr	r5, .L31+4
 191 0054 7832     		adds	r2, r2, #120
 192 0056 AB42     		cmp	r3, r5
 193 0058 0DD0     		beq	.L10
 194              		.loc 1 267 0 discriminator 3
 195 005a 2A4A     		ldr	r2, .L31+8
 196 005c 9342     		cmp	r3, r2
 197 005e 35D0     		beq	.L21
 198              		.loc 1 267 0 discriminator 5
 199 0060 294A     		ldr	r2, .L31+12
 200 0062 9342     		cmp	r3, r2
 201 0064 35D0     		beq	.L22
 202              		.loc 1 267 0 discriminator 7
 203 0066 294A     		ldr	r2, .L31+16
 204 0068 9342     		cmp	r3, r2
 205 006a 35D0     		beq	.L23
 206              		.loc 1 267 0 discriminator 9
 207 006c 284A     		ldr	r2, .L31+20
 208 006e 9342     		cmp	r3, r2
 209 0070 35D0     		beq	.L24
 210              		.loc 1 267 0
 211 0072 8022     		movs	r2, #128
 212 0074 1205     		lsls	r2, r2, #20
 213              	.L10:
 214              		.loc 1 267 0 discriminator 24
 215 0076 4A60     		str	r2, [r1, #4]
 268:Drivers/STM32F0xx_HAL_Driver/Src/stm32f0xx_hal_dma.c ****   __HAL_DMA_CLEAR_FLAG(hdma, __HAL_DMA_GET_HT_FLAG_INDEX(hdma));
 216              		.loc 1 268 0 is_stmt 1 discriminator 24
 217 0078 0422     		movs	r2, #4
 218 007a A342     		cmp	r3, r4
 219 007c 11D0     		beq	.L11
 220              		.loc 1 268 0 is_stmt 0 discriminator 1
 221 007e 204C     		ldr	r4, .L31+4
 222 0080 3C32     		adds	r2, r2, #60
 223 0082 A342     		cmp	r3, r4
 224 0084 0DD0     		beq	.L11
 225              		.loc 1 268 0 discriminator 3
 226 0086 1F4A     		ldr	r2, .L31+8
 227 0088 9342     		cmp	r3, r2
 228 008a 2BD0     		beq	.L27
 229              		.loc 1 268 0 discriminator 5
 230 008c 1E4A     		ldr	r2, .L31+12
 231 008e 9342     		cmp	r3, r2
 232 0090 2BD0     		beq	.L28
 233              		.loc 1 268 0 discriminator 7
 234 0092 1E4A     		ldr	r2, .L31+16
 235 0094 9342     		cmp	r3, r2
 236 0096 2BD0     		beq	.L29
 237              		.loc 1 268 0 discriminator 9
ARM GAS  /tmp/ccUvWnju.s 			page 10


 238 0098 1D4A     		ldr	r2, .L31+20
 239 009a 9342     		cmp	r3, r2
 240 009c 2BD0     		beq	.L30
 241              		.loc 1 268 0
 242 009e 8022     		movs	r2, #128
 243 00a0 D204     		lsls	r2, r2, #19
 244              	.L11:
 269:Drivers/STM32F0xx_HAL_Driver/Src/stm32f0xx_hal_dma.c **** 
 270:Drivers/STM32F0xx_HAL_Driver/Src/stm32f0xx_hal_dma.c ****   /* Initialize the error code */
 271:Drivers/STM32F0xx_HAL_Driver/Src/stm32f0xx_hal_dma.c ****   hdma->ErrorCode = HAL_DMA_ERROR_NONE;
 245              		.loc 1 271 0 is_stmt 1 discriminator 24
 246 00a2 0023     		movs	r3, #0
 268:Drivers/STM32F0xx_HAL_Driver/Src/stm32f0xx_hal_dma.c ****   __HAL_DMA_CLEAR_FLAG(hdma, __HAL_DMA_GET_HT_FLAG_INDEX(hdma));
 247              		.loc 1 268 0 discriminator 24
 248 00a4 4A60     		str	r2, [r1, #4]
 249              		.loc 1 271 0 discriminator 24
 250 00a6 8363     		str	r3, [r0, #56]
 272:Drivers/STM32F0xx_HAL_Driver/Src/stm32f0xx_hal_dma.c **** 
 273:Drivers/STM32F0xx_HAL_Driver/Src/stm32f0xx_hal_dma.c ****   /* Initialize the DMA state */
 274:Drivers/STM32F0xx_HAL_Driver/Src/stm32f0xx_hal_dma.c ****   hdma->State = HAL_DMA_STATE_RESET;
 251              		.loc 1 274 0 discriminator 24
 252 00a8 821C     		adds	r2, r0, #2
 275:Drivers/STM32F0xx_HAL_Driver/Src/stm32f0xx_hal_dma.c **** 
 276:Drivers/STM32F0xx_HAL_Driver/Src/stm32f0xx_hal_dma.c ****   /* Release Lock */
 277:Drivers/STM32F0xx_HAL_Driver/Src/stm32f0xx_hal_dma.c ****   __HAL_UNLOCK(hdma);
 253              		.loc 1 277 0 discriminator 24
 254 00aa 0130     		adds	r0, r0, #1
 255              	.LVL9:
 274:Drivers/STM32F0xx_HAL_Driver/Src/stm32f0xx_hal_dma.c **** 
 256              		.loc 1 274 0 discriminator 24
 257 00ac D377     		strb	r3, [r2, #31]
 258              		.loc 1 277 0 discriminator 24
 259 00ae C377     		strb	r3, [r0, #31]
 260              	.LVL10:
 261              	.L8:
 278:Drivers/STM32F0xx_HAL_Driver/Src/stm32f0xx_hal_dma.c **** 
 279:Drivers/STM32F0xx_HAL_Driver/Src/stm32f0xx_hal_dma.c ****   return HAL_OK;
 280:Drivers/STM32F0xx_HAL_Driver/Src/stm32f0xx_hal_dma.c **** }
 262              		.loc 1 280 0
 263 00b0 1800     		movs	r0, r3
 264              		@ sp needed
 265 00b2 30BD     		pop	{r4, r5, pc}
 266              	.LVL11:
 267              	.L15:
 266:Drivers/STM32F0xx_HAL_Driver/Src/stm32f0xx_hal_dma.c ****   __HAL_DMA_CLEAR_FLAG(hdma, __HAL_DMA_GET_TE_FLAG_INDEX(hdma));
 268              		.loc 1 266 0
 269 00b4 8022     		movs	r2, #128
 270 00b6 9200     		lsls	r2, r2, #2
 271 00b8 C6E7     		b	.L9
 272              	.L16:
 273 00ba 8022     		movs	r2, #128
 274 00bc 9201     		lsls	r2, r2, #6
 275 00be C3E7     		b	.L9
 276              	.L17:
 277 00c0 8022     		movs	r2, #128
 278 00c2 9202     		lsls	r2, r2, #10
 279 00c4 C0E7     		b	.L9
ARM GAS  /tmp/ccUvWnju.s 			page 11


 280              	.L18:
 281 00c6 8022     		movs	r2, #128
 282 00c8 9203     		lsls	r2, r2, #14
 283 00ca BDE7     		b	.L9
 284              	.L21:
 267:Drivers/STM32F0xx_HAL_Driver/Src/stm32f0xx_hal_dma.c ****   __HAL_DMA_CLEAR_FLAG(hdma, __HAL_DMA_GET_HT_FLAG_INDEX(hdma));
 285              		.loc 1 267 0
 286 00cc 8022     		movs	r2, #128
 287 00ce 1201     		lsls	r2, r2, #4
 288 00d0 D1E7     		b	.L10
 289              	.L22:
 290 00d2 8022     		movs	r2, #128
 291 00d4 1202     		lsls	r2, r2, #8
 292 00d6 CEE7     		b	.L10
 293              	.L23:
 294 00d8 8022     		movs	r2, #128
 295 00da 1203     		lsls	r2, r2, #12
 296 00dc CBE7     		b	.L10
 297              	.L24:
 298 00de 8022     		movs	r2, #128
 299 00e0 1204     		lsls	r2, r2, #16
 300 00e2 C8E7     		b	.L10
 301              	.L27:
 268:Drivers/STM32F0xx_HAL_Driver/Src/stm32f0xx_hal_dma.c **** 
 302              		.loc 1 268 0
 303 00e4 8022     		movs	r2, #128
 304 00e6 D200     		lsls	r2, r2, #3
 305 00e8 DBE7     		b	.L11
 306              	.L28:
 307 00ea 8022     		movs	r2, #128
 308 00ec D201     		lsls	r2, r2, #7
 309 00ee D8E7     		b	.L11
 310              	.L29:
 311 00f0 8022     		movs	r2, #128
 312 00f2 D202     		lsls	r2, r2, #11
 313 00f4 D5E7     		b	.L11
 314              	.L30:
 315 00f6 8022     		movs	r2, #128
 316 00f8 D203     		lsls	r2, r2, #15
 317 00fa D2E7     		b	.L11
 318              	.L32:
 319              		.align	2
 320              	.L31:
 321 00fc 08000240 		.word	1073872904
 322 0100 1C000240 		.word	1073872924
 323 0104 30000240 		.word	1073872944
 324 0108 44000240 		.word	1073872964
 325 010c 58000240 		.word	1073872984
 326 0110 6C000240 		.word	1073873004
 327 0114 00000240 		.word	1073872896
 328              		.cfi_endproc
 329              	.LFE36:
 331              		.section	.text.HAL_DMA_Start,"ax",%progbits
 332              		.align	1
 333              		.global	HAL_DMA_Start
 334              		.syntax unified
 335              		.code	16
ARM GAS  /tmp/ccUvWnju.s 			page 12


 336              		.thumb_func
 337              		.fpu softvfp
 339              	HAL_DMA_Start:
 340              	.LFB37:
 281:Drivers/STM32F0xx_HAL_Driver/Src/stm32f0xx_hal_dma.c **** 
 282:Drivers/STM32F0xx_HAL_Driver/Src/stm32f0xx_hal_dma.c **** /**
 283:Drivers/STM32F0xx_HAL_Driver/Src/stm32f0xx_hal_dma.c ****   * @}
 284:Drivers/STM32F0xx_HAL_Driver/Src/stm32f0xx_hal_dma.c ****   */
 285:Drivers/STM32F0xx_HAL_Driver/Src/stm32f0xx_hal_dma.c **** 
 286:Drivers/STM32F0xx_HAL_Driver/Src/stm32f0xx_hal_dma.c **** /** @defgroup DMA_Exported_Functions_Group2 Input and Output operation functions 
 287:Drivers/STM32F0xx_HAL_Driver/Src/stm32f0xx_hal_dma.c ****  *  @brief   I/O operation functions  
 288:Drivers/STM32F0xx_HAL_Driver/Src/stm32f0xx_hal_dma.c ****  *
 289:Drivers/STM32F0xx_HAL_Driver/Src/stm32f0xx_hal_dma.c **** @verbatim   
 290:Drivers/STM32F0xx_HAL_Driver/Src/stm32f0xx_hal_dma.c ****  ===============================================================================
 291:Drivers/STM32F0xx_HAL_Driver/Src/stm32f0xx_hal_dma.c ****                       #####  IO operation functions  #####
 292:Drivers/STM32F0xx_HAL_Driver/Src/stm32f0xx_hal_dma.c ****  ===============================================================================  
 293:Drivers/STM32F0xx_HAL_Driver/Src/stm32f0xx_hal_dma.c ****     [..]  This section provides functions allowing to:
 294:Drivers/STM32F0xx_HAL_Driver/Src/stm32f0xx_hal_dma.c ****       (+) Configure the source, destination address and data length and Start DMA transfer
 295:Drivers/STM32F0xx_HAL_Driver/Src/stm32f0xx_hal_dma.c ****       (+) Configure the source, destination address and data length and 
 296:Drivers/STM32F0xx_HAL_Driver/Src/stm32f0xx_hal_dma.c ****           Start DMA transfer with interrupt
 297:Drivers/STM32F0xx_HAL_Driver/Src/stm32f0xx_hal_dma.c ****       (+) Abort DMA transfer
 298:Drivers/STM32F0xx_HAL_Driver/Src/stm32f0xx_hal_dma.c ****       (+) Poll for transfer complete
 299:Drivers/STM32F0xx_HAL_Driver/Src/stm32f0xx_hal_dma.c ****       (+) Handle DMA interrupt request  
 300:Drivers/STM32F0xx_HAL_Driver/Src/stm32f0xx_hal_dma.c **** 
 301:Drivers/STM32F0xx_HAL_Driver/Src/stm32f0xx_hal_dma.c **** @endverbatim
 302:Drivers/STM32F0xx_HAL_Driver/Src/stm32f0xx_hal_dma.c ****   * @{
 303:Drivers/STM32F0xx_HAL_Driver/Src/stm32f0xx_hal_dma.c ****   */
 304:Drivers/STM32F0xx_HAL_Driver/Src/stm32f0xx_hal_dma.c **** 
 305:Drivers/STM32F0xx_HAL_Driver/Src/stm32f0xx_hal_dma.c **** /**
 306:Drivers/STM32F0xx_HAL_Driver/Src/stm32f0xx_hal_dma.c ****   * @brief  Starts the DMA Transfer.
 307:Drivers/STM32F0xx_HAL_Driver/Src/stm32f0xx_hal_dma.c ****   * @param  hdma      : pointer to a DMA_HandleTypeDef structure that contains
 308:Drivers/STM32F0xx_HAL_Driver/Src/stm32f0xx_hal_dma.c ****   *                     the configuration information for the specified DMA Channel.  
 309:Drivers/STM32F0xx_HAL_Driver/Src/stm32f0xx_hal_dma.c ****   * @param  SrcAddress: The source memory Buffer address
 310:Drivers/STM32F0xx_HAL_Driver/Src/stm32f0xx_hal_dma.c ****   * @param  DstAddress: The destination memory Buffer address
 311:Drivers/STM32F0xx_HAL_Driver/Src/stm32f0xx_hal_dma.c ****   * @param  DataLength: The length of data to be transferred from source to destination
 312:Drivers/STM32F0xx_HAL_Driver/Src/stm32f0xx_hal_dma.c ****   * @retval HAL status
 313:Drivers/STM32F0xx_HAL_Driver/Src/stm32f0xx_hal_dma.c ****   */
 314:Drivers/STM32F0xx_HAL_Driver/Src/stm32f0xx_hal_dma.c **** HAL_StatusTypeDef HAL_DMA_Start(DMA_HandleTypeDef *hdma, uint32_t SrcAddress, uint32_t DstAddress, 
 315:Drivers/STM32F0xx_HAL_Driver/Src/stm32f0xx_hal_dma.c **** { 
 341              		.loc 1 315 0
 342              		.cfi_startproc
 343              	.LVL12:
 344 0000 F0B5     		push	{r4, r5, r6, r7, lr}
 345              	.LCFI2:
 346              		.cfi_def_cfa_offset 20
 347              		.cfi_offset 4, -20
 348              		.cfi_offset 5, -16
 349              		.cfi_offset 6, -12
 350              		.cfi_offset 7, -8
 351              		.cfi_offset 14, -4
 352 0002 0226     		movs	r6, #2
 316:Drivers/STM32F0xx_HAL_Driver/Src/stm32f0xx_hal_dma.c ****   /* Process locked */
 317:Drivers/STM32F0xx_HAL_Driver/Src/stm32f0xx_hal_dma.c ****   __HAL_LOCK(hdma);  
 353              		.loc 1 317 0
 354 0004 471C     		adds	r7, r0, #1
 355 0006 FD7F     		ldrb	r5, [r7, #31]
 356 0008 3400     		movs	r4, r6
ARM GAS  /tmp/ccUvWnju.s 			page 13


 357 000a 012D     		cmp	r5, #1
 358 000c 11D0     		beq	.L34
 359              		.loc 1 317 0 is_stmt 0 discriminator 2
 360 000e 0125     		movs	r5, #1
 318:Drivers/STM32F0xx_HAL_Driver/Src/stm32f0xx_hal_dma.c **** 
 319:Drivers/STM32F0xx_HAL_Driver/Src/stm32f0xx_hal_dma.c ****   /* Change DMA peripheral state */  
 320:Drivers/STM32F0xx_HAL_Driver/Src/stm32f0xx_hal_dma.c ****   hdma->State = HAL_DMA_STATE_BUSY;  
 361              		.loc 1 320 0 is_stmt 1 discriminator 2
 362 0010 8419     		adds	r4, r0, r6
 317:Drivers/STM32F0xx_HAL_Driver/Src/stm32f0xx_hal_dma.c **** 
 363              		.loc 1 317 0 discriminator 2
 364 0012 FD77     		strb	r5, [r7, #31]
 365              		.loc 1 320 0 discriminator 2
 366 0014 E677     		strb	r6, [r4, #31]
 321:Drivers/STM32F0xx_HAL_Driver/Src/stm32f0xx_hal_dma.c **** 
 322:Drivers/STM32F0xx_HAL_Driver/Src/stm32f0xx_hal_dma.c ****    /* Check the parameters */
 323:Drivers/STM32F0xx_HAL_Driver/Src/stm32f0xx_hal_dma.c ****   assert_param(IS_DMA_BUFFER_SIZE(DataLength));
 324:Drivers/STM32F0xx_HAL_Driver/Src/stm32f0xx_hal_dma.c ****   
 325:Drivers/STM32F0xx_HAL_Driver/Src/stm32f0xx_hal_dma.c ****   /* Disable the peripheral */
 326:Drivers/STM32F0xx_HAL_Driver/Src/stm32f0xx_hal_dma.c ****   __HAL_DMA_DISABLE(hdma);  
 367              		.loc 1 326 0 discriminator 2
 368 0016 0468     		ldr	r4, [r0]
 369 0018 2668     		ldr	r6, [r4]
 370 001a AE43     		bics	r6, r5
 371 001c 2660     		str	r6, [r4]
 372              	.LVL13:
 373              	.LBB4:
 374              	.LBB5:
 327:Drivers/STM32F0xx_HAL_Driver/Src/stm32f0xx_hal_dma.c ****   
 328:Drivers/STM32F0xx_HAL_Driver/Src/stm32f0xx_hal_dma.c ****   /* Configure the source, destination address and the data length */
 329:Drivers/STM32F0xx_HAL_Driver/Src/stm32f0xx_hal_dma.c ****   DMA_SetConfig(hdma, SrcAddress, DstAddress, DataLength);
 330:Drivers/STM32F0xx_HAL_Driver/Src/stm32f0xx_hal_dma.c **** 
 331:Drivers/STM32F0xx_HAL_Driver/Src/stm32f0xx_hal_dma.c ****   /* Enable the Peripheral */
 332:Drivers/STM32F0xx_HAL_Driver/Src/stm32f0xx_hal_dma.c ****   __HAL_DMA_ENABLE(hdma);  
 333:Drivers/STM32F0xx_HAL_Driver/Src/stm32f0xx_hal_dma.c **** 
 334:Drivers/STM32F0xx_HAL_Driver/Src/stm32f0xx_hal_dma.c ****   return HAL_OK; 
 335:Drivers/STM32F0xx_HAL_Driver/Src/stm32f0xx_hal_dma.c **** } 
 336:Drivers/STM32F0xx_HAL_Driver/Src/stm32f0xx_hal_dma.c **** 
 337:Drivers/STM32F0xx_HAL_Driver/Src/stm32f0xx_hal_dma.c **** /**
 338:Drivers/STM32F0xx_HAL_Driver/Src/stm32f0xx_hal_dma.c ****   * @brief  Start the DMA Transfer with interrupt enabled.
 339:Drivers/STM32F0xx_HAL_Driver/Src/stm32f0xx_hal_dma.c ****   * @param  hdma:       pointer to a DMA_HandleTypeDef structure that contains
 340:Drivers/STM32F0xx_HAL_Driver/Src/stm32f0xx_hal_dma.c ****   *                     the configuration information for the specified DMA Channel.  
 341:Drivers/STM32F0xx_HAL_Driver/Src/stm32f0xx_hal_dma.c ****   * @param  SrcAddress: The source memory Buffer address
 342:Drivers/STM32F0xx_HAL_Driver/Src/stm32f0xx_hal_dma.c ****   * @param  DstAddress: The destination memory Buffer address
 343:Drivers/STM32F0xx_HAL_Driver/Src/stm32f0xx_hal_dma.c ****   * @param  DataLength: The length of data to be transferred from source to destination
 344:Drivers/STM32F0xx_HAL_Driver/Src/stm32f0xx_hal_dma.c ****   * @retval HAL status
 345:Drivers/STM32F0xx_HAL_Driver/Src/stm32f0xx_hal_dma.c ****   */
 346:Drivers/STM32F0xx_HAL_Driver/Src/stm32f0xx_hal_dma.c **** HAL_StatusTypeDef HAL_DMA_Start_IT(DMA_HandleTypeDef *hdma, uint32_t SrcAddress, uint32_t DstAddres
 347:Drivers/STM32F0xx_HAL_Driver/Src/stm32f0xx_hal_dma.c **** {
 348:Drivers/STM32F0xx_HAL_Driver/Src/stm32f0xx_hal_dma.c ****   /* Process locked */
 349:Drivers/STM32F0xx_HAL_Driver/Src/stm32f0xx_hal_dma.c ****   __HAL_LOCK(hdma);
 350:Drivers/STM32F0xx_HAL_Driver/Src/stm32f0xx_hal_dma.c **** 
 351:Drivers/STM32F0xx_HAL_Driver/Src/stm32f0xx_hal_dma.c ****   /* Change DMA peripheral state */  
 352:Drivers/STM32F0xx_HAL_Driver/Src/stm32f0xx_hal_dma.c ****   hdma->State = HAL_DMA_STATE_BUSY;  
 353:Drivers/STM32F0xx_HAL_Driver/Src/stm32f0xx_hal_dma.c **** 
 354:Drivers/STM32F0xx_HAL_Driver/Src/stm32f0xx_hal_dma.c ****    /* Check the parameters */
 355:Drivers/STM32F0xx_HAL_Driver/Src/stm32f0xx_hal_dma.c ****   assert_param(IS_DMA_BUFFER_SIZE(DataLength));
ARM GAS  /tmp/ccUvWnju.s 			page 14


 356:Drivers/STM32F0xx_HAL_Driver/Src/stm32f0xx_hal_dma.c ****   
 357:Drivers/STM32F0xx_HAL_Driver/Src/stm32f0xx_hal_dma.c ****   /* Disable the peripheral */
 358:Drivers/STM32F0xx_HAL_Driver/Src/stm32f0xx_hal_dma.c ****   __HAL_DMA_DISABLE(hdma);
 359:Drivers/STM32F0xx_HAL_Driver/Src/stm32f0xx_hal_dma.c ****   
 360:Drivers/STM32F0xx_HAL_Driver/Src/stm32f0xx_hal_dma.c ****   /* Configure the source, destination address and the data length */  
 361:Drivers/STM32F0xx_HAL_Driver/Src/stm32f0xx_hal_dma.c ****   DMA_SetConfig(hdma, SrcAddress, DstAddress, DataLength);
 362:Drivers/STM32F0xx_HAL_Driver/Src/stm32f0xx_hal_dma.c ****   
 363:Drivers/STM32F0xx_HAL_Driver/Src/stm32f0xx_hal_dma.c ****   /* Enable the transfer complete interrupt */
 364:Drivers/STM32F0xx_HAL_Driver/Src/stm32f0xx_hal_dma.c ****   __HAL_DMA_ENABLE_IT(hdma, DMA_IT_TC);
 365:Drivers/STM32F0xx_HAL_Driver/Src/stm32f0xx_hal_dma.c **** 
 366:Drivers/STM32F0xx_HAL_Driver/Src/stm32f0xx_hal_dma.c ****   /* Enable the Half transfer complete interrupt */
 367:Drivers/STM32F0xx_HAL_Driver/Src/stm32f0xx_hal_dma.c ****   __HAL_DMA_ENABLE_IT(hdma, DMA_IT_HT);  
 368:Drivers/STM32F0xx_HAL_Driver/Src/stm32f0xx_hal_dma.c **** 
 369:Drivers/STM32F0xx_HAL_Driver/Src/stm32f0xx_hal_dma.c ****   /* Enable the transfer Error interrupt */
 370:Drivers/STM32F0xx_HAL_Driver/Src/stm32f0xx_hal_dma.c ****   __HAL_DMA_ENABLE_IT(hdma, DMA_IT_TE);
 371:Drivers/STM32F0xx_HAL_Driver/Src/stm32f0xx_hal_dma.c ****   
 372:Drivers/STM32F0xx_HAL_Driver/Src/stm32f0xx_hal_dma.c ****    /* Enable the Peripheral */
 373:Drivers/STM32F0xx_HAL_Driver/Src/stm32f0xx_hal_dma.c ****   __HAL_DMA_ENABLE(hdma);   
 374:Drivers/STM32F0xx_HAL_Driver/Src/stm32f0xx_hal_dma.c ****   
 375:Drivers/STM32F0xx_HAL_Driver/Src/stm32f0xx_hal_dma.c ****   return HAL_OK;    
 376:Drivers/STM32F0xx_HAL_Driver/Src/stm32f0xx_hal_dma.c **** } 
 377:Drivers/STM32F0xx_HAL_Driver/Src/stm32f0xx_hal_dma.c **** 
 378:Drivers/STM32F0xx_HAL_Driver/Src/stm32f0xx_hal_dma.c **** /**
 379:Drivers/STM32F0xx_HAL_Driver/Src/stm32f0xx_hal_dma.c ****   * @brief  Aborts the DMA Transfer.
 380:Drivers/STM32F0xx_HAL_Driver/Src/stm32f0xx_hal_dma.c ****   * @param  hdma  : pointer to a DMA_HandleTypeDef structure that contains
 381:Drivers/STM32F0xx_HAL_Driver/Src/stm32f0xx_hal_dma.c ****   *                 the configuration information for the specified DMA Channel.
 382:Drivers/STM32F0xx_HAL_Driver/Src/stm32f0xx_hal_dma.c ****   *                   
 383:Drivers/STM32F0xx_HAL_Driver/Src/stm32f0xx_hal_dma.c ****   * @note  After disabling a DMA Channel, a check for wait until the DMA Channel is 
 384:Drivers/STM32F0xx_HAL_Driver/Src/stm32f0xx_hal_dma.c ****   *        effectively disabled is added. If a Channel is disabled 
 385:Drivers/STM32F0xx_HAL_Driver/Src/stm32f0xx_hal_dma.c ****   *        while a data transfer is ongoing, the current data will be transferred
 386:Drivers/STM32F0xx_HAL_Driver/Src/stm32f0xx_hal_dma.c ****   *        and the Channel will be effectively disabled only after the transfer of
 387:Drivers/STM32F0xx_HAL_Driver/Src/stm32f0xx_hal_dma.c ****   *        this single data is finished.  
 388:Drivers/STM32F0xx_HAL_Driver/Src/stm32f0xx_hal_dma.c ****   * @retval HAL status
 389:Drivers/STM32F0xx_HAL_Driver/Src/stm32f0xx_hal_dma.c ****   */
 390:Drivers/STM32F0xx_HAL_Driver/Src/stm32f0xx_hal_dma.c **** HAL_StatusTypeDef HAL_DMA_Abort(DMA_HandleTypeDef *hdma)
 391:Drivers/STM32F0xx_HAL_Driver/Src/stm32f0xx_hal_dma.c **** {
 392:Drivers/STM32F0xx_HAL_Driver/Src/stm32f0xx_hal_dma.c ****   uint32_t tickstart = 0x00;
 393:Drivers/STM32F0xx_HAL_Driver/Src/stm32f0xx_hal_dma.c ****   
 394:Drivers/STM32F0xx_HAL_Driver/Src/stm32f0xx_hal_dma.c ****   /* Disable the channel */
 395:Drivers/STM32F0xx_HAL_Driver/Src/stm32f0xx_hal_dma.c ****   __HAL_DMA_DISABLE(hdma);
 396:Drivers/STM32F0xx_HAL_Driver/Src/stm32f0xx_hal_dma.c ****   
 397:Drivers/STM32F0xx_HAL_Driver/Src/stm32f0xx_hal_dma.c ****   /* Get tick */
 398:Drivers/STM32F0xx_HAL_Driver/Src/stm32f0xx_hal_dma.c ****   tickstart = HAL_GetTick();
 399:Drivers/STM32F0xx_HAL_Driver/Src/stm32f0xx_hal_dma.c ****   
 400:Drivers/STM32F0xx_HAL_Driver/Src/stm32f0xx_hal_dma.c ****   /* Check if the DMA Channel is effectively disabled */
 401:Drivers/STM32F0xx_HAL_Driver/Src/stm32f0xx_hal_dma.c ****   while((hdma->Instance->CCR & DMA_CCR_EN) != 0) 
 402:Drivers/STM32F0xx_HAL_Driver/Src/stm32f0xx_hal_dma.c ****   {
 403:Drivers/STM32F0xx_HAL_Driver/Src/stm32f0xx_hal_dma.c ****     /* Check for the Timeout */
 404:Drivers/STM32F0xx_HAL_Driver/Src/stm32f0xx_hal_dma.c ****     if((HAL_GetTick() - tickstart) > HAL_TIMEOUT_DMA_ABORT)
 405:Drivers/STM32F0xx_HAL_Driver/Src/stm32f0xx_hal_dma.c ****     {
 406:Drivers/STM32F0xx_HAL_Driver/Src/stm32f0xx_hal_dma.c ****       /* Update error code */
 407:Drivers/STM32F0xx_HAL_Driver/Src/stm32f0xx_hal_dma.c ****       SET_BIT(hdma->ErrorCode, HAL_DMA_ERROR_TIMEOUT);
 408:Drivers/STM32F0xx_HAL_Driver/Src/stm32f0xx_hal_dma.c **** 
 409:Drivers/STM32F0xx_HAL_Driver/Src/stm32f0xx_hal_dma.c ****       /* Change the DMA state */
 410:Drivers/STM32F0xx_HAL_Driver/Src/stm32f0xx_hal_dma.c ****       hdma->State = HAL_DMA_STATE_TIMEOUT;
 411:Drivers/STM32F0xx_HAL_Driver/Src/stm32f0xx_hal_dma.c **** 
 412:Drivers/STM32F0xx_HAL_Driver/Src/stm32f0xx_hal_dma.c ****       /* Process Unlocked */
ARM GAS  /tmp/ccUvWnju.s 			page 15


 413:Drivers/STM32F0xx_HAL_Driver/Src/stm32f0xx_hal_dma.c ****       __HAL_UNLOCK(hdma);
 414:Drivers/STM32F0xx_HAL_Driver/Src/stm32f0xx_hal_dma.c **** 
 415:Drivers/STM32F0xx_HAL_Driver/Src/stm32f0xx_hal_dma.c ****       return HAL_TIMEOUT;
 416:Drivers/STM32F0xx_HAL_Driver/Src/stm32f0xx_hal_dma.c ****     }
 417:Drivers/STM32F0xx_HAL_Driver/Src/stm32f0xx_hal_dma.c ****   }
 418:Drivers/STM32F0xx_HAL_Driver/Src/stm32f0xx_hal_dma.c ****   /* Change the DMA state*/
 419:Drivers/STM32F0xx_HAL_Driver/Src/stm32f0xx_hal_dma.c ****   hdma->State = HAL_DMA_STATE_READY; 
 420:Drivers/STM32F0xx_HAL_Driver/Src/stm32f0xx_hal_dma.c ****   
 421:Drivers/STM32F0xx_HAL_Driver/Src/stm32f0xx_hal_dma.c ****   /* Process Unlocked */
 422:Drivers/STM32F0xx_HAL_Driver/Src/stm32f0xx_hal_dma.c ****   __HAL_UNLOCK(hdma);
 423:Drivers/STM32F0xx_HAL_Driver/Src/stm32f0xx_hal_dma.c ****   
 424:Drivers/STM32F0xx_HAL_Driver/Src/stm32f0xx_hal_dma.c ****   return HAL_OK; 
 425:Drivers/STM32F0xx_HAL_Driver/Src/stm32f0xx_hal_dma.c **** }
 426:Drivers/STM32F0xx_HAL_Driver/Src/stm32f0xx_hal_dma.c **** 
 427:Drivers/STM32F0xx_HAL_Driver/Src/stm32f0xx_hal_dma.c **** /**
 428:Drivers/STM32F0xx_HAL_Driver/Src/stm32f0xx_hal_dma.c ****   * @brief  Aborts the DMA Transfer in Interrupt mode.
 429:Drivers/STM32F0xx_HAL_Driver/Src/stm32f0xx_hal_dma.c ****   * @param  hdma  : pointer to a DMA_HandleTypeDef structure that contains
 430:Drivers/STM32F0xx_HAL_Driver/Src/stm32f0xx_hal_dma.c ****   *                 the configuration information for the specified DMA Stream.
 431:Drivers/STM32F0xx_HAL_Driver/Src/stm32f0xx_hal_dma.c ****   * @retval HAL status
 432:Drivers/STM32F0xx_HAL_Driver/Src/stm32f0xx_hal_dma.c ****   */
 433:Drivers/STM32F0xx_HAL_Driver/Src/stm32f0xx_hal_dma.c **** HAL_StatusTypeDef HAL_DMA_Abort_IT(DMA_HandleTypeDef *hdma)
 434:Drivers/STM32F0xx_HAL_Driver/Src/stm32f0xx_hal_dma.c **** {  
 435:Drivers/STM32F0xx_HAL_Driver/Src/stm32f0xx_hal_dma.c ****   HAL_StatusTypeDef status = HAL_OK;
 436:Drivers/STM32F0xx_HAL_Driver/Src/stm32f0xx_hal_dma.c ****   
 437:Drivers/STM32F0xx_HAL_Driver/Src/stm32f0xx_hal_dma.c ****   if(HAL_DMA_STATE_BUSY != hdma->State)
 438:Drivers/STM32F0xx_HAL_Driver/Src/stm32f0xx_hal_dma.c ****   {
 439:Drivers/STM32F0xx_HAL_Driver/Src/stm32f0xx_hal_dma.c ****     /* no transfer ongoing */
 440:Drivers/STM32F0xx_HAL_Driver/Src/stm32f0xx_hal_dma.c ****     hdma->ErrorCode = HAL_DMA_ERROR_NO_XFER;
 441:Drivers/STM32F0xx_HAL_Driver/Src/stm32f0xx_hal_dma.c ****         
 442:Drivers/STM32F0xx_HAL_Driver/Src/stm32f0xx_hal_dma.c ****     status = HAL_ERROR;
 443:Drivers/STM32F0xx_HAL_Driver/Src/stm32f0xx_hal_dma.c ****   }
 444:Drivers/STM32F0xx_HAL_Driver/Src/stm32f0xx_hal_dma.c ****   else
 445:Drivers/STM32F0xx_HAL_Driver/Src/stm32f0xx_hal_dma.c ****   { 
 446:Drivers/STM32F0xx_HAL_Driver/Src/stm32f0xx_hal_dma.c ****     /* Disable DMA IT */
 447:Drivers/STM32F0xx_HAL_Driver/Src/stm32f0xx_hal_dma.c ****     __HAL_DMA_DISABLE_IT(hdma, (DMA_IT_TC | DMA_IT_HT | DMA_IT_TE));
 448:Drivers/STM32F0xx_HAL_Driver/Src/stm32f0xx_hal_dma.c ****     
 449:Drivers/STM32F0xx_HAL_Driver/Src/stm32f0xx_hal_dma.c ****     /* Disable the channel */
 450:Drivers/STM32F0xx_HAL_Driver/Src/stm32f0xx_hal_dma.c ****     __HAL_DMA_DISABLE(hdma);
 451:Drivers/STM32F0xx_HAL_Driver/Src/stm32f0xx_hal_dma.c ****     
 452:Drivers/STM32F0xx_HAL_Driver/Src/stm32f0xx_hal_dma.c ****     /* Clear all flags */
 453:Drivers/STM32F0xx_HAL_Driver/Src/stm32f0xx_hal_dma.c ****     __HAL_DMA_CLEAR_FLAG(hdma, __HAL_DMA_GET_GI_FLAG_INDEX(hdma));
 454:Drivers/STM32F0xx_HAL_Driver/Src/stm32f0xx_hal_dma.c ****     
 455:Drivers/STM32F0xx_HAL_Driver/Src/stm32f0xx_hal_dma.c ****     /* Change the DMA state */
 456:Drivers/STM32F0xx_HAL_Driver/Src/stm32f0xx_hal_dma.c ****     hdma->State = HAL_DMA_STATE_READY;
 457:Drivers/STM32F0xx_HAL_Driver/Src/stm32f0xx_hal_dma.c ****     
 458:Drivers/STM32F0xx_HAL_Driver/Src/stm32f0xx_hal_dma.c ****     /* Process Unlocked */
 459:Drivers/STM32F0xx_HAL_Driver/Src/stm32f0xx_hal_dma.c ****     __HAL_UNLOCK(hdma);
 460:Drivers/STM32F0xx_HAL_Driver/Src/stm32f0xx_hal_dma.c ****     
 461:Drivers/STM32F0xx_HAL_Driver/Src/stm32f0xx_hal_dma.c ****     /* Call User Abort callback */ 
 462:Drivers/STM32F0xx_HAL_Driver/Src/stm32f0xx_hal_dma.c ****     if(hdma->XferAbortCallback != NULL)
 463:Drivers/STM32F0xx_HAL_Driver/Src/stm32f0xx_hal_dma.c ****     {
 464:Drivers/STM32F0xx_HAL_Driver/Src/stm32f0xx_hal_dma.c ****       hdma->XferAbortCallback(hdma);
 465:Drivers/STM32F0xx_HAL_Driver/Src/stm32f0xx_hal_dma.c ****     } 
 466:Drivers/STM32F0xx_HAL_Driver/Src/stm32f0xx_hal_dma.c ****   }
 467:Drivers/STM32F0xx_HAL_Driver/Src/stm32f0xx_hal_dma.c ****   return status;
 468:Drivers/STM32F0xx_HAL_Driver/Src/stm32f0xx_hal_dma.c **** }
 469:Drivers/STM32F0xx_HAL_Driver/Src/stm32f0xx_hal_dma.c **** 
ARM GAS  /tmp/ccUvWnju.s 			page 16


 470:Drivers/STM32F0xx_HAL_Driver/Src/stm32f0xx_hal_dma.c **** /**
 471:Drivers/STM32F0xx_HAL_Driver/Src/stm32f0xx_hal_dma.c ****   * @brief  Polling for transfer complete.
 472:Drivers/STM32F0xx_HAL_Driver/Src/stm32f0xx_hal_dma.c ****   * @param  hdma:    pointer to a DMA_HandleTypeDef structure that contains
 473:Drivers/STM32F0xx_HAL_Driver/Src/stm32f0xx_hal_dma.c ****   *                  the configuration information for the specified DMA Channel.
 474:Drivers/STM32F0xx_HAL_Driver/Src/stm32f0xx_hal_dma.c ****   * @param  CompleteLevel: Specifies the DMA level complete.  
 475:Drivers/STM32F0xx_HAL_Driver/Src/stm32f0xx_hal_dma.c ****   * @param  Timeout:       Timeout duration.
 476:Drivers/STM32F0xx_HAL_Driver/Src/stm32f0xx_hal_dma.c ****   * @retval HAL status
 477:Drivers/STM32F0xx_HAL_Driver/Src/stm32f0xx_hal_dma.c ****   */
 478:Drivers/STM32F0xx_HAL_Driver/Src/stm32f0xx_hal_dma.c **** HAL_StatusTypeDef HAL_DMA_PollForTransfer(DMA_HandleTypeDef *hdma, uint32_t CompleteLevel, uint32_t
 479:Drivers/STM32F0xx_HAL_Driver/Src/stm32f0xx_hal_dma.c **** {
 480:Drivers/STM32F0xx_HAL_Driver/Src/stm32f0xx_hal_dma.c ****   uint32_t temp;
 481:Drivers/STM32F0xx_HAL_Driver/Src/stm32f0xx_hal_dma.c ****   uint32_t tickstart = 0x00;
 482:Drivers/STM32F0xx_HAL_Driver/Src/stm32f0xx_hal_dma.c ****   
 483:Drivers/STM32F0xx_HAL_Driver/Src/stm32f0xx_hal_dma.c ****   /* Get the level transfer complete flag */
 484:Drivers/STM32F0xx_HAL_Driver/Src/stm32f0xx_hal_dma.c ****   if(CompleteLevel == HAL_DMA_FULL_TRANSFER)
 485:Drivers/STM32F0xx_HAL_Driver/Src/stm32f0xx_hal_dma.c ****   {
 486:Drivers/STM32F0xx_HAL_Driver/Src/stm32f0xx_hal_dma.c ****     /* Transfer Complete flag */
 487:Drivers/STM32F0xx_HAL_Driver/Src/stm32f0xx_hal_dma.c ****     temp = __HAL_DMA_GET_TC_FLAG_INDEX(hdma);
 488:Drivers/STM32F0xx_HAL_Driver/Src/stm32f0xx_hal_dma.c ****   }
 489:Drivers/STM32F0xx_HAL_Driver/Src/stm32f0xx_hal_dma.c ****   else
 490:Drivers/STM32F0xx_HAL_Driver/Src/stm32f0xx_hal_dma.c ****   {
 491:Drivers/STM32F0xx_HAL_Driver/Src/stm32f0xx_hal_dma.c ****     /* Half Transfer Complete flag */
 492:Drivers/STM32F0xx_HAL_Driver/Src/stm32f0xx_hal_dma.c ****     temp = __HAL_DMA_GET_HT_FLAG_INDEX(hdma);
 493:Drivers/STM32F0xx_HAL_Driver/Src/stm32f0xx_hal_dma.c ****   }
 494:Drivers/STM32F0xx_HAL_Driver/Src/stm32f0xx_hal_dma.c **** 
 495:Drivers/STM32F0xx_HAL_Driver/Src/stm32f0xx_hal_dma.c ****   /* Get tick */
 496:Drivers/STM32F0xx_HAL_Driver/Src/stm32f0xx_hal_dma.c ****   tickstart = HAL_GetTick();
 497:Drivers/STM32F0xx_HAL_Driver/Src/stm32f0xx_hal_dma.c **** 
 498:Drivers/STM32F0xx_HAL_Driver/Src/stm32f0xx_hal_dma.c ****   while(__HAL_DMA_GET_FLAG(hdma, temp) == RESET)
 499:Drivers/STM32F0xx_HAL_Driver/Src/stm32f0xx_hal_dma.c ****   {
 500:Drivers/STM32F0xx_HAL_Driver/Src/stm32f0xx_hal_dma.c ****     if((__HAL_DMA_GET_FLAG(hdma, __HAL_DMA_GET_TE_FLAG_INDEX(hdma)) != RESET))
 501:Drivers/STM32F0xx_HAL_Driver/Src/stm32f0xx_hal_dma.c ****     {      
 502:Drivers/STM32F0xx_HAL_Driver/Src/stm32f0xx_hal_dma.c ****       /* Clear the transfer error flags */
 503:Drivers/STM32F0xx_HAL_Driver/Src/stm32f0xx_hal_dma.c ****       __HAL_DMA_CLEAR_FLAG(hdma, __HAL_DMA_GET_TE_FLAG_INDEX(hdma));
 504:Drivers/STM32F0xx_HAL_Driver/Src/stm32f0xx_hal_dma.c ****       
 505:Drivers/STM32F0xx_HAL_Driver/Src/stm32f0xx_hal_dma.c ****       /* Update error code */
 506:Drivers/STM32F0xx_HAL_Driver/Src/stm32f0xx_hal_dma.c ****       SET_BIT(hdma->ErrorCode, HAL_DMA_ERROR_TE);
 507:Drivers/STM32F0xx_HAL_Driver/Src/stm32f0xx_hal_dma.c **** 
 508:Drivers/STM32F0xx_HAL_Driver/Src/stm32f0xx_hal_dma.c ****       /* Change the DMA state */
 509:Drivers/STM32F0xx_HAL_Driver/Src/stm32f0xx_hal_dma.c ****       hdma->State= HAL_DMA_STATE_ERROR;       
 510:Drivers/STM32F0xx_HAL_Driver/Src/stm32f0xx_hal_dma.c ****       
 511:Drivers/STM32F0xx_HAL_Driver/Src/stm32f0xx_hal_dma.c ****       /* Process Unlocked */
 512:Drivers/STM32F0xx_HAL_Driver/Src/stm32f0xx_hal_dma.c ****       __HAL_UNLOCK(hdma);
 513:Drivers/STM32F0xx_HAL_Driver/Src/stm32f0xx_hal_dma.c ****       
 514:Drivers/STM32F0xx_HAL_Driver/Src/stm32f0xx_hal_dma.c ****       return HAL_ERROR;      
 515:Drivers/STM32F0xx_HAL_Driver/Src/stm32f0xx_hal_dma.c ****     }      
 516:Drivers/STM32F0xx_HAL_Driver/Src/stm32f0xx_hal_dma.c ****     /* Check for the Timeout */
 517:Drivers/STM32F0xx_HAL_Driver/Src/stm32f0xx_hal_dma.c ****     if(Timeout != HAL_MAX_DELAY)
 518:Drivers/STM32F0xx_HAL_Driver/Src/stm32f0xx_hal_dma.c ****     {
 519:Drivers/STM32F0xx_HAL_Driver/Src/stm32f0xx_hal_dma.c ****       if((Timeout == 0) || ((HAL_GetTick() - tickstart) > Timeout))
 520:Drivers/STM32F0xx_HAL_Driver/Src/stm32f0xx_hal_dma.c ****       {
 521:Drivers/STM32F0xx_HAL_Driver/Src/stm32f0xx_hal_dma.c ****         /* Update error code */
 522:Drivers/STM32F0xx_HAL_Driver/Src/stm32f0xx_hal_dma.c ****         SET_BIT(hdma->ErrorCode, HAL_DMA_ERROR_TIMEOUT);
 523:Drivers/STM32F0xx_HAL_Driver/Src/stm32f0xx_hal_dma.c ****         
 524:Drivers/STM32F0xx_HAL_Driver/Src/stm32f0xx_hal_dma.c ****         /* Change the DMA state */
 525:Drivers/STM32F0xx_HAL_Driver/Src/stm32f0xx_hal_dma.c ****         hdma->State = HAL_DMA_STATE_TIMEOUT;
 526:Drivers/STM32F0xx_HAL_Driver/Src/stm32f0xx_hal_dma.c **** 
ARM GAS  /tmp/ccUvWnju.s 			page 17


 527:Drivers/STM32F0xx_HAL_Driver/Src/stm32f0xx_hal_dma.c ****         /* Process Unlocked */
 528:Drivers/STM32F0xx_HAL_Driver/Src/stm32f0xx_hal_dma.c ****         __HAL_UNLOCK(hdma);
 529:Drivers/STM32F0xx_HAL_Driver/Src/stm32f0xx_hal_dma.c **** 
 530:Drivers/STM32F0xx_HAL_Driver/Src/stm32f0xx_hal_dma.c ****         return HAL_TIMEOUT;
 531:Drivers/STM32F0xx_HAL_Driver/Src/stm32f0xx_hal_dma.c ****       }
 532:Drivers/STM32F0xx_HAL_Driver/Src/stm32f0xx_hal_dma.c ****     }
 533:Drivers/STM32F0xx_HAL_Driver/Src/stm32f0xx_hal_dma.c ****   }
 534:Drivers/STM32F0xx_HAL_Driver/Src/stm32f0xx_hal_dma.c **** 
 535:Drivers/STM32F0xx_HAL_Driver/Src/stm32f0xx_hal_dma.c ****   if(CompleteLevel == HAL_DMA_FULL_TRANSFER)
 536:Drivers/STM32F0xx_HAL_Driver/Src/stm32f0xx_hal_dma.c ****   {
 537:Drivers/STM32F0xx_HAL_Driver/Src/stm32f0xx_hal_dma.c ****     /* Clear the transfer complete flag */
 538:Drivers/STM32F0xx_HAL_Driver/Src/stm32f0xx_hal_dma.c ****     __HAL_DMA_CLEAR_FLAG(hdma, __HAL_DMA_GET_TC_FLAG_INDEX(hdma));
 539:Drivers/STM32F0xx_HAL_Driver/Src/stm32f0xx_hal_dma.c **** 
 540:Drivers/STM32F0xx_HAL_Driver/Src/stm32f0xx_hal_dma.c ****     /* The selected Channelx EN bit is cleared (DMA is disabled and 
 541:Drivers/STM32F0xx_HAL_Driver/Src/stm32f0xx_hal_dma.c ****     all transfers are complete) */
 542:Drivers/STM32F0xx_HAL_Driver/Src/stm32f0xx_hal_dma.c ****     hdma->State = HAL_DMA_STATE_READY;
 543:Drivers/STM32F0xx_HAL_Driver/Src/stm32f0xx_hal_dma.c **** 
 544:Drivers/STM32F0xx_HAL_Driver/Src/stm32f0xx_hal_dma.c ****   }
 545:Drivers/STM32F0xx_HAL_Driver/Src/stm32f0xx_hal_dma.c ****   else
 546:Drivers/STM32F0xx_HAL_Driver/Src/stm32f0xx_hal_dma.c ****   { 
 547:Drivers/STM32F0xx_HAL_Driver/Src/stm32f0xx_hal_dma.c ****     /* Clear the half transfer complete flag */
 548:Drivers/STM32F0xx_HAL_Driver/Src/stm32f0xx_hal_dma.c ****     __HAL_DMA_CLEAR_FLAG(hdma, __HAL_DMA_GET_HT_FLAG_INDEX(hdma));
 549:Drivers/STM32F0xx_HAL_Driver/Src/stm32f0xx_hal_dma.c ****   
 550:Drivers/STM32F0xx_HAL_Driver/Src/stm32f0xx_hal_dma.c ****     /* The selected Channelx EN bit is cleared (DMA is disabled and 
 551:Drivers/STM32F0xx_HAL_Driver/Src/stm32f0xx_hal_dma.c ****     all transfers of half buffer are complete) */
 552:Drivers/STM32F0xx_HAL_Driver/Src/stm32f0xx_hal_dma.c ****     hdma->State = HAL_DMA_STATE_READY_HALF;
 553:Drivers/STM32F0xx_HAL_Driver/Src/stm32f0xx_hal_dma.c ****   }
 554:Drivers/STM32F0xx_HAL_Driver/Src/stm32f0xx_hal_dma.c ****   
 555:Drivers/STM32F0xx_HAL_Driver/Src/stm32f0xx_hal_dma.c ****   /* Process unlocked */
 556:Drivers/STM32F0xx_HAL_Driver/Src/stm32f0xx_hal_dma.c ****   __HAL_UNLOCK(hdma);  
 557:Drivers/STM32F0xx_HAL_Driver/Src/stm32f0xx_hal_dma.c **** 
 558:Drivers/STM32F0xx_HAL_Driver/Src/stm32f0xx_hal_dma.c ****   return HAL_OK;
 559:Drivers/STM32F0xx_HAL_Driver/Src/stm32f0xx_hal_dma.c **** }
 560:Drivers/STM32F0xx_HAL_Driver/Src/stm32f0xx_hal_dma.c **** 
 561:Drivers/STM32F0xx_HAL_Driver/Src/stm32f0xx_hal_dma.c **** /**
 562:Drivers/STM32F0xx_HAL_Driver/Src/stm32f0xx_hal_dma.c ****   * @brief  Handles DMA interrupt request.
 563:Drivers/STM32F0xx_HAL_Driver/Src/stm32f0xx_hal_dma.c ****   * @param  hdma: pointer to a DMA_HandleTypeDef structure that contains
 564:Drivers/STM32F0xx_HAL_Driver/Src/stm32f0xx_hal_dma.c ****   *               the configuration information for the specified DMA Channel.  
 565:Drivers/STM32F0xx_HAL_Driver/Src/stm32f0xx_hal_dma.c ****   * @retval None
 566:Drivers/STM32F0xx_HAL_Driver/Src/stm32f0xx_hal_dma.c ****   */
 567:Drivers/STM32F0xx_HAL_Driver/Src/stm32f0xx_hal_dma.c **** void HAL_DMA_IRQHandler(DMA_HandleTypeDef *hdma)
 568:Drivers/STM32F0xx_HAL_Driver/Src/stm32f0xx_hal_dma.c **** {        
 569:Drivers/STM32F0xx_HAL_Driver/Src/stm32f0xx_hal_dma.c ****   /* Transfer Error Interrupt management ***************************************/
 570:Drivers/STM32F0xx_HAL_Driver/Src/stm32f0xx_hal_dma.c ****   if(__HAL_DMA_GET_FLAG(hdma, __HAL_DMA_GET_TE_FLAG_INDEX(hdma)) != RESET)
 571:Drivers/STM32F0xx_HAL_Driver/Src/stm32f0xx_hal_dma.c ****   {
 572:Drivers/STM32F0xx_HAL_Driver/Src/stm32f0xx_hal_dma.c ****     if(__HAL_DMA_GET_IT_SOURCE(hdma, DMA_IT_TE) != RESET)
 573:Drivers/STM32F0xx_HAL_Driver/Src/stm32f0xx_hal_dma.c ****     {
 574:Drivers/STM32F0xx_HAL_Driver/Src/stm32f0xx_hal_dma.c ****       /* Disable the transfer error interrupt */
 575:Drivers/STM32F0xx_HAL_Driver/Src/stm32f0xx_hal_dma.c ****       __HAL_DMA_DISABLE_IT(hdma, DMA_IT_TE);
 576:Drivers/STM32F0xx_HAL_Driver/Src/stm32f0xx_hal_dma.c ****     
 577:Drivers/STM32F0xx_HAL_Driver/Src/stm32f0xx_hal_dma.c ****       /* Clear the transfer error flag */
 578:Drivers/STM32F0xx_HAL_Driver/Src/stm32f0xx_hal_dma.c ****       __HAL_DMA_CLEAR_FLAG(hdma, __HAL_DMA_GET_TE_FLAG_INDEX(hdma));
 579:Drivers/STM32F0xx_HAL_Driver/Src/stm32f0xx_hal_dma.c ****     
 580:Drivers/STM32F0xx_HAL_Driver/Src/stm32f0xx_hal_dma.c ****       /* Update error code */
 581:Drivers/STM32F0xx_HAL_Driver/Src/stm32f0xx_hal_dma.c ****       SET_BIT(hdma->ErrorCode, HAL_DMA_ERROR_TE);
 582:Drivers/STM32F0xx_HAL_Driver/Src/stm32f0xx_hal_dma.c **** 
 583:Drivers/STM32F0xx_HAL_Driver/Src/stm32f0xx_hal_dma.c ****       /* Change the DMA state */
ARM GAS  /tmp/ccUvWnju.s 			page 18


 584:Drivers/STM32F0xx_HAL_Driver/Src/stm32f0xx_hal_dma.c ****       hdma->State = HAL_DMA_STATE_ERROR;    
 585:Drivers/STM32F0xx_HAL_Driver/Src/stm32f0xx_hal_dma.c ****     
 586:Drivers/STM32F0xx_HAL_Driver/Src/stm32f0xx_hal_dma.c ****       /* Process Unlocked */
 587:Drivers/STM32F0xx_HAL_Driver/Src/stm32f0xx_hal_dma.c ****       __HAL_UNLOCK(hdma); 
 588:Drivers/STM32F0xx_HAL_Driver/Src/stm32f0xx_hal_dma.c ****     
 589:Drivers/STM32F0xx_HAL_Driver/Src/stm32f0xx_hal_dma.c ****       if(hdma->XferErrorCallback != NULL)
 590:Drivers/STM32F0xx_HAL_Driver/Src/stm32f0xx_hal_dma.c ****       {
 591:Drivers/STM32F0xx_HAL_Driver/Src/stm32f0xx_hal_dma.c ****         /* Transfer error callback */
 592:Drivers/STM32F0xx_HAL_Driver/Src/stm32f0xx_hal_dma.c ****         hdma->XferErrorCallback(hdma);
 593:Drivers/STM32F0xx_HAL_Driver/Src/stm32f0xx_hal_dma.c ****       }
 594:Drivers/STM32F0xx_HAL_Driver/Src/stm32f0xx_hal_dma.c ****     }
 595:Drivers/STM32F0xx_HAL_Driver/Src/stm32f0xx_hal_dma.c ****   }
 596:Drivers/STM32F0xx_HAL_Driver/Src/stm32f0xx_hal_dma.c **** 
 597:Drivers/STM32F0xx_HAL_Driver/Src/stm32f0xx_hal_dma.c ****   /* Half Transfer Complete Interrupt management ******************************/
 598:Drivers/STM32F0xx_HAL_Driver/Src/stm32f0xx_hal_dma.c ****   if(__HAL_DMA_GET_FLAG(hdma, __HAL_DMA_GET_HT_FLAG_INDEX(hdma)) != RESET)
 599:Drivers/STM32F0xx_HAL_Driver/Src/stm32f0xx_hal_dma.c ****   {
 600:Drivers/STM32F0xx_HAL_Driver/Src/stm32f0xx_hal_dma.c ****     if(__HAL_DMA_GET_IT_SOURCE(hdma, DMA_IT_HT) != RESET)
 601:Drivers/STM32F0xx_HAL_Driver/Src/stm32f0xx_hal_dma.c ****     { 
 602:Drivers/STM32F0xx_HAL_Driver/Src/stm32f0xx_hal_dma.c ****       /* Disable the half transfer interrupt if the DMA mode is not CIRCULAR */
 603:Drivers/STM32F0xx_HAL_Driver/Src/stm32f0xx_hal_dma.c ****       if((hdma->Instance->CCR & DMA_CCR_CIRC) == 0)
 604:Drivers/STM32F0xx_HAL_Driver/Src/stm32f0xx_hal_dma.c ****       {
 605:Drivers/STM32F0xx_HAL_Driver/Src/stm32f0xx_hal_dma.c ****         /* Disable the half transfer interrupt */
 606:Drivers/STM32F0xx_HAL_Driver/Src/stm32f0xx_hal_dma.c ****         __HAL_DMA_DISABLE_IT(hdma, DMA_IT_HT);
 607:Drivers/STM32F0xx_HAL_Driver/Src/stm32f0xx_hal_dma.c ****       }
 608:Drivers/STM32F0xx_HAL_Driver/Src/stm32f0xx_hal_dma.c ****       /* Clear the half transfer complete flag */
 609:Drivers/STM32F0xx_HAL_Driver/Src/stm32f0xx_hal_dma.c ****       __HAL_DMA_CLEAR_FLAG(hdma, __HAL_DMA_GET_HT_FLAG_INDEX(hdma));
 610:Drivers/STM32F0xx_HAL_Driver/Src/stm32f0xx_hal_dma.c **** 
 611:Drivers/STM32F0xx_HAL_Driver/Src/stm32f0xx_hal_dma.c ****       /* Change DMA peripheral state */
 612:Drivers/STM32F0xx_HAL_Driver/Src/stm32f0xx_hal_dma.c ****       hdma->State = HAL_DMA_STATE_READY_HALF;
 613:Drivers/STM32F0xx_HAL_Driver/Src/stm32f0xx_hal_dma.c **** 
 614:Drivers/STM32F0xx_HAL_Driver/Src/stm32f0xx_hal_dma.c ****       if(hdma->XferHalfCpltCallback != NULL)
 615:Drivers/STM32F0xx_HAL_Driver/Src/stm32f0xx_hal_dma.c ****       {
 616:Drivers/STM32F0xx_HAL_Driver/Src/stm32f0xx_hal_dma.c ****         /* Half transfer callback */
 617:Drivers/STM32F0xx_HAL_Driver/Src/stm32f0xx_hal_dma.c ****         hdma->XferHalfCpltCallback(hdma);
 618:Drivers/STM32F0xx_HAL_Driver/Src/stm32f0xx_hal_dma.c ****       }
 619:Drivers/STM32F0xx_HAL_Driver/Src/stm32f0xx_hal_dma.c ****     }
 620:Drivers/STM32F0xx_HAL_Driver/Src/stm32f0xx_hal_dma.c ****   }
 621:Drivers/STM32F0xx_HAL_Driver/Src/stm32f0xx_hal_dma.c ****   
 622:Drivers/STM32F0xx_HAL_Driver/Src/stm32f0xx_hal_dma.c ****   /* Transfer Complete Interrupt management ***********************************/
 623:Drivers/STM32F0xx_HAL_Driver/Src/stm32f0xx_hal_dma.c ****   if(__HAL_DMA_GET_FLAG(hdma, __HAL_DMA_GET_TC_FLAG_INDEX(hdma)) != RESET)
 624:Drivers/STM32F0xx_HAL_Driver/Src/stm32f0xx_hal_dma.c ****   {
 625:Drivers/STM32F0xx_HAL_Driver/Src/stm32f0xx_hal_dma.c ****     if(__HAL_DMA_GET_IT_SOURCE(hdma, DMA_IT_TC) != RESET)
 626:Drivers/STM32F0xx_HAL_Driver/Src/stm32f0xx_hal_dma.c ****     {
 627:Drivers/STM32F0xx_HAL_Driver/Src/stm32f0xx_hal_dma.c ****       if((hdma->Instance->CCR & DMA_CCR_CIRC) == 0)
 628:Drivers/STM32F0xx_HAL_Driver/Src/stm32f0xx_hal_dma.c ****       {
 629:Drivers/STM32F0xx_HAL_Driver/Src/stm32f0xx_hal_dma.c ****         /* Disable the transfer complete interrupt */
 630:Drivers/STM32F0xx_HAL_Driver/Src/stm32f0xx_hal_dma.c ****         __HAL_DMA_DISABLE_IT(hdma, DMA_IT_TC);
 631:Drivers/STM32F0xx_HAL_Driver/Src/stm32f0xx_hal_dma.c ****       }
 632:Drivers/STM32F0xx_HAL_Driver/Src/stm32f0xx_hal_dma.c ****       /* Clear the transfer complete flag */
 633:Drivers/STM32F0xx_HAL_Driver/Src/stm32f0xx_hal_dma.c ****       __HAL_DMA_CLEAR_FLAG(hdma, __HAL_DMA_GET_TC_FLAG_INDEX(hdma));
 634:Drivers/STM32F0xx_HAL_Driver/Src/stm32f0xx_hal_dma.c ****     
 635:Drivers/STM32F0xx_HAL_Driver/Src/stm32f0xx_hal_dma.c ****       /* Update error code */
 636:Drivers/STM32F0xx_HAL_Driver/Src/stm32f0xx_hal_dma.c ****       SET_BIT(hdma->ErrorCode, HAL_DMA_ERROR_NONE);
 637:Drivers/STM32F0xx_HAL_Driver/Src/stm32f0xx_hal_dma.c **** 
 638:Drivers/STM32F0xx_HAL_Driver/Src/stm32f0xx_hal_dma.c ****       /* Change the DMA state */
 639:Drivers/STM32F0xx_HAL_Driver/Src/stm32f0xx_hal_dma.c ****       hdma->State = HAL_DMA_STATE_READY;    
 640:Drivers/STM32F0xx_HAL_Driver/Src/stm32f0xx_hal_dma.c ****     
ARM GAS  /tmp/ccUvWnju.s 			page 19


 641:Drivers/STM32F0xx_HAL_Driver/Src/stm32f0xx_hal_dma.c ****       /* Process Unlocked */
 642:Drivers/STM32F0xx_HAL_Driver/Src/stm32f0xx_hal_dma.c ****       __HAL_UNLOCK(hdma);
 643:Drivers/STM32F0xx_HAL_Driver/Src/stm32f0xx_hal_dma.c ****     
 644:Drivers/STM32F0xx_HAL_Driver/Src/stm32f0xx_hal_dma.c ****       if(hdma->XferCpltCallback != NULL)
 645:Drivers/STM32F0xx_HAL_Driver/Src/stm32f0xx_hal_dma.c ****       {       
 646:Drivers/STM32F0xx_HAL_Driver/Src/stm32f0xx_hal_dma.c ****         /* Transfer complete callback */
 647:Drivers/STM32F0xx_HAL_Driver/Src/stm32f0xx_hal_dma.c ****         hdma->XferCpltCallback(hdma);
 648:Drivers/STM32F0xx_HAL_Driver/Src/stm32f0xx_hal_dma.c ****       }
 649:Drivers/STM32F0xx_HAL_Driver/Src/stm32f0xx_hal_dma.c ****     }
 650:Drivers/STM32F0xx_HAL_Driver/Src/stm32f0xx_hal_dma.c ****   }
 651:Drivers/STM32F0xx_HAL_Driver/Src/stm32f0xx_hal_dma.c **** }  
 652:Drivers/STM32F0xx_HAL_Driver/Src/stm32f0xx_hal_dma.c **** 
 653:Drivers/STM32F0xx_HAL_Driver/Src/stm32f0xx_hal_dma.c **** /**
 654:Drivers/STM32F0xx_HAL_Driver/Src/stm32f0xx_hal_dma.c ****   * @}
 655:Drivers/STM32F0xx_HAL_Driver/Src/stm32f0xx_hal_dma.c ****   */
 656:Drivers/STM32F0xx_HAL_Driver/Src/stm32f0xx_hal_dma.c **** 
 657:Drivers/STM32F0xx_HAL_Driver/Src/stm32f0xx_hal_dma.c **** /** @defgroup DMA_Exported_Functions_Group3 Peripheral State functions
 658:Drivers/STM32F0xx_HAL_Driver/Src/stm32f0xx_hal_dma.c ****  *  @brief    Peripheral State functions 
 659:Drivers/STM32F0xx_HAL_Driver/Src/stm32f0xx_hal_dma.c ****  *
 660:Drivers/STM32F0xx_HAL_Driver/Src/stm32f0xx_hal_dma.c **** @verbatim   
 661:Drivers/STM32F0xx_HAL_Driver/Src/stm32f0xx_hal_dma.c ****  ===============================================================================
 662:Drivers/STM32F0xx_HAL_Driver/Src/stm32f0xx_hal_dma.c ****                     ##### State and Errors functions #####
 663:Drivers/STM32F0xx_HAL_Driver/Src/stm32f0xx_hal_dma.c ****  ===============================================================================  
 664:Drivers/STM32F0xx_HAL_Driver/Src/stm32f0xx_hal_dma.c ****     [..]
 665:Drivers/STM32F0xx_HAL_Driver/Src/stm32f0xx_hal_dma.c ****     This subsection provides functions allowing to
 666:Drivers/STM32F0xx_HAL_Driver/Src/stm32f0xx_hal_dma.c ****       (+) Check the DMA state
 667:Drivers/STM32F0xx_HAL_Driver/Src/stm32f0xx_hal_dma.c ****       (+) Get error code
 668:Drivers/STM32F0xx_HAL_Driver/Src/stm32f0xx_hal_dma.c **** 
 669:Drivers/STM32F0xx_HAL_Driver/Src/stm32f0xx_hal_dma.c **** @endverbatim
 670:Drivers/STM32F0xx_HAL_Driver/Src/stm32f0xx_hal_dma.c ****   * @{
 671:Drivers/STM32F0xx_HAL_Driver/Src/stm32f0xx_hal_dma.c ****   */  
 672:Drivers/STM32F0xx_HAL_Driver/Src/stm32f0xx_hal_dma.c **** 
 673:Drivers/STM32F0xx_HAL_Driver/Src/stm32f0xx_hal_dma.c **** /**
 674:Drivers/STM32F0xx_HAL_Driver/Src/stm32f0xx_hal_dma.c ****   * @brief  Returns the DMA state.
 675:Drivers/STM32F0xx_HAL_Driver/Src/stm32f0xx_hal_dma.c ****   * @param  hdma: pointer to a DMA_HandleTypeDef structure that contains
 676:Drivers/STM32F0xx_HAL_Driver/Src/stm32f0xx_hal_dma.c ****   *               the configuration information for the specified DMA Channel.  
 677:Drivers/STM32F0xx_HAL_Driver/Src/stm32f0xx_hal_dma.c ****   * @retval HAL state
 678:Drivers/STM32F0xx_HAL_Driver/Src/stm32f0xx_hal_dma.c ****   */
 679:Drivers/STM32F0xx_HAL_Driver/Src/stm32f0xx_hal_dma.c **** HAL_DMA_StateTypeDef HAL_DMA_GetState(DMA_HandleTypeDef *hdma)
 680:Drivers/STM32F0xx_HAL_Driver/Src/stm32f0xx_hal_dma.c **** {
 681:Drivers/STM32F0xx_HAL_Driver/Src/stm32f0xx_hal_dma.c ****   return hdma->State;
 682:Drivers/STM32F0xx_HAL_Driver/Src/stm32f0xx_hal_dma.c **** }
 683:Drivers/STM32F0xx_HAL_Driver/Src/stm32f0xx_hal_dma.c **** 
 684:Drivers/STM32F0xx_HAL_Driver/Src/stm32f0xx_hal_dma.c **** /**
 685:Drivers/STM32F0xx_HAL_Driver/Src/stm32f0xx_hal_dma.c ****   * @brief  Return the DMA error code
 686:Drivers/STM32F0xx_HAL_Driver/Src/stm32f0xx_hal_dma.c ****   * @param  hdma : pointer to a DMA_HandleTypeDef structure that contains
 687:Drivers/STM32F0xx_HAL_Driver/Src/stm32f0xx_hal_dma.c ****   *              the configuration information for the specified DMA Channel.
 688:Drivers/STM32F0xx_HAL_Driver/Src/stm32f0xx_hal_dma.c ****   * @retval DMA Error Code
 689:Drivers/STM32F0xx_HAL_Driver/Src/stm32f0xx_hal_dma.c ****   */
 690:Drivers/STM32F0xx_HAL_Driver/Src/stm32f0xx_hal_dma.c **** uint32_t HAL_DMA_GetError(DMA_HandleTypeDef *hdma)
 691:Drivers/STM32F0xx_HAL_Driver/Src/stm32f0xx_hal_dma.c **** {
 692:Drivers/STM32F0xx_HAL_Driver/Src/stm32f0xx_hal_dma.c ****   return hdma->ErrorCode;
 693:Drivers/STM32F0xx_HAL_Driver/Src/stm32f0xx_hal_dma.c **** }
 694:Drivers/STM32F0xx_HAL_Driver/Src/stm32f0xx_hal_dma.c **** 
 695:Drivers/STM32F0xx_HAL_Driver/Src/stm32f0xx_hal_dma.c **** /**
 696:Drivers/STM32F0xx_HAL_Driver/Src/stm32f0xx_hal_dma.c ****   * @}
 697:Drivers/STM32F0xx_HAL_Driver/Src/stm32f0xx_hal_dma.c ****   */
ARM GAS  /tmp/ccUvWnju.s 			page 20


 698:Drivers/STM32F0xx_HAL_Driver/Src/stm32f0xx_hal_dma.c **** 
 699:Drivers/STM32F0xx_HAL_Driver/Src/stm32f0xx_hal_dma.c **** /**
 700:Drivers/STM32F0xx_HAL_Driver/Src/stm32f0xx_hal_dma.c ****   * @}
 701:Drivers/STM32F0xx_HAL_Driver/Src/stm32f0xx_hal_dma.c ****   */
 702:Drivers/STM32F0xx_HAL_Driver/Src/stm32f0xx_hal_dma.c **** 
 703:Drivers/STM32F0xx_HAL_Driver/Src/stm32f0xx_hal_dma.c **** /** @addtogroup DMA_Private_Functions
 704:Drivers/STM32F0xx_HAL_Driver/Src/stm32f0xx_hal_dma.c ****   * @{
 705:Drivers/STM32F0xx_HAL_Driver/Src/stm32f0xx_hal_dma.c ****   */
 706:Drivers/STM32F0xx_HAL_Driver/Src/stm32f0xx_hal_dma.c **** 
 707:Drivers/STM32F0xx_HAL_Driver/Src/stm32f0xx_hal_dma.c **** /**
 708:Drivers/STM32F0xx_HAL_Driver/Src/stm32f0xx_hal_dma.c ****   * @brief  Sets the DMA Transfer parameter.
 709:Drivers/STM32F0xx_HAL_Driver/Src/stm32f0xx_hal_dma.c ****   * @param  hdma:       pointer to a DMA_HandleTypeDef structure that contains
 710:Drivers/STM32F0xx_HAL_Driver/Src/stm32f0xx_hal_dma.c ****   *                     the configuration information for the specified DMA Channel.  
 711:Drivers/STM32F0xx_HAL_Driver/Src/stm32f0xx_hal_dma.c ****   * @param  SrcAddress: The source memory Buffer address
 712:Drivers/STM32F0xx_HAL_Driver/Src/stm32f0xx_hal_dma.c ****   * @param  DstAddress: The destination memory Buffer address
 713:Drivers/STM32F0xx_HAL_Driver/Src/stm32f0xx_hal_dma.c ****   * @param  DataLength: The length of data to be transferred from source to destination
 714:Drivers/STM32F0xx_HAL_Driver/Src/stm32f0xx_hal_dma.c ****   * @retval HAL status
 715:Drivers/STM32F0xx_HAL_Driver/Src/stm32f0xx_hal_dma.c ****   */
 716:Drivers/STM32F0xx_HAL_Driver/Src/stm32f0xx_hal_dma.c **** static void DMA_SetConfig(DMA_HandleTypeDef *hdma, uint32_t SrcAddress, uint32_t DstAddress, uint32
 717:Drivers/STM32F0xx_HAL_Driver/Src/stm32f0xx_hal_dma.c **** {  
 718:Drivers/STM32F0xx_HAL_Driver/Src/stm32f0xx_hal_dma.c ****   /* Configure DMA Channel data length */
 719:Drivers/STM32F0xx_HAL_Driver/Src/stm32f0xx_hal_dma.c ****   hdma->Instance->CNDTR = DataLength;
 375              		.loc 1 719 0 discriminator 2
 376 001e 6360     		str	r3, [r4, #4]
 720:Drivers/STM32F0xx_HAL_Driver/Src/stm32f0xx_hal_dma.c ****   
 721:Drivers/STM32F0xx_HAL_Driver/Src/stm32f0xx_hal_dma.c ****   /* Peripheral to Memory */
 722:Drivers/STM32F0xx_HAL_Driver/Src/stm32f0xx_hal_dma.c ****   if((hdma->Init.Direction) == DMA_MEMORY_TO_PERIPH)
 377              		.loc 1 722 0 discriminator 2
 378 0020 4368     		ldr	r3, [r0, #4]
 379              	.LVL14:
 380 0022 102B     		cmp	r3, #16
 381 0024 07D1     		bne	.L35
 723:Drivers/STM32F0xx_HAL_Driver/Src/stm32f0xx_hal_dma.c ****   {   
 724:Drivers/STM32F0xx_HAL_Driver/Src/stm32f0xx_hal_dma.c ****     /* Configure DMA Channel destination address */
 725:Drivers/STM32F0xx_HAL_Driver/Src/stm32f0xx_hal_dma.c ****     hdma->Instance->CPAR = DstAddress;
 382              		.loc 1 725 0
 383 0026 A260     		str	r2, [r4, #8]
 384              	.LVL15:
 726:Drivers/STM32F0xx_HAL_Driver/Src/stm32f0xx_hal_dma.c ****     
 727:Drivers/STM32F0xx_HAL_Driver/Src/stm32f0xx_hal_dma.c ****     /* Configure DMA Channel source address */
 728:Drivers/STM32F0xx_HAL_Driver/Src/stm32f0xx_hal_dma.c ****     hdma->Instance->CMAR = SrcAddress;
 385              		.loc 1 728 0
 386 0028 E160     		str	r1, [r4, #12]
 387              	.L36:
 388              	.LVL16:
 389              	.LBE5:
 390              	.LBE4:
 332:Drivers/STM32F0xx_HAL_Driver/Src/stm32f0xx_hal_dma.c **** 
 391              		.loc 1 332 0 discriminator 2
 392 002a 2368     		ldr	r3, [r4]
 393 002c 1D43     		orrs	r5, r3
 394 002e 2560     		str	r5, [r4]
 334:Drivers/STM32F0xx_HAL_Driver/Src/stm32f0xx_hal_dma.c **** } 
 395              		.loc 1 334 0 discriminator 2
 396 0030 0024     		movs	r4, #0
 397              	.L34:
 335:Drivers/STM32F0xx_HAL_Driver/Src/stm32f0xx_hal_dma.c **** 
ARM GAS  /tmp/ccUvWnju.s 			page 21


 398              		.loc 1 335 0
 399 0032 2000     		movs	r0, r4
 400              	.LVL17:
 401              		@ sp needed
 402              	.LVL18:
 403 0034 F0BD     		pop	{r4, r5, r6, r7, pc}
 404              	.LVL19:
 405              	.L35:
 406              	.LBB7:
 407              	.LBB6:
 729:Drivers/STM32F0xx_HAL_Driver/Src/stm32f0xx_hal_dma.c ****   }
 730:Drivers/STM32F0xx_HAL_Driver/Src/stm32f0xx_hal_dma.c ****   /* Memory to Peripheral */
 731:Drivers/STM32F0xx_HAL_Driver/Src/stm32f0xx_hal_dma.c ****   else
 732:Drivers/STM32F0xx_HAL_Driver/Src/stm32f0xx_hal_dma.c ****   {
 733:Drivers/STM32F0xx_HAL_Driver/Src/stm32f0xx_hal_dma.c ****     /* Configure DMA Channel source address */
 734:Drivers/STM32F0xx_HAL_Driver/Src/stm32f0xx_hal_dma.c ****     hdma->Instance->CPAR = SrcAddress;
 408              		.loc 1 734 0
 409 0036 A160     		str	r1, [r4, #8]
 410              	.LVL20:
 735:Drivers/STM32F0xx_HAL_Driver/Src/stm32f0xx_hal_dma.c ****     
 736:Drivers/STM32F0xx_HAL_Driver/Src/stm32f0xx_hal_dma.c ****     /* Configure DMA Channel destination address */
 737:Drivers/STM32F0xx_HAL_Driver/Src/stm32f0xx_hal_dma.c ****     hdma->Instance->CMAR = DstAddress;
 411              		.loc 1 737 0
 412 0038 E260     		str	r2, [r4, #12]
 413 003a F6E7     		b	.L36
 414              	.LBE6:
 415              	.LBE7:
 416              		.cfi_endproc
 417              	.LFE37:
 419              		.section	.text.HAL_DMA_Start_IT,"ax",%progbits
 420              		.align	1
 421              		.global	HAL_DMA_Start_IT
 422              		.syntax unified
 423              		.code	16
 424              		.thumb_func
 425              		.fpu softvfp
 427              	HAL_DMA_Start_IT:
 428              	.LFB38:
 347:Drivers/STM32F0xx_HAL_Driver/Src/stm32f0xx_hal_dma.c ****   /* Process locked */
 429              		.loc 1 347 0
 430              		.cfi_startproc
 431              	.LVL21:
 432 0000 F0B5     		push	{r4, r5, r6, r7, lr}
 433              	.LCFI3:
 434              		.cfi_def_cfa_offset 20
 435              		.cfi_offset 4, -20
 436              		.cfi_offset 5, -16
 437              		.cfi_offset 6, -12
 438              		.cfi_offset 7, -8
 439              		.cfi_offset 14, -4
 440 0002 0225     		movs	r5, #2
 349:Drivers/STM32F0xx_HAL_Driver/Src/stm32f0xx_hal_dma.c **** 
 441              		.loc 1 349 0
 442 0004 471C     		adds	r7, r0, #1
 443 0006 FE7F     		ldrb	r6, [r7, #31]
 444 0008 2C00     		movs	r4, r5
 445 000a 012E     		cmp	r6, #1
ARM GAS  /tmp/ccUvWnju.s 			page 22


 446 000c 1ED0     		beq	.L40
 349:Drivers/STM32F0xx_HAL_Driver/Src/stm32f0xx_hal_dma.c **** 
 447              		.loc 1 349 0 is_stmt 0 discriminator 2
 448 000e 0126     		movs	r6, #1
 352:Drivers/STM32F0xx_HAL_Driver/Src/stm32f0xx_hal_dma.c **** 
 449              		.loc 1 352 0 is_stmt 1 discriminator 2
 450 0010 4419     		adds	r4, r0, r5
 349:Drivers/STM32F0xx_HAL_Driver/Src/stm32f0xx_hal_dma.c **** 
 451              		.loc 1 349 0 discriminator 2
 452 0012 FE77     		strb	r6, [r7, #31]
 352:Drivers/STM32F0xx_HAL_Driver/Src/stm32f0xx_hal_dma.c **** 
 453              		.loc 1 352 0 discriminator 2
 454 0014 E577     		strb	r5, [r4, #31]
 358:Drivers/STM32F0xx_HAL_Driver/Src/stm32f0xx_hal_dma.c ****   
 455              		.loc 1 358 0 discriminator 2
 456 0016 0468     		ldr	r4, [r0]
 457 0018 2568     		ldr	r5, [r4]
 458 001a B543     		bics	r5, r6
 459 001c 2560     		str	r5, [r4]
 460              	.LVL22:
 461              	.LBB10:
 462              	.LBB11:
 719:Drivers/STM32F0xx_HAL_Driver/Src/stm32f0xx_hal_dma.c ****   
 463              		.loc 1 719 0 discriminator 2
 464 001e 6360     		str	r3, [r4, #4]
 722:Drivers/STM32F0xx_HAL_Driver/Src/stm32f0xx_hal_dma.c ****   {   
 465              		.loc 1 722 0 discriminator 2
 466 0020 4368     		ldr	r3, [r0, #4]
 467              	.LVL23:
 468 0022 102B     		cmp	r3, #16
 469 0024 14D1     		bne	.L41
 725:Drivers/STM32F0xx_HAL_Driver/Src/stm32f0xx_hal_dma.c ****     
 470              		.loc 1 725 0
 471 0026 A260     		str	r2, [r4, #8]
 472              	.LVL24:
 728:Drivers/STM32F0xx_HAL_Driver/Src/stm32f0xx_hal_dma.c ****   }
 473              		.loc 1 728 0
 474 0028 E160     		str	r1, [r4, #12]
 475              	.L42:
 476              	.LVL25:
 477              	.LBE11:
 478              	.LBE10:
 364:Drivers/STM32F0xx_HAL_Driver/Src/stm32f0xx_hal_dma.c **** 
 479              		.loc 1 364 0 discriminator 2
 480 002a 0223     		movs	r3, #2
 481 002c 2268     		ldr	r2, [r4]
 482              	.LVL26:
 483 002e 1343     		orrs	r3, r2
 484 0030 2360     		str	r3, [r4]
 367:Drivers/STM32F0xx_HAL_Driver/Src/stm32f0xx_hal_dma.c **** 
 485              		.loc 1 367 0 discriminator 2
 486 0032 0423     		movs	r3, #4
 487 0034 2268     		ldr	r2, [r4]
 488 0036 1343     		orrs	r3, r2
 489 0038 2360     		str	r3, [r4]
 370:Drivers/STM32F0xx_HAL_Driver/Src/stm32f0xx_hal_dma.c ****   
 490              		.loc 1 370 0 discriminator 2
ARM GAS  /tmp/ccUvWnju.s 			page 23


 491 003a 0823     		movs	r3, #8
 492 003c 2268     		ldr	r2, [r4]
 493 003e 1343     		orrs	r3, r2
 494 0040 2360     		str	r3, [r4]
 373:Drivers/STM32F0xx_HAL_Driver/Src/stm32f0xx_hal_dma.c ****   
 495              		.loc 1 373 0 discriminator 2
 496 0042 0123     		movs	r3, #1
 497 0044 2268     		ldr	r2, [r4]
 498 0046 1343     		orrs	r3, r2
 499 0048 2360     		str	r3, [r4]
 375:Drivers/STM32F0xx_HAL_Driver/Src/stm32f0xx_hal_dma.c **** } 
 500              		.loc 1 375 0 discriminator 2
 501 004a 0024     		movs	r4, #0
 502              	.L40:
 376:Drivers/STM32F0xx_HAL_Driver/Src/stm32f0xx_hal_dma.c **** 
 503              		.loc 1 376 0
 504 004c 2000     		movs	r0, r4
 505              	.LVL27:
 506              		@ sp needed
 507              	.LVL28:
 508 004e F0BD     		pop	{r4, r5, r6, r7, pc}
 509              	.LVL29:
 510              	.L41:
 511              	.LBB13:
 512              	.LBB12:
 734:Drivers/STM32F0xx_HAL_Driver/Src/stm32f0xx_hal_dma.c ****     
 513              		.loc 1 734 0
 514 0050 A160     		str	r1, [r4, #8]
 515              	.LVL30:
 516              		.loc 1 737 0
 517 0052 E260     		str	r2, [r4, #12]
 518 0054 E9E7     		b	.L42
 519              	.LBE12:
 520              	.LBE13:
 521              		.cfi_endproc
 522              	.LFE38:
 524              		.section	.text.HAL_DMA_Abort,"ax",%progbits
 525              		.align	1
 526              		.global	HAL_DMA_Abort
 527              		.syntax unified
 528              		.code	16
 529              		.thumb_func
 530              		.fpu softvfp
 532              	HAL_DMA_Abort:
 533              	.LFB39:
 391:Drivers/STM32F0xx_HAL_Driver/Src/stm32f0xx_hal_dma.c ****   uint32_t tickstart = 0x00;
 534              		.loc 1 391 0
 535              		.cfi_startproc
 536              	.LVL31:
 537 0000 F8B5     		push	{r3, r4, r5, r6, r7, lr}
 538              	.LCFI4:
 539              		.cfi_def_cfa_offset 24
 540              		.cfi_offset 3, -24
 541              		.cfi_offset 4, -20
 542              		.cfi_offset 5, -16
 543              		.cfi_offset 6, -12
 544              		.cfi_offset 7, -8
ARM GAS  /tmp/ccUvWnju.s 			page 24


 545              		.cfi_offset 14, -4
 395:Drivers/STM32F0xx_HAL_Driver/Src/stm32f0xx_hal_dma.c ****   
 546              		.loc 1 395 0
 547 0002 0125     		movs	r5, #1
 548 0004 0268     		ldr	r2, [r0]
 391:Drivers/STM32F0xx_HAL_Driver/Src/stm32f0xx_hal_dma.c ****   uint32_t tickstart = 0x00;
 549              		.loc 1 391 0
 550 0006 0400     		movs	r4, r0
 395:Drivers/STM32F0xx_HAL_Driver/Src/stm32f0xx_hal_dma.c ****   
 551              		.loc 1 395 0
 552 0008 1368     		ldr	r3, [r2]
 404:Drivers/STM32F0xx_HAL_Driver/Src/stm32f0xx_hal_dma.c ****     {
 553              		.loc 1 404 0
 554 000a FA27     		movs	r7, #250
 395:Drivers/STM32F0xx_HAL_Driver/Src/stm32f0xx_hal_dma.c ****   
 555              		.loc 1 395 0
 556 000c AB43     		bics	r3, r5
 557 000e 1360     		str	r3, [r2]
 398:Drivers/STM32F0xx_HAL_Driver/Src/stm32f0xx_hal_dma.c ****   
 558              		.loc 1 398 0
 559 0010 FFF7FEFF 		bl	HAL_GetTick
 560              	.LVL32:
 561 0014 0600     		movs	r6, r0
 562              	.LVL33:
 404:Drivers/STM32F0xx_HAL_Driver/Src/stm32f0xx_hal_dma.c ****     {
 563              		.loc 1 404 0
 564 0016 BF00     		lsls	r7, r7, #2
 565              	.LVL34:
 566              	.L46:
 401:Drivers/STM32F0xx_HAL_Driver/Src/stm32f0xx_hal_dma.c ****   {
 567              		.loc 1 401 0
 568 0018 2368     		ldr	r3, [r4]
 569 001a 1868     		ldr	r0, [r3]
 570 001c 2840     		ands	r0, r5
 571 001e 04D1     		bne	.L48
 419:Drivers/STM32F0xx_HAL_Driver/Src/stm32f0xx_hal_dma.c ****   
 572              		.loc 1 419 0
 573 0020 A31C     		adds	r3, r4, #2
 422:Drivers/STM32F0xx_HAL_Driver/Src/stm32f0xx_hal_dma.c ****   
 574              		.loc 1 422 0
 575 0022 0134     		adds	r4, r4, #1
 576              	.LVL35:
 419:Drivers/STM32F0xx_HAL_Driver/Src/stm32f0xx_hal_dma.c ****   
 577              		.loc 1 419 0
 578 0024 DD77     		strb	r5, [r3, #31]
 422:Drivers/STM32F0xx_HAL_Driver/Src/stm32f0xx_hal_dma.c ****   
 579              		.loc 1 422 0
 580 0026 E077     		strb	r0, [r4, #31]
 424:Drivers/STM32F0xx_HAL_Driver/Src/stm32f0xx_hal_dma.c **** }
 581              		.loc 1 424 0
 582 0028 0EE0     		b	.L47
 583              	.LVL36:
 584              	.L48:
 404:Drivers/STM32F0xx_HAL_Driver/Src/stm32f0xx_hal_dma.c ****     {
 585              		.loc 1 404 0
 586 002a FFF7FEFF 		bl	HAL_GetTick
 587              	.LVL37:
ARM GAS  /tmp/ccUvWnju.s 			page 25


 588 002e 801B     		subs	r0, r0, r6
 589 0030 B842     		cmp	r0, r7
 590 0032 F1D9     		bls	.L46
 407:Drivers/STM32F0xx_HAL_Driver/Src/stm32f0xx_hal_dma.c **** 
 591              		.loc 1 407 0
 592 0034 2023     		movs	r3, #32
 410:Drivers/STM32F0xx_HAL_Driver/Src/stm32f0xx_hal_dma.c **** 
 593              		.loc 1 410 0
 594 0036 0320     		movs	r0, #3
 407:Drivers/STM32F0xx_HAL_Driver/Src/stm32f0xx_hal_dma.c **** 
 595              		.loc 1 407 0
 596 0038 A26B     		ldr	r2, [r4, #56]
 597 003a 1343     		orrs	r3, r2
 598 003c A363     		str	r3, [r4, #56]
 410:Drivers/STM32F0xx_HAL_Driver/Src/stm32f0xx_hal_dma.c **** 
 599              		.loc 1 410 0
 600 003e A31C     		adds	r3, r4, #2
 601 0040 D877     		strb	r0, [r3, #31]
 413:Drivers/STM32F0xx_HAL_Driver/Src/stm32f0xx_hal_dma.c **** 
 602              		.loc 1 413 0
 603 0042 0023     		movs	r3, #0
 604 0044 0134     		adds	r4, r4, #1
 605              	.LVL38:
 606 0046 E377     		strb	r3, [r4, #31]
 607              	.LVL39:
 608              	.L47:
 425:Drivers/STM32F0xx_HAL_Driver/Src/stm32f0xx_hal_dma.c **** 
 609              		.loc 1 425 0
 610              		@ sp needed
 611              	.LVL40:
 612 0048 F8BD     		pop	{r3, r4, r5, r6, r7, pc}
 613              		.cfi_endproc
 614              	.LFE39:
 616              		.section	.text.HAL_DMA_Abort_IT,"ax",%progbits
 617              		.align	1
 618              		.global	HAL_DMA_Abort_IT
 619              		.syntax unified
 620              		.code	16
 621              		.thumb_func
 622              		.fpu softvfp
 624              	HAL_DMA_Abort_IT:
 625              	.LFB40:
 434:Drivers/STM32F0xx_HAL_Driver/Src/stm32f0xx_hal_dma.c ****   HAL_StatusTypeDef status = HAL_OK;
 626              		.loc 1 434 0
 627              		.cfi_startproc
 628              	.LVL41:
 629 0000 10B5     		push	{r4, lr}
 630              	.LCFI5:
 631              		.cfi_def_cfa_offset 8
 632              		.cfi_offset 4, -8
 633              		.cfi_offset 14, -4
 437:Drivers/STM32F0xx_HAL_Driver/Src/stm32f0xx_hal_dma.c ****   {
 634              		.loc 1 437 0
 635 0002 841C     		adds	r4, r0, #2
 636 0004 E37F     		ldrb	r3, [r4, #31]
 637 0006 022B     		cmp	r3, #2
 638 0008 04D0     		beq	.L51
ARM GAS  /tmp/ccUvWnju.s 			page 26


 440:Drivers/STM32F0xx_HAL_Driver/Src/stm32f0xx_hal_dma.c ****         
 639              		.loc 1 440 0
 640 000a 0423     		movs	r3, #4
 641 000c 8363     		str	r3, [r0, #56]
 642              	.LVL42:
 442:Drivers/STM32F0xx_HAL_Driver/Src/stm32f0xx_hal_dma.c ****   }
 643              		.loc 1 442 0
 644 000e 033B     		subs	r3, r3, #3
 645              	.LVL43:
 646              	.L52:
 468:Drivers/STM32F0xx_HAL_Driver/Src/stm32f0xx_hal_dma.c **** 
 647              		.loc 1 468 0
 648 0010 1800     		movs	r0, r3
 649              		@ sp needed
 650 0012 10BD     		pop	{r4, pc}
 651              	.LVL44:
 652              	.L51:
 447:Drivers/STM32F0xx_HAL_Driver/Src/stm32f0xx_hal_dma.c ****     
 653              		.loc 1 447 0
 654 0014 0E21     		movs	r1, #14
 655 0016 0268     		ldr	r2, [r0]
 656 0018 1368     		ldr	r3, [r2]
 657 001a 8B43     		bics	r3, r1
 658 001c 1360     		str	r3, [r2]
 450:Drivers/STM32F0xx_HAL_Driver/Src/stm32f0xx_hal_dma.c ****     
 659              		.loc 1 450 0
 660 001e 0123     		movs	r3, #1
 661 0020 1168     		ldr	r1, [r2]
 662 0022 9943     		bics	r1, r3
 663 0024 1160     		str	r1, [r2]
 453:Drivers/STM32F0xx_HAL_Driver/Src/stm32f0xx_hal_dma.c ****     
 664              		.loc 1 453 0
 665 0026 1749     		ldr	r1, .L61
 666 0028 8A42     		cmp	r2, r1
 667 002a 11D0     		beq	.L53
 453:Drivers/STM32F0xx_HAL_Driver/Src/stm32f0xx_hal_dma.c ****     
 668              		.loc 1 453 0 is_stmt 0 discriminator 1
 669 002c 1649     		ldr	r1, .L61+4
 670 002e 0F33     		adds	r3, r3, #15
 671 0030 8A42     		cmp	r2, r1
 672 0032 0DD0     		beq	.L53
 453:Drivers/STM32F0xx_HAL_Driver/Src/stm32f0xx_hal_dma.c ****     
 673              		.loc 1 453 0 discriminator 3
 674 0034 154B     		ldr	r3, .L61+8
 675 0036 9A42     		cmp	r2, r3
 676 0038 18D0     		beq	.L56
 453:Drivers/STM32F0xx_HAL_Driver/Src/stm32f0xx_hal_dma.c ****     
 677              		.loc 1 453 0 discriminator 5
 678 003a 154B     		ldr	r3, .L61+12
 679 003c 9A42     		cmp	r2, r3
 680 003e 18D0     		beq	.L57
 453:Drivers/STM32F0xx_HAL_Driver/Src/stm32f0xx_hal_dma.c ****     
 681              		.loc 1 453 0 discriminator 7
 682 0040 144B     		ldr	r3, .L61+16
 683 0042 9A42     		cmp	r2, r3
 684 0044 18D0     		beq	.L58
 453:Drivers/STM32F0xx_HAL_Driver/Src/stm32f0xx_hal_dma.c ****     
ARM GAS  /tmp/ccUvWnju.s 			page 27


 685              		.loc 1 453 0 discriminator 9
 686 0046 144B     		ldr	r3, .L61+20
 687 0048 9A42     		cmp	r2, r3
 688 004a 18D0     		beq	.L59
 453:Drivers/STM32F0xx_HAL_Driver/Src/stm32f0xx_hal_dma.c ****     
 689              		.loc 1 453 0
 690 004c 8023     		movs	r3, #128
 691 004e 5B04     		lsls	r3, r3, #17
 692              	.L53:
 453:Drivers/STM32F0xx_HAL_Driver/Src/stm32f0xx_hal_dma.c ****     
 693              		.loc 1 453 0 discriminator 24
 694 0050 124A     		ldr	r2, .L61+24
 695 0052 5360     		str	r3, [r2, #4]
 456:Drivers/STM32F0xx_HAL_Driver/Src/stm32f0xx_hal_dma.c ****     
 696              		.loc 1 456 0 is_stmt 1 discriminator 24
 697 0054 0123     		movs	r3, #1
 698 0056 E377     		strb	r3, [r4, #31]
 459:Drivers/STM32F0xx_HAL_Driver/Src/stm32f0xx_hal_dma.c ****     
 699              		.loc 1 459 0 discriminator 24
 700 0058 0024     		movs	r4, #0
 462:Drivers/STM32F0xx_HAL_Driver/Src/stm32f0xx_hal_dma.c ****     {
 701              		.loc 1 462 0 discriminator 24
 702 005a 426B     		ldr	r2, [r0, #52]
 459:Drivers/STM32F0xx_HAL_Driver/Src/stm32f0xx_hal_dma.c ****     
 703              		.loc 1 459 0 discriminator 24
 704 005c C318     		adds	r3, r0, r3
 705 005e DC77     		strb	r4, [r3, #31]
 435:Drivers/STM32F0xx_HAL_Driver/Src/stm32f0xx_hal_dma.c ****   
 706              		.loc 1 435 0 discriminator 24
 707 0060 1300     		movs	r3, r2
 462:Drivers/STM32F0xx_HAL_Driver/Src/stm32f0xx_hal_dma.c ****     {
 708              		.loc 1 462 0 discriminator 24
 709 0062 A242     		cmp	r2, r4
 710 0064 D4D0     		beq	.L52
 464:Drivers/STM32F0xx_HAL_Driver/Src/stm32f0xx_hal_dma.c ****     } 
 711              		.loc 1 464 0
 712 0066 9047     		blx	r2
 713              	.LVL45:
 435:Drivers/STM32F0xx_HAL_Driver/Src/stm32f0xx_hal_dma.c ****   
 714              		.loc 1 435 0
 715 0068 2300     		movs	r3, r4
 716 006a D1E7     		b	.L52
 717              	.LVL46:
 718              	.L56:
 453:Drivers/STM32F0xx_HAL_Driver/Src/stm32f0xx_hal_dma.c ****     
 719              		.loc 1 453 0
 720 006c 8023     		movs	r3, #128
 721 006e 5B00     		lsls	r3, r3, #1
 722 0070 EEE7     		b	.L53
 723              	.L57:
 724 0072 8023     		movs	r3, #128
 725 0074 5B01     		lsls	r3, r3, #5
 726 0076 EBE7     		b	.L53
 727              	.L58:
 728 0078 8023     		movs	r3, #128
 729 007a 5B02     		lsls	r3, r3, #9
 730 007c E8E7     		b	.L53
ARM GAS  /tmp/ccUvWnju.s 			page 28


 731              	.L59:
 732 007e 8023     		movs	r3, #128
 733 0080 5B03     		lsls	r3, r3, #13
 734 0082 E5E7     		b	.L53
 735              	.L62:
 736              		.align	2
 737              	.L61:
 738 0084 08000240 		.word	1073872904
 739 0088 1C000240 		.word	1073872924
 740 008c 30000240 		.word	1073872944
 741 0090 44000240 		.word	1073872964
 742 0094 58000240 		.word	1073872984
 743 0098 6C000240 		.word	1073873004
 744 009c 00000240 		.word	1073872896
 745              		.cfi_endproc
 746              	.LFE40:
 748              		.section	.text.HAL_DMA_PollForTransfer,"ax",%progbits
 749              		.align	1
 750              		.global	HAL_DMA_PollForTransfer
 751              		.syntax unified
 752              		.code	16
 753              		.thumb_func
 754              		.fpu softvfp
 756              	HAL_DMA_PollForTransfer:
 757              	.LFB41:
 479:Drivers/STM32F0xx_HAL_Driver/Src/stm32f0xx_hal_dma.c ****   uint32_t temp;
 758              		.loc 1 479 0
 759              		.cfi_startproc
 760              	.LVL47:
 761 0000 F0B5     		push	{r4, r5, r6, r7, lr}
 762              	.LCFI6:
 763              		.cfi_def_cfa_offset 20
 764              		.cfi_offset 4, -20
 765              		.cfi_offset 5, -16
 766              		.cfi_offset 6, -12
 767              		.cfi_offset 7, -8
 768              		.cfi_offset 14, -4
 769 0002 85B0     		sub	sp, sp, #20
 770              	.LCFI7:
 771              		.cfi_def_cfa_offset 40
 479:Drivers/STM32F0xx_HAL_Driver/Src/stm32f0xx_hal_dma.c ****   uint32_t temp;
 772              		.loc 1 479 0
 773 0004 0400     		movs	r4, r0
 774 0006 0191     		str	r1, [sp, #4]
 775 0008 1700     		movs	r7, r2
 776 000a 0368     		ldr	r3, [r0]
 777 000c 754E     		ldr	r6, .L112
 484:Drivers/STM32F0xx_HAL_Driver/Src/stm32f0xx_hal_dma.c ****   {
 778              		.loc 1 484 0
 779 000e 0029     		cmp	r1, #0
 780 0010 42D1     		bne	.L64
 487:Drivers/STM32F0xx_HAL_Driver/Src/stm32f0xx_hal_dma.c ****   }
 781              		.loc 1 487 0
 782 0012 0225     		movs	r5, #2
 783 0014 B342     		cmp	r3, r6
 784 0016 11D0     		beq	.L65
 487:Drivers/STM32F0xx_HAL_Driver/Src/stm32f0xx_hal_dma.c ****   }
ARM GAS  /tmp/ccUvWnju.s 			page 29


 785              		.loc 1 487 0 is_stmt 0 discriminator 1
 786 0018 734A     		ldr	r2, .L112+4
 787              	.LVL48:
 788 001a 1E35     		adds	r5, r5, #30
 789 001c 9342     		cmp	r3, r2
 790 001e 0DD0     		beq	.L65
 487:Drivers/STM32F0xx_HAL_Driver/Src/stm32f0xx_hal_dma.c ****   }
 791              		.loc 1 487 0 discriminator 3
 792 0020 724A     		ldr	r2, .L112+8
 793 0022 9342     		cmp	r3, r2
 794 0024 4ED0     		beq	.L80
 487:Drivers/STM32F0xx_HAL_Driver/Src/stm32f0xx_hal_dma.c ****   }
 795              		.loc 1 487 0 discriminator 5
 796 0026 724A     		ldr	r2, .L112+12
 797 0028 9342     		cmp	r3, r2
 798 002a 4ED0     		beq	.L81
 487:Drivers/STM32F0xx_HAL_Driver/Src/stm32f0xx_hal_dma.c ****   }
 799              		.loc 1 487 0 discriminator 7
 800 002c 714A     		ldr	r2, .L112+16
 801 002e 9342     		cmp	r3, r2
 802 0030 4ED0     		beq	.L82
 487:Drivers/STM32F0xx_HAL_Driver/Src/stm32f0xx_hal_dma.c ****   }
 803              		.loc 1 487 0 discriminator 9
 804 0032 714A     		ldr	r2, .L112+20
 805 0034 8025     		movs	r5, #128
 806 0036 9342     		cmp	r3, r2
 807 0038 4DD0     		beq	.L83
 487:Drivers/STM32F0xx_HAL_Driver/Src/stm32f0xx_hal_dma.c ****   }
 808              		.loc 1 487 0
 809 003a AD04     		lsls	r5, r5, #18
 810              	.L65:
 811              	.LVL49:
 496:Drivers/STM32F0xx_HAL_Driver/Src/stm32f0xx_hal_dma.c **** 
 812              		.loc 1 496 0 is_stmt 1
 813 003c FFF7FEFF 		bl	HAL_GetTick
 814              	.LVL50:
 815 0040 0290     		str	r0, [sp, #8]
 816              	.LVL51:
 817              	.L66:
 498:Drivers/STM32F0xx_HAL_Driver/Src/stm32f0xx_hal_dma.c ****   {
 818              		.loc 1 498 0
 819 0042 6E48     		ldr	r0, .L112+24
 820 0044 0100     		movs	r1, r0
 821              	.L70:
 822 0046 0268     		ldr	r2, [r0]
 823 0048 2368     		ldr	r3, [r4]
 824 004a 2A42     		tst	r2, r5
 825 004c 50D0     		beq	.L73
 535:Drivers/STM32F0xx_HAL_Driver/Src/stm32f0xx_hal_dma.c ****   {
 826              		.loc 1 535 0
 827 004e 019A     		ldr	r2, [sp, #4]
 828 0050 A01C     		adds	r0, r4, #2
 829 0052 002A     		cmp	r2, #0
 830 0054 00D0     		beq	.LCB764
 831 0056 A1E0     		b	.L74	@long jump
 832              	.LCB764:
 538:Drivers/STM32F0xx_HAL_Driver/Src/stm32f0xx_hal_dma.c **** 
ARM GAS  /tmp/ccUvWnju.s 			page 30


 833              		.loc 1 538 0
 834 0058 0232     		adds	r2, r2, #2
 835 005a B342     		cmp	r3, r6
 836 005c 15D0     		beq	.L75
 538:Drivers/STM32F0xx_HAL_Driver/Src/stm32f0xx_hal_dma.c **** 
 837              		.loc 1 538 0 is_stmt 0 discriminator 1
 838 005e 624D     		ldr	r5, .L112+4
 839              	.LVL52:
 840 0060 1E32     		adds	r2, r2, #30
 841 0062 AB42     		cmp	r3, r5
 842 0064 11D0     		beq	.L75
 538:Drivers/STM32F0xx_HAL_Driver/Src/stm32f0xx_hal_dma.c **** 
 843              		.loc 1 538 0 discriminator 3
 844 0066 614A     		ldr	r2, .L112+8
 845 0068 9342     		cmp	r3, r2
 846 006a 00D1     		bne	.LCB775
 847 006c 8AE0     		b	.L98	@long jump
 848              	.LCB775:
 538:Drivers/STM32F0xx_HAL_Driver/Src/stm32f0xx_hal_dma.c **** 
 849              		.loc 1 538 0 discriminator 5
 850 006e 604A     		ldr	r2, .L112+12
 851 0070 9342     		cmp	r3, r2
 852 0072 00D1     		bne	.LCB778
 853 0074 89E0     		b	.L99	@long jump
 854              	.LCB778:
 538:Drivers/STM32F0xx_HAL_Driver/Src/stm32f0xx_hal_dma.c **** 
 855              		.loc 1 538 0 discriminator 7
 856 0076 5F4A     		ldr	r2, .L112+16
 857 0078 9342     		cmp	r3, r2
 858 007a 00D1     		bne	.LCB781
 859 007c 88E0     		b	.L100	@long jump
 860              	.LCB781:
 538:Drivers/STM32F0xx_HAL_Driver/Src/stm32f0xx_hal_dma.c **** 
 861              		.loc 1 538 0 discriminator 9
 862 007e 5E4A     		ldr	r2, .L112+20
 863 0080 9342     		cmp	r3, r2
 864 0082 00D1     		bne	.LCB784
 865 0084 87E0     		b	.L101	@long jump
 866              	.LCB784:
 538:Drivers/STM32F0xx_HAL_Driver/Src/stm32f0xx_hal_dma.c **** 
 867              		.loc 1 538 0
 868 0086 8022     		movs	r2, #128
 869 0088 9204     		lsls	r2, r2, #18
 870              	.L75:
 542:Drivers/STM32F0xx_HAL_Driver/Src/stm32f0xx_hal_dma.c **** 
 871              		.loc 1 542 0 is_stmt 1 discriminator 24
 872 008a 0123     		movs	r3, #1
 538:Drivers/STM32F0xx_HAL_Driver/Src/stm32f0xx_hal_dma.c **** 
 873              		.loc 1 538 0 discriminator 24
 874 008c 4A60     		str	r2, [r1, #4]
 875              	.L110:
 552:Drivers/STM32F0xx_HAL_Driver/Src/stm32f0xx_hal_dma.c ****   }
 876              		.loc 1 552 0 discriminator 24
 877 008e C377     		strb	r3, [r0, #31]
 556:Drivers/STM32F0xx_HAL_Driver/Src/stm32f0xx_hal_dma.c **** 
 878              		.loc 1 556 0 discriminator 24
 879 0090 0020     		movs	r0, #0
ARM GAS  /tmp/ccUvWnju.s 			page 31


 880 0092 0134     		adds	r4, r4, #1
 881              	.LVL53:
 882 0094 E077     		strb	r0, [r4, #31]
 558:Drivers/STM32F0xx_HAL_Driver/Src/stm32f0xx_hal_dma.c **** }
 883              		.loc 1 558 0 discriminator 24
 884 0096 51E0     		b	.L69
 885              	.LVL54:
 886              	.L64:
 492:Drivers/STM32F0xx_HAL_Driver/Src/stm32f0xx_hal_dma.c ****   }
 887              		.loc 1 492 0
 888 0098 0425     		movs	r5, #4
 889 009a B342     		cmp	r3, r6
 890 009c CED0     		beq	.L65
 492:Drivers/STM32F0xx_HAL_Driver/Src/stm32f0xx_hal_dma.c ****   }
 891              		.loc 1 492 0 is_stmt 0 discriminator 1
 892 009e 524A     		ldr	r2, .L112+4
 893              	.LVL55:
 894 00a0 3C35     		adds	r5, r5, #60
 895 00a2 9342     		cmp	r3, r2
 896 00a4 CAD0     		beq	.L65
 492:Drivers/STM32F0xx_HAL_Driver/Src/stm32f0xx_hal_dma.c ****   }
 897              		.loc 1 492 0 discriminator 3
 898 00a6 514A     		ldr	r2, .L112+8
 899 00a8 9342     		cmp	r3, r2
 900 00aa 16D0     		beq	.L86
 492:Drivers/STM32F0xx_HAL_Driver/Src/stm32f0xx_hal_dma.c ****   }
 901              		.loc 1 492 0 discriminator 5
 902 00ac 504A     		ldr	r2, .L112+12
 903 00ae 9342     		cmp	r3, r2
 904 00b0 16D0     		beq	.L87
 492:Drivers/STM32F0xx_HAL_Driver/Src/stm32f0xx_hal_dma.c ****   }
 905              		.loc 1 492 0 discriminator 7
 906 00b2 504A     		ldr	r2, .L112+16
 907 00b4 9342     		cmp	r3, r2
 908 00b6 16D0     		beq	.L88
 492:Drivers/STM32F0xx_HAL_Driver/Src/stm32f0xx_hal_dma.c ****   }
 909              		.loc 1 492 0 discriminator 9
 910 00b8 4F4A     		ldr	r2, .L112+20
 911 00ba 8025     		movs	r5, #128
 912 00bc 9342     		cmp	r3, r2
 913 00be 15D0     		beq	.L89
 492:Drivers/STM32F0xx_HAL_Driver/Src/stm32f0xx_hal_dma.c ****   }
 914              		.loc 1 492 0
 915 00c0 ED04     		lsls	r5, r5, #19
 916 00c2 BBE7     		b	.L65
 917              	.L80:
 487:Drivers/STM32F0xx_HAL_Driver/Src/stm32f0xx_hal_dma.c ****   }
 918              		.loc 1 487 0 is_stmt 1
 919 00c4 8025     		movs	r5, #128
 920 00c6 AD00     		lsls	r5, r5, #2
 921 00c8 B8E7     		b	.L65
 922              	.L81:
 923 00ca 8025     		movs	r5, #128
 924 00cc AD01     		lsls	r5, r5, #6
 925 00ce B5E7     		b	.L65
 926              	.L82:
 927 00d0 8025     		movs	r5, #128
ARM GAS  /tmp/ccUvWnju.s 			page 32


 928 00d2 AD02     		lsls	r5, r5, #10
 929 00d4 B2E7     		b	.L65
 930              	.L83:
 931 00d6 AD03     		lsls	r5, r5, #14
 932 00d8 B0E7     		b	.L65
 933              	.L86:
 492:Drivers/STM32F0xx_HAL_Driver/Src/stm32f0xx_hal_dma.c ****   }
 934              		.loc 1 492 0
 935 00da 8025     		movs	r5, #128
 936 00dc ED00     		lsls	r5, r5, #3
 937 00de ADE7     		b	.L65
 938              	.L87:
 939 00e0 8025     		movs	r5, #128
 940 00e2 ED01     		lsls	r5, r5, #7
 941 00e4 AAE7     		b	.L65
 942              	.L88:
 943 00e6 8025     		movs	r5, #128
 944 00e8 ED02     		lsls	r5, r5, #11
 945 00ea A7E7     		b	.L65
 946              	.L89:
 947 00ec ED03     		lsls	r5, r5, #15
 948 00ee A5E7     		b	.L65
 949              	.LVL56:
 950              	.L73:
 500:Drivers/STM32F0xx_HAL_Driver/Src/stm32f0xx_hal_dma.c ****     {      
 951              		.loc 1 500 0
 952 00f0 0268     		ldr	r2, [r0]
 953 00f2 0392     		str	r2, [sp, #12]
 954 00f4 0822     		movs	r2, #8
 955 00f6 B342     		cmp	r3, r6
 956 00f8 12D0     		beq	.L67
 500:Drivers/STM32F0xx_HAL_Driver/Src/stm32f0xx_hal_dma.c ****     {      
 957              		.loc 1 500 0 is_stmt 0 discriminator 1
 958 00fa 3B4A     		ldr	r2, .L112+4
 959 00fc 9446     		mov	ip, r2
 960 00fe 8022     		movs	r2, #128
 961 0100 6345     		cmp	r3, ip
 962 0102 0DD0     		beq	.L67
 500:Drivers/STM32F0xx_HAL_Driver/Src/stm32f0xx_hal_dma.c ****     {      
 963              		.loc 1 500 0 discriminator 3
 964 0104 394A     		ldr	r2, .L112+8
 965 0106 9342     		cmp	r3, r2
 966 0108 1AD0     		beq	.L92
 500:Drivers/STM32F0xx_HAL_Driver/Src/stm32f0xx_hal_dma.c ****     {      
 967              		.loc 1 500 0 discriminator 5
 968 010a 394A     		ldr	r2, .L112+12
 969 010c 9342     		cmp	r3, r2
 970 010e 1AD0     		beq	.L93
 500:Drivers/STM32F0xx_HAL_Driver/Src/stm32f0xx_hal_dma.c ****     {      
 971              		.loc 1 500 0 discriminator 7
 972 0110 384A     		ldr	r2, .L112+16
 973 0112 9342     		cmp	r3, r2
 974 0114 1AD0     		beq	.L94
 500:Drivers/STM32F0xx_HAL_Driver/Src/stm32f0xx_hal_dma.c ****     {      
 975              		.loc 1 500 0 discriminator 9
 976 0116 384A     		ldr	r2, .L112+20
 977 0118 9342     		cmp	r3, r2
ARM GAS  /tmp/ccUvWnju.s 			page 33


 978 011a 1AD0     		beq	.L95
 500:Drivers/STM32F0xx_HAL_Driver/Src/stm32f0xx_hal_dma.c ****     {      
 979              		.loc 1 500 0
 980 011c 8022     		movs	r2, #128
 981 011e 1205     		lsls	r2, r2, #20
 982              	.L67:
 500:Drivers/STM32F0xx_HAL_Driver/Src/stm32f0xx_hal_dma.c ****     {      
 983              		.loc 1 500 0 discriminator 24
 984 0120 039B     		ldr	r3, [sp, #12]
 985 0122 1342     		tst	r3, r2
 986 0124 18D0     		beq	.L68
 506:Drivers/STM32F0xx_HAL_Driver/Src/stm32f0xx_hal_dma.c **** 
 987              		.loc 1 506 0 is_stmt 1 discriminator 24
 988 0126 0120     		movs	r0, #1
 503:Drivers/STM32F0xx_HAL_Driver/Src/stm32f0xx_hal_dma.c ****       
 989              		.loc 1 503 0 discriminator 24
 990 0128 4A60     		str	r2, [r1, #4]
 509:Drivers/STM32F0xx_HAL_Driver/Src/stm32f0xx_hal_dma.c ****       
 991              		.loc 1 509 0 discriminator 24
 992 012a 0422     		movs	r2, #4
 506:Drivers/STM32F0xx_HAL_Driver/Src/stm32f0xx_hal_dma.c **** 
 993              		.loc 1 506 0 discriminator 24
 994 012c A36B     		ldr	r3, [r4, #56]
 995 012e 0343     		orrs	r3, r0
 996 0130 A363     		str	r3, [r4, #56]
 509:Drivers/STM32F0xx_HAL_Driver/Src/stm32f0xx_hal_dma.c ****       
 997              		.loc 1 509 0 discriminator 24
 998 0132 A31C     		adds	r3, r4, #2
 999 0134 DA77     		strb	r2, [r3, #31]
 512:Drivers/STM32F0xx_HAL_Driver/Src/stm32f0xx_hal_dma.c ****       
 1000              		.loc 1 512 0 discriminator 24
 1001 0136 2418     		adds	r4, r4, r0
 1002              	.LVL57:
 1003              	.L111:
 528:Drivers/STM32F0xx_HAL_Driver/Src/stm32f0xx_hal_dma.c **** 
 1004              		.loc 1 528 0
 1005 0138 0023     		movs	r3, #0
 1006 013a E377     		strb	r3, [r4, #31]
 1007              	.LVL58:
 1008              	.L69:
 559:Drivers/STM32F0xx_HAL_Driver/Src/stm32f0xx_hal_dma.c **** 
 1009              		.loc 1 559 0
 1010 013c 05B0     		add	sp, sp, #20
 1011              		@ sp needed
 1012              	.LVL59:
 1013 013e F0BD     		pop	{r4, r5, r6, r7, pc}
 1014              	.LVL60:
 1015              	.L92:
 500:Drivers/STM32F0xx_HAL_Driver/Src/stm32f0xx_hal_dma.c ****     {      
 1016              		.loc 1 500 0
 1017 0140 8022     		movs	r2, #128
 1018 0142 1201     		lsls	r2, r2, #4
 1019 0144 ECE7     		b	.L67
 1020              	.L93:
 1021 0146 8022     		movs	r2, #128
 1022 0148 1202     		lsls	r2, r2, #8
 1023 014a E9E7     		b	.L67
ARM GAS  /tmp/ccUvWnju.s 			page 34


 1024              	.L94:
 1025 014c 8022     		movs	r2, #128
 1026 014e 1203     		lsls	r2, r2, #12
 1027 0150 E6E7     		b	.L67
 1028              	.L95:
 1029 0152 8022     		movs	r2, #128
 1030 0154 1204     		lsls	r2, r2, #16
 1031 0156 E3E7     		b	.L67
 1032              	.L68:
 517:Drivers/STM32F0xx_HAL_Driver/Src/stm32f0xx_hal_dma.c ****     {
 1033              		.loc 1 517 0
 1034 0158 7B1C     		adds	r3, r7, #1
 1035 015a 00D1     		bne	.LCB973
 1036 015c 73E7     		b	.L70	@long jump
 1037              	.LCB973:
 519:Drivers/STM32F0xx_HAL_Driver/Src/stm32f0xx_hal_dma.c ****       {
 1038              		.loc 1 519 0
 1039 015e 002F     		cmp	r7, #0
 1040 0160 08D1     		bne	.L71
 1041              	.L72:
 522:Drivers/STM32F0xx_HAL_Driver/Src/stm32f0xx_hal_dma.c ****         
 1042              		.loc 1 522 0
 1043 0162 2023     		movs	r3, #32
 525:Drivers/STM32F0xx_HAL_Driver/Src/stm32f0xx_hal_dma.c **** 
 1044              		.loc 1 525 0
 1045 0164 0320     		movs	r0, #3
 522:Drivers/STM32F0xx_HAL_Driver/Src/stm32f0xx_hal_dma.c ****         
 1046              		.loc 1 522 0
 1047 0166 A26B     		ldr	r2, [r4, #56]
 1048 0168 1343     		orrs	r3, r2
 1049 016a A363     		str	r3, [r4, #56]
 525:Drivers/STM32F0xx_HAL_Driver/Src/stm32f0xx_hal_dma.c **** 
 1050              		.loc 1 525 0
 1051 016c A31C     		adds	r3, r4, #2
 1052 016e D877     		strb	r0, [r3, #31]
 528:Drivers/STM32F0xx_HAL_Driver/Src/stm32f0xx_hal_dma.c **** 
 1053              		.loc 1 528 0
 1054 0170 0134     		adds	r4, r4, #1
 1055              	.LVL61:
 1056 0172 E1E7     		b	.L111
 1057              	.LVL62:
 1058              	.L71:
 519:Drivers/STM32F0xx_HAL_Driver/Src/stm32f0xx_hal_dma.c ****       {
 1059              		.loc 1 519 0 discriminator 1
 1060 0174 FFF7FEFF 		bl	HAL_GetTick
 1061              	.LVL63:
 1062 0178 029B     		ldr	r3, [sp, #8]
 1063 017a C01A     		subs	r0, r0, r3
 1064 017c 8742     		cmp	r7, r0
 1065 017e 00D3     		bcc	.LCB996
 1066 0180 5FE7     		b	.L66	@long jump
 1067              	.LCB996:
 1068 0182 EEE7     		b	.L72
 1069              	.LVL64:
 1070              	.L98:
 538:Drivers/STM32F0xx_HAL_Driver/Src/stm32f0xx_hal_dma.c **** 
 1071              		.loc 1 538 0
ARM GAS  /tmp/ccUvWnju.s 			page 35


 1072 0184 8022     		movs	r2, #128
 1073 0186 9200     		lsls	r2, r2, #2
 1074 0188 7FE7     		b	.L75
 1075              	.L99:
 1076 018a 8022     		movs	r2, #128
 1077 018c 9201     		lsls	r2, r2, #6
 1078 018e 7CE7     		b	.L75
 1079              	.L100:
 1080 0190 8022     		movs	r2, #128
 1081 0192 9202     		lsls	r2, r2, #10
 1082 0194 79E7     		b	.L75
 1083              	.L101:
 1084 0196 8022     		movs	r2, #128
 1085 0198 9203     		lsls	r2, r2, #14
 1086 019a 76E7     		b	.L75
 1087              	.LVL65:
 1088              	.L74:
 548:Drivers/STM32F0xx_HAL_Driver/Src/stm32f0xx_hal_dma.c ****   
 1089              		.loc 1 548 0
 1090 019c 0422     		movs	r2, #4
 1091 019e B342     		cmp	r3, r6
 1092 01a0 11D0     		beq	.L77
 548:Drivers/STM32F0xx_HAL_Driver/Src/stm32f0xx_hal_dma.c ****   
 1093              		.loc 1 548 0 is_stmt 0 discriminator 1
 1094 01a2 114D     		ldr	r5, .L112+4
 1095              	.LVL66:
 1096 01a4 3C32     		adds	r2, r2, #60
 1097 01a6 AB42     		cmp	r3, r5
 1098 01a8 0DD0     		beq	.L77
 548:Drivers/STM32F0xx_HAL_Driver/Src/stm32f0xx_hal_dma.c ****   
 1099              		.loc 1 548 0 discriminator 3
 1100 01aa 104A     		ldr	r2, .L112+8
 1101 01ac 9342     		cmp	r3, r2
 1102 01ae 0DD0     		beq	.L104
 548:Drivers/STM32F0xx_HAL_Driver/Src/stm32f0xx_hal_dma.c ****   
 1103              		.loc 1 548 0 discriminator 5
 1104 01b0 0F4A     		ldr	r2, .L112+12
 1105 01b2 9342     		cmp	r3, r2
 1106 01b4 0DD0     		beq	.L105
 548:Drivers/STM32F0xx_HAL_Driver/Src/stm32f0xx_hal_dma.c ****   
 1107              		.loc 1 548 0 discriminator 7
 1108 01b6 0F4A     		ldr	r2, .L112+16
 1109 01b8 9342     		cmp	r3, r2
 1110 01ba 0DD0     		beq	.L106
 548:Drivers/STM32F0xx_HAL_Driver/Src/stm32f0xx_hal_dma.c ****   
 1111              		.loc 1 548 0 discriminator 9
 1112 01bc 0E4A     		ldr	r2, .L112+20
 1113 01be 9342     		cmp	r3, r2
 1114 01c0 0DD0     		beq	.L107
 548:Drivers/STM32F0xx_HAL_Driver/Src/stm32f0xx_hal_dma.c ****   
 1115              		.loc 1 548 0
 1116 01c2 8022     		movs	r2, #128
 1117 01c4 D204     		lsls	r2, r2, #19
 1118              	.L77:
 548:Drivers/STM32F0xx_HAL_Driver/Src/stm32f0xx_hal_dma.c ****   
 1119              		.loc 1 548 0 discriminator 24
 1120 01c6 4A60     		str	r2, [r1, #4]
ARM GAS  /tmp/ccUvWnju.s 			page 36


 552:Drivers/STM32F0xx_HAL_Driver/Src/stm32f0xx_hal_dma.c ****   }
 1121              		.loc 1 552 0 is_stmt 1 discriminator 24
 1122 01c8 1123     		movs	r3, #17
 1123 01ca 60E7     		b	.L110
 1124              	.L104:
 548:Drivers/STM32F0xx_HAL_Driver/Src/stm32f0xx_hal_dma.c ****   
 1125              		.loc 1 548 0
 1126 01cc 8022     		movs	r2, #128
 1127 01ce D200     		lsls	r2, r2, #3
 1128 01d0 F9E7     		b	.L77
 1129              	.L105:
 1130 01d2 8022     		movs	r2, #128
 1131 01d4 D201     		lsls	r2, r2, #7
 1132 01d6 F6E7     		b	.L77
 1133              	.L106:
 1134 01d8 8022     		movs	r2, #128
 1135 01da D202     		lsls	r2, r2, #11
 1136 01dc F3E7     		b	.L77
 1137              	.L107:
 1138 01de 8022     		movs	r2, #128
 1139 01e0 D203     		lsls	r2, r2, #15
 1140 01e2 F0E7     		b	.L77
 1141              	.L113:
 1142              		.align	2
 1143              	.L112:
 1144 01e4 08000240 		.word	1073872904
 1145 01e8 1C000240 		.word	1073872924
 1146 01ec 30000240 		.word	1073872944
 1147 01f0 44000240 		.word	1073872964
 1148 01f4 58000240 		.word	1073872984
 1149 01f8 6C000240 		.word	1073873004
 1150 01fc 00000240 		.word	1073872896
 1151              		.cfi_endproc
 1152              	.LFE41:
 1154              		.section	.text.HAL_DMA_IRQHandler,"ax",%progbits
 1155              		.align	1
 1156              		.global	HAL_DMA_IRQHandler
 1157              		.syntax unified
 1158              		.code	16
 1159              		.thumb_func
 1160              		.fpu softvfp
 1162              	HAL_DMA_IRQHandler:
 1163              	.LFB42:
 568:Drivers/STM32F0xx_HAL_Driver/Src/stm32f0xx_hal_dma.c ****   /* Transfer Error Interrupt management ***************************************/
 1164              		.loc 1 568 0
 1165              		.cfi_startproc
 1166              	.LVL67:
 1167 0000 70B5     		push	{r4, r5, r6, lr}
 1168              	.LCFI8:
 1169              		.cfi_def_cfa_offset 16
 1170              		.cfi_offset 4, -16
 1171              		.cfi_offset 5, -12
 1172              		.cfi_offset 6, -8
 1173              		.cfi_offset 14, -4
 570:Drivers/STM32F0xx_HAL_Driver/Src/stm32f0xx_hal_dma.c ****   {
 1174              		.loc 1 570 0
 1175 0002 0368     		ldr	r3, [r0]
ARM GAS  /tmp/ccUvWnju.s 			page 37


 1176 0004 5B4D     		ldr	r5, .L165
 1177 0006 5C4E     		ldr	r6, .L165+4
 568:Drivers/STM32F0xx_HAL_Driver/Src/stm32f0xx_hal_dma.c ****   /* Transfer Error Interrupt management ***************************************/
 1178              		.loc 1 568 0
 1179 0008 0400     		movs	r4, r0
 570:Drivers/STM32F0xx_HAL_Driver/Src/stm32f0xx_hal_dma.c ****   {
 1180              		.loc 1 570 0
 1181 000a 2968     		ldr	r1, [r5]
 1182 000c 0822     		movs	r2, #8
 1183 000e B342     		cmp	r3, r6
 1184 0010 15D0     		beq	.L115
 570:Drivers/STM32F0xx_HAL_Driver/Src/stm32f0xx_hal_dma.c ****   {
 1185              		.loc 1 570 0 is_stmt 0 discriminator 1
 1186 0012 5A48     		ldr	r0, .L165+8
 1187              	.LVL68:
 1188 0014 7832     		adds	r2, r2, #120
 1189 0016 8342     		cmp	r3, r0
 1190 0018 11D0     		beq	.L115
 570:Drivers/STM32F0xx_HAL_Driver/Src/stm32f0xx_hal_dma.c ****   {
 1191              		.loc 1 570 0 discriminator 3
 1192 001a 594A     		ldr	r2, .L165+12
 1193 001c 9342     		cmp	r3, r2
 1194 001e 00D1     		bne	.LCB1120
 1195 0020 84E0     		b	.L131	@long jump
 1196              	.LCB1120:
 570:Drivers/STM32F0xx_HAL_Driver/Src/stm32f0xx_hal_dma.c ****   {
 1197              		.loc 1 570 0 discriminator 5
 1198 0022 584A     		ldr	r2, .L165+16
 1199 0024 9342     		cmp	r3, r2
 1200 0026 00D1     		bne	.LCB1123
 1201 0028 83E0     		b	.L132	@long jump
 1202              	.LCB1123:
 570:Drivers/STM32F0xx_HAL_Driver/Src/stm32f0xx_hal_dma.c ****   {
 1203              		.loc 1 570 0 discriminator 7
 1204 002a 574A     		ldr	r2, .L165+20
 1205 002c 9342     		cmp	r3, r2
 1206 002e 00D1     		bne	.LCB1126
 1207 0030 82E0     		b	.L133	@long jump
 1208              	.LCB1126:
 570:Drivers/STM32F0xx_HAL_Driver/Src/stm32f0xx_hal_dma.c ****   {
 1209              		.loc 1 570 0 discriminator 9
 1210 0032 564A     		ldr	r2, .L165+24
 1211 0034 9342     		cmp	r3, r2
 1212 0036 00D1     		bne	.LCB1129
 1213 0038 81E0     		b	.L134	@long jump
 1214              	.LCB1129:
 570:Drivers/STM32F0xx_HAL_Driver/Src/stm32f0xx_hal_dma.c ****   {
 1215              		.loc 1 570 0
 1216 003a 8022     		movs	r2, #128
 1217 003c 1205     		lsls	r2, r2, #20
 1218              	.L115:
 570:Drivers/STM32F0xx_HAL_Driver/Src/stm32f0xx_hal_dma.c ****   {
 1219              		.loc 1 570 0 discriminator 24
 1220 003e 1142     		tst	r1, r2
 1221 0040 16D0     		beq	.L117
 572:Drivers/STM32F0xx_HAL_Driver/Src/stm32f0xx_hal_dma.c ****     {
 1222              		.loc 1 572 0 is_stmt 1
ARM GAS  /tmp/ccUvWnju.s 			page 38


 1223 0042 0820     		movs	r0, #8
 1224 0044 1968     		ldr	r1, [r3]
 1225 0046 0142     		tst	r1, r0
 1226 0048 12D0     		beq	.L117
 575:Drivers/STM32F0xx_HAL_Driver/Src/stm32f0xx_hal_dma.c ****     
 1227              		.loc 1 575 0
 1228 004a 1968     		ldr	r1, [r3]
 1229 004c 8143     		bics	r1, r0
 1230 004e 1960     		str	r1, [r3]
 581:Drivers/STM32F0xx_HAL_Driver/Src/stm32f0xx_hal_dma.c **** 
 1231              		.loc 1 581 0
 1232 0050 0123     		movs	r3, #1
 578:Drivers/STM32F0xx_HAL_Driver/Src/stm32f0xx_hal_dma.c ****     
 1233              		.loc 1 578 0
 1234 0052 6A60     		str	r2, [r5, #4]
 581:Drivers/STM32F0xx_HAL_Driver/Src/stm32f0xx_hal_dma.c **** 
 1235              		.loc 1 581 0
 1236 0054 A26B     		ldr	r2, [r4, #56]
 1237 0056 1343     		orrs	r3, r2
 584:Drivers/STM32F0xx_HAL_Driver/Src/stm32f0xx_hal_dma.c ****     
 1238              		.loc 1 584 0
 1239 0058 0422     		movs	r2, #4
 581:Drivers/STM32F0xx_HAL_Driver/Src/stm32f0xx_hal_dma.c **** 
 1240              		.loc 1 581 0
 1241 005a A363     		str	r3, [r4, #56]
 584:Drivers/STM32F0xx_HAL_Driver/Src/stm32f0xx_hal_dma.c ****     
 1242              		.loc 1 584 0
 1243 005c A31C     		adds	r3, r4, #2
 1244 005e DA77     		strb	r2, [r3, #31]
 587:Drivers/STM32F0xx_HAL_Driver/Src/stm32f0xx_hal_dma.c ****     
 1245              		.loc 1 587 0
 1246 0060 0022     		movs	r2, #0
 1247 0062 631C     		adds	r3, r4, #1
 1248 0064 DA77     		strb	r2, [r3, #31]
 589:Drivers/STM32F0xx_HAL_Driver/Src/stm32f0xx_hal_dma.c ****       {
 1249              		.loc 1 589 0
 1250 0066 236B     		ldr	r3, [r4, #48]
 1251 0068 9342     		cmp	r3, r2
 1252 006a 01D0     		beq	.L117
 592:Drivers/STM32F0xx_HAL_Driver/Src/stm32f0xx_hal_dma.c ****       }
 1253              		.loc 1 592 0
 1254 006c 2000     		movs	r0, r4
 1255 006e 9847     		blx	r3
 1256              	.LVL69:
 1257              	.L117:
 598:Drivers/STM32F0xx_HAL_Driver/Src/stm32f0xx_hal_dma.c ****   {
 1258              		.loc 1 598 0
 1259 0070 2368     		ldr	r3, [r4]
 1260 0072 2968     		ldr	r1, [r5]
 1261 0074 0422     		movs	r2, #4
 1262 0076 B342     		cmp	r3, r6
 1263 0078 11D0     		beq	.L119
 598:Drivers/STM32F0xx_HAL_Driver/Src/stm32f0xx_hal_dma.c ****   {
 1264              		.loc 1 598 0 is_stmt 0 discriminator 1
 1265 007a 4048     		ldr	r0, .L165+8
 1266 007c 3C32     		adds	r2, r2, #60
 1267 007e 8342     		cmp	r3, r0
ARM GAS  /tmp/ccUvWnju.s 			page 39


 1268 0080 0DD0     		beq	.L119
 598:Drivers/STM32F0xx_HAL_Driver/Src/stm32f0xx_hal_dma.c ****   {
 1269              		.loc 1 598 0 discriminator 3
 1270 0082 3F4A     		ldr	r2, .L165+12
 1271 0084 9342     		cmp	r3, r2
 1272 0086 5DD0     		beq	.L137
 598:Drivers/STM32F0xx_HAL_Driver/Src/stm32f0xx_hal_dma.c ****   {
 1273              		.loc 1 598 0 discriminator 5
 1274 0088 3E4A     		ldr	r2, .L165+16
 1275 008a 9342     		cmp	r3, r2
 1276 008c 5DD0     		beq	.L138
 598:Drivers/STM32F0xx_HAL_Driver/Src/stm32f0xx_hal_dma.c ****   {
 1277              		.loc 1 598 0 discriminator 7
 1278 008e 3E4A     		ldr	r2, .L165+20
 1279 0090 9342     		cmp	r3, r2
 1280 0092 5DD0     		beq	.L139
 598:Drivers/STM32F0xx_HAL_Driver/Src/stm32f0xx_hal_dma.c ****   {
 1281              		.loc 1 598 0 discriminator 9
 1282 0094 3D4A     		ldr	r2, .L165+24
 1283 0096 9342     		cmp	r3, r2
 1284 0098 5DD0     		beq	.L140
 598:Drivers/STM32F0xx_HAL_Driver/Src/stm32f0xx_hal_dma.c ****   {
 1285              		.loc 1 598 0
 1286 009a 8022     		movs	r2, #128
 1287 009c D204     		lsls	r2, r2, #19
 1288              	.L119:
 598:Drivers/STM32F0xx_HAL_Driver/Src/stm32f0xx_hal_dma.c ****   {
 1289              		.loc 1 598 0 discriminator 24
 1290 009e 1142     		tst	r1, r2
 1291 00a0 12D0     		beq	.L121
 600:Drivers/STM32F0xx_HAL_Driver/Src/stm32f0xx_hal_dma.c ****     { 
 1292              		.loc 1 600 0 is_stmt 1
 1293 00a2 0420     		movs	r0, #4
 1294 00a4 1968     		ldr	r1, [r3]
 1295 00a6 0142     		tst	r1, r0
 1296 00a8 0ED0     		beq	.L121
 603:Drivers/STM32F0xx_HAL_Driver/Src/stm32f0xx_hal_dma.c ****       {
 1297              		.loc 1 603 0
 1298 00aa 1968     		ldr	r1, [r3]
 1299 00ac 8906     		lsls	r1, r1, #26
 1300 00ae 02D4     		bmi	.L123
 606:Drivers/STM32F0xx_HAL_Driver/Src/stm32f0xx_hal_dma.c ****       }
 1301              		.loc 1 606 0
 1302 00b0 1968     		ldr	r1, [r3]
 1303 00b2 8143     		bics	r1, r0
 1304 00b4 1960     		str	r1, [r3]
 1305              	.L123:
 609:Drivers/STM32F0xx_HAL_Driver/Src/stm32f0xx_hal_dma.c **** 
 1306              		.loc 1 609 0
 1307 00b6 6A60     		str	r2, [r5, #4]
 612:Drivers/STM32F0xx_HAL_Driver/Src/stm32f0xx_hal_dma.c **** 
 1308              		.loc 1 612 0
 1309 00b8 1122     		movs	r2, #17
 1310 00ba A31C     		adds	r3, r4, #2
 1311 00bc DA77     		strb	r2, [r3, #31]
 614:Drivers/STM32F0xx_HAL_Driver/Src/stm32f0xx_hal_dma.c ****       {
 1312              		.loc 1 614 0
ARM GAS  /tmp/ccUvWnju.s 			page 40


 1313 00be E36A     		ldr	r3, [r4, #44]
 1314 00c0 002B     		cmp	r3, #0
 1315 00c2 01D0     		beq	.L121
 617:Drivers/STM32F0xx_HAL_Driver/Src/stm32f0xx_hal_dma.c ****       }
 1316              		.loc 1 617 0
 1317 00c4 2000     		movs	r0, r4
 1318 00c6 9847     		blx	r3
 1319              	.LVL70:
 1320              	.L121:
 623:Drivers/STM32F0xx_HAL_Driver/Src/stm32f0xx_hal_dma.c ****   {
 1321              		.loc 1 623 0
 1322 00c8 2368     		ldr	r3, [r4]
 1323 00ca 2968     		ldr	r1, [r5]
 1324 00cc 0222     		movs	r2, #2
 1325 00ce B342     		cmp	r3, r6
 1326 00d0 11D0     		beq	.L124
 623:Drivers/STM32F0xx_HAL_Driver/Src/stm32f0xx_hal_dma.c ****   {
 1327              		.loc 1 623 0 is_stmt 0 discriminator 1
 1328 00d2 2A48     		ldr	r0, .L165+8
 1329 00d4 1E32     		adds	r2, r2, #30
 1330 00d6 8342     		cmp	r3, r0
 1331 00d8 0DD0     		beq	.L124
 623:Drivers/STM32F0xx_HAL_Driver/Src/stm32f0xx_hal_dma.c ****   {
 1332              		.loc 1 623 0 discriminator 3
 1333 00da 294A     		ldr	r2, .L165+12
 1334 00dc 9342     		cmp	r3, r2
 1335 00de 3DD0     		beq	.L143
 623:Drivers/STM32F0xx_HAL_Driver/Src/stm32f0xx_hal_dma.c ****   {
 1336              		.loc 1 623 0 discriminator 5
 1337 00e0 284A     		ldr	r2, .L165+16
 1338 00e2 9342     		cmp	r3, r2
 1339 00e4 3DD0     		beq	.L144
 623:Drivers/STM32F0xx_HAL_Driver/Src/stm32f0xx_hal_dma.c ****   {
 1340              		.loc 1 623 0 discriminator 7
 1341 00e6 284A     		ldr	r2, .L165+20
 1342 00e8 9342     		cmp	r3, r2
 1343 00ea 3DD0     		beq	.L145
 623:Drivers/STM32F0xx_HAL_Driver/Src/stm32f0xx_hal_dma.c ****   {
 1344              		.loc 1 623 0 discriminator 9
 1345 00ec 274A     		ldr	r2, .L165+24
 1346 00ee 9342     		cmp	r3, r2
 1347 00f0 3DD0     		beq	.L146
 623:Drivers/STM32F0xx_HAL_Driver/Src/stm32f0xx_hal_dma.c ****   {
 1348              		.loc 1 623 0
 1349 00f2 8022     		movs	r2, #128
 1350 00f4 9204     		lsls	r2, r2, #18
 1351              	.L124:
 623:Drivers/STM32F0xx_HAL_Driver/Src/stm32f0xx_hal_dma.c ****   {
 1352              		.loc 1 623 0 discriminator 24
 1353 00f6 1142     		tst	r1, r2
 1354 00f8 17D0     		beq	.L114
 625:Drivers/STM32F0xx_HAL_Driver/Src/stm32f0xx_hal_dma.c ****     {
 1355              		.loc 1 625 0 is_stmt 1
 1356 00fa 0220     		movs	r0, #2
 1357 00fc 1968     		ldr	r1, [r3]
 1358 00fe 0142     		tst	r1, r0
 1359 0100 13D0     		beq	.L114
ARM GAS  /tmp/ccUvWnju.s 			page 41


 627:Drivers/STM32F0xx_HAL_Driver/Src/stm32f0xx_hal_dma.c ****       {
 1360              		.loc 1 627 0
 1361 0102 1968     		ldr	r1, [r3]
 1362 0104 8906     		lsls	r1, r1, #26
 1363 0106 02D4     		bmi	.L128
 630:Drivers/STM32F0xx_HAL_Driver/Src/stm32f0xx_hal_dma.c ****       }
 1364              		.loc 1 630 0
 1365 0108 1968     		ldr	r1, [r3]
 1366 010a 8143     		bics	r1, r0
 1367 010c 1960     		str	r1, [r3]
 1368              	.L128:
 633:Drivers/STM32F0xx_HAL_Driver/Src/stm32f0xx_hal_dma.c ****     
 1369              		.loc 1 633 0
 1370 010e 6A60     		str	r2, [r5, #4]
 639:Drivers/STM32F0xx_HAL_Driver/Src/stm32f0xx_hal_dma.c ****     
 1371              		.loc 1 639 0
 1372 0110 0122     		movs	r2, #1
 636:Drivers/STM32F0xx_HAL_Driver/Src/stm32f0xx_hal_dma.c **** 
 1373              		.loc 1 636 0
 1374 0112 A36B     		ldr	r3, [r4, #56]
 1375 0114 A363     		str	r3, [r4, #56]
 639:Drivers/STM32F0xx_HAL_Driver/Src/stm32f0xx_hal_dma.c ****     
 1376              		.loc 1 639 0
 1377 0116 A31C     		adds	r3, r4, #2
 1378 0118 DA77     		strb	r2, [r3, #31]
 642:Drivers/STM32F0xx_HAL_Driver/Src/stm32f0xx_hal_dma.c ****     
 1379              		.loc 1 642 0
 1380 011a A318     		adds	r3, r4, r2
 1381 011c 0022     		movs	r2, #0
 1382 011e DA77     		strb	r2, [r3, #31]
 644:Drivers/STM32F0xx_HAL_Driver/Src/stm32f0xx_hal_dma.c ****       {       
 1383              		.loc 1 644 0
 1384 0120 A36A     		ldr	r3, [r4, #40]
 1385 0122 9342     		cmp	r3, r2
 1386 0124 01D0     		beq	.L114
 647:Drivers/STM32F0xx_HAL_Driver/Src/stm32f0xx_hal_dma.c ****       }
 1387              		.loc 1 647 0
 1388 0126 2000     		movs	r0, r4
 1389 0128 9847     		blx	r3
 1390              	.LVL71:
 1391              	.L114:
 651:Drivers/STM32F0xx_HAL_Driver/Src/stm32f0xx_hal_dma.c **** 
 1392              		.loc 1 651 0
 1393              		@ sp needed
 1394              	.LVL72:
 1395 012a 70BD     		pop	{r4, r5, r6, pc}
 1396              	.LVL73:
 1397              	.L131:
 570:Drivers/STM32F0xx_HAL_Driver/Src/stm32f0xx_hal_dma.c ****   {
 1398              		.loc 1 570 0
 1399 012c 8022     		movs	r2, #128
 1400 012e 1201     		lsls	r2, r2, #4
 1401 0130 85E7     		b	.L115
 1402              	.L132:
 1403 0132 8022     		movs	r2, #128
 1404 0134 1202     		lsls	r2, r2, #8
 1405 0136 82E7     		b	.L115
ARM GAS  /tmp/ccUvWnju.s 			page 42


 1406              	.L133:
 1407 0138 8022     		movs	r2, #128
 1408 013a 1203     		lsls	r2, r2, #12
 1409 013c 7FE7     		b	.L115
 1410              	.L134:
 1411 013e 8022     		movs	r2, #128
 1412 0140 1204     		lsls	r2, r2, #16
 1413 0142 7CE7     		b	.L115
 1414              	.L137:
 598:Drivers/STM32F0xx_HAL_Driver/Src/stm32f0xx_hal_dma.c ****   {
 1415              		.loc 1 598 0
 1416 0144 8022     		movs	r2, #128
 1417 0146 D200     		lsls	r2, r2, #3
 1418 0148 A9E7     		b	.L119
 1419              	.L138:
 1420 014a 8022     		movs	r2, #128
 1421 014c D201     		lsls	r2, r2, #7
 1422 014e A6E7     		b	.L119
 1423              	.L139:
 1424 0150 8022     		movs	r2, #128
 1425 0152 D202     		lsls	r2, r2, #11
 1426 0154 A3E7     		b	.L119
 1427              	.L140:
 1428 0156 8022     		movs	r2, #128
 1429 0158 D203     		lsls	r2, r2, #15
 1430 015a A0E7     		b	.L119
 1431              	.L143:
 623:Drivers/STM32F0xx_HAL_Driver/Src/stm32f0xx_hal_dma.c ****   {
 1432              		.loc 1 623 0
 1433 015c 8022     		movs	r2, #128
 1434 015e 9200     		lsls	r2, r2, #2
 1435 0160 C9E7     		b	.L124
 1436              	.L144:
 1437 0162 8022     		movs	r2, #128
 1438 0164 9201     		lsls	r2, r2, #6
 1439 0166 C6E7     		b	.L124
 1440              	.L145:
 1441 0168 8022     		movs	r2, #128
 1442 016a 9202     		lsls	r2, r2, #10
 1443 016c C3E7     		b	.L124
 1444              	.L146:
 1445 016e 8022     		movs	r2, #128
 1446 0170 9203     		lsls	r2, r2, #14
 1447 0172 C0E7     		b	.L124
 1448              	.L166:
 1449              		.align	2
 1450              	.L165:
 1451 0174 00000240 		.word	1073872896
 1452 0178 08000240 		.word	1073872904
 1453 017c 1C000240 		.word	1073872924
 1454 0180 30000240 		.word	1073872944
 1455 0184 44000240 		.word	1073872964
 1456 0188 58000240 		.word	1073872984
 1457 018c 6C000240 		.word	1073873004
 1458              		.cfi_endproc
 1459              	.LFE42:
 1461              		.section	.text.HAL_DMA_GetState,"ax",%progbits
ARM GAS  /tmp/ccUvWnju.s 			page 43


 1462              		.align	1
 1463              		.global	HAL_DMA_GetState
 1464              		.syntax unified
 1465              		.code	16
 1466              		.thumb_func
 1467              		.fpu softvfp
 1469              	HAL_DMA_GetState:
 1470              	.LFB43:
 680:Drivers/STM32F0xx_HAL_Driver/Src/stm32f0xx_hal_dma.c ****   return hdma->State;
 1471              		.loc 1 680 0
 1472              		.cfi_startproc
 1473              	.LVL74:
 681:Drivers/STM32F0xx_HAL_Driver/Src/stm32f0xx_hal_dma.c **** }
 1474              		.loc 1 681 0
 1475 0000 0230     		adds	r0, r0, #2
 1476              	.LVL75:
 1477 0002 C07F     		ldrb	r0, [r0, #31]
 1478              	.LVL76:
 682:Drivers/STM32F0xx_HAL_Driver/Src/stm32f0xx_hal_dma.c **** 
 1479              		.loc 1 682 0
 1480              		@ sp needed
 681:Drivers/STM32F0xx_HAL_Driver/Src/stm32f0xx_hal_dma.c **** }
 1481              		.loc 1 681 0
 1482 0004 C0B2     		uxtb	r0, r0
 682:Drivers/STM32F0xx_HAL_Driver/Src/stm32f0xx_hal_dma.c **** 
 1483              		.loc 1 682 0
 1484 0006 7047     		bx	lr
 1485              		.cfi_endproc
 1486              	.LFE43:
 1488              		.section	.text.HAL_DMA_GetError,"ax",%progbits
 1489              		.align	1
 1490              		.global	HAL_DMA_GetError
 1491              		.syntax unified
 1492              		.code	16
 1493              		.thumb_func
 1494              		.fpu softvfp
 1496              	HAL_DMA_GetError:
 1497              	.LFB44:
 691:Drivers/STM32F0xx_HAL_Driver/Src/stm32f0xx_hal_dma.c ****   return hdma->ErrorCode;
 1498              		.loc 1 691 0
 1499              		.cfi_startproc
 1500              	.LVL77:
 692:Drivers/STM32F0xx_HAL_Driver/Src/stm32f0xx_hal_dma.c **** }
 1501              		.loc 1 692 0
 1502 0000 806B     		ldr	r0, [r0, #56]
 1503              	.LVL78:
 693:Drivers/STM32F0xx_HAL_Driver/Src/stm32f0xx_hal_dma.c **** 
 1504              		.loc 1 693 0
 1505              		@ sp needed
 1506 0002 7047     		bx	lr
 1507              		.cfi_endproc
 1508              	.LFE44:
 1510              		.text
 1511              	.Letext0:
 1512              		.file 2 "/usr/arm-none-eabi/include/machine/_default_types.h"
 1513              		.file 3 "/usr/arm-none-eabi/include/sys/_stdint.h"
 1514              		.file 4 "Drivers/CMSIS/Device/ST/STM32F0xx/Include/system_stm32f0xx.h"
ARM GAS  /tmp/ccUvWnju.s 			page 44


 1515              		.file 5 "Drivers/CMSIS/Device/ST/STM32F0xx/Include/stm32f072xb.h"
 1516              		.file 6 "/usr/arm-none-eabi/include/sys/lock.h"
 1517              		.file 7 "/usr/arm-none-eabi/include/sys/_types.h"
 1518              		.file 8 "/usr/lib/gcc/arm-none-eabi/6.2.0/include/stddef.h"
 1519              		.file 9 "/usr/arm-none-eabi/include/sys/reent.h"
 1520              		.file 10 "Drivers/CMSIS/Device/ST/STM32F0xx/Include/stm32f0xx.h"
 1521              		.file 11 "Drivers/STM32F0xx_HAL_Driver/Inc/stm32f0xx_hal_def.h"
 1522              		.file 12 "Drivers/STM32F0xx_HAL_Driver/Inc/stm32f0xx_hal_dma.h"
 1523              		.file 13 "Drivers/STM32F0xx_HAL_Driver/Inc/stm32f0xx_hal.h"
ARM GAS  /tmp/ccUvWnju.s 			page 45

