ARM GAS  /tmp/ccjaQwTr.s 			page 1


   1              		.cpu cortex-m0
   2              		.eabi_attribute 20, 1
   3              		.eabi_attribute 21, 1
   4              		.eabi_attribute 23, 3
   5              		.eabi_attribute 24, 1
   6              		.eabi_attribute 25, 1
   7              		.eabi_attribute 26, 1
   8              		.eabi_attribute 30, 4
   9              		.eabi_attribute 34, 0
  10              		.eabi_attribute 18, 4
  11              		.file	"stm32f0xx_hal_uart.c"
  12              		.text
  13              	.Ltext0:
  14              		.cfi_sections	.debug_frame
  15              		.section	.text.HAL_UART_MspInit,"ax",%progbits
  16              		.align	1
  17              		.weak	HAL_UART_MspInit
  18              		.syntax unified
  19              		.code	16
  20              		.thumb_func
  21              		.fpu softvfp
  23              	HAL_UART_MspInit:
  24              	.LFB88:
  25              		.cfi_startproc
  26              		@ sp needed
  27 0000 7047     		bx	lr
  28              		.cfi_endproc
  29              	.LFE88:
  31              		.section	.text.HAL_UART_MspDeInit,"ax",%progbits
  32              		.align	1
  33              		.weak	HAL_UART_MspDeInit
  34              		.syntax unified
  35              		.code	16
  36              		.thumb_func
  37              		.fpu softvfp
  39              	HAL_UART_MspDeInit:
  40              	.LFB86:
  41              		.cfi_startproc
  42              		@ sp needed
  43 0000 7047     		bx	lr
  44              		.cfi_endproc
  45              	.LFE86:
  47              		.section	.text.HAL_UART_DeInit,"ax",%progbits
  48              		.align	1
  49              		.global	HAL_UART_DeInit
  50              		.syntax unified
  51              		.code	16
  52              		.thumb_func
  53              		.fpu softvfp
  55              	HAL_UART_DeInit:
  56              	.LFB38:
  57              		.file 1 "Drivers/STM32F0xx_HAL_Driver/Src/stm32f0xx_hal_uart.c"
   1:Drivers/STM32F0xx_HAL_Driver/Src/stm32f0xx_hal_uart.c **** /**
   2:Drivers/STM32F0xx_HAL_Driver/Src/stm32f0xx_hal_uart.c ****   ******************************************************************************
   3:Drivers/STM32F0xx_HAL_Driver/Src/stm32f0xx_hal_uart.c ****   * @file    stm32f0xx_hal_uart.c
   4:Drivers/STM32F0xx_HAL_Driver/Src/stm32f0xx_hal_uart.c ****   * @author  MCD Application Team
   5:Drivers/STM32F0xx_HAL_Driver/Src/stm32f0xx_hal_uart.c ****   * @version V1.4.0
ARM GAS  /tmp/ccjaQwTr.s 			page 2


   6:Drivers/STM32F0xx_HAL_Driver/Src/stm32f0xx_hal_uart.c ****   * @date    27-May-2016
   7:Drivers/STM32F0xx_HAL_Driver/Src/stm32f0xx_hal_uart.c ****   * @brief   UART HAL module driver.
   8:Drivers/STM32F0xx_HAL_Driver/Src/stm32f0xx_hal_uart.c ****   *          This file provides firmware functions to manage the following 
   9:Drivers/STM32F0xx_HAL_Driver/Src/stm32f0xx_hal_uart.c ****   *          functionalities of the Universal Asynchronous Receiver Transmitter (UART) peripheral:
  10:Drivers/STM32F0xx_HAL_Driver/Src/stm32f0xx_hal_uart.c ****   *           + Initialization and de-initialization functions
  11:Drivers/STM32F0xx_HAL_Driver/Src/stm32f0xx_hal_uart.c ****   *           + IO operation functions
  12:Drivers/STM32F0xx_HAL_Driver/Src/stm32f0xx_hal_uart.c ****   *           + Peripheral Control functions
  13:Drivers/STM32F0xx_HAL_Driver/Src/stm32f0xx_hal_uart.c ****   *           + Peripheral State and Errors functions
  14:Drivers/STM32F0xx_HAL_Driver/Src/stm32f0xx_hal_uart.c ****   *
  15:Drivers/STM32F0xx_HAL_Driver/Src/stm32f0xx_hal_uart.c ****   @verbatim
  16:Drivers/STM32F0xx_HAL_Driver/Src/stm32f0xx_hal_uart.c ****  ===============================================================================
  17:Drivers/STM32F0xx_HAL_Driver/Src/stm32f0xx_hal_uart.c ****                         ##### How to use this driver #####
  18:Drivers/STM32F0xx_HAL_Driver/Src/stm32f0xx_hal_uart.c ****  ===============================================================================
  19:Drivers/STM32F0xx_HAL_Driver/Src/stm32f0xx_hal_uart.c ****   [..]
  20:Drivers/STM32F0xx_HAL_Driver/Src/stm32f0xx_hal_uart.c ****     The UART HAL driver can be used as follows:
  21:Drivers/STM32F0xx_HAL_Driver/Src/stm32f0xx_hal_uart.c **** 
  22:Drivers/STM32F0xx_HAL_Driver/Src/stm32f0xx_hal_uart.c ****     (#) Declare a UART_HandleTypeDef handle structure (eg. UART_HandleTypeDef huart).
  23:Drivers/STM32F0xx_HAL_Driver/Src/stm32f0xx_hal_uart.c ****     (#) Initialize the UART low level resources by implementing the HAL_UART_MspInit() API:
  24:Drivers/STM32F0xx_HAL_Driver/Src/stm32f0xx_hal_uart.c ****         (++) Enable the USARTx interface clock.
  25:Drivers/STM32F0xx_HAL_Driver/Src/stm32f0xx_hal_uart.c ****         (++) UART pins configuration:
  26:Drivers/STM32F0xx_HAL_Driver/Src/stm32f0xx_hal_uart.c ****             (+++) Enable the clock for the UART GPIOs.
  27:Drivers/STM32F0xx_HAL_Driver/Src/stm32f0xx_hal_uart.c ****             (+++) Configure these UART pins as alternate function pull-up.
  28:Drivers/STM32F0xx_HAL_Driver/Src/stm32f0xx_hal_uart.c ****         (++) NVIC configuration if you need to use interrupt process (HAL_UART_Transmit_IT()
  29:Drivers/STM32F0xx_HAL_Driver/Src/stm32f0xx_hal_uart.c ****              and HAL_UART_Receive_IT() APIs):
  30:Drivers/STM32F0xx_HAL_Driver/Src/stm32f0xx_hal_uart.c ****             (+++) Configure the USARTx interrupt priority.
  31:Drivers/STM32F0xx_HAL_Driver/Src/stm32f0xx_hal_uart.c ****             (+++) Enable the NVIC USART IRQ handle.
  32:Drivers/STM32F0xx_HAL_Driver/Src/stm32f0xx_hal_uart.c ****         (++) UART interrupts handling:
  33:Drivers/STM32F0xx_HAL_Driver/Src/stm32f0xx_hal_uart.c ****               -@@-  The specific UART interrupts (Transmission complete interrupt,
  34:Drivers/STM32F0xx_HAL_Driver/Src/stm32f0xx_hal_uart.c ****                 RXNE interrupt and Error Interrupts) are managed using the macros
  35:Drivers/STM32F0xx_HAL_Driver/Src/stm32f0xx_hal_uart.c ****                 __HAL_UART_ENABLE_IT() and __HAL_UART_DISABLE_IT() inside the transmit and receive 
  36:Drivers/STM32F0xx_HAL_Driver/Src/stm32f0xx_hal_uart.c ****         (++) DMA Configuration if you need to use DMA process (HAL_UART_Transmit_DMA()
  37:Drivers/STM32F0xx_HAL_Driver/Src/stm32f0xx_hal_uart.c ****              and HAL_UART_Receive_DMA() APIs):
  38:Drivers/STM32F0xx_HAL_Driver/Src/stm32f0xx_hal_uart.c ****             (+++) Declare a DMA handle structure for the Tx/Rx channel.
  39:Drivers/STM32F0xx_HAL_Driver/Src/stm32f0xx_hal_uart.c ****             (+++) Enable the DMAx interface clock.
  40:Drivers/STM32F0xx_HAL_Driver/Src/stm32f0xx_hal_uart.c ****             (+++) Configure the declared DMA handle structure with the required Tx/Rx parameters.
  41:Drivers/STM32F0xx_HAL_Driver/Src/stm32f0xx_hal_uart.c ****             (+++) Configure the DMA Tx/Rx channel.
  42:Drivers/STM32F0xx_HAL_Driver/Src/stm32f0xx_hal_uart.c ****             (+++) Associate the initialized DMA handle to the UART DMA Tx/Rx handle.
  43:Drivers/STM32F0xx_HAL_Driver/Src/stm32f0xx_hal_uart.c ****             (+++) Configure the priority and enable the NVIC for the transfer complete interrupt on
  44:Drivers/STM32F0xx_HAL_Driver/Src/stm32f0xx_hal_uart.c **** 
  45:Drivers/STM32F0xx_HAL_Driver/Src/stm32f0xx_hal_uart.c ****     (#) Program the Baud Rate, Word Length, Stop Bit, Parity, Hardware
  46:Drivers/STM32F0xx_HAL_Driver/Src/stm32f0xx_hal_uart.c ****         flow control and Mode (Receiver/Transmitter) in the huart handle Init structure.
  47:Drivers/STM32F0xx_HAL_Driver/Src/stm32f0xx_hal_uart.c **** 
  48:Drivers/STM32F0xx_HAL_Driver/Src/stm32f0xx_hal_uart.c ****     (#) If required, program UART advanced features (TX/RX pins swap, auto Baud rate detection,...)
  49:Drivers/STM32F0xx_HAL_Driver/Src/stm32f0xx_hal_uart.c ****         in the huart handle AdvancedInit structure.
  50:Drivers/STM32F0xx_HAL_Driver/Src/stm32f0xx_hal_uart.c **** 
  51:Drivers/STM32F0xx_HAL_Driver/Src/stm32f0xx_hal_uart.c ****     (#) For the UART asynchronous mode, initialize the UART registers by calling
  52:Drivers/STM32F0xx_HAL_Driver/Src/stm32f0xx_hal_uart.c ****         the HAL_UART_Init() API.
  53:Drivers/STM32F0xx_HAL_Driver/Src/stm32f0xx_hal_uart.c **** 
  54:Drivers/STM32F0xx_HAL_Driver/Src/stm32f0xx_hal_uart.c ****     (#) For the UART Half duplex mode, initialize the UART registers by calling
  55:Drivers/STM32F0xx_HAL_Driver/Src/stm32f0xx_hal_uart.c ****         the HAL_HalfDuplex_Init() API.
  56:Drivers/STM32F0xx_HAL_Driver/Src/stm32f0xx_hal_uart.c **** 
  57:Drivers/STM32F0xx_HAL_Driver/Src/stm32f0xx_hal_uart.c ****     (#) For the UART Multiprocessor mode, initialize the UART registers
  58:Drivers/STM32F0xx_HAL_Driver/Src/stm32f0xx_hal_uart.c ****         by calling the HAL_MultiProcessor_Init() API.
  59:Drivers/STM32F0xx_HAL_Driver/Src/stm32f0xx_hal_uart.c **** 
  60:Drivers/STM32F0xx_HAL_Driver/Src/stm32f0xx_hal_uart.c ****     (#) For the UART RS485 Driver Enabled mode, initialize the UART registers
  61:Drivers/STM32F0xx_HAL_Driver/Src/stm32f0xx_hal_uart.c ****         by calling the HAL_RS485Ex_Init() API.
  62:Drivers/STM32F0xx_HAL_Driver/Src/stm32f0xx_hal_uart.c **** 
ARM GAS  /tmp/ccjaQwTr.s 			page 3


  63:Drivers/STM32F0xx_HAL_Driver/Src/stm32f0xx_hal_uart.c ****    [..]
  64:Drivers/STM32F0xx_HAL_Driver/Src/stm32f0xx_hal_uart.c ****     (@) These APIs(HAL_UART_Init(), HAL_HalfDuplex_Init(), HAL_MultiProcessor_Init(),
  65:Drivers/STM32F0xx_HAL_Driver/Src/stm32f0xx_hal_uart.c ****         also configure the low level Hardware GPIO, CLOCK, CORTEX...etc) by
  66:Drivers/STM32F0xx_HAL_Driver/Src/stm32f0xx_hal_uart.c ****         calling the customized HAL_UART_MspInit() API.
  67:Drivers/STM32F0xx_HAL_Driver/Src/stm32f0xx_hal_uart.c **** 
  68:Drivers/STM32F0xx_HAL_Driver/Src/stm32f0xx_hal_uart.c ****         Three operation modes are available within this driver :     
  69:Drivers/STM32F0xx_HAL_Driver/Src/stm32f0xx_hal_uart.c ****   
  70:Drivers/STM32F0xx_HAL_Driver/Src/stm32f0xx_hal_uart.c ****      *** Polling mode IO operation ***
  71:Drivers/STM32F0xx_HAL_Driver/Src/stm32f0xx_hal_uart.c ****      =================================
  72:Drivers/STM32F0xx_HAL_Driver/Src/stm32f0xx_hal_uart.c ****      [..]    
  73:Drivers/STM32F0xx_HAL_Driver/Src/stm32f0xx_hal_uart.c ****        (+) Send an amount of data in blocking mode using HAL_UART_Transmit() 
  74:Drivers/STM32F0xx_HAL_Driver/Src/stm32f0xx_hal_uart.c ****        (+) Receive an amount of data in blocking mode using HAL_UART_Receive()
  75:Drivers/STM32F0xx_HAL_Driver/Src/stm32f0xx_hal_uart.c ****        
  76:Drivers/STM32F0xx_HAL_Driver/Src/stm32f0xx_hal_uart.c ****      *** Interrupt mode IO operation ***    
  77:Drivers/STM32F0xx_HAL_Driver/Src/stm32f0xx_hal_uart.c ****      ===================================
  78:Drivers/STM32F0xx_HAL_Driver/Src/stm32f0xx_hal_uart.c ****      [..]    
  79:Drivers/STM32F0xx_HAL_Driver/Src/stm32f0xx_hal_uart.c ****        (+) Send an amount of data in non blocking mode using HAL_UART_Transmit_IT() 
  80:Drivers/STM32F0xx_HAL_Driver/Src/stm32f0xx_hal_uart.c ****        (+) At transmission end of half transfer HAL_UART_TxHalfCpltCallback is executed and user ca
  81:Drivers/STM32F0xx_HAL_Driver/Src/stm32f0xx_hal_uart.c ****             add his own code by customization of function pointer HAL_UART_TxHalfCpltCallback 
  82:Drivers/STM32F0xx_HAL_Driver/Src/stm32f0xx_hal_uart.c ****        (+) At transmission end of transfer HAL_UART_TxCpltCallback is executed and user can 
  83:Drivers/STM32F0xx_HAL_Driver/Src/stm32f0xx_hal_uart.c ****             add his own code by customization of function pointer HAL_UART_TxCpltCallback
  84:Drivers/STM32F0xx_HAL_Driver/Src/stm32f0xx_hal_uart.c ****        (+) Receive an amount of data in non blocking mode using HAL_UART_Receive_IT() 
  85:Drivers/STM32F0xx_HAL_Driver/Src/stm32f0xx_hal_uart.c ****        (+) At reception end of half transfer HAL_UART_RxHalfCpltCallback is executed and user can 
  86:Drivers/STM32F0xx_HAL_Driver/Src/stm32f0xx_hal_uart.c ****             add his own code by customization of function pointer HAL_UART_RxHalfCpltCallback 
  87:Drivers/STM32F0xx_HAL_Driver/Src/stm32f0xx_hal_uart.c ****        (+) At reception end of transfer HAL_UART_RxCpltCallback is executed and user can 
  88:Drivers/STM32F0xx_HAL_Driver/Src/stm32f0xx_hal_uart.c ****             add his own code by customization of function pointer HAL_UART_RxCpltCallback          
  89:Drivers/STM32F0xx_HAL_Driver/Src/stm32f0xx_hal_uart.c ****        (+) In case of transfer Error, HAL_UART_ErrorCallback() function is executed and user can 
  90:Drivers/STM32F0xx_HAL_Driver/Src/stm32f0xx_hal_uart.c ****             add his own code by customization of function pointer HAL_UART_ErrorCallback
  91:Drivers/STM32F0xx_HAL_Driver/Src/stm32f0xx_hal_uart.c **** 
  92:Drivers/STM32F0xx_HAL_Driver/Src/stm32f0xx_hal_uart.c ****      *** DMA mode IO operation ***    
  93:Drivers/STM32F0xx_HAL_Driver/Src/stm32f0xx_hal_uart.c ****      ==============================
  94:Drivers/STM32F0xx_HAL_Driver/Src/stm32f0xx_hal_uart.c ****      [..] 
  95:Drivers/STM32F0xx_HAL_Driver/Src/stm32f0xx_hal_uart.c ****        (+) Send an amount of data in non blocking mode (DMA) using HAL_UART_Transmit_DMA() 
  96:Drivers/STM32F0xx_HAL_Driver/Src/stm32f0xx_hal_uart.c ****        (+) At transmission end of half transfer HAL_UART_TxHalfCpltCallback is executed and user ca
  97:Drivers/STM32F0xx_HAL_Driver/Src/stm32f0xx_hal_uart.c ****             add his own code by customization of function pointer HAL_UART_TxHalfCpltCallback 
  98:Drivers/STM32F0xx_HAL_Driver/Src/stm32f0xx_hal_uart.c ****        (+) At transmission end of transfer HAL_UART_TxCpltCallback is executed and user can 
  99:Drivers/STM32F0xx_HAL_Driver/Src/stm32f0xx_hal_uart.c ****             add his own code by customization of function pointer HAL_UART_TxCpltCallback
 100:Drivers/STM32F0xx_HAL_Driver/Src/stm32f0xx_hal_uart.c ****        (+) Receive an amount of data in non blocking mode (DMA) using HAL_UART_Receive_DMA() 
 101:Drivers/STM32F0xx_HAL_Driver/Src/stm32f0xx_hal_uart.c ****        (+) At reception end of half transfer HAL_UART_RxHalfCpltCallback is executed and user can 
 102:Drivers/STM32F0xx_HAL_Driver/Src/stm32f0xx_hal_uart.c ****             add his own code by customization of function pointer HAL_UART_RxHalfCpltCallback 
 103:Drivers/STM32F0xx_HAL_Driver/Src/stm32f0xx_hal_uart.c ****        (+) At reception end of transfer HAL_UART_RxCpltCallback is executed and user can 
 104:Drivers/STM32F0xx_HAL_Driver/Src/stm32f0xx_hal_uart.c ****             add his own code by customization of function pointer HAL_UART_RxCpltCallback          
 105:Drivers/STM32F0xx_HAL_Driver/Src/stm32f0xx_hal_uart.c ****        (+) In case of transfer Error, HAL_UART_ErrorCallback() function is executed and user can 
 106:Drivers/STM32F0xx_HAL_Driver/Src/stm32f0xx_hal_uart.c ****             add his own code by customization of function pointer HAL_UART_ErrorCallback
 107:Drivers/STM32F0xx_HAL_Driver/Src/stm32f0xx_hal_uart.c ****        (+) Pause the DMA Transfer using HAL_UART_DMAPause()      
 108:Drivers/STM32F0xx_HAL_Driver/Src/stm32f0xx_hal_uart.c ****        (+) Resume the DMA Transfer using HAL_UART_DMAResume()  
 109:Drivers/STM32F0xx_HAL_Driver/Src/stm32f0xx_hal_uart.c ****        (+) Stop the DMA Transfer using HAL_UART_DMAStop()      
 110:Drivers/STM32F0xx_HAL_Driver/Src/stm32f0xx_hal_uart.c ****     
 111:Drivers/STM32F0xx_HAL_Driver/Src/stm32f0xx_hal_uart.c ****      *** UART HAL driver macros list ***
 112:Drivers/STM32F0xx_HAL_Driver/Src/stm32f0xx_hal_uart.c ****      ============================================= 
 113:Drivers/STM32F0xx_HAL_Driver/Src/stm32f0xx_hal_uart.c ****      [..]
 114:Drivers/STM32F0xx_HAL_Driver/Src/stm32f0xx_hal_uart.c ****        Below the list of most used macros in UART HAL driver.
 115:Drivers/STM32F0xx_HAL_Driver/Src/stm32f0xx_hal_uart.c ****        
 116:Drivers/STM32F0xx_HAL_Driver/Src/stm32f0xx_hal_uart.c ****       (+) __HAL_UART_ENABLE: Enable the UART peripheral 
 117:Drivers/STM32F0xx_HAL_Driver/Src/stm32f0xx_hal_uart.c ****       (+) __HAL_UART_DISABLE: Disable the UART peripheral     
 118:Drivers/STM32F0xx_HAL_Driver/Src/stm32f0xx_hal_uart.c ****       (+) __HAL_UART_GET_FLAG : Check whether the specified UART flag is set or not
 119:Drivers/STM32F0xx_HAL_Driver/Src/stm32f0xx_hal_uart.c ****       (+) __HAL_UART_CLEAR_FLAG : Clear the specified UART pending flag
ARM GAS  /tmp/ccjaQwTr.s 			page 4


 120:Drivers/STM32F0xx_HAL_Driver/Src/stm32f0xx_hal_uart.c ****       (+) __HAL_UART_ENABLE_IT: Enable the specified UART interrupt
 121:Drivers/STM32F0xx_HAL_Driver/Src/stm32f0xx_hal_uart.c ****       (+) __HAL_UART_DISABLE_IT: Disable the specified UART interrupt
 122:Drivers/STM32F0xx_HAL_Driver/Src/stm32f0xx_hal_uart.c ****       
 123:Drivers/STM32F0xx_HAL_Driver/Src/stm32f0xx_hal_uart.c ****      [..] 
 124:Drivers/STM32F0xx_HAL_Driver/Src/stm32f0xx_hal_uart.c ****        (@) You can refer to the UART HAL driver header file for more useful macros 
 125:Drivers/STM32F0xx_HAL_Driver/Src/stm32f0xx_hal_uart.c ****       
 126:Drivers/STM32F0xx_HAL_Driver/Src/stm32f0xx_hal_uart.c ****   @endverbatim
 127:Drivers/STM32F0xx_HAL_Driver/Src/stm32f0xx_hal_uart.c ****   ******************************************************************************
 128:Drivers/STM32F0xx_HAL_Driver/Src/stm32f0xx_hal_uart.c ****   * @attention
 129:Drivers/STM32F0xx_HAL_Driver/Src/stm32f0xx_hal_uart.c ****   *
 130:Drivers/STM32F0xx_HAL_Driver/Src/stm32f0xx_hal_uart.c ****   * <h2><center>&copy; COPYRIGHT(c) 2016 STMicroelectronics</center></h2>
 131:Drivers/STM32F0xx_HAL_Driver/Src/stm32f0xx_hal_uart.c ****   *
 132:Drivers/STM32F0xx_HAL_Driver/Src/stm32f0xx_hal_uart.c ****   * Redistribution and use in source and binary forms, with or without modification,
 133:Drivers/STM32F0xx_HAL_Driver/Src/stm32f0xx_hal_uart.c ****   * are permitted provided that the following conditions are met:
 134:Drivers/STM32F0xx_HAL_Driver/Src/stm32f0xx_hal_uart.c ****   *   1. Redistributions of source code must retain the above copyright notice,
 135:Drivers/STM32F0xx_HAL_Driver/Src/stm32f0xx_hal_uart.c ****   *      this list of conditions and the following disclaimer.
 136:Drivers/STM32F0xx_HAL_Driver/Src/stm32f0xx_hal_uart.c ****   *   2. Redistributions in binary form must reproduce the above copyright notice,
 137:Drivers/STM32F0xx_HAL_Driver/Src/stm32f0xx_hal_uart.c ****   *      this list of conditions and the following disclaimer in the documentation
 138:Drivers/STM32F0xx_HAL_Driver/Src/stm32f0xx_hal_uart.c ****   *      and/or other materials provided with the distribution.
 139:Drivers/STM32F0xx_HAL_Driver/Src/stm32f0xx_hal_uart.c ****   *   3. Neither the name of STMicroelectronics nor the names of its contributors
 140:Drivers/STM32F0xx_HAL_Driver/Src/stm32f0xx_hal_uart.c ****   *      may be used to endorse or promote products derived from this software
 141:Drivers/STM32F0xx_HAL_Driver/Src/stm32f0xx_hal_uart.c ****   *      without specific prior written permission.
 142:Drivers/STM32F0xx_HAL_Driver/Src/stm32f0xx_hal_uart.c ****   *
 143:Drivers/STM32F0xx_HAL_Driver/Src/stm32f0xx_hal_uart.c ****   * THIS SOFTWARE IS PROVIDED BY THE COPYRIGHT HOLDERS AND CONTRIBUTORS "AS IS"
 144:Drivers/STM32F0xx_HAL_Driver/Src/stm32f0xx_hal_uart.c ****   * AND ANY EXPRESS OR IMPLIED WARRANTIES, INCLUDING, BUT NOT LIMITED TO, THE
 145:Drivers/STM32F0xx_HAL_Driver/Src/stm32f0xx_hal_uart.c ****   * IMPLIED WARRANTIES OF MERCHANTABILITY AND FITNESS FOR A PARTICULAR PURPOSE ARE
 146:Drivers/STM32F0xx_HAL_Driver/Src/stm32f0xx_hal_uart.c ****   * DISCLAIMED. IN NO EVENT SHALL THE COPYRIGHT HOLDER OR CONTRIBUTORS BE LIABLE
 147:Drivers/STM32F0xx_HAL_Driver/Src/stm32f0xx_hal_uart.c ****   * FOR ANY DIRECT, INDIRECT, INCIDENTAL, SPECIAL, EXEMPLARY, OR CONSEQUENTIAL
 148:Drivers/STM32F0xx_HAL_Driver/Src/stm32f0xx_hal_uart.c ****   * DAMAGES (INCLUDING, BUT NOT LIMITED TO, PROCUREMENT OF SUBSTITUTE GOODS OR
 149:Drivers/STM32F0xx_HAL_Driver/Src/stm32f0xx_hal_uart.c ****   * SERVICES; LOSS OF USE, DATA, OR PROFITS; OR BUSINESS INTERRUPTION) HOWEVER
 150:Drivers/STM32F0xx_HAL_Driver/Src/stm32f0xx_hal_uart.c ****   * CAUSED AND ON ANY THEORY OF LIABILITY, WHETHER IN CONTRACT, STRICT LIABILITY,
 151:Drivers/STM32F0xx_HAL_Driver/Src/stm32f0xx_hal_uart.c ****   * OR TORT (INCLUDING NEGLIGENCE OR OTHERWISE) ARISING IN ANY WAY OUT OF THE USE
 152:Drivers/STM32F0xx_HAL_Driver/Src/stm32f0xx_hal_uart.c ****   * OF THIS SOFTWARE, EVEN IF ADVISED OF THE POSSIBILITY OF SUCH DAMAGE.
 153:Drivers/STM32F0xx_HAL_Driver/Src/stm32f0xx_hal_uart.c ****   *
 154:Drivers/STM32F0xx_HAL_Driver/Src/stm32f0xx_hal_uart.c ****   ******************************************************************************
 155:Drivers/STM32F0xx_HAL_Driver/Src/stm32f0xx_hal_uart.c ****   */
 156:Drivers/STM32F0xx_HAL_Driver/Src/stm32f0xx_hal_uart.c **** 
 157:Drivers/STM32F0xx_HAL_Driver/Src/stm32f0xx_hal_uart.c **** /* Includes ------------------------------------------------------------------*/
 158:Drivers/STM32F0xx_HAL_Driver/Src/stm32f0xx_hal_uart.c **** #include "stm32f0xx_hal.h"
 159:Drivers/STM32F0xx_HAL_Driver/Src/stm32f0xx_hal_uart.c **** 
 160:Drivers/STM32F0xx_HAL_Driver/Src/stm32f0xx_hal_uart.c **** /** @addtogroup STM32F0xx_HAL_Driver
 161:Drivers/STM32F0xx_HAL_Driver/Src/stm32f0xx_hal_uart.c ****   * @{
 162:Drivers/STM32F0xx_HAL_Driver/Src/stm32f0xx_hal_uart.c ****   */
 163:Drivers/STM32F0xx_HAL_Driver/Src/stm32f0xx_hal_uart.c **** 
 164:Drivers/STM32F0xx_HAL_Driver/Src/stm32f0xx_hal_uart.c **** /** @defgroup UART UART
 165:Drivers/STM32F0xx_HAL_Driver/Src/stm32f0xx_hal_uart.c ****   * @brief HAL UART module driver
 166:Drivers/STM32F0xx_HAL_Driver/Src/stm32f0xx_hal_uart.c ****   * @{
 167:Drivers/STM32F0xx_HAL_Driver/Src/stm32f0xx_hal_uart.c ****   */
 168:Drivers/STM32F0xx_HAL_Driver/Src/stm32f0xx_hal_uart.c **** 
 169:Drivers/STM32F0xx_HAL_Driver/Src/stm32f0xx_hal_uart.c **** #ifdef HAL_UART_MODULE_ENABLED
 170:Drivers/STM32F0xx_HAL_Driver/Src/stm32f0xx_hal_uart.c **** 
 171:Drivers/STM32F0xx_HAL_Driver/Src/stm32f0xx_hal_uart.c **** /* Private typedef -----------------------------------------------------------*/
 172:Drivers/STM32F0xx_HAL_Driver/Src/stm32f0xx_hal_uart.c **** /* Private define ------------------------------------------------------------*/
 173:Drivers/STM32F0xx_HAL_Driver/Src/stm32f0xx_hal_uart.c **** /** @defgroup UART_Private_Constants UART Private Constants
 174:Drivers/STM32F0xx_HAL_Driver/Src/stm32f0xx_hal_uart.c ****   * @{
 175:Drivers/STM32F0xx_HAL_Driver/Src/stm32f0xx_hal_uart.c ****   */
 176:Drivers/STM32F0xx_HAL_Driver/Src/stm32f0xx_hal_uart.c **** #define UART_TEACK_REACK_TIMEOUT ((uint32_t) 1000)              /*!< UART TX or RX enable acknowled
ARM GAS  /tmp/ccjaQwTr.s 			page 5


 177:Drivers/STM32F0xx_HAL_Driver/Src/stm32f0xx_hal_uart.c **** #define UART_CR1_FIELDS  ((uint32_t)(USART_CR1_M | USART_CR1_PCE | USART_CR1_PS | \
 178:Drivers/STM32F0xx_HAL_Driver/Src/stm32f0xx_hal_uart.c ****                                      USART_CR1_TE | USART_CR1_RE | USART_CR1_OVER8)) /*!< UART or U
 179:Drivers/STM32F0xx_HAL_Driver/Src/stm32f0xx_hal_uart.c **** /**
 180:Drivers/STM32F0xx_HAL_Driver/Src/stm32f0xx_hal_uart.c ****   * @}
 181:Drivers/STM32F0xx_HAL_Driver/Src/stm32f0xx_hal_uart.c ****   */
 182:Drivers/STM32F0xx_HAL_Driver/Src/stm32f0xx_hal_uart.c **** 
 183:Drivers/STM32F0xx_HAL_Driver/Src/stm32f0xx_hal_uart.c **** /* Private macros ------------------------------------------------------------*/
 184:Drivers/STM32F0xx_HAL_Driver/Src/stm32f0xx_hal_uart.c **** /* Private variables ---------------------------------------------------------*/
 185:Drivers/STM32F0xx_HAL_Driver/Src/stm32f0xx_hal_uart.c **** /* Private function prototypes -----------------------------------------------*/
 186:Drivers/STM32F0xx_HAL_Driver/Src/stm32f0xx_hal_uart.c **** /** @addtogroup UART_Private_Functions   UART Private Functions
 187:Drivers/STM32F0xx_HAL_Driver/Src/stm32f0xx_hal_uart.c ****   * @{
 188:Drivers/STM32F0xx_HAL_Driver/Src/stm32f0xx_hal_uart.c ****   */
 189:Drivers/STM32F0xx_HAL_Driver/Src/stm32f0xx_hal_uart.c **** static void UART_DMATransmitCplt(DMA_HandleTypeDef *hdma);
 190:Drivers/STM32F0xx_HAL_Driver/Src/stm32f0xx_hal_uart.c **** static void UART_DMATxHalfCplt(DMA_HandleTypeDef *hdma);
 191:Drivers/STM32F0xx_HAL_Driver/Src/stm32f0xx_hal_uart.c **** static void UART_DMAReceiveCplt(DMA_HandleTypeDef *hdma);
 192:Drivers/STM32F0xx_HAL_Driver/Src/stm32f0xx_hal_uart.c **** static void UART_DMARxHalfCplt(DMA_HandleTypeDef *hdma);
 193:Drivers/STM32F0xx_HAL_Driver/Src/stm32f0xx_hal_uart.c **** static void UART_DMAError(DMA_HandleTypeDef *hdma);
 194:Drivers/STM32F0xx_HAL_Driver/Src/stm32f0xx_hal_uart.c **** /**
 195:Drivers/STM32F0xx_HAL_Driver/Src/stm32f0xx_hal_uart.c ****   * @}
 196:Drivers/STM32F0xx_HAL_Driver/Src/stm32f0xx_hal_uart.c ****   */
 197:Drivers/STM32F0xx_HAL_Driver/Src/stm32f0xx_hal_uart.c **** 
 198:Drivers/STM32F0xx_HAL_Driver/Src/stm32f0xx_hal_uart.c **** /* Exported functions --------------------------------------------------------*/
 199:Drivers/STM32F0xx_HAL_Driver/Src/stm32f0xx_hal_uart.c **** 
 200:Drivers/STM32F0xx_HAL_Driver/Src/stm32f0xx_hal_uart.c **** /** @defgroup UART_Exported_Functions UART Exported Functions
 201:Drivers/STM32F0xx_HAL_Driver/Src/stm32f0xx_hal_uart.c ****   * @{
 202:Drivers/STM32F0xx_HAL_Driver/Src/stm32f0xx_hal_uart.c ****   */
 203:Drivers/STM32F0xx_HAL_Driver/Src/stm32f0xx_hal_uart.c **** 
 204:Drivers/STM32F0xx_HAL_Driver/Src/stm32f0xx_hal_uart.c **** /** @defgroup UART_Exported_Functions_Group1 Initialization and de-initialization functions
 205:Drivers/STM32F0xx_HAL_Driver/Src/stm32f0xx_hal_uart.c ****   *  @brief    Initialization and Configuration functions
 206:Drivers/STM32F0xx_HAL_Driver/Src/stm32f0xx_hal_uart.c ****   *
 207:Drivers/STM32F0xx_HAL_Driver/Src/stm32f0xx_hal_uart.c **** @verbatim
 208:Drivers/STM32F0xx_HAL_Driver/Src/stm32f0xx_hal_uart.c **** ===============================================================================
 209:Drivers/STM32F0xx_HAL_Driver/Src/stm32f0xx_hal_uart.c ****             ##### Initialization and Configuration functions #####
 210:Drivers/STM32F0xx_HAL_Driver/Src/stm32f0xx_hal_uart.c ****  ===============================================================================
 211:Drivers/STM32F0xx_HAL_Driver/Src/stm32f0xx_hal_uart.c ****     [..]
 212:Drivers/STM32F0xx_HAL_Driver/Src/stm32f0xx_hal_uart.c ****     This subsection provides a set of functions allowing to initialize the USARTx or the UARTy
 213:Drivers/STM32F0xx_HAL_Driver/Src/stm32f0xx_hal_uart.c ****     in asynchronous mode.
 214:Drivers/STM32F0xx_HAL_Driver/Src/stm32f0xx_hal_uart.c ****       (+) For the asynchronous mode the parameters below can be configured:
 215:Drivers/STM32F0xx_HAL_Driver/Src/stm32f0xx_hal_uart.c ****         (++) Baud Rate
 216:Drivers/STM32F0xx_HAL_Driver/Src/stm32f0xx_hal_uart.c ****         (++) Word Length
 217:Drivers/STM32F0xx_HAL_Driver/Src/stm32f0xx_hal_uart.c ****         (++) Stop Bit
 218:Drivers/STM32F0xx_HAL_Driver/Src/stm32f0xx_hal_uart.c ****         (++) Parity
 219:Drivers/STM32F0xx_HAL_Driver/Src/stm32f0xx_hal_uart.c ****         (++) Hardware flow control
 220:Drivers/STM32F0xx_HAL_Driver/Src/stm32f0xx_hal_uart.c ****         (++) Receiver/transmitter modes
 221:Drivers/STM32F0xx_HAL_Driver/Src/stm32f0xx_hal_uart.c ****         (++) Over Sampling Method
 222:Drivers/STM32F0xx_HAL_Driver/Src/stm32f0xx_hal_uart.c ****         (++) One-Bit Sampling Method
 223:Drivers/STM32F0xx_HAL_Driver/Src/stm32f0xx_hal_uart.c ****       (+) For the asynchronous mode, the following advanced features can be configured as well:
 224:Drivers/STM32F0xx_HAL_Driver/Src/stm32f0xx_hal_uart.c ****         (++) TX and/or RX pin level inversion
 225:Drivers/STM32F0xx_HAL_Driver/Src/stm32f0xx_hal_uart.c ****         (++) data logical level inversion
 226:Drivers/STM32F0xx_HAL_Driver/Src/stm32f0xx_hal_uart.c ****         (++) RX and TX pins swap
 227:Drivers/STM32F0xx_HAL_Driver/Src/stm32f0xx_hal_uart.c ****         (++) RX overrun detection disabling
 228:Drivers/STM32F0xx_HAL_Driver/Src/stm32f0xx_hal_uart.c ****         (++) DMA disabling on RX error
 229:Drivers/STM32F0xx_HAL_Driver/Src/stm32f0xx_hal_uart.c ****         (++) MSB first on communication line
 230:Drivers/STM32F0xx_HAL_Driver/Src/stm32f0xx_hal_uart.c ****         (++) auto Baud rate detection
 231:Drivers/STM32F0xx_HAL_Driver/Src/stm32f0xx_hal_uart.c ****     [..]
 232:Drivers/STM32F0xx_HAL_Driver/Src/stm32f0xx_hal_uart.c ****     The HAL_UART_Init(), HAL_HalfDuplex_Init() and HAL_MultiProcessor_Init()
 233:Drivers/STM32F0xx_HAL_Driver/Src/stm32f0xx_hal_uart.c ****     API follow respectively the UART asynchronous, UART Half duplex and multiprocessor mode
ARM GAS  /tmp/ccjaQwTr.s 			page 6


 234:Drivers/STM32F0xx_HAL_Driver/Src/stm32f0xx_hal_uart.c ****     configuration procedures (details for the procedures are available in reference manual).
 235:Drivers/STM32F0xx_HAL_Driver/Src/stm32f0xx_hal_uart.c **** 
 236:Drivers/STM32F0xx_HAL_Driver/Src/stm32f0xx_hal_uart.c **** @endverbatim
 237:Drivers/STM32F0xx_HAL_Driver/Src/stm32f0xx_hal_uart.c ****   * @{
 238:Drivers/STM32F0xx_HAL_Driver/Src/stm32f0xx_hal_uart.c ****   */
 239:Drivers/STM32F0xx_HAL_Driver/Src/stm32f0xx_hal_uart.c **** 
 240:Drivers/STM32F0xx_HAL_Driver/Src/stm32f0xx_hal_uart.c **** /*
 241:Drivers/STM32F0xx_HAL_Driver/Src/stm32f0xx_hal_uart.c ****   Additional Table:  If the parity is enabled, then the MSB bit of the data written
 242:Drivers/STM32F0xx_HAL_Driver/Src/stm32f0xx_hal_uart.c ****                      in the data register is transmitted but is changed by the parity bit.
 243:Drivers/STM32F0xx_HAL_Driver/Src/stm32f0xx_hal_uart.c ****                      According to device capability (support or not of 7-bit word length),
 244:Drivers/STM32F0xx_HAL_Driver/Src/stm32f0xx_hal_uart.c ****                      frame length is either defined by the M bit (8-bits or 9-bits)
 245:Drivers/STM32F0xx_HAL_Driver/Src/stm32f0xx_hal_uart.c ****                      or by the M1 and M0 bits (7-bit, 8-bit or 9-bit).
 246:Drivers/STM32F0xx_HAL_Driver/Src/stm32f0xx_hal_uart.c ****                      Possible UART frame formats are as listed in the following table:
 247:Drivers/STM32F0xx_HAL_Driver/Src/stm32f0xx_hal_uart.c ****             
 248:Drivers/STM32F0xx_HAL_Driver/Src/stm32f0xx_hal_uart.c ****       Table 1. UART frame format.             
 249:Drivers/STM32F0xx_HAL_Driver/Src/stm32f0xx_hal_uart.c ****       +-----------------------------------------------------------------------+
 250:Drivers/STM32F0xx_HAL_Driver/Src/stm32f0xx_hal_uart.c ****       |       M bit       |  PCE bit  |             UART frame                |
 251:Drivers/STM32F0xx_HAL_Driver/Src/stm32f0xx_hal_uart.c ****       |-------------------|-----------|---------------------------------------|
 252:Drivers/STM32F0xx_HAL_Driver/Src/stm32f0xx_hal_uart.c ****       |         0         |     0     |    | SB |    8-bit data   | STB |     |
 253:Drivers/STM32F0xx_HAL_Driver/Src/stm32f0xx_hal_uart.c ****       |-------------------|-----------|---------------------------------------|
 254:Drivers/STM32F0xx_HAL_Driver/Src/stm32f0xx_hal_uart.c ****       |         0         |     1     |    | SB | 7-bit data | PB | STB |     |
 255:Drivers/STM32F0xx_HAL_Driver/Src/stm32f0xx_hal_uart.c ****       |-------------------|-----------|---------------------------------------|
 256:Drivers/STM32F0xx_HAL_Driver/Src/stm32f0xx_hal_uart.c ****       |         1         |     0     |    | SB |    9-bit data   | STB |     |
 257:Drivers/STM32F0xx_HAL_Driver/Src/stm32f0xx_hal_uart.c ****       |-------------------|-----------|---------------------------------------|
 258:Drivers/STM32F0xx_HAL_Driver/Src/stm32f0xx_hal_uart.c ****       |         1         |     1     |    | SB | 8-bit data | PB | STB |     |
 259:Drivers/STM32F0xx_HAL_Driver/Src/stm32f0xx_hal_uart.c ****       +-----------------------------------------------------------------------+
 260:Drivers/STM32F0xx_HAL_Driver/Src/stm32f0xx_hal_uart.c ****       |  M1 bit |  M0 bit |  PCE bit  |             UART frame                |
 261:Drivers/STM32F0xx_HAL_Driver/Src/stm32f0xx_hal_uart.c ****       |---------|---------|-----------|---------------------------------------|
 262:Drivers/STM32F0xx_HAL_Driver/Src/stm32f0xx_hal_uart.c ****       |    0    |    0    |     0     |    | SB |    8 bit data   | STB |     |
 263:Drivers/STM32F0xx_HAL_Driver/Src/stm32f0xx_hal_uart.c ****       |---------|---------|-----------|---------------------------------------|
 264:Drivers/STM32F0xx_HAL_Driver/Src/stm32f0xx_hal_uart.c ****       |    0    |    0    |     1     |    | SB | 7 bit data | PB | STB |     |
 265:Drivers/STM32F0xx_HAL_Driver/Src/stm32f0xx_hal_uart.c ****       |---------|---------|-----------|---------------------------------------|
 266:Drivers/STM32F0xx_HAL_Driver/Src/stm32f0xx_hal_uart.c ****       |    0    |    1    |     0     |    | SB |    9 bit data   | STB |     |
 267:Drivers/STM32F0xx_HAL_Driver/Src/stm32f0xx_hal_uart.c ****       |---------|---------|-----------|---------------------------------------|
 268:Drivers/STM32F0xx_HAL_Driver/Src/stm32f0xx_hal_uart.c ****       |    0    |    1    |     1     |    | SB | 8 bit data | PB | STB |     |
 269:Drivers/STM32F0xx_HAL_Driver/Src/stm32f0xx_hal_uart.c ****       |---------|---------|-----------|---------------------------------------|
 270:Drivers/STM32F0xx_HAL_Driver/Src/stm32f0xx_hal_uart.c ****       |    1    |    0    |     0     |    | SB |    7 bit data   | STB |     |
 271:Drivers/STM32F0xx_HAL_Driver/Src/stm32f0xx_hal_uart.c ****       |---------|---------|-----------|---------------------------------------|
 272:Drivers/STM32F0xx_HAL_Driver/Src/stm32f0xx_hal_uart.c ****       |    1    |    0    |     1     |    | SB | 6 bit data | PB | STB |     |
 273:Drivers/STM32F0xx_HAL_Driver/Src/stm32f0xx_hal_uart.c ****       +-----------------------------------------------------------------------+
 274:Drivers/STM32F0xx_HAL_Driver/Src/stm32f0xx_hal_uart.c **** 
 275:Drivers/STM32F0xx_HAL_Driver/Src/stm32f0xx_hal_uart.c **** */
 276:Drivers/STM32F0xx_HAL_Driver/Src/stm32f0xx_hal_uart.c **** 
 277:Drivers/STM32F0xx_HAL_Driver/Src/stm32f0xx_hal_uart.c **** /**
 278:Drivers/STM32F0xx_HAL_Driver/Src/stm32f0xx_hal_uart.c ****   * @brief Initialize the UART mode according to the specified
 279:Drivers/STM32F0xx_HAL_Driver/Src/stm32f0xx_hal_uart.c ****   *         parameters in the UART_InitTypeDef and initialize the associated handle.
 280:Drivers/STM32F0xx_HAL_Driver/Src/stm32f0xx_hal_uart.c ****   * @param huart: UART handle.
 281:Drivers/STM32F0xx_HAL_Driver/Src/stm32f0xx_hal_uart.c ****   * @retval HAL status
 282:Drivers/STM32F0xx_HAL_Driver/Src/stm32f0xx_hal_uart.c ****   */
 283:Drivers/STM32F0xx_HAL_Driver/Src/stm32f0xx_hal_uart.c **** HAL_StatusTypeDef HAL_UART_Init(UART_HandleTypeDef *huart)
 284:Drivers/STM32F0xx_HAL_Driver/Src/stm32f0xx_hal_uart.c **** {
 285:Drivers/STM32F0xx_HAL_Driver/Src/stm32f0xx_hal_uart.c ****   /* Check the UART handle allocation */
 286:Drivers/STM32F0xx_HAL_Driver/Src/stm32f0xx_hal_uart.c ****   if(huart == NULL)
 287:Drivers/STM32F0xx_HAL_Driver/Src/stm32f0xx_hal_uart.c ****   {
 288:Drivers/STM32F0xx_HAL_Driver/Src/stm32f0xx_hal_uart.c ****     return HAL_ERROR;
 289:Drivers/STM32F0xx_HAL_Driver/Src/stm32f0xx_hal_uart.c ****   }
 290:Drivers/STM32F0xx_HAL_Driver/Src/stm32f0xx_hal_uart.c **** 
ARM GAS  /tmp/ccjaQwTr.s 			page 7


 291:Drivers/STM32F0xx_HAL_Driver/Src/stm32f0xx_hal_uart.c ****   if(huart->Init.HwFlowCtl != UART_HWCONTROL_NONE)
 292:Drivers/STM32F0xx_HAL_Driver/Src/stm32f0xx_hal_uart.c ****   {
 293:Drivers/STM32F0xx_HAL_Driver/Src/stm32f0xx_hal_uart.c ****     /* Check the parameters */
 294:Drivers/STM32F0xx_HAL_Driver/Src/stm32f0xx_hal_uart.c ****     assert_param(IS_UART_HWFLOW_INSTANCE(huart->Instance));
 295:Drivers/STM32F0xx_HAL_Driver/Src/stm32f0xx_hal_uart.c ****   }
 296:Drivers/STM32F0xx_HAL_Driver/Src/stm32f0xx_hal_uart.c ****   else
 297:Drivers/STM32F0xx_HAL_Driver/Src/stm32f0xx_hal_uart.c ****   {
 298:Drivers/STM32F0xx_HAL_Driver/Src/stm32f0xx_hal_uart.c ****     /* Check the parameters */
 299:Drivers/STM32F0xx_HAL_Driver/Src/stm32f0xx_hal_uart.c ****     assert_param(IS_UART_INSTANCE(huart->Instance));
 300:Drivers/STM32F0xx_HAL_Driver/Src/stm32f0xx_hal_uart.c ****   }
 301:Drivers/STM32F0xx_HAL_Driver/Src/stm32f0xx_hal_uart.c **** 
 302:Drivers/STM32F0xx_HAL_Driver/Src/stm32f0xx_hal_uart.c ****   if(huart->gState == HAL_UART_STATE_RESET)
 303:Drivers/STM32F0xx_HAL_Driver/Src/stm32f0xx_hal_uart.c ****   {
 304:Drivers/STM32F0xx_HAL_Driver/Src/stm32f0xx_hal_uart.c ****     /* Allocate lock resource and initialize it */
 305:Drivers/STM32F0xx_HAL_Driver/Src/stm32f0xx_hal_uart.c ****     huart->Lock = HAL_UNLOCKED;
 306:Drivers/STM32F0xx_HAL_Driver/Src/stm32f0xx_hal_uart.c **** 
 307:Drivers/STM32F0xx_HAL_Driver/Src/stm32f0xx_hal_uart.c ****     /* Init the low level hardware : GPIO, CLOCK */
 308:Drivers/STM32F0xx_HAL_Driver/Src/stm32f0xx_hal_uart.c ****     HAL_UART_MspInit(huart);
 309:Drivers/STM32F0xx_HAL_Driver/Src/stm32f0xx_hal_uart.c ****   }
 310:Drivers/STM32F0xx_HAL_Driver/Src/stm32f0xx_hal_uart.c **** 
 311:Drivers/STM32F0xx_HAL_Driver/Src/stm32f0xx_hal_uart.c ****   huart->gState = HAL_UART_STATE_BUSY;
 312:Drivers/STM32F0xx_HAL_Driver/Src/stm32f0xx_hal_uart.c **** 
 313:Drivers/STM32F0xx_HAL_Driver/Src/stm32f0xx_hal_uart.c ****   /* Disable the Peripheral */
 314:Drivers/STM32F0xx_HAL_Driver/Src/stm32f0xx_hal_uart.c ****   __HAL_UART_DISABLE(huart);
 315:Drivers/STM32F0xx_HAL_Driver/Src/stm32f0xx_hal_uart.c **** 
 316:Drivers/STM32F0xx_HAL_Driver/Src/stm32f0xx_hal_uart.c ****   /* Set the UART Communication parameters */
 317:Drivers/STM32F0xx_HAL_Driver/Src/stm32f0xx_hal_uart.c ****   if (UART_SetConfig(huart) == HAL_ERROR)
 318:Drivers/STM32F0xx_HAL_Driver/Src/stm32f0xx_hal_uart.c ****   {
 319:Drivers/STM32F0xx_HAL_Driver/Src/stm32f0xx_hal_uart.c ****     return HAL_ERROR;
 320:Drivers/STM32F0xx_HAL_Driver/Src/stm32f0xx_hal_uart.c ****   }
 321:Drivers/STM32F0xx_HAL_Driver/Src/stm32f0xx_hal_uart.c **** 
 322:Drivers/STM32F0xx_HAL_Driver/Src/stm32f0xx_hal_uart.c ****   if (huart->AdvancedInit.AdvFeatureInit != UART_ADVFEATURE_NO_INIT)
 323:Drivers/STM32F0xx_HAL_Driver/Src/stm32f0xx_hal_uart.c ****   {
 324:Drivers/STM32F0xx_HAL_Driver/Src/stm32f0xx_hal_uart.c ****     UART_AdvFeatureConfig(huart);
 325:Drivers/STM32F0xx_HAL_Driver/Src/stm32f0xx_hal_uart.c ****   }
 326:Drivers/STM32F0xx_HAL_Driver/Src/stm32f0xx_hal_uart.c **** 
 327:Drivers/STM32F0xx_HAL_Driver/Src/stm32f0xx_hal_uart.c ****   /* In asynchronous mode, the following bits must be kept cleared:
 328:Drivers/STM32F0xx_HAL_Driver/Src/stm32f0xx_hal_uart.c ****   - LINEN (if LIN is supported) and CLKEN bits in the USART_CR2 register,
 329:Drivers/STM32F0xx_HAL_Driver/Src/stm32f0xx_hal_uart.c ****   - SCEN (if Smartcard is supported), HDSEL and IREN (if IrDA is supported)  bits in the USART_CR3 
 330:Drivers/STM32F0xx_HAL_Driver/Src/stm32f0xx_hal_uart.c **** #if defined (USART_CR2_LINEN)
 331:Drivers/STM32F0xx_HAL_Driver/Src/stm32f0xx_hal_uart.c ****   huart->Instance->CR2 &= ~(USART_CR2_LINEN | USART_CR2_CLKEN);
 332:Drivers/STM32F0xx_HAL_Driver/Src/stm32f0xx_hal_uart.c **** #else
 333:Drivers/STM32F0xx_HAL_Driver/Src/stm32f0xx_hal_uart.c ****   huart->Instance->CR2 &= ~(USART_CR2_CLKEN);
 334:Drivers/STM32F0xx_HAL_Driver/Src/stm32f0xx_hal_uart.c **** #endif
 335:Drivers/STM32F0xx_HAL_Driver/Src/stm32f0xx_hal_uart.c **** #if defined (USART_CR3_SCEN)
 336:Drivers/STM32F0xx_HAL_Driver/Src/stm32f0xx_hal_uart.c **** #if defined (USART_CR3_IREN)
 337:Drivers/STM32F0xx_HAL_Driver/Src/stm32f0xx_hal_uart.c ****   huart->Instance->CR3 &= ~(USART_CR3_SCEN | USART_CR3_HDSEL | USART_CR3_IREN);
 338:Drivers/STM32F0xx_HAL_Driver/Src/stm32f0xx_hal_uart.c **** #else
 339:Drivers/STM32F0xx_HAL_Driver/Src/stm32f0xx_hal_uart.c ****   huart->Instance->CR3 &= ~(USART_CR3_SCEN | USART_CR3_HDSEL);
 340:Drivers/STM32F0xx_HAL_Driver/Src/stm32f0xx_hal_uart.c **** #endif
 341:Drivers/STM32F0xx_HAL_Driver/Src/stm32f0xx_hal_uart.c **** #else
 342:Drivers/STM32F0xx_HAL_Driver/Src/stm32f0xx_hal_uart.c **** #if defined (USART_CR3_IREN)
 343:Drivers/STM32F0xx_HAL_Driver/Src/stm32f0xx_hal_uart.c ****   huart->Instance->CR3 &= ~(USART_CR3_HDSEL | USART_CR3_IREN);
 344:Drivers/STM32F0xx_HAL_Driver/Src/stm32f0xx_hal_uart.c **** #else
 345:Drivers/STM32F0xx_HAL_Driver/Src/stm32f0xx_hal_uart.c ****   huart->Instance->CR3 &= ~(USART_CR3_HDSEL);
 346:Drivers/STM32F0xx_HAL_Driver/Src/stm32f0xx_hal_uart.c **** #endif
 347:Drivers/STM32F0xx_HAL_Driver/Src/stm32f0xx_hal_uart.c **** #endif
ARM GAS  /tmp/ccjaQwTr.s 			page 8


 348:Drivers/STM32F0xx_HAL_Driver/Src/stm32f0xx_hal_uart.c **** 
 349:Drivers/STM32F0xx_HAL_Driver/Src/stm32f0xx_hal_uart.c ****   /* Enable the Peripheral */
 350:Drivers/STM32F0xx_HAL_Driver/Src/stm32f0xx_hal_uart.c ****   __HAL_UART_ENABLE(huart);
 351:Drivers/STM32F0xx_HAL_Driver/Src/stm32f0xx_hal_uart.c **** 
 352:Drivers/STM32F0xx_HAL_Driver/Src/stm32f0xx_hal_uart.c ****   /* TEACK and/or REACK to check before moving huart->gState and huart->RxState to Ready */
 353:Drivers/STM32F0xx_HAL_Driver/Src/stm32f0xx_hal_uart.c ****   return (UART_CheckIdleState(huart));
 354:Drivers/STM32F0xx_HAL_Driver/Src/stm32f0xx_hal_uart.c **** }
 355:Drivers/STM32F0xx_HAL_Driver/Src/stm32f0xx_hal_uart.c **** 
 356:Drivers/STM32F0xx_HAL_Driver/Src/stm32f0xx_hal_uart.c **** /**
 357:Drivers/STM32F0xx_HAL_Driver/Src/stm32f0xx_hal_uart.c ****   * @brief Initialize the half-duplex mode according to the specified
 358:Drivers/STM32F0xx_HAL_Driver/Src/stm32f0xx_hal_uart.c ****   *         parameters in the UART_InitTypeDef and creates the associated handle.
 359:Drivers/STM32F0xx_HAL_Driver/Src/stm32f0xx_hal_uart.c ****   * @param huart: UART handle.
 360:Drivers/STM32F0xx_HAL_Driver/Src/stm32f0xx_hal_uart.c ****   * @retval HAL status
 361:Drivers/STM32F0xx_HAL_Driver/Src/stm32f0xx_hal_uart.c ****   */
 362:Drivers/STM32F0xx_HAL_Driver/Src/stm32f0xx_hal_uart.c **** HAL_StatusTypeDef HAL_HalfDuplex_Init(UART_HandleTypeDef *huart)
 363:Drivers/STM32F0xx_HAL_Driver/Src/stm32f0xx_hal_uart.c **** {
 364:Drivers/STM32F0xx_HAL_Driver/Src/stm32f0xx_hal_uart.c ****   /* Check the UART handle allocation */
 365:Drivers/STM32F0xx_HAL_Driver/Src/stm32f0xx_hal_uart.c ****   if(huart == NULL)
 366:Drivers/STM32F0xx_HAL_Driver/Src/stm32f0xx_hal_uart.c ****   {
 367:Drivers/STM32F0xx_HAL_Driver/Src/stm32f0xx_hal_uart.c ****     return HAL_ERROR;
 368:Drivers/STM32F0xx_HAL_Driver/Src/stm32f0xx_hal_uart.c ****   }
 369:Drivers/STM32F0xx_HAL_Driver/Src/stm32f0xx_hal_uart.c **** 
 370:Drivers/STM32F0xx_HAL_Driver/Src/stm32f0xx_hal_uart.c ****   /* Check UART instance */
 371:Drivers/STM32F0xx_HAL_Driver/Src/stm32f0xx_hal_uart.c ****   assert_param(IS_UART_HALFDUPLEX_INSTANCE(huart->Instance));
 372:Drivers/STM32F0xx_HAL_Driver/Src/stm32f0xx_hal_uart.c **** 
 373:Drivers/STM32F0xx_HAL_Driver/Src/stm32f0xx_hal_uart.c ****   if(huart->gState == HAL_UART_STATE_RESET)
 374:Drivers/STM32F0xx_HAL_Driver/Src/stm32f0xx_hal_uart.c ****   {
 375:Drivers/STM32F0xx_HAL_Driver/Src/stm32f0xx_hal_uart.c ****     /* Allocate lock resource and initialize it */
 376:Drivers/STM32F0xx_HAL_Driver/Src/stm32f0xx_hal_uart.c ****     huart->Lock = HAL_UNLOCKED;
 377:Drivers/STM32F0xx_HAL_Driver/Src/stm32f0xx_hal_uart.c **** 
 378:Drivers/STM32F0xx_HAL_Driver/Src/stm32f0xx_hal_uart.c ****     /* Init the low level hardware : GPIO, CLOCK */
 379:Drivers/STM32F0xx_HAL_Driver/Src/stm32f0xx_hal_uart.c ****     HAL_UART_MspInit(huart);
 380:Drivers/STM32F0xx_HAL_Driver/Src/stm32f0xx_hal_uart.c ****   }
 381:Drivers/STM32F0xx_HAL_Driver/Src/stm32f0xx_hal_uart.c **** 
 382:Drivers/STM32F0xx_HAL_Driver/Src/stm32f0xx_hal_uart.c ****   huart->gState = HAL_UART_STATE_BUSY;
 383:Drivers/STM32F0xx_HAL_Driver/Src/stm32f0xx_hal_uart.c **** 
 384:Drivers/STM32F0xx_HAL_Driver/Src/stm32f0xx_hal_uart.c ****   /* Disable the Peripheral */
 385:Drivers/STM32F0xx_HAL_Driver/Src/stm32f0xx_hal_uart.c ****   __HAL_UART_DISABLE(huart);
 386:Drivers/STM32F0xx_HAL_Driver/Src/stm32f0xx_hal_uart.c **** 
 387:Drivers/STM32F0xx_HAL_Driver/Src/stm32f0xx_hal_uart.c ****   /* Set the UART Communication parameters */
 388:Drivers/STM32F0xx_HAL_Driver/Src/stm32f0xx_hal_uart.c ****   if (UART_SetConfig(huart) == HAL_ERROR)
 389:Drivers/STM32F0xx_HAL_Driver/Src/stm32f0xx_hal_uart.c ****   {
 390:Drivers/STM32F0xx_HAL_Driver/Src/stm32f0xx_hal_uart.c ****     return HAL_ERROR;
 391:Drivers/STM32F0xx_HAL_Driver/Src/stm32f0xx_hal_uart.c ****   }
 392:Drivers/STM32F0xx_HAL_Driver/Src/stm32f0xx_hal_uart.c **** 
 393:Drivers/STM32F0xx_HAL_Driver/Src/stm32f0xx_hal_uart.c ****   if (huart->AdvancedInit.AdvFeatureInit != UART_ADVFEATURE_NO_INIT)
 394:Drivers/STM32F0xx_HAL_Driver/Src/stm32f0xx_hal_uart.c ****   {
 395:Drivers/STM32F0xx_HAL_Driver/Src/stm32f0xx_hal_uart.c ****     UART_AdvFeatureConfig(huart);
 396:Drivers/STM32F0xx_HAL_Driver/Src/stm32f0xx_hal_uart.c ****   }
 397:Drivers/STM32F0xx_HAL_Driver/Src/stm32f0xx_hal_uart.c **** 
 398:Drivers/STM32F0xx_HAL_Driver/Src/stm32f0xx_hal_uart.c ****   /* In half-duplex mode, the following bits must be kept cleared:
 399:Drivers/STM32F0xx_HAL_Driver/Src/stm32f0xx_hal_uart.c ****   - LINEN (if LIN is supported) and CLKEN bits in the USART_CR2 register,
 400:Drivers/STM32F0xx_HAL_Driver/Src/stm32f0xx_hal_uart.c ****   - SCEN (if Smartcard is supported), and IREN (if IrDA is supported)  bits in the USART_CR3 regist
 401:Drivers/STM32F0xx_HAL_Driver/Src/stm32f0xx_hal_uart.c **** #if defined (USART_CR2_LINEN)
 402:Drivers/STM32F0xx_HAL_Driver/Src/stm32f0xx_hal_uart.c ****   huart->Instance->CR2 &= ~(USART_CR2_LINEN | USART_CR2_CLKEN);
 403:Drivers/STM32F0xx_HAL_Driver/Src/stm32f0xx_hal_uart.c **** #else
 404:Drivers/STM32F0xx_HAL_Driver/Src/stm32f0xx_hal_uart.c ****   huart->Instance->CR2 &= ~(USART_CR2_CLKEN);
ARM GAS  /tmp/ccjaQwTr.s 			page 9


 405:Drivers/STM32F0xx_HAL_Driver/Src/stm32f0xx_hal_uart.c **** #endif
 406:Drivers/STM32F0xx_HAL_Driver/Src/stm32f0xx_hal_uart.c **** #if defined (USART_CR3_SCEN)
 407:Drivers/STM32F0xx_HAL_Driver/Src/stm32f0xx_hal_uart.c **** #if defined (USART_CR3_IREN)
 408:Drivers/STM32F0xx_HAL_Driver/Src/stm32f0xx_hal_uart.c ****   huart->Instance->CR3 &= ~(USART_CR3_SCEN | USART_CR3_IREN);
 409:Drivers/STM32F0xx_HAL_Driver/Src/stm32f0xx_hal_uart.c **** #else
 410:Drivers/STM32F0xx_HAL_Driver/Src/stm32f0xx_hal_uart.c ****   huart->Instance->CR3 &= ~(USART_CR3_SCEN);
 411:Drivers/STM32F0xx_HAL_Driver/Src/stm32f0xx_hal_uart.c **** #endif
 412:Drivers/STM32F0xx_HAL_Driver/Src/stm32f0xx_hal_uart.c **** #else
 413:Drivers/STM32F0xx_HAL_Driver/Src/stm32f0xx_hal_uart.c **** #if defined (USART_CR3_IREN)
 414:Drivers/STM32F0xx_HAL_Driver/Src/stm32f0xx_hal_uart.c ****   huart->Instance->CR3 &= ~(USART_CR3_IREN);
 415:Drivers/STM32F0xx_HAL_Driver/Src/stm32f0xx_hal_uart.c **** #endif
 416:Drivers/STM32F0xx_HAL_Driver/Src/stm32f0xx_hal_uart.c **** #endif
 417:Drivers/STM32F0xx_HAL_Driver/Src/stm32f0xx_hal_uart.c **** 
 418:Drivers/STM32F0xx_HAL_Driver/Src/stm32f0xx_hal_uart.c ****   /* Enable the Half-Duplex mode by setting the HDSEL bit in the CR3 register */
 419:Drivers/STM32F0xx_HAL_Driver/Src/stm32f0xx_hal_uart.c ****   huart->Instance->CR3 |= USART_CR3_HDSEL;
 420:Drivers/STM32F0xx_HAL_Driver/Src/stm32f0xx_hal_uart.c **** 
 421:Drivers/STM32F0xx_HAL_Driver/Src/stm32f0xx_hal_uart.c ****   /* Enable the Peripheral */
 422:Drivers/STM32F0xx_HAL_Driver/Src/stm32f0xx_hal_uart.c ****   __HAL_UART_ENABLE(huart);
 423:Drivers/STM32F0xx_HAL_Driver/Src/stm32f0xx_hal_uart.c **** 
 424:Drivers/STM32F0xx_HAL_Driver/Src/stm32f0xx_hal_uart.c ****   /* TEACK and/or REACK to check before moving huart->gState and huart->RxState to Ready */
 425:Drivers/STM32F0xx_HAL_Driver/Src/stm32f0xx_hal_uart.c ****   return (UART_CheckIdleState(huart));
 426:Drivers/STM32F0xx_HAL_Driver/Src/stm32f0xx_hal_uart.c **** }
 427:Drivers/STM32F0xx_HAL_Driver/Src/stm32f0xx_hal_uart.c **** 
 428:Drivers/STM32F0xx_HAL_Driver/Src/stm32f0xx_hal_uart.c **** 
 429:Drivers/STM32F0xx_HAL_Driver/Src/stm32f0xx_hal_uart.c **** /**
 430:Drivers/STM32F0xx_HAL_Driver/Src/stm32f0xx_hal_uart.c ****   * @brief Initialize the multiprocessor mode according to the specified
 431:Drivers/STM32F0xx_HAL_Driver/Src/stm32f0xx_hal_uart.c ****   *         parameters in the UART_InitTypeDef and initialize the associated handle.
 432:Drivers/STM32F0xx_HAL_Driver/Src/stm32f0xx_hal_uart.c ****   * @param huart: UART handle.
 433:Drivers/STM32F0xx_HAL_Driver/Src/stm32f0xx_hal_uart.c ****   * @param Address: UART node address (4-, 6-, 7- or 8-bit long).
 434:Drivers/STM32F0xx_HAL_Driver/Src/stm32f0xx_hal_uart.c ****   * @param WakeUpMethod: specifies the UART wakeup method.
 435:Drivers/STM32F0xx_HAL_Driver/Src/stm32f0xx_hal_uart.c ****   *        This parameter can be one of the following values:
 436:Drivers/STM32F0xx_HAL_Driver/Src/stm32f0xx_hal_uart.c ****   *          @arg UART_WAKEUPMETHOD_IDLELINE: WakeUp by an idle line detection
 437:Drivers/STM32F0xx_HAL_Driver/Src/stm32f0xx_hal_uart.c ****   *          @arg UART_WAKEUPMETHOD_ADDRESSMARK: WakeUp by an address mark
 438:Drivers/STM32F0xx_HAL_Driver/Src/stm32f0xx_hal_uart.c ****   * @note  If the user resorts to idle line detection wake up, the Address parameter
 439:Drivers/STM32F0xx_HAL_Driver/Src/stm32f0xx_hal_uart.c ****   *        is useless and ignored by the initialization function.
 440:Drivers/STM32F0xx_HAL_Driver/Src/stm32f0xx_hal_uart.c ****   * @note  If the user resorts to address mark wake up, the address length detection
 441:Drivers/STM32F0xx_HAL_Driver/Src/stm32f0xx_hal_uart.c ****   *        is configured by default to 4 bits only. For the UART to be able to
 442:Drivers/STM32F0xx_HAL_Driver/Src/stm32f0xx_hal_uart.c ****   *        manage 6-, 7- or 8-bit long addresses detection, the API
 443:Drivers/STM32F0xx_HAL_Driver/Src/stm32f0xx_hal_uart.c ****   *        HAL_MultiProcessorEx_AddressLength_Set() must be called after
 444:Drivers/STM32F0xx_HAL_Driver/Src/stm32f0xx_hal_uart.c ****   *        HAL_MultiProcessor_Init().
 445:Drivers/STM32F0xx_HAL_Driver/Src/stm32f0xx_hal_uart.c ****   * @retval HAL status
 446:Drivers/STM32F0xx_HAL_Driver/Src/stm32f0xx_hal_uart.c ****   */
 447:Drivers/STM32F0xx_HAL_Driver/Src/stm32f0xx_hal_uart.c **** HAL_StatusTypeDef HAL_MultiProcessor_Init(UART_HandleTypeDef *huart, uint8_t Address, uint32_t Wake
 448:Drivers/STM32F0xx_HAL_Driver/Src/stm32f0xx_hal_uart.c **** {
 449:Drivers/STM32F0xx_HAL_Driver/Src/stm32f0xx_hal_uart.c ****   /* Check the UART handle allocation */
 450:Drivers/STM32F0xx_HAL_Driver/Src/stm32f0xx_hal_uart.c ****   if(huart == NULL)
 451:Drivers/STM32F0xx_HAL_Driver/Src/stm32f0xx_hal_uart.c ****   {
 452:Drivers/STM32F0xx_HAL_Driver/Src/stm32f0xx_hal_uart.c ****     return HAL_ERROR;
 453:Drivers/STM32F0xx_HAL_Driver/Src/stm32f0xx_hal_uart.c ****   }
 454:Drivers/STM32F0xx_HAL_Driver/Src/stm32f0xx_hal_uart.c **** 
 455:Drivers/STM32F0xx_HAL_Driver/Src/stm32f0xx_hal_uart.c ****   /* Check the wake up method parameter */
 456:Drivers/STM32F0xx_HAL_Driver/Src/stm32f0xx_hal_uart.c ****   assert_param(IS_UART_WAKEUPMETHOD(WakeUpMethod));
 457:Drivers/STM32F0xx_HAL_Driver/Src/stm32f0xx_hal_uart.c **** 
 458:Drivers/STM32F0xx_HAL_Driver/Src/stm32f0xx_hal_uart.c ****   if(huart->gState == HAL_UART_STATE_RESET)
 459:Drivers/STM32F0xx_HAL_Driver/Src/stm32f0xx_hal_uart.c ****   {
 460:Drivers/STM32F0xx_HAL_Driver/Src/stm32f0xx_hal_uart.c ****     /* Allocate lock resource and initialize it */
 461:Drivers/STM32F0xx_HAL_Driver/Src/stm32f0xx_hal_uart.c ****     huart->Lock = HAL_UNLOCKED;
ARM GAS  /tmp/ccjaQwTr.s 			page 10


 462:Drivers/STM32F0xx_HAL_Driver/Src/stm32f0xx_hal_uart.c **** 
 463:Drivers/STM32F0xx_HAL_Driver/Src/stm32f0xx_hal_uart.c ****     /* Init the low level hardware : GPIO, CLOCK */
 464:Drivers/STM32F0xx_HAL_Driver/Src/stm32f0xx_hal_uart.c ****     HAL_UART_MspInit(huart);
 465:Drivers/STM32F0xx_HAL_Driver/Src/stm32f0xx_hal_uart.c ****   }
 466:Drivers/STM32F0xx_HAL_Driver/Src/stm32f0xx_hal_uart.c **** 
 467:Drivers/STM32F0xx_HAL_Driver/Src/stm32f0xx_hal_uart.c ****   huart->gState = HAL_UART_STATE_BUSY;
 468:Drivers/STM32F0xx_HAL_Driver/Src/stm32f0xx_hal_uart.c **** 
 469:Drivers/STM32F0xx_HAL_Driver/Src/stm32f0xx_hal_uart.c ****   /* Disable the Peripheral */
 470:Drivers/STM32F0xx_HAL_Driver/Src/stm32f0xx_hal_uart.c ****   __HAL_UART_DISABLE(huart);
 471:Drivers/STM32F0xx_HAL_Driver/Src/stm32f0xx_hal_uart.c **** 
 472:Drivers/STM32F0xx_HAL_Driver/Src/stm32f0xx_hal_uart.c ****   /* Set the UART Communication parameters */
 473:Drivers/STM32F0xx_HAL_Driver/Src/stm32f0xx_hal_uart.c ****   if (UART_SetConfig(huart) == HAL_ERROR)
 474:Drivers/STM32F0xx_HAL_Driver/Src/stm32f0xx_hal_uart.c ****   {
 475:Drivers/STM32F0xx_HAL_Driver/Src/stm32f0xx_hal_uart.c ****     return HAL_ERROR;
 476:Drivers/STM32F0xx_HAL_Driver/Src/stm32f0xx_hal_uart.c ****   }
 477:Drivers/STM32F0xx_HAL_Driver/Src/stm32f0xx_hal_uart.c **** 
 478:Drivers/STM32F0xx_HAL_Driver/Src/stm32f0xx_hal_uart.c ****   if (huart->AdvancedInit.AdvFeatureInit != UART_ADVFEATURE_NO_INIT)
 479:Drivers/STM32F0xx_HAL_Driver/Src/stm32f0xx_hal_uart.c ****   {
 480:Drivers/STM32F0xx_HAL_Driver/Src/stm32f0xx_hal_uart.c ****     UART_AdvFeatureConfig(huart);
 481:Drivers/STM32F0xx_HAL_Driver/Src/stm32f0xx_hal_uart.c ****   }
 482:Drivers/STM32F0xx_HAL_Driver/Src/stm32f0xx_hal_uart.c **** 
 483:Drivers/STM32F0xx_HAL_Driver/Src/stm32f0xx_hal_uart.c ****   /* In multiprocessor mode, the following bits must be kept cleared:
 484:Drivers/STM32F0xx_HAL_Driver/Src/stm32f0xx_hal_uart.c ****   - LINEN (if LIN is supported) and CLKEN bits in the USART_CR2 register,
 485:Drivers/STM32F0xx_HAL_Driver/Src/stm32f0xx_hal_uart.c ****   - SCEN (if Smartcard is supported), HDSEL and IREN (if IrDA is supported) bits in the USART_CR3 r
 486:Drivers/STM32F0xx_HAL_Driver/Src/stm32f0xx_hal_uart.c **** #if defined (USART_CR2_LINEN)
 487:Drivers/STM32F0xx_HAL_Driver/Src/stm32f0xx_hal_uart.c ****   huart->Instance->CR2 &= ~(USART_CR2_LINEN | USART_CR2_CLKEN);
 488:Drivers/STM32F0xx_HAL_Driver/Src/stm32f0xx_hal_uart.c **** #else
 489:Drivers/STM32F0xx_HAL_Driver/Src/stm32f0xx_hal_uart.c ****   huart->Instance->CR2 &= ~(USART_CR2_CLKEN);
 490:Drivers/STM32F0xx_HAL_Driver/Src/stm32f0xx_hal_uart.c **** #endif
 491:Drivers/STM32F0xx_HAL_Driver/Src/stm32f0xx_hal_uart.c **** #if defined (USART_CR3_SCEN)
 492:Drivers/STM32F0xx_HAL_Driver/Src/stm32f0xx_hal_uart.c **** #if defined (USART_CR3_IREN)
 493:Drivers/STM32F0xx_HAL_Driver/Src/stm32f0xx_hal_uart.c ****   huart->Instance->CR3 &= ~(USART_CR3_SCEN | USART_CR3_HDSEL | USART_CR3_IREN);
 494:Drivers/STM32F0xx_HAL_Driver/Src/stm32f0xx_hal_uart.c **** #else
 495:Drivers/STM32F0xx_HAL_Driver/Src/stm32f0xx_hal_uart.c ****   huart->Instance->CR3 &= ~(USART_CR3_SCEN | USART_CR3_HDSEL);
 496:Drivers/STM32F0xx_HAL_Driver/Src/stm32f0xx_hal_uart.c **** #endif
 497:Drivers/STM32F0xx_HAL_Driver/Src/stm32f0xx_hal_uart.c **** #else
 498:Drivers/STM32F0xx_HAL_Driver/Src/stm32f0xx_hal_uart.c **** #if defined (USART_CR3_IREN)
 499:Drivers/STM32F0xx_HAL_Driver/Src/stm32f0xx_hal_uart.c ****   huart->Instance->CR3 &= ~(USART_CR3_HDSEL | USART_CR3_IREN);
 500:Drivers/STM32F0xx_HAL_Driver/Src/stm32f0xx_hal_uart.c **** #else
 501:Drivers/STM32F0xx_HAL_Driver/Src/stm32f0xx_hal_uart.c ****   huart->Instance->CR3 &= ~(USART_CR3_HDSEL);
 502:Drivers/STM32F0xx_HAL_Driver/Src/stm32f0xx_hal_uart.c **** #endif
 503:Drivers/STM32F0xx_HAL_Driver/Src/stm32f0xx_hal_uart.c **** #endif
 504:Drivers/STM32F0xx_HAL_Driver/Src/stm32f0xx_hal_uart.c **** 
 505:Drivers/STM32F0xx_HAL_Driver/Src/stm32f0xx_hal_uart.c ****   if (WakeUpMethod == UART_WAKEUPMETHOD_ADDRESSMARK)
 506:Drivers/STM32F0xx_HAL_Driver/Src/stm32f0xx_hal_uart.c ****   {
 507:Drivers/STM32F0xx_HAL_Driver/Src/stm32f0xx_hal_uart.c ****     /* If address mark wake up method is chosen, set the USART address node */
 508:Drivers/STM32F0xx_HAL_Driver/Src/stm32f0xx_hal_uart.c ****     MODIFY_REG(huart->Instance->CR2, USART_CR2_ADD, ((uint32_t)Address << UART_CR2_ADDRESS_LSB_POS)
 509:Drivers/STM32F0xx_HAL_Driver/Src/stm32f0xx_hal_uart.c ****   }
 510:Drivers/STM32F0xx_HAL_Driver/Src/stm32f0xx_hal_uart.c **** 
 511:Drivers/STM32F0xx_HAL_Driver/Src/stm32f0xx_hal_uart.c ****   /* Set the wake up method by setting the WAKE bit in the CR1 register */
 512:Drivers/STM32F0xx_HAL_Driver/Src/stm32f0xx_hal_uart.c ****   MODIFY_REG(huart->Instance->CR1, USART_CR1_WAKE, WakeUpMethod);
 513:Drivers/STM32F0xx_HAL_Driver/Src/stm32f0xx_hal_uart.c **** 
 514:Drivers/STM32F0xx_HAL_Driver/Src/stm32f0xx_hal_uart.c ****   /* Enable the Peripheral */
 515:Drivers/STM32F0xx_HAL_Driver/Src/stm32f0xx_hal_uart.c ****   __HAL_UART_ENABLE(huart);
 516:Drivers/STM32F0xx_HAL_Driver/Src/stm32f0xx_hal_uart.c **** 
 517:Drivers/STM32F0xx_HAL_Driver/Src/stm32f0xx_hal_uart.c ****   /* TEACK and/or REACK to check before moving huart->gState and huart->RxState to Ready */
 518:Drivers/STM32F0xx_HAL_Driver/Src/stm32f0xx_hal_uart.c ****   return (UART_CheckIdleState(huart));
ARM GAS  /tmp/ccjaQwTr.s 			page 11


 519:Drivers/STM32F0xx_HAL_Driver/Src/stm32f0xx_hal_uart.c **** }
 520:Drivers/STM32F0xx_HAL_Driver/Src/stm32f0xx_hal_uart.c **** 
 521:Drivers/STM32F0xx_HAL_Driver/Src/stm32f0xx_hal_uart.c **** /**
 522:Drivers/STM32F0xx_HAL_Driver/Src/stm32f0xx_hal_uart.c ****   * @brief DeInitialize the UART peripheral.
 523:Drivers/STM32F0xx_HAL_Driver/Src/stm32f0xx_hal_uart.c ****   * @param huart: UART handle.
 524:Drivers/STM32F0xx_HAL_Driver/Src/stm32f0xx_hal_uart.c ****   * @retval HAL status
 525:Drivers/STM32F0xx_HAL_Driver/Src/stm32f0xx_hal_uart.c ****   */
 526:Drivers/STM32F0xx_HAL_Driver/Src/stm32f0xx_hal_uart.c **** HAL_StatusTypeDef HAL_UART_DeInit(UART_HandleTypeDef *huart)
 527:Drivers/STM32F0xx_HAL_Driver/Src/stm32f0xx_hal_uart.c **** {
  58              		.loc 1 527 0
  59              		.cfi_startproc
  60              	.LVL0:
  61              		.loc 1 527 0
  62 0000 70B5     		push	{r4, r5, r6, lr}
  63              	.LCFI0:
  64              		.cfi_def_cfa_offset 16
  65              		.cfi_offset 4, -16
  66              		.cfi_offset 5, -12
  67              		.cfi_offset 6, -8
  68              		.cfi_offset 14, -4
  69              		.loc 1 527 0
  70 0002 0500     		movs	r5, r0
 528:Drivers/STM32F0xx_HAL_Driver/Src/stm32f0xx_hal_uart.c ****   /* Check the UART handle allocation */
 529:Drivers/STM32F0xx_HAL_Driver/Src/stm32f0xx_hal_uart.c ****   if(huart == NULL)
 530:Drivers/STM32F0xx_HAL_Driver/Src/stm32f0xx_hal_uart.c ****   {
 531:Drivers/STM32F0xx_HAL_Driver/Src/stm32f0xx_hal_uart.c ****     return HAL_ERROR;
  71              		.loc 1 531 0
  72 0004 0120     		movs	r0, #1
  73              	.LVL1:
 529:Drivers/STM32F0xx_HAL_Driver/Src/stm32f0xx_hal_uart.c ****   {
  74              		.loc 1 529 0
  75 0006 002D     		cmp	r5, #0
  76 0008 16D0     		beq	.L4
 532:Drivers/STM32F0xx_HAL_Driver/Src/stm32f0xx_hal_uart.c ****   }
 533:Drivers/STM32F0xx_HAL_Driver/Src/stm32f0xx_hal_uart.c **** 
 534:Drivers/STM32F0xx_HAL_Driver/Src/stm32f0xx_hal_uart.c ****   /* Check the parameters */
 535:Drivers/STM32F0xx_HAL_Driver/Src/stm32f0xx_hal_uart.c ****   assert_param(IS_UART_INSTANCE(huart->Instance));
 536:Drivers/STM32F0xx_HAL_Driver/Src/stm32f0xx_hal_uart.c **** 
 537:Drivers/STM32F0xx_HAL_Driver/Src/stm32f0xx_hal_uart.c ****   huart->gState = HAL_UART_STATE_BUSY;
  77              		.loc 1 537 0
  78 000a 2E00     		movs	r6, r5
  79 000c 2423     		movs	r3, #36
 538:Drivers/STM32F0xx_HAL_Driver/Src/stm32f0xx_hal_uart.c **** 
 539:Drivers/STM32F0xx_HAL_Driver/Src/stm32f0xx_hal_uart.c ****   /* Disable the Peripheral */
 540:Drivers/STM32F0xx_HAL_Driver/Src/stm32f0xx_hal_uart.c ****   __HAL_UART_DISABLE(huart);
 541:Drivers/STM32F0xx_HAL_Driver/Src/stm32f0xx_hal_uart.c **** 
 542:Drivers/STM32F0xx_HAL_Driver/Src/stm32f0xx_hal_uart.c ****   huart->Instance->CR1 = 0x0;
  80              		.loc 1 542 0
  81 000e 0024     		movs	r4, #0
 537:Drivers/STM32F0xx_HAL_Driver/Src/stm32f0xx_hal_uart.c **** 
  82              		.loc 1 537 0
  83 0010 6936     		adds	r6, r6, #105
  84 0012 3370     		strb	r3, [r6]
 540:Drivers/STM32F0xx_HAL_Driver/Src/stm32f0xx_hal_uart.c **** 
  85              		.loc 1 540 0
  86 0014 2B68     		ldr	r3, [r5]
  87 0016 1A68     		ldr	r2, [r3]
ARM GAS  /tmp/ccjaQwTr.s 			page 12


  88 0018 8243     		bics	r2, r0
  89 001a 1A60     		str	r2, [r3]
 543:Drivers/STM32F0xx_HAL_Driver/Src/stm32f0xx_hal_uart.c ****   huart->Instance->CR2 = 0x0;
 544:Drivers/STM32F0xx_HAL_Driver/Src/stm32f0xx_hal_uart.c ****   huart->Instance->CR3 = 0x0;
 545:Drivers/STM32F0xx_HAL_Driver/Src/stm32f0xx_hal_uart.c **** 
 546:Drivers/STM32F0xx_HAL_Driver/Src/stm32f0xx_hal_uart.c ****   /* DeInit the low level hardware */
 547:Drivers/STM32F0xx_HAL_Driver/Src/stm32f0xx_hal_uart.c ****   HAL_UART_MspDeInit(huart);
  90              		.loc 1 547 0
  91 001c 2800     		movs	r0, r5
 542:Drivers/STM32F0xx_HAL_Driver/Src/stm32f0xx_hal_uart.c ****   huart->Instance->CR2 = 0x0;
  92              		.loc 1 542 0
  93 001e 1C60     		str	r4, [r3]
 543:Drivers/STM32F0xx_HAL_Driver/Src/stm32f0xx_hal_uart.c ****   huart->Instance->CR2 = 0x0;
  94              		.loc 1 543 0
  95 0020 5C60     		str	r4, [r3, #4]
 544:Drivers/STM32F0xx_HAL_Driver/Src/stm32f0xx_hal_uart.c **** 
  96              		.loc 1 544 0
  97 0022 9C60     		str	r4, [r3, #8]
  98              		.loc 1 547 0
  99 0024 FFF7FEFF 		bl	HAL_UART_MspDeInit
 100              	.LVL2:
 548:Drivers/STM32F0xx_HAL_Driver/Src/stm32f0xx_hal_uart.c **** 
 549:Drivers/STM32F0xx_HAL_Driver/Src/stm32f0xx_hal_uart.c ****   huart->ErrorCode = HAL_UART_ERROR_NONE;
 550:Drivers/STM32F0xx_HAL_Driver/Src/stm32f0xx_hal_uart.c ****   huart->gState = HAL_UART_STATE_RESET;
 551:Drivers/STM32F0xx_HAL_Driver/Src/stm32f0xx_hal_uart.c ****   huart->RxState = HAL_UART_STATE_RESET;
 101              		.loc 1 551 0
 102 0028 2B00     		movs	r3, r5
 552:Drivers/STM32F0xx_HAL_Driver/Src/stm32f0xx_hal_uart.c **** 
 553:Drivers/STM32F0xx_HAL_Driver/Src/stm32f0xx_hal_uart.c ****   /* Process Unlock */
 554:Drivers/STM32F0xx_HAL_Driver/Src/stm32f0xx_hal_uart.c ****   __HAL_UNLOCK(huart);
 555:Drivers/STM32F0xx_HAL_Driver/Src/stm32f0xx_hal_uart.c **** 
 556:Drivers/STM32F0xx_HAL_Driver/Src/stm32f0xx_hal_uart.c ****   return HAL_OK;
 103              		.loc 1 556 0
 104 002a 2000     		movs	r0, r4
 549:Drivers/STM32F0xx_HAL_Driver/Src/stm32f0xx_hal_uart.c ****   huart->gState = HAL_UART_STATE_RESET;
 105              		.loc 1 549 0
 106 002c EC66     		str	r4, [r5, #108]
 551:Drivers/STM32F0xx_HAL_Driver/Src/stm32f0xx_hal_uart.c **** 
 107              		.loc 1 551 0
 108 002e 6A33     		adds	r3, r3, #106
 554:Drivers/STM32F0xx_HAL_Driver/Src/stm32f0xx_hal_uart.c **** 
 109              		.loc 1 554 0
 110 0030 6835     		adds	r5, r5, #104
 111              	.LVL3:
 550:Drivers/STM32F0xx_HAL_Driver/Src/stm32f0xx_hal_uart.c ****   huart->RxState = HAL_UART_STATE_RESET;
 112              		.loc 1 550 0
 113 0032 3470     		strb	r4, [r6]
 551:Drivers/STM32F0xx_HAL_Driver/Src/stm32f0xx_hal_uart.c **** 
 114              		.loc 1 551 0
 115 0034 1C70     		strb	r4, [r3]
 554:Drivers/STM32F0xx_HAL_Driver/Src/stm32f0xx_hal_uart.c **** 
 116              		.loc 1 554 0
 117 0036 2C70     		strb	r4, [r5]
 118              	.LVL4:
 119              	.L4:
 557:Drivers/STM32F0xx_HAL_Driver/Src/stm32f0xx_hal_uart.c **** }
 120              		.loc 1 557 0
ARM GAS  /tmp/ccjaQwTr.s 			page 13


 121              		@ sp needed
 122 0038 70BD     		pop	{r4, r5, r6, pc}
 123              		.cfi_endproc
 124              	.LFE38:
 126              		.section	.text.HAL_UART_Transmit_IT,"ax",%progbits
 127              		.align	1
 128              		.global	HAL_UART_Transmit_IT
 129              		.syntax unified
 130              		.code	16
 131              		.thumb_func
 132              		.fpu softvfp
 134              	HAL_UART_Transmit_IT:
 135              	.LFB43:
 558:Drivers/STM32F0xx_HAL_Driver/Src/stm32f0xx_hal_uart.c **** 
 559:Drivers/STM32F0xx_HAL_Driver/Src/stm32f0xx_hal_uart.c **** /**
 560:Drivers/STM32F0xx_HAL_Driver/Src/stm32f0xx_hal_uart.c ****   * @brief Initialize the UART MSP.
 561:Drivers/STM32F0xx_HAL_Driver/Src/stm32f0xx_hal_uart.c ****   * @param huart: UART handle.
 562:Drivers/STM32F0xx_HAL_Driver/Src/stm32f0xx_hal_uart.c ****   * @retval None
 563:Drivers/STM32F0xx_HAL_Driver/Src/stm32f0xx_hal_uart.c ****   */
 564:Drivers/STM32F0xx_HAL_Driver/Src/stm32f0xx_hal_uart.c ****  __weak void HAL_UART_MspInit(UART_HandleTypeDef *huart)
 565:Drivers/STM32F0xx_HAL_Driver/Src/stm32f0xx_hal_uart.c **** {
 566:Drivers/STM32F0xx_HAL_Driver/Src/stm32f0xx_hal_uart.c ****   /* Prevent unused argument(s) compilation warning */
 567:Drivers/STM32F0xx_HAL_Driver/Src/stm32f0xx_hal_uart.c ****   UNUSED(huart);
 568:Drivers/STM32F0xx_HAL_Driver/Src/stm32f0xx_hal_uart.c **** 
 569:Drivers/STM32F0xx_HAL_Driver/Src/stm32f0xx_hal_uart.c ****   /* NOTE : This function should not be modified, when the callback is needed,
 570:Drivers/STM32F0xx_HAL_Driver/Src/stm32f0xx_hal_uart.c ****             the HAL_UART_MspInit can be implemented in the user file
 571:Drivers/STM32F0xx_HAL_Driver/Src/stm32f0xx_hal_uart.c ****    */
 572:Drivers/STM32F0xx_HAL_Driver/Src/stm32f0xx_hal_uart.c **** }
 573:Drivers/STM32F0xx_HAL_Driver/Src/stm32f0xx_hal_uart.c **** 
 574:Drivers/STM32F0xx_HAL_Driver/Src/stm32f0xx_hal_uart.c **** /**
 575:Drivers/STM32F0xx_HAL_Driver/Src/stm32f0xx_hal_uart.c ****   * @brief DeInitialize the UART MSP.
 576:Drivers/STM32F0xx_HAL_Driver/Src/stm32f0xx_hal_uart.c ****   * @param huart: UART handle.
 577:Drivers/STM32F0xx_HAL_Driver/Src/stm32f0xx_hal_uart.c ****   * @retval None
 578:Drivers/STM32F0xx_HAL_Driver/Src/stm32f0xx_hal_uart.c ****   */
 579:Drivers/STM32F0xx_HAL_Driver/Src/stm32f0xx_hal_uart.c ****  __weak void HAL_UART_MspDeInit(UART_HandleTypeDef *huart)
 580:Drivers/STM32F0xx_HAL_Driver/Src/stm32f0xx_hal_uart.c **** {
 581:Drivers/STM32F0xx_HAL_Driver/Src/stm32f0xx_hal_uart.c ****   /* Prevent unused argument(s) compilation warning */
 582:Drivers/STM32F0xx_HAL_Driver/Src/stm32f0xx_hal_uart.c ****   UNUSED(huart);
 583:Drivers/STM32F0xx_HAL_Driver/Src/stm32f0xx_hal_uart.c **** 
 584:Drivers/STM32F0xx_HAL_Driver/Src/stm32f0xx_hal_uart.c ****   /* NOTE : This function should not be modified, when the callback is needed,
 585:Drivers/STM32F0xx_HAL_Driver/Src/stm32f0xx_hal_uart.c ****             the HAL_UART_MspDeInit can be implemented in the user file
 586:Drivers/STM32F0xx_HAL_Driver/Src/stm32f0xx_hal_uart.c ****    */
 587:Drivers/STM32F0xx_HAL_Driver/Src/stm32f0xx_hal_uart.c **** }
 588:Drivers/STM32F0xx_HAL_Driver/Src/stm32f0xx_hal_uart.c **** 
 589:Drivers/STM32F0xx_HAL_Driver/Src/stm32f0xx_hal_uart.c **** /**
 590:Drivers/STM32F0xx_HAL_Driver/Src/stm32f0xx_hal_uart.c ****   * @}
 591:Drivers/STM32F0xx_HAL_Driver/Src/stm32f0xx_hal_uart.c ****   */
 592:Drivers/STM32F0xx_HAL_Driver/Src/stm32f0xx_hal_uart.c **** 
 593:Drivers/STM32F0xx_HAL_Driver/Src/stm32f0xx_hal_uart.c **** /** @defgroup UART_Exported_Functions_Group2 IO operation functions
 594:Drivers/STM32F0xx_HAL_Driver/Src/stm32f0xx_hal_uart.c ****   *  @brief UART Transmit/Receive functions
 595:Drivers/STM32F0xx_HAL_Driver/Src/stm32f0xx_hal_uart.c ****   *
 596:Drivers/STM32F0xx_HAL_Driver/Src/stm32f0xx_hal_uart.c **** @verbatim
 597:Drivers/STM32F0xx_HAL_Driver/Src/stm32f0xx_hal_uart.c ****  ===============================================================================
 598:Drivers/STM32F0xx_HAL_Driver/Src/stm32f0xx_hal_uart.c ****                       ##### IO operation functions #####
 599:Drivers/STM32F0xx_HAL_Driver/Src/stm32f0xx_hal_uart.c ****  ===============================================================================
 600:Drivers/STM32F0xx_HAL_Driver/Src/stm32f0xx_hal_uart.c ****     This subsection provides a set of functions allowing to manage the UART asynchronous
 601:Drivers/STM32F0xx_HAL_Driver/Src/stm32f0xx_hal_uart.c ****     and Half duplex data transfers.
ARM GAS  /tmp/ccjaQwTr.s 			page 14


 602:Drivers/STM32F0xx_HAL_Driver/Src/stm32f0xx_hal_uart.c **** 
 603:Drivers/STM32F0xx_HAL_Driver/Src/stm32f0xx_hal_uart.c ****     (#) There are two mode of transfer:
 604:Drivers/STM32F0xx_HAL_Driver/Src/stm32f0xx_hal_uart.c ****        (+) Blocking mode: The communication is performed in polling mode.
 605:Drivers/STM32F0xx_HAL_Driver/Src/stm32f0xx_hal_uart.c ****             The HAL status of all data processing is returned by the same function
 606:Drivers/STM32F0xx_HAL_Driver/Src/stm32f0xx_hal_uart.c ****             after finishing transfer.
 607:Drivers/STM32F0xx_HAL_Driver/Src/stm32f0xx_hal_uart.c ****        (+) No-Blocking mode: The communication is performed using Interrupts
 608:Drivers/STM32F0xx_HAL_Driver/Src/stm32f0xx_hal_uart.c ****            or DMA, These API's return the HAL status.
 609:Drivers/STM32F0xx_HAL_Driver/Src/stm32f0xx_hal_uart.c ****            The end of the data processing will be indicated through the
 610:Drivers/STM32F0xx_HAL_Driver/Src/stm32f0xx_hal_uart.c ****            dedicated UART IRQ when using Interrupt mode or the DMA IRQ when
 611:Drivers/STM32F0xx_HAL_Driver/Src/stm32f0xx_hal_uart.c ****            using DMA mode.
 612:Drivers/STM32F0xx_HAL_Driver/Src/stm32f0xx_hal_uart.c ****            The HAL_UART_TxCpltCallback(), HAL_UART_RxCpltCallback() user callbacks
 613:Drivers/STM32F0xx_HAL_Driver/Src/stm32f0xx_hal_uart.c ****            will be executed respectively at the end of the transmit or Receive process
 614:Drivers/STM32F0xx_HAL_Driver/Src/stm32f0xx_hal_uart.c ****            The HAL_UART_ErrorCallback()user callback will be executed when a communication error is
 615:Drivers/STM32F0xx_HAL_Driver/Src/stm32f0xx_hal_uart.c **** 
 616:Drivers/STM32F0xx_HAL_Driver/Src/stm32f0xx_hal_uart.c ****     (#) Blocking mode API's are :
 617:Drivers/STM32F0xx_HAL_Driver/Src/stm32f0xx_hal_uart.c ****         (+) HAL_UART_Transmit()
 618:Drivers/STM32F0xx_HAL_Driver/Src/stm32f0xx_hal_uart.c ****         (+) HAL_UART_Receive()
 619:Drivers/STM32F0xx_HAL_Driver/Src/stm32f0xx_hal_uart.c **** 
 620:Drivers/STM32F0xx_HAL_Driver/Src/stm32f0xx_hal_uart.c ****     (#) Non-Blocking mode API's with Interrupt are :
 621:Drivers/STM32F0xx_HAL_Driver/Src/stm32f0xx_hal_uart.c ****         (+) HAL_UART_Transmit_IT()
 622:Drivers/STM32F0xx_HAL_Driver/Src/stm32f0xx_hal_uart.c ****         (+) HAL_UART_Receive_IT()
 623:Drivers/STM32F0xx_HAL_Driver/Src/stm32f0xx_hal_uart.c ****         (+) HAL_UART_IRQHandler()
 624:Drivers/STM32F0xx_HAL_Driver/Src/stm32f0xx_hal_uart.c **** 
 625:Drivers/STM32F0xx_HAL_Driver/Src/stm32f0xx_hal_uart.c ****     (#) No-Blocking mode API's with DMA are :
 626:Drivers/STM32F0xx_HAL_Driver/Src/stm32f0xx_hal_uart.c ****         (+) HAL_UART_Transmit_DMA()
 627:Drivers/STM32F0xx_HAL_Driver/Src/stm32f0xx_hal_uart.c ****         (+) HAL_UART_Receive_DMA()
 628:Drivers/STM32F0xx_HAL_Driver/Src/stm32f0xx_hal_uart.c ****         (+) HAL_UART_DMAPause()
 629:Drivers/STM32F0xx_HAL_Driver/Src/stm32f0xx_hal_uart.c ****         (+) HAL_UART_DMAResume()
 630:Drivers/STM32F0xx_HAL_Driver/Src/stm32f0xx_hal_uart.c ****         (+) HAL_UART_DMAStop()
 631:Drivers/STM32F0xx_HAL_Driver/Src/stm32f0xx_hal_uart.c **** 
 632:Drivers/STM32F0xx_HAL_Driver/Src/stm32f0xx_hal_uart.c ****     (#) A set of Transfer Complete Callbacks are provided in No_Blocking mode:
 633:Drivers/STM32F0xx_HAL_Driver/Src/stm32f0xx_hal_uart.c ****         (+) HAL_UART_TxHalfCpltCallback()
 634:Drivers/STM32F0xx_HAL_Driver/Src/stm32f0xx_hal_uart.c ****         (+) HAL_UART_TxCpltCallback()
 635:Drivers/STM32F0xx_HAL_Driver/Src/stm32f0xx_hal_uart.c ****         (+) HAL_UART_RxHalfCpltCallback()
 636:Drivers/STM32F0xx_HAL_Driver/Src/stm32f0xx_hal_uart.c ****         (+) HAL_UART_RxCpltCallback()
 637:Drivers/STM32F0xx_HAL_Driver/Src/stm32f0xx_hal_uart.c ****         (+) HAL_UART_ErrorCallback()
 638:Drivers/STM32F0xx_HAL_Driver/Src/stm32f0xx_hal_uart.c **** 
 639:Drivers/STM32F0xx_HAL_Driver/Src/stm32f0xx_hal_uart.c **** 
 640:Drivers/STM32F0xx_HAL_Driver/Src/stm32f0xx_hal_uart.c ****     -@- In the Half duplex communication, it is forbidden to run the transmit
 641:Drivers/STM32F0xx_HAL_Driver/Src/stm32f0xx_hal_uart.c ****         and receive process in parallel, the UART state HAL_UART_STATE_BUSY_TX_RX can't be useful.
 642:Drivers/STM32F0xx_HAL_Driver/Src/stm32f0xx_hal_uart.c **** 
 643:Drivers/STM32F0xx_HAL_Driver/Src/stm32f0xx_hal_uart.c **** @endverbatim
 644:Drivers/STM32F0xx_HAL_Driver/Src/stm32f0xx_hal_uart.c ****   * @{
 645:Drivers/STM32F0xx_HAL_Driver/Src/stm32f0xx_hal_uart.c ****   */
 646:Drivers/STM32F0xx_HAL_Driver/Src/stm32f0xx_hal_uart.c **** 
 647:Drivers/STM32F0xx_HAL_Driver/Src/stm32f0xx_hal_uart.c **** /**
 648:Drivers/STM32F0xx_HAL_Driver/Src/stm32f0xx_hal_uart.c ****   * @brief Send an amount of data in blocking mode.
 649:Drivers/STM32F0xx_HAL_Driver/Src/stm32f0xx_hal_uart.c ****   * @param huart: UART handle.
 650:Drivers/STM32F0xx_HAL_Driver/Src/stm32f0xx_hal_uart.c ****   * @param pData: Pointer to data buffer.
 651:Drivers/STM32F0xx_HAL_Driver/Src/stm32f0xx_hal_uart.c ****   * @param Size: Amount of data to be sent.
 652:Drivers/STM32F0xx_HAL_Driver/Src/stm32f0xx_hal_uart.c ****   * @param Timeout: Timeout duration.
 653:Drivers/STM32F0xx_HAL_Driver/Src/stm32f0xx_hal_uart.c ****   * @note   When UART parity is not enabled (PCE = 0), and Word Length is configured to 9 bits (M1-
 654:Drivers/STM32F0xx_HAL_Driver/Src/stm32f0xx_hal_uart.c ****   *         address of user data buffer containing data to be sent, should be aligned on a half wor
 655:Drivers/STM32F0xx_HAL_Driver/Src/stm32f0xx_hal_uart.c ****   *         (as sent data will be handled using u16 pointer cast). Depending on compilation chain,
 656:Drivers/STM32F0xx_HAL_Driver/Src/stm32f0xx_hal_uart.c ****   *         use of specific alignment compilation directives or pragmas might be required to ensure
 657:Drivers/STM32F0xx_HAL_Driver/Src/stm32f0xx_hal_uart.c ****   * @retval HAL status
 658:Drivers/STM32F0xx_HAL_Driver/Src/stm32f0xx_hal_uart.c ****   */
ARM GAS  /tmp/ccjaQwTr.s 			page 15


 659:Drivers/STM32F0xx_HAL_Driver/Src/stm32f0xx_hal_uart.c **** HAL_StatusTypeDef HAL_UART_Transmit(UART_HandleTypeDef *huart, uint8_t *pData, uint16_t Size, uint3
 660:Drivers/STM32F0xx_HAL_Driver/Src/stm32f0xx_hal_uart.c **** {
 661:Drivers/STM32F0xx_HAL_Driver/Src/stm32f0xx_hal_uart.c ****    uint16_t* tmp;
 662:Drivers/STM32F0xx_HAL_Driver/Src/stm32f0xx_hal_uart.c **** 
 663:Drivers/STM32F0xx_HAL_Driver/Src/stm32f0xx_hal_uart.c ****   /* Check that a Tx process is not already ongoing */
 664:Drivers/STM32F0xx_HAL_Driver/Src/stm32f0xx_hal_uart.c ****   if(huart->gState == HAL_UART_STATE_READY)
 665:Drivers/STM32F0xx_HAL_Driver/Src/stm32f0xx_hal_uart.c ****   {
 666:Drivers/STM32F0xx_HAL_Driver/Src/stm32f0xx_hal_uart.c ****     if((pData == NULL ) || (Size == 0))
 667:Drivers/STM32F0xx_HAL_Driver/Src/stm32f0xx_hal_uart.c ****     {
 668:Drivers/STM32F0xx_HAL_Driver/Src/stm32f0xx_hal_uart.c ****       return  HAL_ERROR;
 669:Drivers/STM32F0xx_HAL_Driver/Src/stm32f0xx_hal_uart.c ****     }
 670:Drivers/STM32F0xx_HAL_Driver/Src/stm32f0xx_hal_uart.c **** 
 671:Drivers/STM32F0xx_HAL_Driver/Src/stm32f0xx_hal_uart.c ****     /* In case of 9bits/No Parity transfer, pData buffer provided as input paramter 
 672:Drivers/STM32F0xx_HAL_Driver/Src/stm32f0xx_hal_uart.c ****        should be aligned on a u16 frontier, as data to be filled into TDR will be 
 673:Drivers/STM32F0xx_HAL_Driver/Src/stm32f0xx_hal_uart.c ****        handled through a u16 cast. */
 674:Drivers/STM32F0xx_HAL_Driver/Src/stm32f0xx_hal_uart.c ****     if ((huart->Init.WordLength == UART_WORDLENGTH_9B) && (huart->Init.Parity == UART_PARITY_NONE))
 675:Drivers/STM32F0xx_HAL_Driver/Src/stm32f0xx_hal_uart.c ****     {
 676:Drivers/STM32F0xx_HAL_Driver/Src/stm32f0xx_hal_uart.c ****       if((((uint32_t)pData)&1) != 0)
 677:Drivers/STM32F0xx_HAL_Driver/Src/stm32f0xx_hal_uart.c ****       {
 678:Drivers/STM32F0xx_HAL_Driver/Src/stm32f0xx_hal_uart.c ****         return  HAL_ERROR;
 679:Drivers/STM32F0xx_HAL_Driver/Src/stm32f0xx_hal_uart.c ****       }
 680:Drivers/STM32F0xx_HAL_Driver/Src/stm32f0xx_hal_uart.c ****     }
 681:Drivers/STM32F0xx_HAL_Driver/Src/stm32f0xx_hal_uart.c **** 
 682:Drivers/STM32F0xx_HAL_Driver/Src/stm32f0xx_hal_uart.c ****     /* Process Locked */
 683:Drivers/STM32F0xx_HAL_Driver/Src/stm32f0xx_hal_uart.c ****     __HAL_LOCK(huart);
 684:Drivers/STM32F0xx_HAL_Driver/Src/stm32f0xx_hal_uart.c **** 
 685:Drivers/STM32F0xx_HAL_Driver/Src/stm32f0xx_hal_uart.c ****     huart->ErrorCode = HAL_UART_ERROR_NONE;
 686:Drivers/STM32F0xx_HAL_Driver/Src/stm32f0xx_hal_uart.c ****     huart->gState = HAL_UART_STATE_BUSY_TX;
 687:Drivers/STM32F0xx_HAL_Driver/Src/stm32f0xx_hal_uart.c **** 
 688:Drivers/STM32F0xx_HAL_Driver/Src/stm32f0xx_hal_uart.c ****     huart->TxXferSize = Size;
 689:Drivers/STM32F0xx_HAL_Driver/Src/stm32f0xx_hal_uart.c ****     huart->TxXferCount = Size;
 690:Drivers/STM32F0xx_HAL_Driver/Src/stm32f0xx_hal_uart.c ****     while(huart->TxXferCount > 0)
 691:Drivers/STM32F0xx_HAL_Driver/Src/stm32f0xx_hal_uart.c ****     {
 692:Drivers/STM32F0xx_HAL_Driver/Src/stm32f0xx_hal_uart.c ****       huart->TxXferCount--;
 693:Drivers/STM32F0xx_HAL_Driver/Src/stm32f0xx_hal_uart.c ****       if(UART_WaitOnFlagUntilTimeout(huart, UART_FLAG_TXE, RESET, Timeout) != HAL_OK)
 694:Drivers/STM32F0xx_HAL_Driver/Src/stm32f0xx_hal_uart.c ****       {
 695:Drivers/STM32F0xx_HAL_Driver/Src/stm32f0xx_hal_uart.c ****         return HAL_TIMEOUT;
 696:Drivers/STM32F0xx_HAL_Driver/Src/stm32f0xx_hal_uart.c ****       }
 697:Drivers/STM32F0xx_HAL_Driver/Src/stm32f0xx_hal_uart.c ****       if ((huart->Init.WordLength == UART_WORDLENGTH_9B) && (huart->Init.Parity == UART_PARITY_NONE
 698:Drivers/STM32F0xx_HAL_Driver/Src/stm32f0xx_hal_uart.c ****       {
 699:Drivers/STM32F0xx_HAL_Driver/Src/stm32f0xx_hal_uart.c ****         tmp = (uint16_t*) pData;
 700:Drivers/STM32F0xx_HAL_Driver/Src/stm32f0xx_hal_uart.c ****         huart->Instance->TDR = (*tmp & (uint16_t)0x01FF);
 701:Drivers/STM32F0xx_HAL_Driver/Src/stm32f0xx_hal_uart.c ****         pData += 2;
 702:Drivers/STM32F0xx_HAL_Driver/Src/stm32f0xx_hal_uart.c ****       }
 703:Drivers/STM32F0xx_HAL_Driver/Src/stm32f0xx_hal_uart.c ****       else
 704:Drivers/STM32F0xx_HAL_Driver/Src/stm32f0xx_hal_uart.c ****       {
 705:Drivers/STM32F0xx_HAL_Driver/Src/stm32f0xx_hal_uart.c ****         huart->Instance->TDR = (*pData++ & (uint8_t)0xFF);
 706:Drivers/STM32F0xx_HAL_Driver/Src/stm32f0xx_hal_uart.c ****       }
 707:Drivers/STM32F0xx_HAL_Driver/Src/stm32f0xx_hal_uart.c ****     }
 708:Drivers/STM32F0xx_HAL_Driver/Src/stm32f0xx_hal_uart.c ****     if(UART_WaitOnFlagUntilTimeout(huart, UART_FLAG_TC, RESET, Timeout) != HAL_OK)
 709:Drivers/STM32F0xx_HAL_Driver/Src/stm32f0xx_hal_uart.c ****     {
 710:Drivers/STM32F0xx_HAL_Driver/Src/stm32f0xx_hal_uart.c ****       return HAL_TIMEOUT;
 711:Drivers/STM32F0xx_HAL_Driver/Src/stm32f0xx_hal_uart.c ****     }
 712:Drivers/STM32F0xx_HAL_Driver/Src/stm32f0xx_hal_uart.c **** 
 713:Drivers/STM32F0xx_HAL_Driver/Src/stm32f0xx_hal_uart.c ****     /* At end of Tx process, restore huart->gState to Ready */
 714:Drivers/STM32F0xx_HAL_Driver/Src/stm32f0xx_hal_uart.c ****     huart->gState = HAL_UART_STATE_READY;
 715:Drivers/STM32F0xx_HAL_Driver/Src/stm32f0xx_hal_uart.c **** 
ARM GAS  /tmp/ccjaQwTr.s 			page 16


 716:Drivers/STM32F0xx_HAL_Driver/Src/stm32f0xx_hal_uart.c ****     /* Process Unlocked */
 717:Drivers/STM32F0xx_HAL_Driver/Src/stm32f0xx_hal_uart.c ****     __HAL_UNLOCK(huart);
 718:Drivers/STM32F0xx_HAL_Driver/Src/stm32f0xx_hal_uart.c **** 
 719:Drivers/STM32F0xx_HAL_Driver/Src/stm32f0xx_hal_uart.c ****     return HAL_OK;
 720:Drivers/STM32F0xx_HAL_Driver/Src/stm32f0xx_hal_uart.c ****   }
 721:Drivers/STM32F0xx_HAL_Driver/Src/stm32f0xx_hal_uart.c ****   else
 722:Drivers/STM32F0xx_HAL_Driver/Src/stm32f0xx_hal_uart.c ****   {
 723:Drivers/STM32F0xx_HAL_Driver/Src/stm32f0xx_hal_uart.c ****     return HAL_BUSY;
 724:Drivers/STM32F0xx_HAL_Driver/Src/stm32f0xx_hal_uart.c ****   }
 725:Drivers/STM32F0xx_HAL_Driver/Src/stm32f0xx_hal_uart.c **** }
 726:Drivers/STM32F0xx_HAL_Driver/Src/stm32f0xx_hal_uart.c **** 
 727:Drivers/STM32F0xx_HAL_Driver/Src/stm32f0xx_hal_uart.c **** /**
 728:Drivers/STM32F0xx_HAL_Driver/Src/stm32f0xx_hal_uart.c ****   * @brief Receive an amount of data in blocking mode.
 729:Drivers/STM32F0xx_HAL_Driver/Src/stm32f0xx_hal_uart.c ****   * @param huart: UART handle.
 730:Drivers/STM32F0xx_HAL_Driver/Src/stm32f0xx_hal_uart.c ****   * @param pData: pointer to data buffer.
 731:Drivers/STM32F0xx_HAL_Driver/Src/stm32f0xx_hal_uart.c ****   * @param Size: amount of data to be received.
 732:Drivers/STM32F0xx_HAL_Driver/Src/stm32f0xx_hal_uart.c ****   * @param Timeout: Timeout duration.
 733:Drivers/STM32F0xx_HAL_Driver/Src/stm32f0xx_hal_uart.c ****   * @note   When UART parity is not enabled (PCE = 0), and Word Length is configured to 9 bits (M1-
 734:Drivers/STM32F0xx_HAL_Driver/Src/stm32f0xx_hal_uart.c ****   *         address of user data buffer for storing data to be received, should be aligned on a hal
 735:Drivers/STM32F0xx_HAL_Driver/Src/stm32f0xx_hal_uart.c ****   *         (as received data will be handled using u16 pointer cast). Depending on compilation cha
 736:Drivers/STM32F0xx_HAL_Driver/Src/stm32f0xx_hal_uart.c ****   *         use of specific alignment compilation directives or pragmas might be required to ensure
 737:Drivers/STM32F0xx_HAL_Driver/Src/stm32f0xx_hal_uart.c ****   * @retval HAL status
 738:Drivers/STM32F0xx_HAL_Driver/Src/stm32f0xx_hal_uart.c ****   */
 739:Drivers/STM32F0xx_HAL_Driver/Src/stm32f0xx_hal_uart.c **** HAL_StatusTypeDef HAL_UART_Receive(UART_HandleTypeDef *huart, uint8_t *pData, uint16_t Size, uint32
 740:Drivers/STM32F0xx_HAL_Driver/Src/stm32f0xx_hal_uart.c **** {
 741:Drivers/STM32F0xx_HAL_Driver/Src/stm32f0xx_hal_uart.c ****   uint16_t* tmp;
 742:Drivers/STM32F0xx_HAL_Driver/Src/stm32f0xx_hal_uart.c ****   uint16_t uhMask;
 743:Drivers/STM32F0xx_HAL_Driver/Src/stm32f0xx_hal_uart.c **** 
 744:Drivers/STM32F0xx_HAL_Driver/Src/stm32f0xx_hal_uart.c ****   /* Check that a Rx process is not already ongoing */
 745:Drivers/STM32F0xx_HAL_Driver/Src/stm32f0xx_hal_uart.c ****   if(huart->RxState == HAL_UART_STATE_READY)
 746:Drivers/STM32F0xx_HAL_Driver/Src/stm32f0xx_hal_uart.c ****   {
 747:Drivers/STM32F0xx_HAL_Driver/Src/stm32f0xx_hal_uart.c ****     if((pData == NULL ) || (Size == 0))
 748:Drivers/STM32F0xx_HAL_Driver/Src/stm32f0xx_hal_uart.c ****     {
 749:Drivers/STM32F0xx_HAL_Driver/Src/stm32f0xx_hal_uart.c ****       return  HAL_ERROR;
 750:Drivers/STM32F0xx_HAL_Driver/Src/stm32f0xx_hal_uart.c ****     }
 751:Drivers/STM32F0xx_HAL_Driver/Src/stm32f0xx_hal_uart.c **** 
 752:Drivers/STM32F0xx_HAL_Driver/Src/stm32f0xx_hal_uart.c ****     /* In case of 9bits/No Parity transfer, pData buffer provided as input paramter 
 753:Drivers/STM32F0xx_HAL_Driver/Src/stm32f0xx_hal_uart.c ****        should be aligned on a u16 frontier, as data to be received from RDR will be 
 754:Drivers/STM32F0xx_HAL_Driver/Src/stm32f0xx_hal_uart.c ****        handled through a u16 cast. */
 755:Drivers/STM32F0xx_HAL_Driver/Src/stm32f0xx_hal_uart.c ****     if ((huart->Init.WordLength == UART_WORDLENGTH_9B) && (huart->Init.Parity == UART_PARITY_NONE))
 756:Drivers/STM32F0xx_HAL_Driver/Src/stm32f0xx_hal_uart.c ****     {
 757:Drivers/STM32F0xx_HAL_Driver/Src/stm32f0xx_hal_uart.c ****       if((((uint32_t)pData)&1) != 0)
 758:Drivers/STM32F0xx_HAL_Driver/Src/stm32f0xx_hal_uart.c ****       {
 759:Drivers/STM32F0xx_HAL_Driver/Src/stm32f0xx_hal_uart.c ****         return  HAL_ERROR;
 760:Drivers/STM32F0xx_HAL_Driver/Src/stm32f0xx_hal_uart.c ****       }
 761:Drivers/STM32F0xx_HAL_Driver/Src/stm32f0xx_hal_uart.c ****     }
 762:Drivers/STM32F0xx_HAL_Driver/Src/stm32f0xx_hal_uart.c **** 
 763:Drivers/STM32F0xx_HAL_Driver/Src/stm32f0xx_hal_uart.c ****     /* Process Locked */
 764:Drivers/STM32F0xx_HAL_Driver/Src/stm32f0xx_hal_uart.c ****     __HAL_LOCK(huart);
 765:Drivers/STM32F0xx_HAL_Driver/Src/stm32f0xx_hal_uart.c **** 
 766:Drivers/STM32F0xx_HAL_Driver/Src/stm32f0xx_hal_uart.c ****     huart->ErrorCode = HAL_UART_ERROR_NONE;
 767:Drivers/STM32F0xx_HAL_Driver/Src/stm32f0xx_hal_uart.c ****     huart->RxState = HAL_UART_STATE_BUSY_RX;
 768:Drivers/STM32F0xx_HAL_Driver/Src/stm32f0xx_hal_uart.c **** 
 769:Drivers/STM32F0xx_HAL_Driver/Src/stm32f0xx_hal_uart.c ****     huart->RxXferSize = Size;
 770:Drivers/STM32F0xx_HAL_Driver/Src/stm32f0xx_hal_uart.c ****     huart->RxXferCount = Size;
 771:Drivers/STM32F0xx_HAL_Driver/Src/stm32f0xx_hal_uart.c **** 
 772:Drivers/STM32F0xx_HAL_Driver/Src/stm32f0xx_hal_uart.c ****     /* Computation of UART mask to apply to RDR register */
ARM GAS  /tmp/ccjaQwTr.s 			page 17


 773:Drivers/STM32F0xx_HAL_Driver/Src/stm32f0xx_hal_uart.c ****     UART_MASK_COMPUTATION(huart);
 774:Drivers/STM32F0xx_HAL_Driver/Src/stm32f0xx_hal_uart.c ****     uhMask = huart->Mask;
 775:Drivers/STM32F0xx_HAL_Driver/Src/stm32f0xx_hal_uart.c **** 
 776:Drivers/STM32F0xx_HAL_Driver/Src/stm32f0xx_hal_uart.c ****     /* as long as data have to be received */
 777:Drivers/STM32F0xx_HAL_Driver/Src/stm32f0xx_hal_uart.c ****     while(huart->RxXferCount > 0)
 778:Drivers/STM32F0xx_HAL_Driver/Src/stm32f0xx_hal_uart.c ****     {
 779:Drivers/STM32F0xx_HAL_Driver/Src/stm32f0xx_hal_uart.c ****       huart->RxXferCount--;
 780:Drivers/STM32F0xx_HAL_Driver/Src/stm32f0xx_hal_uart.c ****       if(UART_WaitOnFlagUntilTimeout(huart, UART_FLAG_RXNE, RESET, Timeout) != HAL_OK)
 781:Drivers/STM32F0xx_HAL_Driver/Src/stm32f0xx_hal_uart.c ****       {
 782:Drivers/STM32F0xx_HAL_Driver/Src/stm32f0xx_hal_uart.c ****         return HAL_TIMEOUT;
 783:Drivers/STM32F0xx_HAL_Driver/Src/stm32f0xx_hal_uart.c ****       }
 784:Drivers/STM32F0xx_HAL_Driver/Src/stm32f0xx_hal_uart.c ****       if ((huart->Init.WordLength == UART_WORDLENGTH_9B) && (huart->Init.Parity == UART_PARITY_NONE
 785:Drivers/STM32F0xx_HAL_Driver/Src/stm32f0xx_hal_uart.c ****       {
 786:Drivers/STM32F0xx_HAL_Driver/Src/stm32f0xx_hal_uart.c ****         tmp = (uint16_t*) pData ;
 787:Drivers/STM32F0xx_HAL_Driver/Src/stm32f0xx_hal_uart.c ****         *tmp = (uint16_t)(huart->Instance->RDR & uhMask);
 788:Drivers/STM32F0xx_HAL_Driver/Src/stm32f0xx_hal_uart.c ****         pData +=2;
 789:Drivers/STM32F0xx_HAL_Driver/Src/stm32f0xx_hal_uart.c ****       }
 790:Drivers/STM32F0xx_HAL_Driver/Src/stm32f0xx_hal_uart.c ****       else
 791:Drivers/STM32F0xx_HAL_Driver/Src/stm32f0xx_hal_uart.c ****       {
 792:Drivers/STM32F0xx_HAL_Driver/Src/stm32f0xx_hal_uart.c ****         *pData++ = (uint8_t)(huart->Instance->RDR & (uint8_t)uhMask);
 793:Drivers/STM32F0xx_HAL_Driver/Src/stm32f0xx_hal_uart.c ****       }
 794:Drivers/STM32F0xx_HAL_Driver/Src/stm32f0xx_hal_uart.c ****     }
 795:Drivers/STM32F0xx_HAL_Driver/Src/stm32f0xx_hal_uart.c **** 
 796:Drivers/STM32F0xx_HAL_Driver/Src/stm32f0xx_hal_uart.c ****     /* At end of Rx process, restore huart->RxState to Ready */
 797:Drivers/STM32F0xx_HAL_Driver/Src/stm32f0xx_hal_uart.c ****     huart->RxState = HAL_UART_STATE_READY;
 798:Drivers/STM32F0xx_HAL_Driver/Src/stm32f0xx_hal_uart.c **** 
 799:Drivers/STM32F0xx_HAL_Driver/Src/stm32f0xx_hal_uart.c ****     /* Process Unlocked */
 800:Drivers/STM32F0xx_HAL_Driver/Src/stm32f0xx_hal_uart.c ****     __HAL_UNLOCK(huart);
 801:Drivers/STM32F0xx_HAL_Driver/Src/stm32f0xx_hal_uart.c **** 
 802:Drivers/STM32F0xx_HAL_Driver/Src/stm32f0xx_hal_uart.c ****     return HAL_OK;
 803:Drivers/STM32F0xx_HAL_Driver/Src/stm32f0xx_hal_uart.c ****   }
 804:Drivers/STM32F0xx_HAL_Driver/Src/stm32f0xx_hal_uart.c ****   else
 805:Drivers/STM32F0xx_HAL_Driver/Src/stm32f0xx_hal_uart.c ****   {
 806:Drivers/STM32F0xx_HAL_Driver/Src/stm32f0xx_hal_uart.c ****     return HAL_BUSY;
 807:Drivers/STM32F0xx_HAL_Driver/Src/stm32f0xx_hal_uart.c ****   }
 808:Drivers/STM32F0xx_HAL_Driver/Src/stm32f0xx_hal_uart.c **** }
 809:Drivers/STM32F0xx_HAL_Driver/Src/stm32f0xx_hal_uart.c **** 
 810:Drivers/STM32F0xx_HAL_Driver/Src/stm32f0xx_hal_uart.c **** /**
 811:Drivers/STM32F0xx_HAL_Driver/Src/stm32f0xx_hal_uart.c ****   * @brief Send an amount of data in interrupt mode.
 812:Drivers/STM32F0xx_HAL_Driver/Src/stm32f0xx_hal_uart.c ****   * @param huart: UART handle.
 813:Drivers/STM32F0xx_HAL_Driver/Src/stm32f0xx_hal_uart.c ****   * @param pData: pointer to data buffer.
 814:Drivers/STM32F0xx_HAL_Driver/Src/stm32f0xx_hal_uart.c ****   * @param Size: amount of data to be sent.
 815:Drivers/STM32F0xx_HAL_Driver/Src/stm32f0xx_hal_uart.c ****   * @note   When UART parity is not enabled (PCE = 0), and Word Length is configured to 9 bits (M1-
 816:Drivers/STM32F0xx_HAL_Driver/Src/stm32f0xx_hal_uart.c ****   *         address of user data buffer containing data to be sent, should be aligned on a half wor
 817:Drivers/STM32F0xx_HAL_Driver/Src/stm32f0xx_hal_uart.c ****   *         (as sent data will be handled using u16 pointer cast). Depending on compilation chain,
 818:Drivers/STM32F0xx_HAL_Driver/Src/stm32f0xx_hal_uart.c ****   *         use of specific alignment compilation directives or pragmas might be required to ensure
 819:Drivers/STM32F0xx_HAL_Driver/Src/stm32f0xx_hal_uart.c ****   * @retval HAL status
 820:Drivers/STM32F0xx_HAL_Driver/Src/stm32f0xx_hal_uart.c ****   */
 821:Drivers/STM32F0xx_HAL_Driver/Src/stm32f0xx_hal_uart.c **** HAL_StatusTypeDef HAL_UART_Transmit_IT(UART_HandleTypeDef *huart, uint8_t *pData, uint16_t Size)
 822:Drivers/STM32F0xx_HAL_Driver/Src/stm32f0xx_hal_uart.c **** {
 136              		.loc 1 822 0
 137              		.cfi_startproc
 138              	.LVL5:
 139 0000 70B5     		push	{r4, r5, r6, lr}
 140              	.LCFI1:
 141              		.cfi_def_cfa_offset 16
 142              		.cfi_offset 4, -16
ARM GAS  /tmp/ccjaQwTr.s 			page 18


 143              		.cfi_offset 5, -12
 144              		.cfi_offset 6, -8
 145              		.cfi_offset 14, -4
 823:Drivers/STM32F0xx_HAL_Driver/Src/stm32f0xx_hal_uart.c ****   /* Check that a Tx process is not already ongoing */
 824:Drivers/STM32F0xx_HAL_Driver/Src/stm32f0xx_hal_uart.c ****   if(huart->gState == HAL_UART_STATE_READY)
 146              		.loc 1 824 0
 147 0002 0600     		movs	r6, r0
 148 0004 6936     		adds	r6, r6, #105
 149 0006 3378     		ldrb	r3, [r6]
 822:Drivers/STM32F0xx_HAL_Driver/Src/stm32f0xx_hal_uart.c ****   /* Check that a Tx process is not already ongoing */
 150              		.loc 1 822 0
 151 0008 0400     		movs	r4, r0
 825:Drivers/STM32F0xx_HAL_Driver/Src/stm32f0xx_hal_uart.c ****   {
 826:Drivers/STM32F0xx_HAL_Driver/Src/stm32f0xx_hal_uart.c ****     if((pData == NULL ) || (Size == 0))
 827:Drivers/STM32F0xx_HAL_Driver/Src/stm32f0xx_hal_uart.c ****     {
 828:Drivers/STM32F0xx_HAL_Driver/Src/stm32f0xx_hal_uart.c ****       return HAL_ERROR;
 829:Drivers/STM32F0xx_HAL_Driver/Src/stm32f0xx_hal_uart.c ****     }
 830:Drivers/STM32F0xx_HAL_Driver/Src/stm32f0xx_hal_uart.c **** 
 831:Drivers/STM32F0xx_HAL_Driver/Src/stm32f0xx_hal_uart.c ****     /* In case of 9bits/No Parity transfer, pData buffer provided as input paramter 
 832:Drivers/STM32F0xx_HAL_Driver/Src/stm32f0xx_hal_uart.c ****        should be aligned on a u16 frontier, as data to be filled into TDR will be 
 833:Drivers/STM32F0xx_HAL_Driver/Src/stm32f0xx_hal_uart.c ****        handled through a u16 cast. */
 834:Drivers/STM32F0xx_HAL_Driver/Src/stm32f0xx_hal_uart.c ****     if ((huart->Init.WordLength == UART_WORDLENGTH_9B) && (huart->Init.Parity == UART_PARITY_NONE))
 835:Drivers/STM32F0xx_HAL_Driver/Src/stm32f0xx_hal_uart.c ****     {
 836:Drivers/STM32F0xx_HAL_Driver/Src/stm32f0xx_hal_uart.c ****       if((((uint32_t)pData)&1) != 0)
 837:Drivers/STM32F0xx_HAL_Driver/Src/stm32f0xx_hal_uart.c ****       {
 838:Drivers/STM32F0xx_HAL_Driver/Src/stm32f0xx_hal_uart.c ****         return  HAL_ERROR;
 839:Drivers/STM32F0xx_HAL_Driver/Src/stm32f0xx_hal_uart.c ****       }
 840:Drivers/STM32F0xx_HAL_Driver/Src/stm32f0xx_hal_uart.c ****     }
 841:Drivers/STM32F0xx_HAL_Driver/Src/stm32f0xx_hal_uart.c **** 
 842:Drivers/STM32F0xx_HAL_Driver/Src/stm32f0xx_hal_uart.c ****     /* Process Locked */
 843:Drivers/STM32F0xx_HAL_Driver/Src/stm32f0xx_hal_uart.c ****     __HAL_LOCK(huart);
 844:Drivers/STM32F0xx_HAL_Driver/Src/stm32f0xx_hal_uart.c **** 
 845:Drivers/STM32F0xx_HAL_Driver/Src/stm32f0xx_hal_uart.c ****     huart->pTxBuffPtr = pData;
 846:Drivers/STM32F0xx_HAL_Driver/Src/stm32f0xx_hal_uart.c ****     huart->TxXferSize = Size;
 847:Drivers/STM32F0xx_HAL_Driver/Src/stm32f0xx_hal_uart.c ****     huart->TxXferCount = Size;
 848:Drivers/STM32F0xx_HAL_Driver/Src/stm32f0xx_hal_uart.c **** 
 849:Drivers/STM32F0xx_HAL_Driver/Src/stm32f0xx_hal_uart.c ****     huart->ErrorCode = HAL_UART_ERROR_NONE;
 850:Drivers/STM32F0xx_HAL_Driver/Src/stm32f0xx_hal_uart.c ****     huart->gState = HAL_UART_STATE_BUSY_TX;
 851:Drivers/STM32F0xx_HAL_Driver/Src/stm32f0xx_hal_uart.c **** 
 852:Drivers/STM32F0xx_HAL_Driver/Src/stm32f0xx_hal_uart.c ****     /* Process Unlocked */
 853:Drivers/STM32F0xx_HAL_Driver/Src/stm32f0xx_hal_uart.c ****     __HAL_UNLOCK(huart);
 854:Drivers/STM32F0xx_HAL_Driver/Src/stm32f0xx_hal_uart.c **** 
 855:Drivers/STM32F0xx_HAL_Driver/Src/stm32f0xx_hal_uart.c ****     /* Enable the UART Transmit Data Register Empty Interrupt */
 856:Drivers/STM32F0xx_HAL_Driver/Src/stm32f0xx_hal_uart.c ****     __HAL_UART_ENABLE_IT(huart, UART_IT_TXE);
 857:Drivers/STM32F0xx_HAL_Driver/Src/stm32f0xx_hal_uart.c **** 
 858:Drivers/STM32F0xx_HAL_Driver/Src/stm32f0xx_hal_uart.c ****     return HAL_OK;
 859:Drivers/STM32F0xx_HAL_Driver/Src/stm32f0xx_hal_uart.c ****   }
 860:Drivers/STM32F0xx_HAL_Driver/Src/stm32f0xx_hal_uart.c ****   else
 861:Drivers/STM32F0xx_HAL_Driver/Src/stm32f0xx_hal_uart.c ****   {
 862:Drivers/STM32F0xx_HAL_Driver/Src/stm32f0xx_hal_uart.c ****     return HAL_BUSY;
 152              		.loc 1 862 0
 153 000a 0220     		movs	r0, #2
 154              	.LVL6:
 824:Drivers/STM32F0xx_HAL_Driver/Src/stm32f0xx_hal_uart.c ****   {
 155              		.loc 1 824 0
 156 000c 202B     		cmp	r3, #32
 157 000e 24D1     		bne	.L7
ARM GAS  /tmp/ccjaQwTr.s 			page 19


 828:Drivers/STM32F0xx_HAL_Driver/Src/stm32f0xx_hal_uart.c ****     }
 158              		.loc 1 828 0
 159 0010 0138     		subs	r0, r0, #1
 826:Drivers/STM32F0xx_HAL_Driver/Src/stm32f0xx_hal_uart.c ****     {
 160              		.loc 1 826 0
 161 0012 0029     		cmp	r1, #0
 162 0014 21D0     		beq	.L7
 826:Drivers/STM32F0xx_HAL_Driver/Src/stm32f0xx_hal_uart.c ****     {
 163              		.loc 1 826 0 is_stmt 0 discriminator 1
 164 0016 002A     		cmp	r2, #0
 165 0018 1FD0     		beq	.L7
 834:Drivers/STM32F0xx_HAL_Driver/Src/stm32f0xx_hal_uart.c ****     {
 166              		.loc 1 834 0 is_stmt 1
 167 001a 8023     		movs	r3, #128
 168 001c A568     		ldr	r5, [r4, #8]
 169 001e 5B01     		lsls	r3, r3, #5
 170 0020 9D42     		cmp	r5, r3
 171 0022 04D1     		bne	.L8
 834:Drivers/STM32F0xx_HAL_Driver/Src/stm32f0xx_hal_uart.c ****     {
 172              		.loc 1 834 0 is_stmt 0 discriminator 1
 173 0024 2369     		ldr	r3, [r4, #16]
 174 0026 002B     		cmp	r3, #0
 175 0028 01D1     		bne	.L8
 836:Drivers/STM32F0xx_HAL_Driver/Src/stm32f0xx_hal_uart.c ****       {
 176              		.loc 1 836 0 is_stmt 1
 177 002a 0142     		tst	r1, r0
 178 002c 15D1     		bne	.L7
 179              	.L8:
 843:Drivers/STM32F0xx_HAL_Driver/Src/stm32f0xx_hal_uart.c **** 
 180              		.loc 1 843 0
 181 002e 2500     		movs	r5, r4
 182 0030 6835     		adds	r5, r5, #104
 183 0032 2B78     		ldrb	r3, [r5]
 184              		.loc 1 862 0
 185 0034 0220     		movs	r0, #2
 843:Drivers/STM32F0xx_HAL_Driver/Src/stm32f0xx_hal_uart.c **** 
 186              		.loc 1 843 0
 187 0036 012B     		cmp	r3, #1
 188 0038 0FD0     		beq	.L7
 846:Drivers/STM32F0xx_HAL_Driver/Src/stm32f0xx_hal_uart.c ****     huart->TxXferCount = Size;
 189              		.loc 1 846 0 discriminator 2
 190 003a 2300     		movs	r3, r4
 191 003c 5033     		adds	r3, r3, #80
 845:Drivers/STM32F0xx_HAL_Driver/Src/stm32f0xx_hal_uart.c ****     huart->TxXferSize = Size;
 192              		.loc 1 845 0 discriminator 2
 193 003e E164     		str	r1, [r4, #76]
 846:Drivers/STM32F0xx_HAL_Driver/Src/stm32f0xx_hal_uart.c ****     huart->TxXferCount = Size;
 194              		.loc 1 846 0 discriminator 2
 195 0040 1A80     		strh	r2, [r3]
 847:Drivers/STM32F0xx_HAL_Driver/Src/stm32f0xx_hal_uart.c **** 
 196              		.loc 1 847 0 discriminator 2
 197 0042 5A80     		strh	r2, [r3, #2]
 849:Drivers/STM32F0xx_HAL_Driver/Src/stm32f0xx_hal_uart.c ****     huart->gState = HAL_UART_STATE_BUSY_TX;
 198              		.loc 1 849 0 discriminator 2
 199 0044 0023     		movs	r3, #0
 850:Drivers/STM32F0xx_HAL_Driver/Src/stm32f0xx_hal_uart.c **** 
 200              		.loc 1 850 0 discriminator 2
ARM GAS  /tmp/ccjaQwTr.s 			page 20


 201 0046 2122     		movs	r2, #33
 202              	.LVL7:
 856:Drivers/STM32F0xx_HAL_Driver/Src/stm32f0xx_hal_uart.c **** 
 203              		.loc 1 856 0 discriminator 2
 204 0048 2168     		ldr	r1, [r4]
 205              	.LVL8:
 849:Drivers/STM32F0xx_HAL_Driver/Src/stm32f0xx_hal_uart.c ****     huart->gState = HAL_UART_STATE_BUSY_TX;
 206              		.loc 1 849 0 discriminator 2
 207 004a E366     		str	r3, [r4, #108]
 850:Drivers/STM32F0xx_HAL_Driver/Src/stm32f0xx_hal_uart.c **** 
 208              		.loc 1 850 0 discriminator 2
 209 004c 3270     		strb	r2, [r6]
 856:Drivers/STM32F0xx_HAL_Driver/Src/stm32f0xx_hal_uart.c **** 
 210              		.loc 1 856 0 discriminator 2
 211 004e 0868     		ldr	r0, [r1]
 212 0050 5F32     		adds	r2, r2, #95
 213 0052 0243     		orrs	r2, r0
 858:Drivers/STM32F0xx_HAL_Driver/Src/stm32f0xx_hal_uart.c ****   }
 214              		.loc 1 858 0 discriminator 2
 215 0054 1800     		movs	r0, r3
 853:Drivers/STM32F0xx_HAL_Driver/Src/stm32f0xx_hal_uart.c **** 
 216              		.loc 1 853 0 discriminator 2
 217 0056 2B70     		strb	r3, [r5]
 856:Drivers/STM32F0xx_HAL_Driver/Src/stm32f0xx_hal_uart.c **** 
 218              		.loc 1 856 0 discriminator 2
 219 0058 0A60     		str	r2, [r1]
 220              	.LVL9:
 221              	.L7:
 863:Drivers/STM32F0xx_HAL_Driver/Src/stm32f0xx_hal_uart.c ****   }
 864:Drivers/STM32F0xx_HAL_Driver/Src/stm32f0xx_hal_uart.c **** }
 222              		.loc 1 864 0
 223              		@ sp needed
 224              	.LVL10:
 225              	.LVL11:
 226 005a 70BD     		pop	{r4, r5, r6, pc}
 227              		.cfi_endproc
 228              	.LFE43:
 230              		.section	.text.HAL_UART_Receive_IT,"ax",%progbits
 231              		.align	1
 232              		.global	HAL_UART_Receive_IT
 233              		.syntax unified
 234              		.code	16
 235              		.thumb_func
 236              		.fpu softvfp
 238              	HAL_UART_Receive_IT:
 239              	.LFB44:
 865:Drivers/STM32F0xx_HAL_Driver/Src/stm32f0xx_hal_uart.c **** 
 866:Drivers/STM32F0xx_HAL_Driver/Src/stm32f0xx_hal_uart.c **** /**
 867:Drivers/STM32F0xx_HAL_Driver/Src/stm32f0xx_hal_uart.c ****   * @brief Receive an amount of data in interrupt mode.
 868:Drivers/STM32F0xx_HAL_Driver/Src/stm32f0xx_hal_uart.c ****   * @param huart: UART handle.
 869:Drivers/STM32F0xx_HAL_Driver/Src/stm32f0xx_hal_uart.c ****   * @param pData: pointer to data buffer.
 870:Drivers/STM32F0xx_HAL_Driver/Src/stm32f0xx_hal_uart.c ****   * @param Size: amount of data to be received.
 871:Drivers/STM32F0xx_HAL_Driver/Src/stm32f0xx_hal_uart.c ****   * @note   When UART parity is not enabled (PCE = 0), and Word Length is configured to 9 bits (M1-
 872:Drivers/STM32F0xx_HAL_Driver/Src/stm32f0xx_hal_uart.c ****   *         address of user data buffer for storing data to be received, should be aligned on a hal
 873:Drivers/STM32F0xx_HAL_Driver/Src/stm32f0xx_hal_uart.c ****   *         (as received data will be handled using u16 pointer cast). Depending on compilation cha
 874:Drivers/STM32F0xx_HAL_Driver/Src/stm32f0xx_hal_uart.c ****   *         use of specific alignment compilation directives or pragmas might be required to ensure
 875:Drivers/STM32F0xx_HAL_Driver/Src/stm32f0xx_hal_uart.c ****   * @retval HAL status
ARM GAS  /tmp/ccjaQwTr.s 			page 21


 876:Drivers/STM32F0xx_HAL_Driver/Src/stm32f0xx_hal_uart.c ****   */
 877:Drivers/STM32F0xx_HAL_Driver/Src/stm32f0xx_hal_uart.c **** HAL_StatusTypeDef HAL_UART_Receive_IT(UART_HandleTypeDef *huart, uint8_t *pData, uint16_t Size)
 878:Drivers/STM32F0xx_HAL_Driver/Src/stm32f0xx_hal_uart.c **** {
 240              		.loc 1 878 0
 241              		.cfi_startproc
 242              	.LVL12:
 243 0000 F0B5     		push	{r4, r5, r6, r7, lr}
 244              	.LCFI2:
 245              		.cfi_def_cfa_offset 20
 246              		.cfi_offset 4, -20
 247              		.cfi_offset 5, -16
 248              		.cfi_offset 6, -12
 249              		.cfi_offset 7, -8
 250              		.cfi_offset 14, -4
 879:Drivers/STM32F0xx_HAL_Driver/Src/stm32f0xx_hal_uart.c ****   /* Check that a Rx process is not already ongoing */
 880:Drivers/STM32F0xx_HAL_Driver/Src/stm32f0xx_hal_uart.c ****   if(huart->RxState == HAL_UART_STATE_READY)
 251              		.loc 1 880 0
 252 0002 0600     		movs	r6, r0
 253 0004 6A36     		adds	r6, r6, #106
 254 0006 3478     		ldrb	r4, [r6]
 878:Drivers/STM32F0xx_HAL_Driver/Src/stm32f0xx_hal_uart.c ****   /* Check that a Rx process is not already ongoing */
 255              		.loc 1 878 0
 256 0008 0300     		movs	r3, r0
 881:Drivers/STM32F0xx_HAL_Driver/Src/stm32f0xx_hal_uart.c ****   {
 882:Drivers/STM32F0xx_HAL_Driver/Src/stm32f0xx_hal_uart.c ****     if((pData == NULL ) || (Size == 0))
 883:Drivers/STM32F0xx_HAL_Driver/Src/stm32f0xx_hal_uart.c ****     {
 884:Drivers/STM32F0xx_HAL_Driver/Src/stm32f0xx_hal_uart.c ****       return HAL_ERROR;
 885:Drivers/STM32F0xx_HAL_Driver/Src/stm32f0xx_hal_uart.c ****     }
 886:Drivers/STM32F0xx_HAL_Driver/Src/stm32f0xx_hal_uart.c **** 
 887:Drivers/STM32F0xx_HAL_Driver/Src/stm32f0xx_hal_uart.c ****     /* In case of 9bits/No Parity transfer, pData buffer provided as input paramter 
 888:Drivers/STM32F0xx_HAL_Driver/Src/stm32f0xx_hal_uart.c ****        should be aligned on a u16 frontier, as data to be received from RDR will be 
 889:Drivers/STM32F0xx_HAL_Driver/Src/stm32f0xx_hal_uart.c ****        handled through a u16 cast. */
 890:Drivers/STM32F0xx_HAL_Driver/Src/stm32f0xx_hal_uart.c ****     if ((huart->Init.WordLength == UART_WORDLENGTH_9B) && (huart->Init.Parity == UART_PARITY_NONE))
 891:Drivers/STM32F0xx_HAL_Driver/Src/stm32f0xx_hal_uart.c ****     {
 892:Drivers/STM32F0xx_HAL_Driver/Src/stm32f0xx_hal_uart.c ****       if((((uint32_t)pData)&1) != 0)
 893:Drivers/STM32F0xx_HAL_Driver/Src/stm32f0xx_hal_uart.c ****       {
 894:Drivers/STM32F0xx_HAL_Driver/Src/stm32f0xx_hal_uart.c ****         return  HAL_ERROR;
 895:Drivers/STM32F0xx_HAL_Driver/Src/stm32f0xx_hal_uart.c ****       }
 896:Drivers/STM32F0xx_HAL_Driver/Src/stm32f0xx_hal_uart.c ****     }
 897:Drivers/STM32F0xx_HAL_Driver/Src/stm32f0xx_hal_uart.c **** 
 898:Drivers/STM32F0xx_HAL_Driver/Src/stm32f0xx_hal_uart.c ****     /* Process Locked */
 899:Drivers/STM32F0xx_HAL_Driver/Src/stm32f0xx_hal_uart.c ****     __HAL_LOCK(huart);
 900:Drivers/STM32F0xx_HAL_Driver/Src/stm32f0xx_hal_uart.c **** 
 901:Drivers/STM32F0xx_HAL_Driver/Src/stm32f0xx_hal_uart.c ****     huart->pRxBuffPtr = pData;
 902:Drivers/STM32F0xx_HAL_Driver/Src/stm32f0xx_hal_uart.c ****     huart->RxXferSize = Size;
 903:Drivers/STM32F0xx_HAL_Driver/Src/stm32f0xx_hal_uart.c ****     huart->RxXferCount = Size;
 904:Drivers/STM32F0xx_HAL_Driver/Src/stm32f0xx_hal_uart.c **** 
 905:Drivers/STM32F0xx_HAL_Driver/Src/stm32f0xx_hal_uart.c ****     /* Computation of UART mask to apply to RDR register */
 906:Drivers/STM32F0xx_HAL_Driver/Src/stm32f0xx_hal_uart.c ****     UART_MASK_COMPUTATION(huart);
 907:Drivers/STM32F0xx_HAL_Driver/Src/stm32f0xx_hal_uart.c **** 
 908:Drivers/STM32F0xx_HAL_Driver/Src/stm32f0xx_hal_uart.c ****     huart->ErrorCode = HAL_UART_ERROR_NONE;
 909:Drivers/STM32F0xx_HAL_Driver/Src/stm32f0xx_hal_uart.c ****     huart->RxState = HAL_UART_STATE_BUSY_RX;
 910:Drivers/STM32F0xx_HAL_Driver/Src/stm32f0xx_hal_uart.c **** 
 911:Drivers/STM32F0xx_HAL_Driver/Src/stm32f0xx_hal_uart.c ****     /* Enable the UART Parity Error Interrupt */
 912:Drivers/STM32F0xx_HAL_Driver/Src/stm32f0xx_hal_uart.c ****     __HAL_UART_ENABLE_IT(huart, UART_IT_PE);
 913:Drivers/STM32F0xx_HAL_Driver/Src/stm32f0xx_hal_uart.c **** 
 914:Drivers/STM32F0xx_HAL_Driver/Src/stm32f0xx_hal_uart.c ****     /* Enable the UART Error Interrupt: (Frame error, noise error, overrun error) */
ARM GAS  /tmp/ccjaQwTr.s 			page 22


 915:Drivers/STM32F0xx_HAL_Driver/Src/stm32f0xx_hal_uart.c ****     __HAL_UART_ENABLE_IT(huart, UART_IT_ERR);
 916:Drivers/STM32F0xx_HAL_Driver/Src/stm32f0xx_hal_uart.c **** 
 917:Drivers/STM32F0xx_HAL_Driver/Src/stm32f0xx_hal_uart.c ****     /* Process Unlocked */
 918:Drivers/STM32F0xx_HAL_Driver/Src/stm32f0xx_hal_uart.c ****     __HAL_UNLOCK(huart);
 919:Drivers/STM32F0xx_HAL_Driver/Src/stm32f0xx_hal_uart.c **** 
 920:Drivers/STM32F0xx_HAL_Driver/Src/stm32f0xx_hal_uart.c ****     /* Enable the UART Data Register not empty Interrupt */
 921:Drivers/STM32F0xx_HAL_Driver/Src/stm32f0xx_hal_uart.c ****     __HAL_UART_ENABLE_IT(huart, UART_IT_RXNE);
 922:Drivers/STM32F0xx_HAL_Driver/Src/stm32f0xx_hal_uart.c **** 
 923:Drivers/STM32F0xx_HAL_Driver/Src/stm32f0xx_hal_uart.c ****     return HAL_OK;
 924:Drivers/STM32F0xx_HAL_Driver/Src/stm32f0xx_hal_uart.c ****   }
 925:Drivers/STM32F0xx_HAL_Driver/Src/stm32f0xx_hal_uart.c ****   else
 926:Drivers/STM32F0xx_HAL_Driver/Src/stm32f0xx_hal_uart.c ****   {
 927:Drivers/STM32F0xx_HAL_Driver/Src/stm32f0xx_hal_uart.c ****     return HAL_BUSY;
 257              		.loc 1 927 0
 258 000a 0220     		movs	r0, #2
 259              	.LVL13:
 880:Drivers/STM32F0xx_HAL_Driver/Src/stm32f0xx_hal_uart.c ****   {
 260              		.loc 1 880 0
 261 000c 202C     		cmp	r4, #32
 262 000e 38D1     		bne	.L17
 884:Drivers/STM32F0xx_HAL_Driver/Src/stm32f0xx_hal_uart.c ****     }
 263              		.loc 1 884 0
 264 0010 0138     		subs	r0, r0, #1
 882:Drivers/STM32F0xx_HAL_Driver/Src/stm32f0xx_hal_uart.c ****     {
 265              		.loc 1 882 0
 266 0012 0029     		cmp	r1, #0
 267 0014 35D0     		beq	.L17
 882:Drivers/STM32F0xx_HAL_Driver/Src/stm32f0xx_hal_uart.c ****     {
 268              		.loc 1 882 0 is_stmt 0 discriminator 1
 269 0016 002A     		cmp	r2, #0
 270 0018 33D0     		beq	.L17
 890:Drivers/STM32F0xx_HAL_Driver/Src/stm32f0xx_hal_uart.c ****     {
 271              		.loc 1 890 0 is_stmt 1
 272 001a 8025     		movs	r5, #128
 273 001c 9C68     		ldr	r4, [r3, #8]
 274 001e 6D01     		lsls	r5, r5, #5
 275 0020 AC42     		cmp	r4, r5
 276 0022 04D1     		bne	.L18
 890:Drivers/STM32F0xx_HAL_Driver/Src/stm32f0xx_hal_uart.c ****     {
 277              		.loc 1 890 0 is_stmt 0 discriminator 1
 278 0024 1D69     		ldr	r5, [r3, #16]
 279 0026 002D     		cmp	r5, #0
 280 0028 01D1     		bne	.L18
 892:Drivers/STM32F0xx_HAL_Driver/Src/stm32f0xx_hal_uart.c ****       {
 281              		.loc 1 892 0 is_stmt 1
 282 002a 0142     		tst	r1, r0
 283 002c 29D1     		bne	.L17
 284              	.L18:
 899:Drivers/STM32F0xx_HAL_Driver/Src/stm32f0xx_hal_uart.c **** 
 285              		.loc 1 899 0
 286 002e 1D00     		movs	r5, r3
 287 0030 6835     		adds	r5, r5, #104
 288 0032 2F78     		ldrb	r7, [r5]
 289              		.loc 1 927 0
 290 0034 0220     		movs	r0, #2
 899:Drivers/STM32F0xx_HAL_Driver/Src/stm32f0xx_hal_uart.c **** 
 291              		.loc 1 899 0
ARM GAS  /tmp/ccjaQwTr.s 			page 23


 292 0036 012F     		cmp	r7, #1
 293 0038 23D0     		beq	.L17
 899:Drivers/STM32F0xx_HAL_Driver/Src/stm32f0xx_hal_uart.c **** 
 294              		.loc 1 899 0 is_stmt 0 discriminator 2
 295 003a 0138     		subs	r0, r0, #1
 296 003c 2870     		strb	r0, [r5]
 901:Drivers/STM32F0xx_HAL_Driver/Src/stm32f0xx_hal_uart.c ****     huart->RxXferSize = Size;
 297              		.loc 1 901 0 is_stmt 1 discriminator 2
 298 003e 5965     		str	r1, [r3, #84]
 902:Drivers/STM32F0xx_HAL_Driver/Src/stm32f0xx_hal_uart.c ****     huart->RxXferCount = Size;
 299              		.loc 1 902 0 discriminator 2
 300 0040 1900     		movs	r1, r3
 301              	.LVL14:
 302 0042 5831     		adds	r1, r1, #88
 303              	.LVL15:
 304 0044 0A80     		strh	r2, [r1]
 903:Drivers/STM32F0xx_HAL_Driver/Src/stm32f0xx_hal_uart.c **** 
 305              		.loc 1 903 0 discriminator 2
 306 0046 4A80     		strh	r2, [r1, #2]
 906:Drivers/STM32F0xx_HAL_Driver/Src/stm32f0xx_hal_uart.c **** 
 307              		.loc 1 906 0 discriminator 2
 308 0048 8022     		movs	r2, #128
 309              	.LVL16:
 310 004a 5201     		lsls	r2, r2, #5
 311 004c 9442     		cmp	r4, r2
 312 004e 1BD1     		bne	.L19
 906:Drivers/STM32F0xx_HAL_Driver/Src/stm32f0xx_hal_uart.c **** 
 313              		.loc 1 906 0 is_stmt 0 discriminator 1
 314 0050 1A69     		ldr	r2, [r3, #16]
 315 0052 002A     		cmp	r2, #0
 316 0054 16D1     		bne	.L20
 906:Drivers/STM32F0xx_HAL_Driver/Src/stm32f0xx_hal_uart.c **** 
 317              		.loc 1 906 0 discriminator 3
 318 0056 1449     		ldr	r1, .L38
 319              	.LVL17:
 320              	.L37:
 906:Drivers/STM32F0xx_HAL_Driver/Src/stm32f0xx_hal_uart.c **** 
 321              		.loc 1 906 0 discriminator 11
 322 0058 1A00     		movs	r2, r3
 323 005a 5C32     		adds	r2, r2, #92
 324 005c 1180     		strh	r1, [r2]
 325              	.L21:
 908:Drivers/STM32F0xx_HAL_Driver/Src/stm32f0xx_hal_uart.c ****     huart->RxState = HAL_UART_STATE_BUSY_RX;
 326              		.loc 1 908 0 is_stmt 1
 327 005e 0020     		movs	r0, #0
 909:Drivers/STM32F0xx_HAL_Driver/Src/stm32f0xx_hal_uart.c **** 
 328              		.loc 1 909 0
 329 0060 2222     		movs	r2, #34
 908:Drivers/STM32F0xx_HAL_Driver/Src/stm32f0xx_hal_uart.c ****     huart->RxState = HAL_UART_STATE_BUSY_RX;
 330              		.loc 1 908 0
 331 0062 D866     		str	r0, [r3, #108]
 912:Drivers/STM32F0xx_HAL_Driver/Src/stm32f0xx_hal_uart.c **** 
 332              		.loc 1 912 0
 333 0064 1B68     		ldr	r3, [r3]
 334              	.LVL18:
 909:Drivers/STM32F0xx_HAL_Driver/Src/stm32f0xx_hal_uart.c **** 
 335              		.loc 1 909 0
ARM GAS  /tmp/ccjaQwTr.s 			page 24


 336 0066 3270     		strb	r2, [r6]
 912:Drivers/STM32F0xx_HAL_Driver/Src/stm32f0xx_hal_uart.c **** 
 337              		.loc 1 912 0
 338 0068 1968     		ldr	r1, [r3]
 339 006a DE32     		adds	r2, r2, #222
 340 006c 0A43     		orrs	r2, r1
 341 006e 1A60     		str	r2, [r3]
 915:Drivers/STM32F0xx_HAL_Driver/Src/stm32f0xx_hal_uart.c **** 
 342              		.loc 1 915 0
 343 0070 0122     		movs	r2, #1
 344 0072 9968     		ldr	r1, [r3, #8]
 345 0074 0A43     		orrs	r2, r1
 346 0076 9A60     		str	r2, [r3, #8]
 921:Drivers/STM32F0xx_HAL_Driver/Src/stm32f0xx_hal_uart.c **** 
 347              		.loc 1 921 0
 348 0078 2022     		movs	r2, #32
 349 007a 1968     		ldr	r1, [r3]
 918:Drivers/STM32F0xx_HAL_Driver/Src/stm32f0xx_hal_uart.c **** 
 350              		.loc 1 918 0
 351 007c 2870     		strb	r0, [r5]
 921:Drivers/STM32F0xx_HAL_Driver/Src/stm32f0xx_hal_uart.c **** 
 352              		.loc 1 921 0
 353 007e 0A43     		orrs	r2, r1
 354 0080 1A60     		str	r2, [r3]
 355              	.LVL19:
 356              	.L17:
 928:Drivers/STM32F0xx_HAL_Driver/Src/stm32f0xx_hal_uart.c ****   }
 929:Drivers/STM32F0xx_HAL_Driver/Src/stm32f0xx_hal_uart.c **** }
 357              		.loc 1 929 0
 358              		@ sp needed
 359              	.LVL20:
 360 0082 F0BD     		pop	{r4, r5, r6, r7, pc}
 361              	.LVL21:
 362              	.L20:
 906:Drivers/STM32F0xx_HAL_Driver/Src/stm32f0xx_hal_uart.c **** 
 363              		.loc 1 906 0 discriminator 4
 364 0084 FF21     		movs	r1, #255
 365              	.LVL22:
 366 0086 E7E7     		b	.L37
 367              	.LVL23:
 368              	.L19:
 906:Drivers/STM32F0xx_HAL_Driver/Src/stm32f0xx_hal_uart.c **** 
 369              		.loc 1 906 0 is_stmt 0 discriminator 2
 370 0088 002C     		cmp	r4, #0
 371 008a 04D1     		bne	.L22
 906:Drivers/STM32F0xx_HAL_Driver/Src/stm32f0xx_hal_uart.c **** 
 372              		.loc 1 906 0 discriminator 5
 373 008c 1A69     		ldr	r2, [r3, #16]
 374 008e 002A     		cmp	r2, #0
 375 0090 F8D0     		beq	.L20
 376              	.L23:
 906:Drivers/STM32F0xx_HAL_Driver/Src/stm32f0xx_hal_uart.c **** 
 377              		.loc 1 906 0 discriminator 8
 378 0092 7F21     		movs	r1, #127
 379              	.LVL24:
 380 0094 E0E7     		b	.L37
 381              	.LVL25:
ARM GAS  /tmp/ccjaQwTr.s 			page 25


 382              	.L22:
 906:Drivers/STM32F0xx_HAL_Driver/Src/stm32f0xx_hal_uart.c **** 
 383              		.loc 1 906 0 discriminator 6
 384 0096 8022     		movs	r2, #128
 385 0098 5205     		lsls	r2, r2, #21
 386 009a 9442     		cmp	r4, r2
 387 009c DFD1     		bne	.L21
 906:Drivers/STM32F0xx_HAL_Driver/Src/stm32f0xx_hal_uart.c **** 
 388              		.loc 1 906 0 discriminator 9
 389 009e 1A69     		ldr	r2, [r3, #16]
 390 00a0 002A     		cmp	r2, #0
 391 00a2 F6D0     		beq	.L23
 906:Drivers/STM32F0xx_HAL_Driver/Src/stm32f0xx_hal_uart.c **** 
 392              		.loc 1 906 0 discriminator 11
 393 00a4 3F21     		movs	r1, #63
 394              	.LVL26:
 395 00a6 D7E7     		b	.L37
 396              	.L39:
 397              		.align	2
 398              	.L38:
 399 00a8 FF010000 		.word	511
 400              		.cfi_endproc
 401              	.LFE44:
 403              		.section	.text.HAL_UART_Transmit_DMA,"ax",%progbits
 404              		.align	1
 405              		.global	HAL_UART_Transmit_DMA
 406              		.syntax unified
 407              		.code	16
 408              		.thumb_func
 409              		.fpu softvfp
 411              	HAL_UART_Transmit_DMA:
 412              	.LFB46:
 930:Drivers/STM32F0xx_HAL_Driver/Src/stm32f0xx_hal_uart.c **** 
 931:Drivers/STM32F0xx_HAL_Driver/Src/stm32f0xx_hal_uart.c **** /**
 932:Drivers/STM32F0xx_HAL_Driver/Src/stm32f0xx_hal_uart.c ****   * @brief Handle UART interrupt request.
 933:Drivers/STM32F0xx_HAL_Driver/Src/stm32f0xx_hal_uart.c ****   * @param huart: UART handle.
 934:Drivers/STM32F0xx_HAL_Driver/Src/stm32f0xx_hal_uart.c ****   * @retval None
 935:Drivers/STM32F0xx_HAL_Driver/Src/stm32f0xx_hal_uart.c ****   */
 936:Drivers/STM32F0xx_HAL_Driver/Src/stm32f0xx_hal_uart.c **** void HAL_UART_IRQHandler(UART_HandleTypeDef *huart)
 937:Drivers/STM32F0xx_HAL_Driver/Src/stm32f0xx_hal_uart.c **** {
 938:Drivers/STM32F0xx_HAL_Driver/Src/stm32f0xx_hal_uart.c ****   /* UART parity error interrupt occurred -------------------------------------*/
 939:Drivers/STM32F0xx_HAL_Driver/Src/stm32f0xx_hal_uart.c ****   if((__HAL_UART_GET_IT(huart, UART_IT_PE) != RESET) && (__HAL_UART_GET_IT_SOURCE(huart, UART_IT_PE
 940:Drivers/STM32F0xx_HAL_Driver/Src/stm32f0xx_hal_uart.c ****   {
 941:Drivers/STM32F0xx_HAL_Driver/Src/stm32f0xx_hal_uart.c ****     __HAL_UART_CLEAR_IT(huart, UART_CLEAR_PEF);
 942:Drivers/STM32F0xx_HAL_Driver/Src/stm32f0xx_hal_uart.c **** 
 943:Drivers/STM32F0xx_HAL_Driver/Src/stm32f0xx_hal_uart.c ****     huart->ErrorCode |= HAL_UART_ERROR_PE;
 944:Drivers/STM32F0xx_HAL_Driver/Src/stm32f0xx_hal_uart.c ****   }
 945:Drivers/STM32F0xx_HAL_Driver/Src/stm32f0xx_hal_uart.c **** 
 946:Drivers/STM32F0xx_HAL_Driver/Src/stm32f0xx_hal_uart.c ****   /* UART frame error interrupt occurred --------------------------------------*/
 947:Drivers/STM32F0xx_HAL_Driver/Src/stm32f0xx_hal_uart.c ****   if((__HAL_UART_GET_IT(huart, UART_IT_FE) != RESET) && (__HAL_UART_GET_IT_SOURCE(huart, UART_IT_ER
 948:Drivers/STM32F0xx_HAL_Driver/Src/stm32f0xx_hal_uart.c ****   {
 949:Drivers/STM32F0xx_HAL_Driver/Src/stm32f0xx_hal_uart.c ****     __HAL_UART_CLEAR_IT(huart, UART_CLEAR_FEF);
 950:Drivers/STM32F0xx_HAL_Driver/Src/stm32f0xx_hal_uart.c **** 
 951:Drivers/STM32F0xx_HAL_Driver/Src/stm32f0xx_hal_uart.c ****     huart->ErrorCode |= HAL_UART_ERROR_FE;
 952:Drivers/STM32F0xx_HAL_Driver/Src/stm32f0xx_hal_uart.c ****   }
 953:Drivers/STM32F0xx_HAL_Driver/Src/stm32f0xx_hal_uart.c **** 
 954:Drivers/STM32F0xx_HAL_Driver/Src/stm32f0xx_hal_uart.c ****   /* UART noise error interrupt occurred --------------------------------------*/
ARM GAS  /tmp/ccjaQwTr.s 			page 26


 955:Drivers/STM32F0xx_HAL_Driver/Src/stm32f0xx_hal_uart.c ****   if((__HAL_UART_GET_IT(huart, UART_IT_NE) != RESET) && (__HAL_UART_GET_IT_SOURCE(huart, UART_IT_ER
 956:Drivers/STM32F0xx_HAL_Driver/Src/stm32f0xx_hal_uart.c ****   {
 957:Drivers/STM32F0xx_HAL_Driver/Src/stm32f0xx_hal_uart.c ****     __HAL_UART_CLEAR_IT(huart, UART_CLEAR_NEF);
 958:Drivers/STM32F0xx_HAL_Driver/Src/stm32f0xx_hal_uart.c **** 
 959:Drivers/STM32F0xx_HAL_Driver/Src/stm32f0xx_hal_uart.c ****     huart->ErrorCode |= HAL_UART_ERROR_NE;
 960:Drivers/STM32F0xx_HAL_Driver/Src/stm32f0xx_hal_uart.c ****   }
 961:Drivers/STM32F0xx_HAL_Driver/Src/stm32f0xx_hal_uart.c **** 
 962:Drivers/STM32F0xx_HAL_Driver/Src/stm32f0xx_hal_uart.c ****   /* UART Over-Run interrupt occurred -----------------------------------------*/
 963:Drivers/STM32F0xx_HAL_Driver/Src/stm32f0xx_hal_uart.c ****   if((__HAL_UART_GET_IT(huart, UART_IT_ORE) != RESET) && (__HAL_UART_GET_IT_SOURCE(huart, UART_IT_E
 964:Drivers/STM32F0xx_HAL_Driver/Src/stm32f0xx_hal_uart.c ****   {
 965:Drivers/STM32F0xx_HAL_Driver/Src/stm32f0xx_hal_uart.c ****     __HAL_UART_CLEAR_IT(huart, UART_CLEAR_OREF);
 966:Drivers/STM32F0xx_HAL_Driver/Src/stm32f0xx_hal_uart.c **** 
 967:Drivers/STM32F0xx_HAL_Driver/Src/stm32f0xx_hal_uart.c ****     huart->ErrorCode |= HAL_UART_ERROR_ORE;
 968:Drivers/STM32F0xx_HAL_Driver/Src/stm32f0xx_hal_uart.c ****   }
 969:Drivers/STM32F0xx_HAL_Driver/Src/stm32f0xx_hal_uart.c **** 
 970:Drivers/STM32F0xx_HAL_Driver/Src/stm32f0xx_hal_uart.c **** #if !defined(STM32F030x6) && !defined(STM32F030x8)&& !defined(STM32F070xB)&& !defined(STM32F070x6)&
 971:Drivers/STM32F0xx_HAL_Driver/Src/stm32f0xx_hal_uart.c ****   /* UART wakeup from Stop mode interrupt occurred -------------------------------------*/
 972:Drivers/STM32F0xx_HAL_Driver/Src/stm32f0xx_hal_uart.c ****   if((__HAL_UART_GET_IT(huart, UART_IT_WUF) != RESET) && (__HAL_UART_GET_IT_SOURCE(huart, UART_IT_W
 973:Drivers/STM32F0xx_HAL_Driver/Src/stm32f0xx_hal_uart.c ****   {
 974:Drivers/STM32F0xx_HAL_Driver/Src/stm32f0xx_hal_uart.c ****     __HAL_UART_CLEAR_IT(huart, UART_CLEAR_WUF);
 975:Drivers/STM32F0xx_HAL_Driver/Src/stm32f0xx_hal_uart.c ****     /* Set the UART state ready to be able to start again the process */
 976:Drivers/STM32F0xx_HAL_Driver/Src/stm32f0xx_hal_uart.c ****     huart->gState = HAL_UART_STATE_READY;
 977:Drivers/STM32F0xx_HAL_Driver/Src/stm32f0xx_hal_uart.c ****     huart->RxState = HAL_UART_STATE_READY;
 978:Drivers/STM32F0xx_HAL_Driver/Src/stm32f0xx_hal_uart.c ****     HAL_UARTEx_WakeupCallback(huart);
 979:Drivers/STM32F0xx_HAL_Driver/Src/stm32f0xx_hal_uart.c ****   }
 980:Drivers/STM32F0xx_HAL_Driver/Src/stm32f0xx_hal_uart.c **** #endif /* !defined(STM32F030x6) && !defined(STM32F030x8)&& !defined(STM32F070xB)&& !defined(STM32F0
 981:Drivers/STM32F0xx_HAL_Driver/Src/stm32f0xx_hal_uart.c **** 
 982:Drivers/STM32F0xx_HAL_Driver/Src/stm32f0xx_hal_uart.c ****   /* UART in mode Receiver ---------------------------------------------------*/
 983:Drivers/STM32F0xx_HAL_Driver/Src/stm32f0xx_hal_uart.c ****   if((__HAL_UART_GET_IT(huart, UART_IT_RXNE) != RESET) && (__HAL_UART_GET_IT_SOURCE(huart, UART_IT_
 984:Drivers/STM32F0xx_HAL_Driver/Src/stm32f0xx_hal_uart.c ****   {
 985:Drivers/STM32F0xx_HAL_Driver/Src/stm32f0xx_hal_uart.c ****     UART_Receive_IT(huart);
 986:Drivers/STM32F0xx_HAL_Driver/Src/stm32f0xx_hal_uart.c ****   }
 987:Drivers/STM32F0xx_HAL_Driver/Src/stm32f0xx_hal_uart.c **** 
 988:Drivers/STM32F0xx_HAL_Driver/Src/stm32f0xx_hal_uart.c **** 
 989:Drivers/STM32F0xx_HAL_Driver/Src/stm32f0xx_hal_uart.c ****   /* UART in mode Transmitter ------------------------------------------------*/
 990:Drivers/STM32F0xx_HAL_Driver/Src/stm32f0xx_hal_uart.c ****   if((__HAL_UART_GET_IT(huart, UART_IT_TXE) != RESET) &&(__HAL_UART_GET_IT_SOURCE(huart, UART_IT_TX
 991:Drivers/STM32F0xx_HAL_Driver/Src/stm32f0xx_hal_uart.c ****   {
 992:Drivers/STM32F0xx_HAL_Driver/Src/stm32f0xx_hal_uart.c ****     UART_Transmit_IT(huart);
 993:Drivers/STM32F0xx_HAL_Driver/Src/stm32f0xx_hal_uart.c ****   }
 994:Drivers/STM32F0xx_HAL_Driver/Src/stm32f0xx_hal_uart.c **** 
 995:Drivers/STM32F0xx_HAL_Driver/Src/stm32f0xx_hal_uart.c ****   /* UART in mode Transmitter (transmission end) -----------------------------*/
 996:Drivers/STM32F0xx_HAL_Driver/Src/stm32f0xx_hal_uart.c ****  if((__HAL_UART_GET_IT(huart, UART_IT_TC) != RESET) &&(__HAL_UART_GET_IT_SOURCE(huart, UART_IT_TC) 
 997:Drivers/STM32F0xx_HAL_Driver/Src/stm32f0xx_hal_uart.c ****   {
 998:Drivers/STM32F0xx_HAL_Driver/Src/stm32f0xx_hal_uart.c ****     UART_EndTransmit_IT(huart);
 999:Drivers/STM32F0xx_HAL_Driver/Src/stm32f0xx_hal_uart.c ****   }
1000:Drivers/STM32F0xx_HAL_Driver/Src/stm32f0xx_hal_uart.c **** 
1001:Drivers/STM32F0xx_HAL_Driver/Src/stm32f0xx_hal_uart.c ****   if(huart->ErrorCode != HAL_UART_ERROR_NONE)
1002:Drivers/STM32F0xx_HAL_Driver/Src/stm32f0xx_hal_uart.c ****   {
1003:Drivers/STM32F0xx_HAL_Driver/Src/stm32f0xx_hal_uart.c ****     /* Set the UART state ready to be able to start again the Tx/Rx process */
1004:Drivers/STM32F0xx_HAL_Driver/Src/stm32f0xx_hal_uart.c ****     huart->gState = HAL_UART_STATE_READY;
1005:Drivers/STM32F0xx_HAL_Driver/Src/stm32f0xx_hal_uart.c ****     huart->RxState = HAL_UART_STATE_READY;
1006:Drivers/STM32F0xx_HAL_Driver/Src/stm32f0xx_hal_uart.c **** 
1007:Drivers/STM32F0xx_HAL_Driver/Src/stm32f0xx_hal_uart.c ****     HAL_UART_ErrorCallback(huart);
1008:Drivers/STM32F0xx_HAL_Driver/Src/stm32f0xx_hal_uart.c ****   }  
1009:Drivers/STM32F0xx_HAL_Driver/Src/stm32f0xx_hal_uart.c **** }
1010:Drivers/STM32F0xx_HAL_Driver/Src/stm32f0xx_hal_uart.c **** 
1011:Drivers/STM32F0xx_HAL_Driver/Src/stm32f0xx_hal_uart.c **** /**
ARM GAS  /tmp/ccjaQwTr.s 			page 27


1012:Drivers/STM32F0xx_HAL_Driver/Src/stm32f0xx_hal_uart.c ****   * @brief Send an amount of data in DMA mode.
1013:Drivers/STM32F0xx_HAL_Driver/Src/stm32f0xx_hal_uart.c ****   * @param huart: UART handle.
1014:Drivers/STM32F0xx_HAL_Driver/Src/stm32f0xx_hal_uart.c ****   * @param pData: pointer to data buffer.
1015:Drivers/STM32F0xx_HAL_Driver/Src/stm32f0xx_hal_uart.c ****   * @param Size: amount of data to be sent.
1016:Drivers/STM32F0xx_HAL_Driver/Src/stm32f0xx_hal_uart.c ****   * @note   When UART parity is not enabled (PCE = 0), and Word Length is configured to 9 bits (M1-
1017:Drivers/STM32F0xx_HAL_Driver/Src/stm32f0xx_hal_uart.c ****   *         address of user data buffer containing data to be sent, should be aligned on a half wor
1018:Drivers/STM32F0xx_HAL_Driver/Src/stm32f0xx_hal_uart.c ****   *         (as sent data will be handled by DMA from halfword frontier). Depending on compilation 
1019:Drivers/STM32F0xx_HAL_Driver/Src/stm32f0xx_hal_uart.c ****   *         use of specific alignment compilation directives or pragmas might be required to ensure
1020:Drivers/STM32F0xx_HAL_Driver/Src/stm32f0xx_hal_uart.c ****   * @retval HAL status
1021:Drivers/STM32F0xx_HAL_Driver/Src/stm32f0xx_hal_uart.c ****   */
1022:Drivers/STM32F0xx_HAL_Driver/Src/stm32f0xx_hal_uart.c **** HAL_StatusTypeDef HAL_UART_Transmit_DMA(UART_HandleTypeDef *huart, uint8_t *pData, uint16_t Size)
1023:Drivers/STM32F0xx_HAL_Driver/Src/stm32f0xx_hal_uart.c **** {
 413              		.loc 1 1023 0 is_stmt 1
 414              		.cfi_startproc
 415              	.LVL27:
 416 0000 1300     		movs	r3, r2
1024:Drivers/STM32F0xx_HAL_Driver/Src/stm32f0xx_hal_uart.c ****   uint32_t *tmp;
1025:Drivers/STM32F0xx_HAL_Driver/Src/stm32f0xx_hal_uart.c **** 
1026:Drivers/STM32F0xx_HAL_Driver/Src/stm32f0xx_hal_uart.c ****   /* Check that a Tx process is not already ongoing */
1027:Drivers/STM32F0xx_HAL_Driver/Src/stm32f0xx_hal_uart.c ****   if(huart->gState == HAL_UART_STATE_READY)
 417              		.loc 1 1027 0
 418 0002 0200     		movs	r2, r0
 419              	.LVL28:
1023:Drivers/STM32F0xx_HAL_Driver/Src/stm32f0xx_hal_uart.c ****   uint32_t *tmp;
 420              		.loc 1 1023 0
 421 0004 70B5     		push	{r4, r5, r6, lr}
 422              	.LCFI3:
 423              		.cfi_def_cfa_offset 16
 424              		.cfi_offset 4, -16
 425              		.cfi_offset 5, -12
 426              		.cfi_offset 6, -8
 427              		.cfi_offset 14, -4
 428              		.loc 1 1027 0
 429 0006 6932     		adds	r2, r2, #105
 430 0008 1578     		ldrb	r5, [r2]
1023:Drivers/STM32F0xx_HAL_Driver/Src/stm32f0xx_hal_uart.c ****   uint32_t *tmp;
 431              		.loc 1 1023 0
 432 000a 0400     		movs	r4, r0
1028:Drivers/STM32F0xx_HAL_Driver/Src/stm32f0xx_hal_uart.c ****   {
1029:Drivers/STM32F0xx_HAL_Driver/Src/stm32f0xx_hal_uart.c ****     if((pData == NULL ) || (Size == 0))
1030:Drivers/STM32F0xx_HAL_Driver/Src/stm32f0xx_hal_uart.c ****     {
1031:Drivers/STM32F0xx_HAL_Driver/Src/stm32f0xx_hal_uart.c ****       return HAL_ERROR;
1032:Drivers/STM32F0xx_HAL_Driver/Src/stm32f0xx_hal_uart.c ****     }
1033:Drivers/STM32F0xx_HAL_Driver/Src/stm32f0xx_hal_uart.c **** 
1034:Drivers/STM32F0xx_HAL_Driver/Src/stm32f0xx_hal_uart.c ****     /* In case of 9bits/No Parity transfer, pData buffer provided as input paramter 
1035:Drivers/STM32F0xx_HAL_Driver/Src/stm32f0xx_hal_uart.c ****        should be aligned on a u16 frontier, as data copy into TDR will be 
1036:Drivers/STM32F0xx_HAL_Driver/Src/stm32f0xx_hal_uart.c ****        handled by DMA from a u16 frontier. */
1037:Drivers/STM32F0xx_HAL_Driver/Src/stm32f0xx_hal_uart.c ****     if ((huart->Init.WordLength == UART_WORDLENGTH_9B) && (huart->Init.Parity == UART_PARITY_NONE))
1038:Drivers/STM32F0xx_HAL_Driver/Src/stm32f0xx_hal_uart.c ****     {
1039:Drivers/STM32F0xx_HAL_Driver/Src/stm32f0xx_hal_uart.c ****       if((((uint32_t)pData)&1) != 0)
1040:Drivers/STM32F0xx_HAL_Driver/Src/stm32f0xx_hal_uart.c ****       {
1041:Drivers/STM32F0xx_HAL_Driver/Src/stm32f0xx_hal_uart.c ****         return  HAL_ERROR;
1042:Drivers/STM32F0xx_HAL_Driver/Src/stm32f0xx_hal_uart.c ****       }
1043:Drivers/STM32F0xx_HAL_Driver/Src/stm32f0xx_hal_uart.c ****     }
1044:Drivers/STM32F0xx_HAL_Driver/Src/stm32f0xx_hal_uart.c **** 
1045:Drivers/STM32F0xx_HAL_Driver/Src/stm32f0xx_hal_uart.c ****     /* Process Locked */
1046:Drivers/STM32F0xx_HAL_Driver/Src/stm32f0xx_hal_uart.c ****     __HAL_LOCK(huart);
ARM GAS  /tmp/ccjaQwTr.s 			page 28


1047:Drivers/STM32F0xx_HAL_Driver/Src/stm32f0xx_hal_uart.c **** 
1048:Drivers/STM32F0xx_HAL_Driver/Src/stm32f0xx_hal_uart.c ****     huart->pTxBuffPtr = pData;
1049:Drivers/STM32F0xx_HAL_Driver/Src/stm32f0xx_hal_uart.c ****     huart->TxXferSize = Size;
1050:Drivers/STM32F0xx_HAL_Driver/Src/stm32f0xx_hal_uart.c ****     huart->TxXferCount = Size;
1051:Drivers/STM32F0xx_HAL_Driver/Src/stm32f0xx_hal_uart.c **** 
1052:Drivers/STM32F0xx_HAL_Driver/Src/stm32f0xx_hal_uart.c ****     huart->ErrorCode = HAL_UART_ERROR_NONE;
1053:Drivers/STM32F0xx_HAL_Driver/Src/stm32f0xx_hal_uart.c ****     huart->gState = HAL_UART_STATE_BUSY_TX;
1054:Drivers/STM32F0xx_HAL_Driver/Src/stm32f0xx_hal_uart.c **** 
1055:Drivers/STM32F0xx_HAL_Driver/Src/stm32f0xx_hal_uart.c ****     /* Set the UART DMA transfer complete callback */
1056:Drivers/STM32F0xx_HAL_Driver/Src/stm32f0xx_hal_uart.c ****     huart->hdmatx->XferCpltCallback = UART_DMATransmitCplt;
1057:Drivers/STM32F0xx_HAL_Driver/Src/stm32f0xx_hal_uart.c **** 
1058:Drivers/STM32F0xx_HAL_Driver/Src/stm32f0xx_hal_uart.c ****     /* Set the UART DMA Half transfer complete callback */
1059:Drivers/STM32F0xx_HAL_Driver/Src/stm32f0xx_hal_uart.c ****     huart->hdmatx->XferHalfCpltCallback = UART_DMATxHalfCplt;
1060:Drivers/STM32F0xx_HAL_Driver/Src/stm32f0xx_hal_uart.c **** 
1061:Drivers/STM32F0xx_HAL_Driver/Src/stm32f0xx_hal_uart.c ****     /* Set the DMA error callback */
1062:Drivers/STM32F0xx_HAL_Driver/Src/stm32f0xx_hal_uart.c ****     huart->hdmatx->XferErrorCallback = UART_DMAError;
1063:Drivers/STM32F0xx_HAL_Driver/Src/stm32f0xx_hal_uart.c **** 
1064:Drivers/STM32F0xx_HAL_Driver/Src/stm32f0xx_hal_uart.c ****     /* Enable the UART transmit DMA channel */
1065:Drivers/STM32F0xx_HAL_Driver/Src/stm32f0xx_hal_uart.c ****     tmp = (uint32_t*)&pData;
1066:Drivers/STM32F0xx_HAL_Driver/Src/stm32f0xx_hal_uart.c ****     HAL_DMA_Start_IT(huart->hdmatx, *(uint32_t*)tmp, (uint32_t)&huart->Instance->TDR, Size);
1067:Drivers/STM32F0xx_HAL_Driver/Src/stm32f0xx_hal_uart.c **** 
1068:Drivers/STM32F0xx_HAL_Driver/Src/stm32f0xx_hal_uart.c ****     /* Clear the TC flag in the ICR register */
1069:Drivers/STM32F0xx_HAL_Driver/Src/stm32f0xx_hal_uart.c ****     __HAL_UART_CLEAR_FLAG(huart, UART_CLEAR_TCF);
1070:Drivers/STM32F0xx_HAL_Driver/Src/stm32f0xx_hal_uart.c **** 
1071:Drivers/STM32F0xx_HAL_Driver/Src/stm32f0xx_hal_uart.c ****     /* Enable the DMA transfer for transmit request by setting the DMAT bit
1072:Drivers/STM32F0xx_HAL_Driver/Src/stm32f0xx_hal_uart.c ****        in the UART CR3 register */
1073:Drivers/STM32F0xx_HAL_Driver/Src/stm32f0xx_hal_uart.c ****     huart->Instance->CR3 |= USART_CR3_DMAT;
1074:Drivers/STM32F0xx_HAL_Driver/Src/stm32f0xx_hal_uart.c **** 
1075:Drivers/STM32F0xx_HAL_Driver/Src/stm32f0xx_hal_uart.c ****     /* Process Unlocked */
1076:Drivers/STM32F0xx_HAL_Driver/Src/stm32f0xx_hal_uart.c ****     __HAL_UNLOCK(huart);
1077:Drivers/STM32F0xx_HAL_Driver/Src/stm32f0xx_hal_uart.c **** 
1078:Drivers/STM32F0xx_HAL_Driver/Src/stm32f0xx_hal_uart.c ****     return HAL_OK;
1079:Drivers/STM32F0xx_HAL_Driver/Src/stm32f0xx_hal_uart.c ****   }
1080:Drivers/STM32F0xx_HAL_Driver/Src/stm32f0xx_hal_uart.c ****   else
1081:Drivers/STM32F0xx_HAL_Driver/Src/stm32f0xx_hal_uart.c ****   {
1082:Drivers/STM32F0xx_HAL_Driver/Src/stm32f0xx_hal_uart.c ****     return HAL_BUSY;
 433              		.loc 1 1082 0
 434 000c 0220     		movs	r0, #2
 435              	.LVL29:
1027:Drivers/STM32F0xx_HAL_Driver/Src/stm32f0xx_hal_uart.c ****   {
 436              		.loc 1 1027 0
 437 000e 202D     		cmp	r5, #32
 438 0010 33D1     		bne	.L41
1031:Drivers/STM32F0xx_HAL_Driver/Src/stm32f0xx_hal_uart.c ****     }
 439              		.loc 1 1031 0
 440 0012 0138     		subs	r0, r0, #1
1029:Drivers/STM32F0xx_HAL_Driver/Src/stm32f0xx_hal_uart.c ****     {
 441              		.loc 1 1029 0
 442 0014 0029     		cmp	r1, #0
 443 0016 30D0     		beq	.L41
1029:Drivers/STM32F0xx_HAL_Driver/Src/stm32f0xx_hal_uart.c ****     {
 444              		.loc 1 1029 0 is_stmt 0 discriminator 1
 445 0018 002B     		cmp	r3, #0
 446 001a 2ED0     		beq	.L41
1037:Drivers/STM32F0xx_HAL_Driver/Src/stm32f0xx_hal_uart.c ****     {
 447              		.loc 1 1037 0 is_stmt 1
 448 001c 8025     		movs	r5, #128
ARM GAS  /tmp/ccjaQwTr.s 			page 29


 449 001e A668     		ldr	r6, [r4, #8]
 450 0020 6D01     		lsls	r5, r5, #5
 451 0022 AE42     		cmp	r6, r5
 452 0024 04D1     		bne	.L42
1037:Drivers/STM32F0xx_HAL_Driver/Src/stm32f0xx_hal_uart.c ****     {
 453              		.loc 1 1037 0 is_stmt 0 discriminator 1
 454 0026 2569     		ldr	r5, [r4, #16]
 455 0028 002D     		cmp	r5, #0
 456 002a 01D1     		bne	.L42
1039:Drivers/STM32F0xx_HAL_Driver/Src/stm32f0xx_hal_uart.c ****       {
 457              		.loc 1 1039 0 is_stmt 1
 458 002c 0142     		tst	r1, r0
 459 002e 24D1     		bne	.L41
 460              	.L42:
1046:Drivers/STM32F0xx_HAL_Driver/Src/stm32f0xx_hal_uart.c **** 
 461              		.loc 1 1046 0
 462 0030 2600     		movs	r6, r4
 463 0032 6836     		adds	r6, r6, #104
 464 0034 3578     		ldrb	r5, [r6]
 465              		.loc 1 1082 0
 466 0036 0220     		movs	r0, #2
1046:Drivers/STM32F0xx_HAL_Driver/Src/stm32f0xx_hal_uart.c **** 
 467              		.loc 1 1046 0
 468 0038 012D     		cmp	r5, #1
 469 003a 1ED0     		beq	.L41
1046:Drivers/STM32F0xx_HAL_Driver/Src/stm32f0xx_hal_uart.c **** 
 470              		.loc 1 1046 0 is_stmt 0 discriminator 2
 471 003c 0138     		subs	r0, r0, #1
 472 003e 3070     		strb	r0, [r6]
1049:Drivers/STM32F0xx_HAL_Driver/Src/stm32f0xx_hal_uart.c ****     huart->TxXferCount = Size;
 473              		.loc 1 1049 0 is_stmt 1 discriminator 2
 474 0040 2000     		movs	r0, r4
 475 0042 5030     		adds	r0, r0, #80
1048:Drivers/STM32F0xx_HAL_Driver/Src/stm32f0xx_hal_uart.c ****     huart->TxXferSize = Size;
 476              		.loc 1 1048 0 discriminator 2
 477 0044 E164     		str	r1, [r4, #76]
1052:Drivers/STM32F0xx_HAL_Driver/Src/stm32f0xx_hal_uart.c ****     huart->gState = HAL_UART_STATE_BUSY_TX;
 478              		.loc 1 1052 0 discriminator 2
 479 0046 0025     		movs	r5, #0
1049:Drivers/STM32F0xx_HAL_Driver/Src/stm32f0xx_hal_uart.c ****     huart->TxXferCount = Size;
 480              		.loc 1 1049 0 discriminator 2
 481 0048 0380     		strh	r3, [r0]
1050:Drivers/STM32F0xx_HAL_Driver/Src/stm32f0xx_hal_uart.c **** 
 482              		.loc 1 1050 0 discriminator 2
 483 004a 4380     		strh	r3, [r0, #2]
1053:Drivers/STM32F0xx_HAL_Driver/Src/stm32f0xx_hal_uart.c **** 
 484              		.loc 1 1053 0 discriminator 2
 485 004c 2120     		movs	r0, #33
1052:Drivers/STM32F0xx_HAL_Driver/Src/stm32f0xx_hal_uart.c ****     huart->gState = HAL_UART_STATE_BUSY_TX;
 486              		.loc 1 1052 0 discriminator 2
 487 004e E566     		str	r5, [r4, #108]
1053:Drivers/STM32F0xx_HAL_Driver/Src/stm32f0xx_hal_uart.c **** 
 488              		.loc 1 1053 0 discriminator 2
 489 0050 1070     		strb	r0, [r2]
1056:Drivers/STM32F0xx_HAL_Driver/Src/stm32f0xx_hal_uart.c **** 
 490              		.loc 1 1056 0 discriminator 2
 491 0052 206E     		ldr	r0, [r4, #96]
ARM GAS  /tmp/ccjaQwTr.s 			page 30


 492 0054 094A     		ldr	r2, .L50
 493 0056 8262     		str	r2, [r0, #40]
1059:Drivers/STM32F0xx_HAL_Driver/Src/stm32f0xx_hal_uart.c **** 
 494              		.loc 1 1059 0 discriminator 2
 495 0058 094A     		ldr	r2, .L50+4
 496 005a C262     		str	r2, [r0, #44]
1062:Drivers/STM32F0xx_HAL_Driver/Src/stm32f0xx_hal_uart.c **** 
 497              		.loc 1 1062 0 discriminator 2
 498 005c 094A     		ldr	r2, .L50+8
 499 005e 0263     		str	r2, [r0, #48]
 500              	.LVL30:
1066:Drivers/STM32F0xx_HAL_Driver/Src/stm32f0xx_hal_uart.c **** 
 501              		.loc 1 1066 0 discriminator 2
 502 0060 2268     		ldr	r2, [r4]
 503 0062 2832     		adds	r2, r2, #40
 504 0064 FFF7FEFF 		bl	HAL_DMA_Start_IT
 505              	.LVL31:
1069:Drivers/STM32F0xx_HAL_Driver/Src/stm32f0xx_hal_uart.c **** 
 506              		.loc 1 1069 0 discriminator 2
 507 0068 4022     		movs	r2, #64
1078:Drivers/STM32F0xx_HAL_Driver/Src/stm32f0xx_hal_uart.c ****   }
 508              		.loc 1 1078 0 discriminator 2
 509 006a 2800     		movs	r0, r5
1069:Drivers/STM32F0xx_HAL_Driver/Src/stm32f0xx_hal_uart.c **** 
 510              		.loc 1 1069 0 discriminator 2
 511 006c 2368     		ldr	r3, [r4]
 512 006e 1A62     		str	r2, [r3, #32]
1073:Drivers/STM32F0xx_HAL_Driver/Src/stm32f0xx_hal_uart.c **** 
 513              		.loc 1 1073 0 discriminator 2
 514 0070 9968     		ldr	r1, [r3, #8]
 515 0072 9218     		adds	r2, r2, r2
 516 0074 0A43     		orrs	r2, r1
 517 0076 9A60     		str	r2, [r3, #8]
1076:Drivers/STM32F0xx_HAL_Driver/Src/stm32f0xx_hal_uart.c **** 
 518              		.loc 1 1076 0 discriminator 2
 519 0078 3570     		strb	r5, [r6]
 520              	.LVL32:
 521              	.L41:
1083:Drivers/STM32F0xx_HAL_Driver/Src/stm32f0xx_hal_uart.c ****   }
1084:Drivers/STM32F0xx_HAL_Driver/Src/stm32f0xx_hal_uart.c **** }
 522              		.loc 1 1084 0
 523              		@ sp needed
 524              	.LVL33:
 525 007a 70BD     		pop	{r4, r5, r6, pc}
 526              	.L51:
 527              		.align	2
 528              	.L50:
 529 007c 00000000 		.word	UART_DMATransmitCplt
 530 0080 00000000 		.word	UART_DMATxHalfCplt
 531 0084 00000000 		.word	UART_DMAError
 532              		.cfi_endproc
 533              	.LFE46:
 535              		.section	.text.HAL_UART_Receive_DMA,"ax",%progbits
 536              		.align	1
 537              		.global	HAL_UART_Receive_DMA
 538              		.syntax unified
 539              		.code	16
ARM GAS  /tmp/ccjaQwTr.s 			page 31


 540              		.thumb_func
 541              		.fpu softvfp
 543              	HAL_UART_Receive_DMA:
 544              	.LFB47:
1085:Drivers/STM32F0xx_HAL_Driver/Src/stm32f0xx_hal_uart.c **** 
1086:Drivers/STM32F0xx_HAL_Driver/Src/stm32f0xx_hal_uart.c **** /**
1087:Drivers/STM32F0xx_HAL_Driver/Src/stm32f0xx_hal_uart.c ****   * @brief Receive an amount of data in DMA mode.
1088:Drivers/STM32F0xx_HAL_Driver/Src/stm32f0xx_hal_uart.c ****   * @param huart: UART handle.
1089:Drivers/STM32F0xx_HAL_Driver/Src/stm32f0xx_hal_uart.c ****   * @param pData: pointer to data buffer.
1090:Drivers/STM32F0xx_HAL_Driver/Src/stm32f0xx_hal_uart.c ****   * @param Size: amount of data to be received.
1091:Drivers/STM32F0xx_HAL_Driver/Src/stm32f0xx_hal_uart.c ****   * @note   When UART parity is not enabled (PCE = 0), and Word Length is configured to 9 bits (M1-
1092:Drivers/STM32F0xx_HAL_Driver/Src/stm32f0xx_hal_uart.c ****   *         address of user data buffer for storing data to be received, should be aligned on a hal
1093:Drivers/STM32F0xx_HAL_Driver/Src/stm32f0xx_hal_uart.c ****   *         (as received data will be handled by DMA from halfword frontier). Depending on compilat
1094:Drivers/STM32F0xx_HAL_Driver/Src/stm32f0xx_hal_uart.c ****   *         use of specific alignment compilation directives or pragmas might be required to ensure
1095:Drivers/STM32F0xx_HAL_Driver/Src/stm32f0xx_hal_uart.c ****   * @retval HAL status
1096:Drivers/STM32F0xx_HAL_Driver/Src/stm32f0xx_hal_uart.c ****   */
1097:Drivers/STM32F0xx_HAL_Driver/Src/stm32f0xx_hal_uart.c **** HAL_StatusTypeDef HAL_UART_Receive_DMA(UART_HandleTypeDef *huart, uint8_t *pData, uint16_t Size)
1098:Drivers/STM32F0xx_HAL_Driver/Src/stm32f0xx_hal_uart.c **** {
 545              		.loc 1 1098 0
 546              		.cfi_startproc
 547              	.LVL34:
 548 0000 F8B5     		push	{r3, r4, r5, r6, r7, lr}
 549              	.LCFI4:
 550              		.cfi_def_cfa_offset 24
 551              		.cfi_offset 3, -24
 552              		.cfi_offset 4, -20
 553              		.cfi_offset 5, -16
 554              		.cfi_offset 6, -12
 555              		.cfi_offset 7, -8
 556              		.cfi_offset 14, -4
 557              		.loc 1 1098 0
 558 0002 1300     		movs	r3, r2
1099:Drivers/STM32F0xx_HAL_Driver/Src/stm32f0xx_hal_uart.c ****   uint32_t *tmp;
1100:Drivers/STM32F0xx_HAL_Driver/Src/stm32f0xx_hal_uart.c **** 
1101:Drivers/STM32F0xx_HAL_Driver/Src/stm32f0xx_hal_uart.c ****   /* Check that a Rx process is not already ongoing */
1102:Drivers/STM32F0xx_HAL_Driver/Src/stm32f0xx_hal_uart.c ****   if(huart->RxState == HAL_UART_STATE_READY)
 559              		.loc 1 1102 0
 560 0004 0200     		movs	r2, r0
 561              	.LVL35:
 562 0006 6A32     		adds	r2, r2, #106
 563 0008 1478     		ldrb	r4, [r2]
1098:Drivers/STM32F0xx_HAL_Driver/Src/stm32f0xx_hal_uart.c ****   uint32_t *tmp;
 564              		.loc 1 1098 0
 565 000a 0500     		movs	r5, r0
1103:Drivers/STM32F0xx_HAL_Driver/Src/stm32f0xx_hal_uart.c ****   {
1104:Drivers/STM32F0xx_HAL_Driver/Src/stm32f0xx_hal_uart.c ****     if((pData == NULL ) || (Size == 0))
1105:Drivers/STM32F0xx_HAL_Driver/Src/stm32f0xx_hal_uart.c ****     {
1106:Drivers/STM32F0xx_HAL_Driver/Src/stm32f0xx_hal_uart.c ****       return HAL_ERROR;
1107:Drivers/STM32F0xx_HAL_Driver/Src/stm32f0xx_hal_uart.c ****     }
1108:Drivers/STM32F0xx_HAL_Driver/Src/stm32f0xx_hal_uart.c **** 
1109:Drivers/STM32F0xx_HAL_Driver/Src/stm32f0xx_hal_uart.c ****     /* In case of 9bits/No Parity transfer, pData buffer provided as input paramter 
1110:Drivers/STM32F0xx_HAL_Driver/Src/stm32f0xx_hal_uart.c ****        should be aligned on a u16 frontier, as data copy from RDR will be 
1111:Drivers/STM32F0xx_HAL_Driver/Src/stm32f0xx_hal_uart.c ****        handled by DMA from a u16 frontier. */
1112:Drivers/STM32F0xx_HAL_Driver/Src/stm32f0xx_hal_uart.c ****     if ((huart->Init.WordLength == UART_WORDLENGTH_9B) && (huart->Init.Parity == UART_PARITY_NONE))
1113:Drivers/STM32F0xx_HAL_Driver/Src/stm32f0xx_hal_uart.c ****     {
1114:Drivers/STM32F0xx_HAL_Driver/Src/stm32f0xx_hal_uart.c ****       if((((uint32_t)pData)&1) != 0)
1115:Drivers/STM32F0xx_HAL_Driver/Src/stm32f0xx_hal_uart.c ****       {
ARM GAS  /tmp/ccjaQwTr.s 			page 32


1116:Drivers/STM32F0xx_HAL_Driver/Src/stm32f0xx_hal_uart.c ****         return  HAL_ERROR;
1117:Drivers/STM32F0xx_HAL_Driver/Src/stm32f0xx_hal_uart.c ****       }
1118:Drivers/STM32F0xx_HAL_Driver/Src/stm32f0xx_hal_uart.c ****     }
1119:Drivers/STM32F0xx_HAL_Driver/Src/stm32f0xx_hal_uart.c **** 
1120:Drivers/STM32F0xx_HAL_Driver/Src/stm32f0xx_hal_uart.c ****     /* Process Locked */
1121:Drivers/STM32F0xx_HAL_Driver/Src/stm32f0xx_hal_uart.c ****     __HAL_LOCK(huart);
1122:Drivers/STM32F0xx_HAL_Driver/Src/stm32f0xx_hal_uart.c **** 
1123:Drivers/STM32F0xx_HAL_Driver/Src/stm32f0xx_hal_uart.c ****     huart->pRxBuffPtr = pData;
1124:Drivers/STM32F0xx_HAL_Driver/Src/stm32f0xx_hal_uart.c ****     huart->RxXferSize = Size;
1125:Drivers/STM32F0xx_HAL_Driver/Src/stm32f0xx_hal_uart.c **** 
1126:Drivers/STM32F0xx_HAL_Driver/Src/stm32f0xx_hal_uart.c ****     huart->ErrorCode = HAL_UART_ERROR_NONE;
1127:Drivers/STM32F0xx_HAL_Driver/Src/stm32f0xx_hal_uart.c ****     huart->RxState = HAL_UART_STATE_BUSY_RX;
1128:Drivers/STM32F0xx_HAL_Driver/Src/stm32f0xx_hal_uart.c **** 
1129:Drivers/STM32F0xx_HAL_Driver/Src/stm32f0xx_hal_uart.c ****     /* Set the UART DMA transfer complete callback */
1130:Drivers/STM32F0xx_HAL_Driver/Src/stm32f0xx_hal_uart.c ****     huart->hdmarx->XferCpltCallback = UART_DMAReceiveCplt;
1131:Drivers/STM32F0xx_HAL_Driver/Src/stm32f0xx_hal_uart.c **** 
1132:Drivers/STM32F0xx_HAL_Driver/Src/stm32f0xx_hal_uart.c ****     /* Set the UART DMA Half transfer complete callback */
1133:Drivers/STM32F0xx_HAL_Driver/Src/stm32f0xx_hal_uart.c ****     huart->hdmarx->XferHalfCpltCallback = UART_DMARxHalfCplt;
1134:Drivers/STM32F0xx_HAL_Driver/Src/stm32f0xx_hal_uart.c **** 
1135:Drivers/STM32F0xx_HAL_Driver/Src/stm32f0xx_hal_uart.c ****     /* Set the DMA error callback */
1136:Drivers/STM32F0xx_HAL_Driver/Src/stm32f0xx_hal_uart.c ****     huart->hdmarx->XferErrorCallback = UART_DMAError;
1137:Drivers/STM32F0xx_HAL_Driver/Src/stm32f0xx_hal_uart.c **** 
1138:Drivers/STM32F0xx_HAL_Driver/Src/stm32f0xx_hal_uart.c ****     /* Enable the DMA channel */
1139:Drivers/STM32F0xx_HAL_Driver/Src/stm32f0xx_hal_uart.c ****     tmp = (uint32_t*)&pData;
1140:Drivers/STM32F0xx_HAL_Driver/Src/stm32f0xx_hal_uart.c ****     HAL_DMA_Start_IT(huart->hdmarx, (uint32_t)&huart->Instance->RDR, *(uint32_t*)tmp, Size);
1141:Drivers/STM32F0xx_HAL_Driver/Src/stm32f0xx_hal_uart.c **** 
1142:Drivers/STM32F0xx_HAL_Driver/Src/stm32f0xx_hal_uart.c ****     /* Enable the DMA transfer for the receiver request by setting the DMAR bit
1143:Drivers/STM32F0xx_HAL_Driver/Src/stm32f0xx_hal_uart.c ****        in the UART CR3 register */
1144:Drivers/STM32F0xx_HAL_Driver/Src/stm32f0xx_hal_uart.c ****      huart->Instance->CR3 |= USART_CR3_DMAR;
1145:Drivers/STM32F0xx_HAL_Driver/Src/stm32f0xx_hal_uart.c **** 
1146:Drivers/STM32F0xx_HAL_Driver/Src/stm32f0xx_hal_uart.c ****      /* Process Unlocked */
1147:Drivers/STM32F0xx_HAL_Driver/Src/stm32f0xx_hal_uart.c ****      __HAL_UNLOCK(huart);
1148:Drivers/STM32F0xx_HAL_Driver/Src/stm32f0xx_hal_uart.c **** 
1149:Drivers/STM32F0xx_HAL_Driver/Src/stm32f0xx_hal_uart.c ****     return HAL_OK;
1150:Drivers/STM32F0xx_HAL_Driver/Src/stm32f0xx_hal_uart.c ****   }
1151:Drivers/STM32F0xx_HAL_Driver/Src/stm32f0xx_hal_uart.c ****   else
1152:Drivers/STM32F0xx_HAL_Driver/Src/stm32f0xx_hal_uart.c ****   {
1153:Drivers/STM32F0xx_HAL_Driver/Src/stm32f0xx_hal_uart.c ****     return HAL_BUSY;
 566              		.loc 1 1153 0
 567 000c 0220     		movs	r0, #2
 568              	.LVL36:
1102:Drivers/STM32F0xx_HAL_Driver/Src/stm32f0xx_hal_uart.c ****   {
 569              		.loc 1 1102 0
 570 000e 202C     		cmp	r4, #32
 571 0010 32D1     		bne	.L53
1106:Drivers/STM32F0xx_HAL_Driver/Src/stm32f0xx_hal_uart.c ****     }
 572              		.loc 1 1106 0
 573 0012 0138     		subs	r0, r0, #1
1104:Drivers/STM32F0xx_HAL_Driver/Src/stm32f0xx_hal_uart.c ****     {
 574              		.loc 1 1104 0
 575 0014 0029     		cmp	r1, #0
 576 0016 2FD0     		beq	.L53
1104:Drivers/STM32F0xx_HAL_Driver/Src/stm32f0xx_hal_uart.c ****     {
 577              		.loc 1 1104 0 is_stmt 0 discriminator 1
 578 0018 002B     		cmp	r3, #0
 579 001a 2DD0     		beq	.L53
1112:Drivers/STM32F0xx_HAL_Driver/Src/stm32f0xx_hal_uart.c ****     {
ARM GAS  /tmp/ccjaQwTr.s 			page 33


 580              		.loc 1 1112 0 is_stmt 1
 581 001c 8024     		movs	r4, #128
 582 001e AE68     		ldr	r6, [r5, #8]
 583 0020 6401     		lsls	r4, r4, #5
 584 0022 A642     		cmp	r6, r4
 585 0024 04D1     		bne	.L54
1112:Drivers/STM32F0xx_HAL_Driver/Src/stm32f0xx_hal_uart.c ****     {
 586              		.loc 1 1112 0 is_stmt 0 discriminator 1
 587 0026 2C69     		ldr	r4, [r5, #16]
 588 0028 002C     		cmp	r4, #0
 589 002a 01D1     		bne	.L54
1114:Drivers/STM32F0xx_HAL_Driver/Src/stm32f0xx_hal_uart.c ****       {
 590              		.loc 1 1114 0 is_stmt 1
 591 002c 0142     		tst	r1, r0
 592 002e 23D1     		bne	.L53
 593              	.L54:
1121:Drivers/STM32F0xx_HAL_Driver/Src/stm32f0xx_hal_uart.c **** 
 594              		.loc 1 1121 0
 595 0030 2E00     		movs	r6, r5
 596 0032 6836     		adds	r6, r6, #104
 597 0034 3478     		ldrb	r4, [r6]
 598              		.loc 1 1153 0
 599 0036 0220     		movs	r0, #2
1121:Drivers/STM32F0xx_HAL_Driver/Src/stm32f0xx_hal_uart.c **** 
 600              		.loc 1 1121 0
 601 0038 012C     		cmp	r4, #1
 602 003a 1DD0     		beq	.L53
1121:Drivers/STM32F0xx_HAL_Driver/Src/stm32f0xx_hal_uart.c **** 
 603              		.loc 1 1121 0 is_stmt 0 discriminator 2
 604 003c 0138     		subs	r0, r0, #1
 605 003e 3070     		strb	r0, [r6]
1124:Drivers/STM32F0xx_HAL_Driver/Src/stm32f0xx_hal_uart.c **** 
 606              		.loc 1 1124 0 is_stmt 1 discriminator 2
 607 0040 2800     		movs	r0, r5
 608 0042 5830     		adds	r0, r0, #88
1123:Drivers/STM32F0xx_HAL_Driver/Src/stm32f0xx_hal_uart.c ****     huart->RxXferSize = Size;
 609              		.loc 1 1123 0 discriminator 2
 610 0044 6965     		str	r1, [r5, #84]
1126:Drivers/STM32F0xx_HAL_Driver/Src/stm32f0xx_hal_uart.c ****     huart->RxState = HAL_UART_STATE_BUSY_RX;
 611              		.loc 1 1126 0 discriminator 2
 612 0046 0024     		movs	r4, #0
1124:Drivers/STM32F0xx_HAL_Driver/Src/stm32f0xx_hal_uart.c **** 
 613              		.loc 1 1124 0 discriminator 2
 614 0048 0380     		strh	r3, [r0]
1127:Drivers/STM32F0xx_HAL_Driver/Src/stm32f0xx_hal_uart.c **** 
 615              		.loc 1 1127 0 discriminator 2
 616 004a 2220     		movs	r0, #34
1126:Drivers/STM32F0xx_HAL_Driver/Src/stm32f0xx_hal_uart.c ****     huart->RxState = HAL_UART_STATE_BUSY_RX;
 617              		.loc 1 1126 0 discriminator 2
 618 004c EC66     		str	r4, [r5, #108]
1127:Drivers/STM32F0xx_HAL_Driver/Src/stm32f0xx_hal_uart.c **** 
 619              		.loc 1 1127 0 discriminator 2
 620 004e 1070     		strb	r0, [r2]
1130:Drivers/STM32F0xx_HAL_Driver/Src/stm32f0xx_hal_uart.c **** 
 621              		.loc 1 1130 0 discriminator 2
 622 0050 686E     		ldr	r0, [r5, #100]
 623 0052 0A4A     		ldr	r2, .L62
ARM GAS  /tmp/ccjaQwTr.s 			page 34


1140:Drivers/STM32F0xx_HAL_Driver/Src/stm32f0xx_hal_uart.c **** 
 624              		.loc 1 1140 0 discriminator 2
 625 0054 2F68     		ldr	r7, [r5]
1130:Drivers/STM32F0xx_HAL_Driver/Src/stm32f0xx_hal_uart.c **** 
 626              		.loc 1 1130 0 discriminator 2
 627 0056 8262     		str	r2, [r0, #40]
1133:Drivers/STM32F0xx_HAL_Driver/Src/stm32f0xx_hal_uart.c **** 
 628              		.loc 1 1133 0 discriminator 2
 629 0058 094A     		ldr	r2, .L62+4
1140:Drivers/STM32F0xx_HAL_Driver/Src/stm32f0xx_hal_uart.c **** 
 630              		.loc 1 1140 0 discriminator 2
 631 005a 2437     		adds	r7, r7, #36
1133:Drivers/STM32F0xx_HAL_Driver/Src/stm32f0xx_hal_uart.c **** 
 632              		.loc 1 1133 0 discriminator 2
 633 005c C262     		str	r2, [r0, #44]
1136:Drivers/STM32F0xx_HAL_Driver/Src/stm32f0xx_hal_uart.c **** 
 634              		.loc 1 1136 0 discriminator 2
 635 005e 094A     		ldr	r2, .L62+8
 636 0060 0263     		str	r2, [r0, #48]
 637              	.LVL37:
1140:Drivers/STM32F0xx_HAL_Driver/Src/stm32f0xx_hal_uart.c **** 
 638              		.loc 1 1140 0 discriminator 2
 639 0062 0A00     		movs	r2, r1
 640 0064 3900     		movs	r1, r7
 641              	.LVL38:
 642 0066 FFF7FEFF 		bl	HAL_DMA_Start_IT
 643              	.LVL39:
1144:Drivers/STM32F0xx_HAL_Driver/Src/stm32f0xx_hal_uart.c **** 
 644              		.loc 1 1144 0 discriminator 2
 645 006a 4023     		movs	r3, #64
1149:Drivers/STM32F0xx_HAL_Driver/Src/stm32f0xx_hal_uart.c ****   }
 646              		.loc 1 1149 0 discriminator 2
 647 006c 2000     		movs	r0, r4
1144:Drivers/STM32F0xx_HAL_Driver/Src/stm32f0xx_hal_uart.c **** 
 648              		.loc 1 1144 0 discriminator 2
 649 006e 2A68     		ldr	r2, [r5]
 650 0070 9168     		ldr	r1, [r2, #8]
 651 0072 0B43     		orrs	r3, r1
 652 0074 9360     		str	r3, [r2, #8]
1147:Drivers/STM32F0xx_HAL_Driver/Src/stm32f0xx_hal_uart.c **** 
 653              		.loc 1 1147 0 discriminator 2
 654 0076 3470     		strb	r4, [r6]
 655              	.LVL40:
 656              	.L53:
1154:Drivers/STM32F0xx_HAL_Driver/Src/stm32f0xx_hal_uart.c ****   }
1155:Drivers/STM32F0xx_HAL_Driver/Src/stm32f0xx_hal_uart.c **** }
 657              		.loc 1 1155 0
 658              		@ sp needed
 659              	.LVL41:
 660 0078 F8BD     		pop	{r3, r4, r5, r6, r7, pc}
 661              	.L63:
 662 007a C046     		.align	2
 663              	.L62:
 664 007c 00000000 		.word	UART_DMAReceiveCplt
 665 0080 00000000 		.word	UART_DMARxHalfCplt
 666 0084 00000000 		.word	UART_DMAError
 667              		.cfi_endproc
ARM GAS  /tmp/ccjaQwTr.s 			page 35


 668              	.LFE47:
 670              		.section	.text.HAL_UART_DMAPause,"ax",%progbits
 671              		.align	1
 672              		.global	HAL_UART_DMAPause
 673              		.syntax unified
 674              		.code	16
 675              		.thumb_func
 676              		.fpu softvfp
 678              	HAL_UART_DMAPause:
 679              	.LFB48:
1156:Drivers/STM32F0xx_HAL_Driver/Src/stm32f0xx_hal_uart.c **** 
1157:Drivers/STM32F0xx_HAL_Driver/Src/stm32f0xx_hal_uart.c **** /**
1158:Drivers/STM32F0xx_HAL_Driver/Src/stm32f0xx_hal_uart.c ****   * @brief Pause the DMA Transfer.
1159:Drivers/STM32F0xx_HAL_Driver/Src/stm32f0xx_hal_uart.c ****   * @param huart: UART handle.
1160:Drivers/STM32F0xx_HAL_Driver/Src/stm32f0xx_hal_uart.c ****   * @retval HAL status
1161:Drivers/STM32F0xx_HAL_Driver/Src/stm32f0xx_hal_uart.c ****   */
1162:Drivers/STM32F0xx_HAL_Driver/Src/stm32f0xx_hal_uart.c **** HAL_StatusTypeDef HAL_UART_DMAPause(UART_HandleTypeDef *huart)
1163:Drivers/STM32F0xx_HAL_Driver/Src/stm32f0xx_hal_uart.c **** {
 680              		.loc 1 1163 0
 681              		.cfi_startproc
 682              	.LVL42:
1164:Drivers/STM32F0xx_HAL_Driver/Src/stm32f0xx_hal_uart.c ****   /* Process Locked */
1165:Drivers/STM32F0xx_HAL_Driver/Src/stm32f0xx_hal_uart.c ****   __HAL_LOCK(huart);
 683              		.loc 1 1165 0
 684 0000 0200     		movs	r2, r0
1163:Drivers/STM32F0xx_HAL_Driver/Src/stm32f0xx_hal_uart.c ****   /* Process Locked */
 685              		.loc 1 1163 0
 686 0002 10B5     		push	{r4, lr}
 687              	.LCFI5:
 688              		.cfi_def_cfa_offset 8
 689              		.cfi_offset 4, -8
 690              		.cfi_offset 14, -4
 691              		.loc 1 1165 0
 692 0004 6832     		adds	r2, r2, #104
 693 0006 1178     		ldrb	r1, [r2]
1163:Drivers/STM32F0xx_HAL_Driver/Src/stm32f0xx_hal_uart.c ****   /* Process Locked */
 694              		.loc 1 1163 0
 695 0008 0300     		movs	r3, r0
 696              		.loc 1 1165 0
 697 000a 0220     		movs	r0, #2
 698              	.LVL43:
 699 000c 0129     		cmp	r1, #1
 700 000e 17D0     		beq	.L65
 701              		.loc 1 1165 0 is_stmt 0 discriminator 2
 702 0010 0121     		movs	r1, #1
 703 0012 1170     		strb	r1, [r2]
1166:Drivers/STM32F0xx_HAL_Driver/Src/stm32f0xx_hal_uart.c **** 
1167:Drivers/STM32F0xx_HAL_Driver/Src/stm32f0xx_hal_uart.c ****   if(huart->gState == HAL_UART_STATE_BUSY_TX)
 704              		.loc 1 1167 0 is_stmt 1 discriminator 2
 705 0014 1900     		movs	r1, r3
 706 0016 6931     		adds	r1, r1, #105
 707 0018 0978     		ldrb	r1, [r1]
 708 001a 2129     		cmp	r1, #33
 709 001c 04D1     		bne	.L66
1168:Drivers/STM32F0xx_HAL_Driver/Src/stm32f0xx_hal_uart.c ****   {
1169:Drivers/STM32F0xx_HAL_Driver/Src/stm32f0xx_hal_uart.c ****     /* Disable the UART DMA Tx request */
1170:Drivers/STM32F0xx_HAL_Driver/Src/stm32f0xx_hal_uart.c ****     huart->Instance->CR3 &= (uint32_t)(~USART_CR3_DMAT);
ARM GAS  /tmp/ccjaQwTr.s 			page 36


 710              		.loc 1 1170 0
 711 001e 8024     		movs	r4, #128
 712 0020 1868     		ldr	r0, [r3]
 713 0022 8168     		ldr	r1, [r0, #8]
 714 0024 A143     		bics	r1, r4
 715 0026 8160     		str	r1, [r0, #8]
 716              	.L66:
1171:Drivers/STM32F0xx_HAL_Driver/Src/stm32f0xx_hal_uart.c ****   }
1172:Drivers/STM32F0xx_HAL_Driver/Src/stm32f0xx_hal_uart.c ****   if(huart->RxState == HAL_UART_STATE_BUSY_RX)
 717              		.loc 1 1172 0
 718 0028 1900     		movs	r1, r3
 719 002a 6A31     		adds	r1, r1, #106
 720 002c 0978     		ldrb	r1, [r1]
 721 002e 2229     		cmp	r1, #34
 722 0030 04D1     		bne	.L67
1173:Drivers/STM32F0xx_HAL_Driver/Src/stm32f0xx_hal_uart.c ****   {
1174:Drivers/STM32F0xx_HAL_Driver/Src/stm32f0xx_hal_uart.c ****     /* Disable the UART DMA Rx request */
1175:Drivers/STM32F0xx_HAL_Driver/Src/stm32f0xx_hal_uart.c ****     huart->Instance->CR3 &= (uint32_t)(~USART_CR3_DMAR);
 723              		.loc 1 1175 0
 724 0032 4020     		movs	r0, #64
 725 0034 1968     		ldr	r1, [r3]
 726 0036 8B68     		ldr	r3, [r1, #8]
 727              	.LVL44:
 728 0038 8343     		bics	r3, r0
 729 003a 8B60     		str	r3, [r1, #8]
 730              	.L67:
1176:Drivers/STM32F0xx_HAL_Driver/Src/stm32f0xx_hal_uart.c ****   }
1177:Drivers/STM32F0xx_HAL_Driver/Src/stm32f0xx_hal_uart.c **** 
1178:Drivers/STM32F0xx_HAL_Driver/Src/stm32f0xx_hal_uart.c ****   /* Process Unlocked */
1179:Drivers/STM32F0xx_HAL_Driver/Src/stm32f0xx_hal_uart.c ****   __HAL_UNLOCK(huart);
 731              		.loc 1 1179 0
 732 003c 0020     		movs	r0, #0
 733 003e 1070     		strb	r0, [r2]
 734              	.L65:
1180:Drivers/STM32F0xx_HAL_Driver/Src/stm32f0xx_hal_uart.c **** 
1181:Drivers/STM32F0xx_HAL_Driver/Src/stm32f0xx_hal_uart.c ****   return HAL_OK;
1182:Drivers/STM32F0xx_HAL_Driver/Src/stm32f0xx_hal_uart.c **** }
 735              		.loc 1 1182 0
 736              		@ sp needed
 737 0040 10BD     		pop	{r4, pc}
 738              		.cfi_endproc
 739              	.LFE48:
 741              		.section	.text.HAL_UART_DMAResume,"ax",%progbits
 742              		.align	1
 743              		.global	HAL_UART_DMAResume
 744              		.syntax unified
 745              		.code	16
 746              		.thumb_func
 747              		.fpu softvfp
 749              	HAL_UART_DMAResume:
 750              	.LFB49:
1183:Drivers/STM32F0xx_HAL_Driver/Src/stm32f0xx_hal_uart.c **** 
1184:Drivers/STM32F0xx_HAL_Driver/Src/stm32f0xx_hal_uart.c **** /**
1185:Drivers/STM32F0xx_HAL_Driver/Src/stm32f0xx_hal_uart.c ****   * @brief Resume the DMA Transfer.
1186:Drivers/STM32F0xx_HAL_Driver/Src/stm32f0xx_hal_uart.c ****   * @param huart: UART handle.
1187:Drivers/STM32F0xx_HAL_Driver/Src/stm32f0xx_hal_uart.c ****   * @retval HAL status
1188:Drivers/STM32F0xx_HAL_Driver/Src/stm32f0xx_hal_uart.c ****   */
ARM GAS  /tmp/ccjaQwTr.s 			page 37


1189:Drivers/STM32F0xx_HAL_Driver/Src/stm32f0xx_hal_uart.c **** HAL_StatusTypeDef HAL_UART_DMAResume(UART_HandleTypeDef *huart)
1190:Drivers/STM32F0xx_HAL_Driver/Src/stm32f0xx_hal_uart.c **** {
 751              		.loc 1 1190 0
 752              		.cfi_startproc
 753              	.LVL45:
1191:Drivers/STM32F0xx_HAL_Driver/Src/stm32f0xx_hal_uart.c ****   /* Process Locked */
1192:Drivers/STM32F0xx_HAL_Driver/Src/stm32f0xx_hal_uart.c ****   __HAL_LOCK(huart);
 754              		.loc 1 1192 0
 755 0000 0200     		movs	r2, r0
1190:Drivers/STM32F0xx_HAL_Driver/Src/stm32f0xx_hal_uart.c ****   /* Process Locked */
 756              		.loc 1 1190 0
 757 0002 10B5     		push	{r4, lr}
 758              	.LCFI6:
 759              		.cfi_def_cfa_offset 8
 760              		.cfi_offset 4, -8
 761              		.cfi_offset 14, -4
 762              		.loc 1 1192 0
 763 0004 6832     		adds	r2, r2, #104
 764 0006 1178     		ldrb	r1, [r2]
1190:Drivers/STM32F0xx_HAL_Driver/Src/stm32f0xx_hal_uart.c ****   /* Process Locked */
 765              		.loc 1 1190 0
 766 0008 0300     		movs	r3, r0
 767              		.loc 1 1192 0
 768 000a 0220     		movs	r0, #2
 769              	.LVL46:
 770 000c 0129     		cmp	r1, #1
 771 000e 19D0     		beq	.L71
 772              		.loc 1 1192 0 is_stmt 0 discriminator 2
 773 0010 0121     		movs	r1, #1
 774 0012 1170     		strb	r1, [r2]
1193:Drivers/STM32F0xx_HAL_Driver/Src/stm32f0xx_hal_uart.c **** 
1194:Drivers/STM32F0xx_HAL_Driver/Src/stm32f0xx_hal_uart.c ****   if(huart->gState == HAL_UART_STATE_BUSY_TX)
 775              		.loc 1 1194 0 is_stmt 1 discriminator 2
 776 0014 1900     		movs	r1, r3
 777 0016 6931     		adds	r1, r1, #105
 778 0018 0978     		ldrb	r1, [r1]
 779 001a 2129     		cmp	r1, #33
 780 001c 04D1     		bne	.L72
1195:Drivers/STM32F0xx_HAL_Driver/Src/stm32f0xx_hal_uart.c ****   {
1196:Drivers/STM32F0xx_HAL_Driver/Src/stm32f0xx_hal_uart.c ****     /* Enable the UART DMA Tx request */
1197:Drivers/STM32F0xx_HAL_Driver/Src/stm32f0xx_hal_uart.c ****     huart->Instance->CR3 |= USART_CR3_DMAT;
 781              		.loc 1 1197 0
 782 001e 1868     		ldr	r0, [r3]
 783 0020 5F31     		adds	r1, r1, #95
 784 0022 8468     		ldr	r4, [r0, #8]
 785 0024 2143     		orrs	r1, r4
 786 0026 8160     		str	r1, [r0, #8]
 787              	.L72:
1198:Drivers/STM32F0xx_HAL_Driver/Src/stm32f0xx_hal_uart.c ****   }
1199:Drivers/STM32F0xx_HAL_Driver/Src/stm32f0xx_hal_uart.c ****   if(huart->RxState == HAL_UART_STATE_BUSY_RX)
 788              		.loc 1 1199 0
 789 0028 1900     		movs	r1, r3
 790 002a 6A31     		adds	r1, r1, #106
 791 002c 0978     		ldrb	r1, [r1]
 792 002e 2229     		cmp	r1, #34
 793 0030 06D1     		bne	.L73
1200:Drivers/STM32F0xx_HAL_Driver/Src/stm32f0xx_hal_uart.c ****   {
ARM GAS  /tmp/ccjaQwTr.s 			page 38


1201:Drivers/STM32F0xx_HAL_Driver/Src/stm32f0xx_hal_uart.c ****     /* Clear the Overrun flag before resumming the Rx transfer*/
1202:Drivers/STM32F0xx_HAL_Driver/Src/stm32f0xx_hal_uart.c ****     __HAL_UART_CLEAR_FLAG(huart, UART_CLEAR_OREF);
 794              		.loc 1 1202 0
 795 0032 1B68     		ldr	r3, [r3]
 796              	.LVL47:
 797 0034 1A39     		subs	r1, r1, #26
 798 0036 1962     		str	r1, [r3, #32]
1203:Drivers/STM32F0xx_HAL_Driver/Src/stm32f0xx_hal_uart.c **** 
1204:Drivers/STM32F0xx_HAL_Driver/Src/stm32f0xx_hal_uart.c ****     /* Enable the UART DMA Rx request */
1205:Drivers/STM32F0xx_HAL_Driver/Src/stm32f0xx_hal_uart.c ****     huart->Instance->CR3 |= USART_CR3_DMAR;
 799              		.loc 1 1205 0
 800 0038 9868     		ldr	r0, [r3, #8]
 801 003a 3831     		adds	r1, r1, #56
 802 003c 0143     		orrs	r1, r0
 803 003e 9960     		str	r1, [r3, #8]
 804              	.L73:
1206:Drivers/STM32F0xx_HAL_Driver/Src/stm32f0xx_hal_uart.c ****   }
1207:Drivers/STM32F0xx_HAL_Driver/Src/stm32f0xx_hal_uart.c **** 
1208:Drivers/STM32F0xx_HAL_Driver/Src/stm32f0xx_hal_uart.c ****   /* Process Unlocked */
1209:Drivers/STM32F0xx_HAL_Driver/Src/stm32f0xx_hal_uart.c ****   __HAL_UNLOCK(huart);
 805              		.loc 1 1209 0
 806 0040 0020     		movs	r0, #0
 807 0042 1070     		strb	r0, [r2]
 808              	.L71:
1210:Drivers/STM32F0xx_HAL_Driver/Src/stm32f0xx_hal_uart.c **** 
1211:Drivers/STM32F0xx_HAL_Driver/Src/stm32f0xx_hal_uart.c ****   return HAL_OK;
1212:Drivers/STM32F0xx_HAL_Driver/Src/stm32f0xx_hal_uart.c **** }
 809              		.loc 1 1212 0
 810              		@ sp needed
 811 0044 10BD     		pop	{r4, pc}
 812              		.cfi_endproc
 813              	.LFE49:
 815              		.section	.text.HAL_UART_DMAStop,"ax",%progbits
 816              		.align	1
 817              		.global	HAL_UART_DMAStop
 818              		.syntax unified
 819              		.code	16
 820              		.thumb_func
 821              		.fpu softvfp
 823              	HAL_UART_DMAStop:
 824              	.LFB50:
1213:Drivers/STM32F0xx_HAL_Driver/Src/stm32f0xx_hal_uart.c **** 
1214:Drivers/STM32F0xx_HAL_Driver/Src/stm32f0xx_hal_uart.c **** /**
1215:Drivers/STM32F0xx_HAL_Driver/Src/stm32f0xx_hal_uart.c ****   * @brief Stop the DMA Transfer.
1216:Drivers/STM32F0xx_HAL_Driver/Src/stm32f0xx_hal_uart.c ****   * @param huart: UART handle.
1217:Drivers/STM32F0xx_HAL_Driver/Src/stm32f0xx_hal_uart.c ****   * @retval HAL status
1218:Drivers/STM32F0xx_HAL_Driver/Src/stm32f0xx_hal_uart.c ****   */
1219:Drivers/STM32F0xx_HAL_Driver/Src/stm32f0xx_hal_uart.c **** HAL_StatusTypeDef HAL_UART_DMAStop(UART_HandleTypeDef *huart)
1220:Drivers/STM32F0xx_HAL_Driver/Src/stm32f0xx_hal_uart.c **** {
 825              		.loc 1 1220 0
 826              		.cfi_startproc
 827              	.LVL48:
1221:Drivers/STM32F0xx_HAL_Driver/Src/stm32f0xx_hal_uart.c ****   /* The Lock is not implemented on this API to allow the user application
1222:Drivers/STM32F0xx_HAL_Driver/Src/stm32f0xx_hal_uart.c ****      to call the HAL UART API under callbacks HAL_UART_TxCpltCallback() / HAL_UART_RxCpltCallback()
1223:Drivers/STM32F0xx_HAL_Driver/Src/stm32f0xx_hal_uart.c ****      HAL_UART_TxHalfCpltCallback() / HAL_UART_RxHalfCpltCallback (): 
1224:Drivers/STM32F0xx_HAL_Driver/Src/stm32f0xx_hal_uart.c ****      indeed, when HAL_DMA_Abort() API is called, the DMA TX/RX Transfer or Half Transfer complete i
1225:Drivers/STM32F0xx_HAL_Driver/Src/stm32f0xx_hal_uart.c ****      generated if the DMA transfer interruption occurs at the middle or at the end of the stream
ARM GAS  /tmp/ccjaQwTr.s 			page 39


1226:Drivers/STM32F0xx_HAL_Driver/Src/stm32f0xx_hal_uart.c ****      and the corresponding call back is executed. 
1227:Drivers/STM32F0xx_HAL_Driver/Src/stm32f0xx_hal_uart.c ****      */
1228:Drivers/STM32F0xx_HAL_Driver/Src/stm32f0xx_hal_uart.c ****   
1229:Drivers/STM32F0xx_HAL_Driver/Src/stm32f0xx_hal_uart.c ****   /* Disable the UART Tx/Rx DMA requests */
1230:Drivers/STM32F0xx_HAL_Driver/Src/stm32f0xx_hal_uart.c ****   huart->Instance->CR3 &= ~USART_CR3_DMAT;
 828              		.loc 1 1230 0
 829 0000 8021     		movs	r1, #128
 830 0002 0368     		ldr	r3, [r0]
1220:Drivers/STM32F0xx_HAL_Driver/Src/stm32f0xx_hal_uart.c ****   /* The Lock is not implemented on this API to allow the user application
 831              		.loc 1 1220 0
 832 0004 10B5     		push	{r4, lr}
 833              	.LCFI7:
 834              		.cfi_def_cfa_offset 8
 835              		.cfi_offset 4, -8
 836              		.cfi_offset 14, -4
 837              		.loc 1 1230 0
 838 0006 9A68     		ldr	r2, [r3, #8]
1220:Drivers/STM32F0xx_HAL_Driver/Src/stm32f0xx_hal_uart.c ****   /* The Lock is not implemented on this API to allow the user application
 839              		.loc 1 1220 0
 840 0008 0400     		movs	r4, r0
 841              		.loc 1 1230 0
 842 000a 8A43     		bics	r2, r1
 843 000c 9A60     		str	r2, [r3, #8]
1231:Drivers/STM32F0xx_HAL_Driver/Src/stm32f0xx_hal_uart.c ****   huart->Instance->CR3 &= ~USART_CR3_DMAR;
 844              		.loc 1 1231 0
 845 000e 9A68     		ldr	r2, [r3, #8]
 846 0010 4039     		subs	r1, r1, #64
1232:Drivers/STM32F0xx_HAL_Driver/Src/stm32f0xx_hal_uart.c **** 
1233:Drivers/STM32F0xx_HAL_Driver/Src/stm32f0xx_hal_uart.c ****   /* Abort the UART DMA tx channel */
1234:Drivers/STM32F0xx_HAL_Driver/Src/stm32f0xx_hal_uart.c ****   if(huart->hdmatx != NULL)
 847              		.loc 1 1234 0
 848 0012 006E     		ldr	r0, [r0, #96]
 849              	.LVL49:
1231:Drivers/STM32F0xx_HAL_Driver/Src/stm32f0xx_hal_uart.c ****   huart->Instance->CR3 &= ~USART_CR3_DMAR;
 850              		.loc 1 1231 0
 851 0014 8A43     		bics	r2, r1
 852 0016 9A60     		str	r2, [r3, #8]
 853              		.loc 1 1234 0
 854 0018 0028     		cmp	r0, #0
 855 001a 01D0     		beq	.L77
1235:Drivers/STM32F0xx_HAL_Driver/Src/stm32f0xx_hal_uart.c ****   {
1236:Drivers/STM32F0xx_HAL_Driver/Src/stm32f0xx_hal_uart.c ****     HAL_DMA_Abort(huart->hdmatx);
 856              		.loc 1 1236 0
 857 001c FFF7FEFF 		bl	HAL_DMA_Abort
 858              	.LVL50:
 859              	.L77:
1237:Drivers/STM32F0xx_HAL_Driver/Src/stm32f0xx_hal_uart.c ****   }
1238:Drivers/STM32F0xx_HAL_Driver/Src/stm32f0xx_hal_uart.c ****   /* Abort the UART DMA rx channel */
1239:Drivers/STM32F0xx_HAL_Driver/Src/stm32f0xx_hal_uart.c ****   if(huart->hdmarx != NULL)
 860              		.loc 1 1239 0
 861 0020 606E     		ldr	r0, [r4, #100]
 862 0022 0028     		cmp	r0, #0
 863 0024 01D0     		beq	.L78
1240:Drivers/STM32F0xx_HAL_Driver/Src/stm32f0xx_hal_uart.c ****   {
1241:Drivers/STM32F0xx_HAL_Driver/Src/stm32f0xx_hal_uart.c ****     HAL_DMA_Abort(huart->hdmarx);
 864              		.loc 1 1241 0
 865 0026 FFF7FEFF 		bl	HAL_DMA_Abort
ARM GAS  /tmp/ccjaQwTr.s 			page 40


 866              	.LVL51:
 867              	.L78:
1242:Drivers/STM32F0xx_HAL_Driver/Src/stm32f0xx_hal_uart.c ****   }
1243:Drivers/STM32F0xx_HAL_Driver/Src/stm32f0xx_hal_uart.c **** 
1244:Drivers/STM32F0xx_HAL_Driver/Src/stm32f0xx_hal_uart.c ****   huart->gState = HAL_UART_STATE_READY;
 868              		.loc 1 1244 0
 869 002a 2200     		movs	r2, r4
 870 002c 2023     		movs	r3, #32
 871 002e 6932     		adds	r2, r2, #105
1245:Drivers/STM32F0xx_HAL_Driver/Src/stm32f0xx_hal_uart.c ****   huart->RxState = HAL_UART_STATE_READY;
 872              		.loc 1 1245 0
 873 0030 6A34     		adds	r4, r4, #106
 874              	.LVL52:
1244:Drivers/STM32F0xx_HAL_Driver/Src/stm32f0xx_hal_uart.c ****   huart->RxState = HAL_UART_STATE_READY;
 875              		.loc 1 1244 0
 876 0032 1370     		strb	r3, [r2]
1246:Drivers/STM32F0xx_HAL_Driver/Src/stm32f0xx_hal_uart.c **** 
1247:Drivers/STM32F0xx_HAL_Driver/Src/stm32f0xx_hal_uart.c ****   return HAL_OK;
1248:Drivers/STM32F0xx_HAL_Driver/Src/stm32f0xx_hal_uart.c **** }
 877              		.loc 1 1248 0
 878 0034 0020     		movs	r0, #0
1245:Drivers/STM32F0xx_HAL_Driver/Src/stm32f0xx_hal_uart.c **** 
 879              		.loc 1 1245 0
 880 0036 2370     		strb	r3, [r4]
 881              		.loc 1 1248 0
 882              		@ sp needed
 883              	.LVL53:
 884 0038 10BD     		pop	{r4, pc}
 885              		.cfi_endproc
 886              	.LFE50:
 888              		.section	.text.HAL_UART_TxCpltCallback,"ax",%progbits
 889              		.align	1
 890              		.weak	HAL_UART_TxCpltCallback
 891              		.syntax unified
 892              		.code	16
 893              		.thumb_func
 894              		.fpu softvfp
 896              	HAL_UART_TxCpltCallback:
 897              	.LFB84:
 898              		.cfi_startproc
 899              		@ sp needed
 900 0000 7047     		bx	lr
 901              		.cfi_endproc
 902              	.LFE84:
 904              		.section	.text.UART_DMATransmitCplt,"ax",%progbits
 905              		.align	1
 906              		.syntax unified
 907              		.code	16
 908              		.thumb_func
 909              		.fpu softvfp
 911              	UART_DMATransmitCplt:
 912              	.LFB67:
1249:Drivers/STM32F0xx_HAL_Driver/Src/stm32f0xx_hal_uart.c **** 
1250:Drivers/STM32F0xx_HAL_Driver/Src/stm32f0xx_hal_uart.c **** /**
1251:Drivers/STM32F0xx_HAL_Driver/Src/stm32f0xx_hal_uart.c ****   * @brief Tx Transfer completed callback.
1252:Drivers/STM32F0xx_HAL_Driver/Src/stm32f0xx_hal_uart.c ****   * @param huart: UART handle.
1253:Drivers/STM32F0xx_HAL_Driver/Src/stm32f0xx_hal_uart.c ****   * @retval None
ARM GAS  /tmp/ccjaQwTr.s 			page 41


1254:Drivers/STM32F0xx_HAL_Driver/Src/stm32f0xx_hal_uart.c ****   */
1255:Drivers/STM32F0xx_HAL_Driver/Src/stm32f0xx_hal_uart.c ****  __weak void HAL_UART_TxCpltCallback(UART_HandleTypeDef *huart)
1256:Drivers/STM32F0xx_HAL_Driver/Src/stm32f0xx_hal_uart.c **** {
1257:Drivers/STM32F0xx_HAL_Driver/Src/stm32f0xx_hal_uart.c ****   /* Prevent unused argument(s) compilation warning */
1258:Drivers/STM32F0xx_HAL_Driver/Src/stm32f0xx_hal_uart.c ****   UNUSED(huart);
1259:Drivers/STM32F0xx_HAL_Driver/Src/stm32f0xx_hal_uart.c **** 
1260:Drivers/STM32F0xx_HAL_Driver/Src/stm32f0xx_hal_uart.c ****   /* NOTE : This function should not be modified, when the callback is needed,
1261:Drivers/STM32F0xx_HAL_Driver/Src/stm32f0xx_hal_uart.c ****             the HAL_UART_TxCpltCallback can be implemented in the user file.
1262:Drivers/STM32F0xx_HAL_Driver/Src/stm32f0xx_hal_uart.c ****    */
1263:Drivers/STM32F0xx_HAL_Driver/Src/stm32f0xx_hal_uart.c **** }
1264:Drivers/STM32F0xx_HAL_Driver/Src/stm32f0xx_hal_uart.c **** 
1265:Drivers/STM32F0xx_HAL_Driver/Src/stm32f0xx_hal_uart.c **** /**
1266:Drivers/STM32F0xx_HAL_Driver/Src/stm32f0xx_hal_uart.c ****   * @brief  Tx Half Transfer completed callback.
1267:Drivers/STM32F0xx_HAL_Driver/Src/stm32f0xx_hal_uart.c ****   * @param  huart: UART handle.
1268:Drivers/STM32F0xx_HAL_Driver/Src/stm32f0xx_hal_uart.c ****   * @retval None
1269:Drivers/STM32F0xx_HAL_Driver/Src/stm32f0xx_hal_uart.c ****   */
1270:Drivers/STM32F0xx_HAL_Driver/Src/stm32f0xx_hal_uart.c ****  __weak void HAL_UART_TxHalfCpltCallback(UART_HandleTypeDef *huart)
1271:Drivers/STM32F0xx_HAL_Driver/Src/stm32f0xx_hal_uart.c **** {
1272:Drivers/STM32F0xx_HAL_Driver/Src/stm32f0xx_hal_uart.c ****   /* Prevent unused argument(s) compilation warning */
1273:Drivers/STM32F0xx_HAL_Driver/Src/stm32f0xx_hal_uart.c ****   UNUSED(huart);
1274:Drivers/STM32F0xx_HAL_Driver/Src/stm32f0xx_hal_uart.c **** 
1275:Drivers/STM32F0xx_HAL_Driver/Src/stm32f0xx_hal_uart.c ****   /* NOTE: This function should not be modified, when the callback is needed,
1276:Drivers/STM32F0xx_HAL_Driver/Src/stm32f0xx_hal_uart.c ****            the HAL_UART_TxHalfCpltCallback can be implemented in the user file.
1277:Drivers/STM32F0xx_HAL_Driver/Src/stm32f0xx_hal_uart.c ****    */
1278:Drivers/STM32F0xx_HAL_Driver/Src/stm32f0xx_hal_uart.c **** }
1279:Drivers/STM32F0xx_HAL_Driver/Src/stm32f0xx_hal_uart.c **** 
1280:Drivers/STM32F0xx_HAL_Driver/Src/stm32f0xx_hal_uart.c **** /**
1281:Drivers/STM32F0xx_HAL_Driver/Src/stm32f0xx_hal_uart.c ****   * @brief Rx Transfer completed callback.
1282:Drivers/STM32F0xx_HAL_Driver/Src/stm32f0xx_hal_uart.c ****   * @param huart: UART handle.
1283:Drivers/STM32F0xx_HAL_Driver/Src/stm32f0xx_hal_uart.c ****   * @retval None
1284:Drivers/STM32F0xx_HAL_Driver/Src/stm32f0xx_hal_uart.c ****   */
1285:Drivers/STM32F0xx_HAL_Driver/Src/stm32f0xx_hal_uart.c **** __weak void HAL_UART_RxCpltCallback(UART_HandleTypeDef *huart)
1286:Drivers/STM32F0xx_HAL_Driver/Src/stm32f0xx_hal_uart.c **** {
1287:Drivers/STM32F0xx_HAL_Driver/Src/stm32f0xx_hal_uart.c ****   /* Prevent unused argument(s) compilation warning */
1288:Drivers/STM32F0xx_HAL_Driver/Src/stm32f0xx_hal_uart.c ****   UNUSED(huart);
1289:Drivers/STM32F0xx_HAL_Driver/Src/stm32f0xx_hal_uart.c **** 
1290:Drivers/STM32F0xx_HAL_Driver/Src/stm32f0xx_hal_uart.c ****   /* NOTE : This function should not be modified, when the callback is needed,
1291:Drivers/STM32F0xx_HAL_Driver/Src/stm32f0xx_hal_uart.c ****             the HAL_UART_RxCpltCallback can be implemented in the user file.
1292:Drivers/STM32F0xx_HAL_Driver/Src/stm32f0xx_hal_uart.c ****    */
1293:Drivers/STM32F0xx_HAL_Driver/Src/stm32f0xx_hal_uart.c **** }
1294:Drivers/STM32F0xx_HAL_Driver/Src/stm32f0xx_hal_uart.c **** 
1295:Drivers/STM32F0xx_HAL_Driver/Src/stm32f0xx_hal_uart.c **** /**
1296:Drivers/STM32F0xx_HAL_Driver/Src/stm32f0xx_hal_uart.c ****   * @brief  Rx Half Transfer completed callback.
1297:Drivers/STM32F0xx_HAL_Driver/Src/stm32f0xx_hal_uart.c ****   * @param  huart: UART handle.
1298:Drivers/STM32F0xx_HAL_Driver/Src/stm32f0xx_hal_uart.c ****   * @retval None
1299:Drivers/STM32F0xx_HAL_Driver/Src/stm32f0xx_hal_uart.c ****   */
1300:Drivers/STM32F0xx_HAL_Driver/Src/stm32f0xx_hal_uart.c **** __weak void HAL_UART_RxHalfCpltCallback(UART_HandleTypeDef *huart)
1301:Drivers/STM32F0xx_HAL_Driver/Src/stm32f0xx_hal_uart.c **** {
1302:Drivers/STM32F0xx_HAL_Driver/Src/stm32f0xx_hal_uart.c ****   /* Prevent unused argument(s) compilation warning */
1303:Drivers/STM32F0xx_HAL_Driver/Src/stm32f0xx_hal_uart.c ****   UNUSED(huart);
1304:Drivers/STM32F0xx_HAL_Driver/Src/stm32f0xx_hal_uart.c **** 
1305:Drivers/STM32F0xx_HAL_Driver/Src/stm32f0xx_hal_uart.c ****   /* NOTE: This function should not be modified, when the callback is needed,
1306:Drivers/STM32F0xx_HAL_Driver/Src/stm32f0xx_hal_uart.c ****            the HAL_UART_RxHalfCpltCallback can be implemented in the user file.
1307:Drivers/STM32F0xx_HAL_Driver/Src/stm32f0xx_hal_uart.c ****    */
1308:Drivers/STM32F0xx_HAL_Driver/Src/stm32f0xx_hal_uart.c **** }
1309:Drivers/STM32F0xx_HAL_Driver/Src/stm32f0xx_hal_uart.c **** 
1310:Drivers/STM32F0xx_HAL_Driver/Src/stm32f0xx_hal_uart.c **** /**
ARM GAS  /tmp/ccjaQwTr.s 			page 42


1311:Drivers/STM32F0xx_HAL_Driver/Src/stm32f0xx_hal_uart.c ****   * @brief UART error callback.
1312:Drivers/STM32F0xx_HAL_Driver/Src/stm32f0xx_hal_uart.c ****   * @param huart: UART handle.
1313:Drivers/STM32F0xx_HAL_Driver/Src/stm32f0xx_hal_uart.c ****   * @retval None
1314:Drivers/STM32F0xx_HAL_Driver/Src/stm32f0xx_hal_uart.c ****   */
1315:Drivers/STM32F0xx_HAL_Driver/Src/stm32f0xx_hal_uart.c ****  __weak void HAL_UART_ErrorCallback(UART_HandleTypeDef *huart)
1316:Drivers/STM32F0xx_HAL_Driver/Src/stm32f0xx_hal_uart.c **** {
1317:Drivers/STM32F0xx_HAL_Driver/Src/stm32f0xx_hal_uart.c ****   /* Prevent unused argument(s) compilation warning */
1318:Drivers/STM32F0xx_HAL_Driver/Src/stm32f0xx_hal_uart.c ****   UNUSED(huart);
1319:Drivers/STM32F0xx_HAL_Driver/Src/stm32f0xx_hal_uart.c **** 
1320:Drivers/STM32F0xx_HAL_Driver/Src/stm32f0xx_hal_uart.c ****   /* NOTE : This function should not be modified, when the callback is needed,
1321:Drivers/STM32F0xx_HAL_Driver/Src/stm32f0xx_hal_uart.c ****             the HAL_UART_ErrorCallback can be implemented in the user file.
1322:Drivers/STM32F0xx_HAL_Driver/Src/stm32f0xx_hal_uart.c ****    */
1323:Drivers/STM32F0xx_HAL_Driver/Src/stm32f0xx_hal_uart.c **** }
1324:Drivers/STM32F0xx_HAL_Driver/Src/stm32f0xx_hal_uart.c **** 
1325:Drivers/STM32F0xx_HAL_Driver/Src/stm32f0xx_hal_uart.c **** /**
1326:Drivers/STM32F0xx_HAL_Driver/Src/stm32f0xx_hal_uart.c ****   * @}
1327:Drivers/STM32F0xx_HAL_Driver/Src/stm32f0xx_hal_uart.c ****   */
1328:Drivers/STM32F0xx_HAL_Driver/Src/stm32f0xx_hal_uart.c **** 
1329:Drivers/STM32F0xx_HAL_Driver/Src/stm32f0xx_hal_uart.c **** /** @defgroup UART_Exported_Functions_Group3 Peripheral Control functions
1330:Drivers/STM32F0xx_HAL_Driver/Src/stm32f0xx_hal_uart.c ****   *  @brief   UART control functions
1331:Drivers/STM32F0xx_HAL_Driver/Src/stm32f0xx_hal_uart.c ****   *
1332:Drivers/STM32F0xx_HAL_Driver/Src/stm32f0xx_hal_uart.c **** @verbatim
1333:Drivers/STM32F0xx_HAL_Driver/Src/stm32f0xx_hal_uart.c ****  ===============================================================================
1334:Drivers/STM32F0xx_HAL_Driver/Src/stm32f0xx_hal_uart.c ****                       ##### Peripheral Control functions #####
1335:Drivers/STM32F0xx_HAL_Driver/Src/stm32f0xx_hal_uart.c ****  ===============================================================================
1336:Drivers/STM32F0xx_HAL_Driver/Src/stm32f0xx_hal_uart.c ****     [..]
1337:Drivers/STM32F0xx_HAL_Driver/Src/stm32f0xx_hal_uart.c ****     This subsection provides a set of functions allowing to control the UART.
1338:Drivers/STM32F0xx_HAL_Driver/Src/stm32f0xx_hal_uart.c ****      (+) HAL_MultiProcessor_EnableMuteMode() API enables mute mode
1339:Drivers/STM32F0xx_HAL_Driver/Src/stm32f0xx_hal_uart.c ****      (+) HAL_MultiProcessor_DisableMuteMode() API disables mute mode
1340:Drivers/STM32F0xx_HAL_Driver/Src/stm32f0xx_hal_uart.c ****      (+) HAL_MultiProcessor_EnterMuteMode() API enters mute mode
1341:Drivers/STM32F0xx_HAL_Driver/Src/stm32f0xx_hal_uart.c ****      (+) HAL_HalfDuplex_EnableTransmitter() API disables receiver and enables transmitter
1342:Drivers/STM32F0xx_HAL_Driver/Src/stm32f0xx_hal_uart.c ****      (+) HAL_HalfDuplex_EnableReceiver() API disables transmitter and enables receiver
1343:Drivers/STM32F0xx_HAL_Driver/Src/stm32f0xx_hal_uart.c **** @endverbatim
1344:Drivers/STM32F0xx_HAL_Driver/Src/stm32f0xx_hal_uart.c ****   * @{
1345:Drivers/STM32F0xx_HAL_Driver/Src/stm32f0xx_hal_uart.c ****   */
1346:Drivers/STM32F0xx_HAL_Driver/Src/stm32f0xx_hal_uart.c **** 
1347:Drivers/STM32F0xx_HAL_Driver/Src/stm32f0xx_hal_uart.c **** /**
1348:Drivers/STM32F0xx_HAL_Driver/Src/stm32f0xx_hal_uart.c ****   * @brief Enable UART in mute mode (does not mean UART enters mute mode;
1349:Drivers/STM32F0xx_HAL_Driver/Src/stm32f0xx_hal_uart.c ****   * to enter mute mode, HAL_MultiProcessor_EnterMuteMode() API must be called).
1350:Drivers/STM32F0xx_HAL_Driver/Src/stm32f0xx_hal_uart.c ****   * @param huart: UART handle.
1351:Drivers/STM32F0xx_HAL_Driver/Src/stm32f0xx_hal_uart.c ****   * @retval HAL status
1352:Drivers/STM32F0xx_HAL_Driver/Src/stm32f0xx_hal_uart.c ****   */
1353:Drivers/STM32F0xx_HAL_Driver/Src/stm32f0xx_hal_uart.c **** HAL_StatusTypeDef HAL_MultiProcessor_EnableMuteMode(UART_HandleTypeDef *huart)
1354:Drivers/STM32F0xx_HAL_Driver/Src/stm32f0xx_hal_uart.c **** {
1355:Drivers/STM32F0xx_HAL_Driver/Src/stm32f0xx_hal_uart.c ****   /* Process Locked */
1356:Drivers/STM32F0xx_HAL_Driver/Src/stm32f0xx_hal_uart.c ****   __HAL_LOCK(huart);
1357:Drivers/STM32F0xx_HAL_Driver/Src/stm32f0xx_hal_uart.c **** 
1358:Drivers/STM32F0xx_HAL_Driver/Src/stm32f0xx_hal_uart.c ****   huart->gState = HAL_UART_STATE_BUSY;
1359:Drivers/STM32F0xx_HAL_Driver/Src/stm32f0xx_hal_uart.c **** 
1360:Drivers/STM32F0xx_HAL_Driver/Src/stm32f0xx_hal_uart.c ****   /* Enable USART mute mode by setting the MME bit in the CR1 register */
1361:Drivers/STM32F0xx_HAL_Driver/Src/stm32f0xx_hal_uart.c ****   huart->Instance->CR1 |= USART_CR1_MME;
1362:Drivers/STM32F0xx_HAL_Driver/Src/stm32f0xx_hal_uart.c **** 
1363:Drivers/STM32F0xx_HAL_Driver/Src/stm32f0xx_hal_uart.c ****   huart->gState = HAL_UART_STATE_READY;
1364:Drivers/STM32F0xx_HAL_Driver/Src/stm32f0xx_hal_uart.c **** 
1365:Drivers/STM32F0xx_HAL_Driver/Src/stm32f0xx_hal_uart.c ****   return (UART_CheckIdleState(huart));
1366:Drivers/STM32F0xx_HAL_Driver/Src/stm32f0xx_hal_uart.c **** }
1367:Drivers/STM32F0xx_HAL_Driver/Src/stm32f0xx_hal_uart.c **** 
ARM GAS  /tmp/ccjaQwTr.s 			page 43


1368:Drivers/STM32F0xx_HAL_Driver/Src/stm32f0xx_hal_uart.c **** /**
1369:Drivers/STM32F0xx_HAL_Driver/Src/stm32f0xx_hal_uart.c ****   * @brief Disable UART mute mode (does not mean the UART actually exits mute mode
1370:Drivers/STM32F0xx_HAL_Driver/Src/stm32f0xx_hal_uart.c ****   * as it may not have been in mute mode at this very moment).
1371:Drivers/STM32F0xx_HAL_Driver/Src/stm32f0xx_hal_uart.c ****   * @param huart: UART handle.
1372:Drivers/STM32F0xx_HAL_Driver/Src/stm32f0xx_hal_uart.c ****   * @retval HAL status
1373:Drivers/STM32F0xx_HAL_Driver/Src/stm32f0xx_hal_uart.c ****   */
1374:Drivers/STM32F0xx_HAL_Driver/Src/stm32f0xx_hal_uart.c **** HAL_StatusTypeDef HAL_MultiProcessor_DisableMuteMode(UART_HandleTypeDef *huart)
1375:Drivers/STM32F0xx_HAL_Driver/Src/stm32f0xx_hal_uart.c **** {
1376:Drivers/STM32F0xx_HAL_Driver/Src/stm32f0xx_hal_uart.c ****   /* Process Locked */
1377:Drivers/STM32F0xx_HAL_Driver/Src/stm32f0xx_hal_uart.c ****   __HAL_LOCK(huart);
1378:Drivers/STM32F0xx_HAL_Driver/Src/stm32f0xx_hal_uart.c **** 
1379:Drivers/STM32F0xx_HAL_Driver/Src/stm32f0xx_hal_uart.c ****   huart->gState = HAL_UART_STATE_BUSY;
1380:Drivers/STM32F0xx_HAL_Driver/Src/stm32f0xx_hal_uart.c **** 
1381:Drivers/STM32F0xx_HAL_Driver/Src/stm32f0xx_hal_uart.c ****    /* Disable USART mute mode by clearing the MME bit in the CR1 register */
1382:Drivers/STM32F0xx_HAL_Driver/Src/stm32f0xx_hal_uart.c ****   huart->Instance->CR1 &= ~(USART_CR1_MME);
1383:Drivers/STM32F0xx_HAL_Driver/Src/stm32f0xx_hal_uart.c **** 
1384:Drivers/STM32F0xx_HAL_Driver/Src/stm32f0xx_hal_uart.c ****   huart->gState = HAL_UART_STATE_READY;
1385:Drivers/STM32F0xx_HAL_Driver/Src/stm32f0xx_hal_uart.c **** 
1386:Drivers/STM32F0xx_HAL_Driver/Src/stm32f0xx_hal_uart.c ****   return (UART_CheckIdleState(huart));
1387:Drivers/STM32F0xx_HAL_Driver/Src/stm32f0xx_hal_uart.c **** }
1388:Drivers/STM32F0xx_HAL_Driver/Src/stm32f0xx_hal_uart.c **** 
1389:Drivers/STM32F0xx_HAL_Driver/Src/stm32f0xx_hal_uart.c **** /**
1390:Drivers/STM32F0xx_HAL_Driver/Src/stm32f0xx_hal_uart.c ****   * @brief Enter UART mute mode (means UART actually enters mute mode).
1391:Drivers/STM32F0xx_HAL_Driver/Src/stm32f0xx_hal_uart.c ****   * @note  To exit from mute mode, HAL_MultiProcessor_DisableMuteMode() API must be called.
1392:Drivers/STM32F0xx_HAL_Driver/Src/stm32f0xx_hal_uart.c ****   * @param huart: UART handle.
1393:Drivers/STM32F0xx_HAL_Driver/Src/stm32f0xx_hal_uart.c ****   * @retval None
1394:Drivers/STM32F0xx_HAL_Driver/Src/stm32f0xx_hal_uart.c ****   */
1395:Drivers/STM32F0xx_HAL_Driver/Src/stm32f0xx_hal_uart.c **** void HAL_MultiProcessor_EnterMuteMode(UART_HandleTypeDef *huart)
1396:Drivers/STM32F0xx_HAL_Driver/Src/stm32f0xx_hal_uart.c **** {
1397:Drivers/STM32F0xx_HAL_Driver/Src/stm32f0xx_hal_uart.c ****   __HAL_UART_SEND_REQ(huart, UART_MUTE_MODE_REQUEST);
1398:Drivers/STM32F0xx_HAL_Driver/Src/stm32f0xx_hal_uart.c **** }
1399:Drivers/STM32F0xx_HAL_Driver/Src/stm32f0xx_hal_uart.c **** 
1400:Drivers/STM32F0xx_HAL_Driver/Src/stm32f0xx_hal_uart.c **** /**
1401:Drivers/STM32F0xx_HAL_Driver/Src/stm32f0xx_hal_uart.c ****   * @brief  Enable the UART transmitter and disable the UART receiver.
1402:Drivers/STM32F0xx_HAL_Driver/Src/stm32f0xx_hal_uart.c ****   * @param  huart: UART handle.
1403:Drivers/STM32F0xx_HAL_Driver/Src/stm32f0xx_hal_uart.c ****   * @retval HAL status
1404:Drivers/STM32F0xx_HAL_Driver/Src/stm32f0xx_hal_uart.c ****   */
1405:Drivers/STM32F0xx_HAL_Driver/Src/stm32f0xx_hal_uart.c **** HAL_StatusTypeDef HAL_HalfDuplex_EnableTransmitter(UART_HandleTypeDef *huart)
1406:Drivers/STM32F0xx_HAL_Driver/Src/stm32f0xx_hal_uart.c **** {
1407:Drivers/STM32F0xx_HAL_Driver/Src/stm32f0xx_hal_uart.c ****   /* Process Locked */
1408:Drivers/STM32F0xx_HAL_Driver/Src/stm32f0xx_hal_uart.c ****   __HAL_LOCK(huart);
1409:Drivers/STM32F0xx_HAL_Driver/Src/stm32f0xx_hal_uart.c ****   huart->gState = HAL_UART_STATE_BUSY;
1410:Drivers/STM32F0xx_HAL_Driver/Src/stm32f0xx_hal_uart.c **** 
1411:Drivers/STM32F0xx_HAL_Driver/Src/stm32f0xx_hal_uart.c ****   /* Clear TE and RE bits */
1412:Drivers/STM32F0xx_HAL_Driver/Src/stm32f0xx_hal_uart.c ****   CLEAR_BIT(huart->Instance->CR1, (USART_CR1_TE | USART_CR1_RE));
1413:Drivers/STM32F0xx_HAL_Driver/Src/stm32f0xx_hal_uart.c ****   /* Enable the USART's transmit interface by setting the TE bit in the USART CR1 register */
1414:Drivers/STM32F0xx_HAL_Driver/Src/stm32f0xx_hal_uart.c ****   SET_BIT(huart->Instance->CR1, USART_CR1_TE);
1415:Drivers/STM32F0xx_HAL_Driver/Src/stm32f0xx_hal_uart.c **** 
1416:Drivers/STM32F0xx_HAL_Driver/Src/stm32f0xx_hal_uart.c ****   huart->gState = HAL_UART_STATE_READY;
1417:Drivers/STM32F0xx_HAL_Driver/Src/stm32f0xx_hal_uart.c **** 
1418:Drivers/STM32F0xx_HAL_Driver/Src/stm32f0xx_hal_uart.c ****   /* Process Unlocked */
1419:Drivers/STM32F0xx_HAL_Driver/Src/stm32f0xx_hal_uart.c ****   __HAL_UNLOCK(huart);
1420:Drivers/STM32F0xx_HAL_Driver/Src/stm32f0xx_hal_uart.c **** 
1421:Drivers/STM32F0xx_HAL_Driver/Src/stm32f0xx_hal_uart.c ****   return HAL_OK;
1422:Drivers/STM32F0xx_HAL_Driver/Src/stm32f0xx_hal_uart.c **** }
1423:Drivers/STM32F0xx_HAL_Driver/Src/stm32f0xx_hal_uart.c **** 
1424:Drivers/STM32F0xx_HAL_Driver/Src/stm32f0xx_hal_uart.c **** /**
ARM GAS  /tmp/ccjaQwTr.s 			page 44


1425:Drivers/STM32F0xx_HAL_Driver/Src/stm32f0xx_hal_uart.c ****   * @brief  Enable the UART receiver and disable the UART transmitter.
1426:Drivers/STM32F0xx_HAL_Driver/Src/stm32f0xx_hal_uart.c ****   * @param  huart: UART handle.
1427:Drivers/STM32F0xx_HAL_Driver/Src/stm32f0xx_hal_uart.c ****   * @retval HAL status.
1428:Drivers/STM32F0xx_HAL_Driver/Src/stm32f0xx_hal_uart.c ****   */
1429:Drivers/STM32F0xx_HAL_Driver/Src/stm32f0xx_hal_uart.c **** HAL_StatusTypeDef HAL_HalfDuplex_EnableReceiver(UART_HandleTypeDef *huart)
1430:Drivers/STM32F0xx_HAL_Driver/Src/stm32f0xx_hal_uart.c **** {
1431:Drivers/STM32F0xx_HAL_Driver/Src/stm32f0xx_hal_uart.c ****   /* Process Locked */
1432:Drivers/STM32F0xx_HAL_Driver/Src/stm32f0xx_hal_uart.c ****   __HAL_LOCK(huart);
1433:Drivers/STM32F0xx_HAL_Driver/Src/stm32f0xx_hal_uart.c ****   huart->gState = HAL_UART_STATE_BUSY;
1434:Drivers/STM32F0xx_HAL_Driver/Src/stm32f0xx_hal_uart.c **** 
1435:Drivers/STM32F0xx_HAL_Driver/Src/stm32f0xx_hal_uart.c ****   /* Clear TE and RE bits */
1436:Drivers/STM32F0xx_HAL_Driver/Src/stm32f0xx_hal_uart.c ****   CLEAR_BIT(huart->Instance->CR1, (USART_CR1_TE | USART_CR1_RE));
1437:Drivers/STM32F0xx_HAL_Driver/Src/stm32f0xx_hal_uart.c ****   /* Enable the USART's receive interface by setting the RE bit in the USART CR1 register */
1438:Drivers/STM32F0xx_HAL_Driver/Src/stm32f0xx_hal_uart.c ****   SET_BIT(huart->Instance->CR1, USART_CR1_RE);
1439:Drivers/STM32F0xx_HAL_Driver/Src/stm32f0xx_hal_uart.c **** 
1440:Drivers/STM32F0xx_HAL_Driver/Src/stm32f0xx_hal_uart.c ****   huart->gState = HAL_UART_STATE_READY;
1441:Drivers/STM32F0xx_HAL_Driver/Src/stm32f0xx_hal_uart.c ****   /* Process Unlocked */
1442:Drivers/STM32F0xx_HAL_Driver/Src/stm32f0xx_hal_uart.c ****   __HAL_UNLOCK(huart);
1443:Drivers/STM32F0xx_HAL_Driver/Src/stm32f0xx_hal_uart.c **** 
1444:Drivers/STM32F0xx_HAL_Driver/Src/stm32f0xx_hal_uart.c ****   return HAL_OK;
1445:Drivers/STM32F0xx_HAL_Driver/Src/stm32f0xx_hal_uart.c **** }
1446:Drivers/STM32F0xx_HAL_Driver/Src/stm32f0xx_hal_uart.c **** 
1447:Drivers/STM32F0xx_HAL_Driver/Src/stm32f0xx_hal_uart.c **** /**
1448:Drivers/STM32F0xx_HAL_Driver/Src/stm32f0xx_hal_uart.c ****   * @}
1449:Drivers/STM32F0xx_HAL_Driver/Src/stm32f0xx_hal_uart.c ****   */
1450:Drivers/STM32F0xx_HAL_Driver/Src/stm32f0xx_hal_uart.c **** 
1451:Drivers/STM32F0xx_HAL_Driver/Src/stm32f0xx_hal_uart.c **** /** @defgroup UART_Exported_Functions_Group4 Peripheral State and Error functions
1452:Drivers/STM32F0xx_HAL_Driver/Src/stm32f0xx_hal_uart.c ****  *  @brief   UART Peripheral State functions
1453:Drivers/STM32F0xx_HAL_Driver/Src/stm32f0xx_hal_uart.c ****  *
1454:Drivers/STM32F0xx_HAL_Driver/Src/stm32f0xx_hal_uart.c **** @verbatim
1455:Drivers/STM32F0xx_HAL_Driver/Src/stm32f0xx_hal_uart.c ****   ==============================================================================
1456:Drivers/STM32F0xx_HAL_Driver/Src/stm32f0xx_hal_uart.c ****             ##### Peripheral State and Error functions #####
1457:Drivers/STM32F0xx_HAL_Driver/Src/stm32f0xx_hal_uart.c ****   ==============================================================================
1458:Drivers/STM32F0xx_HAL_Driver/Src/stm32f0xx_hal_uart.c ****     [..]
1459:Drivers/STM32F0xx_HAL_Driver/Src/stm32f0xx_hal_uart.c ****     This subsection provides functions allowing to :
1460:Drivers/STM32F0xx_HAL_Driver/Src/stm32f0xx_hal_uart.c ****       (+) Return the UART handle state.
1461:Drivers/STM32F0xx_HAL_Driver/Src/stm32f0xx_hal_uart.c ****       (+) Return the UART handle error code
1462:Drivers/STM32F0xx_HAL_Driver/Src/stm32f0xx_hal_uart.c **** 
1463:Drivers/STM32F0xx_HAL_Driver/Src/stm32f0xx_hal_uart.c **** @endverbatim
1464:Drivers/STM32F0xx_HAL_Driver/Src/stm32f0xx_hal_uart.c ****   * @{
1465:Drivers/STM32F0xx_HAL_Driver/Src/stm32f0xx_hal_uart.c ****   */
1466:Drivers/STM32F0xx_HAL_Driver/Src/stm32f0xx_hal_uart.c **** 
1467:Drivers/STM32F0xx_HAL_Driver/Src/stm32f0xx_hal_uart.c **** /**
1468:Drivers/STM32F0xx_HAL_Driver/Src/stm32f0xx_hal_uart.c ****   * @brief  Return the UART handle state.
1469:Drivers/STM32F0xx_HAL_Driver/Src/stm32f0xx_hal_uart.c ****   * @param  huart Pointer to a UART_HandleTypeDef structure that contains
1470:Drivers/STM32F0xx_HAL_Driver/Src/stm32f0xx_hal_uart.c ****   *               the configuration information for the specified UART.
1471:Drivers/STM32F0xx_HAL_Driver/Src/stm32f0xx_hal_uart.c ****   * @retval HAL state
1472:Drivers/STM32F0xx_HAL_Driver/Src/stm32f0xx_hal_uart.c ****   */
1473:Drivers/STM32F0xx_HAL_Driver/Src/stm32f0xx_hal_uart.c **** HAL_UART_StateTypeDef HAL_UART_GetState(UART_HandleTypeDef *huart)
1474:Drivers/STM32F0xx_HAL_Driver/Src/stm32f0xx_hal_uart.c **** {
1475:Drivers/STM32F0xx_HAL_Driver/Src/stm32f0xx_hal_uart.c ****   uint32_t temp1= 0x00, temp2 = 0x00;
1476:Drivers/STM32F0xx_HAL_Driver/Src/stm32f0xx_hal_uart.c ****   temp1 = huart->gState;
1477:Drivers/STM32F0xx_HAL_Driver/Src/stm32f0xx_hal_uart.c ****   temp2 = huart->RxState;
1478:Drivers/STM32F0xx_HAL_Driver/Src/stm32f0xx_hal_uart.c ****   
1479:Drivers/STM32F0xx_HAL_Driver/Src/stm32f0xx_hal_uart.c ****   return (HAL_UART_StateTypeDef)(temp1 | temp2);
1480:Drivers/STM32F0xx_HAL_Driver/Src/stm32f0xx_hal_uart.c **** }
1481:Drivers/STM32F0xx_HAL_Driver/Src/stm32f0xx_hal_uart.c **** 
ARM GAS  /tmp/ccjaQwTr.s 			page 45


1482:Drivers/STM32F0xx_HAL_Driver/Src/stm32f0xx_hal_uart.c **** /**
1483:Drivers/STM32F0xx_HAL_Driver/Src/stm32f0xx_hal_uart.c ****   * @brief  Return the UART handle error code.
1484:Drivers/STM32F0xx_HAL_Driver/Src/stm32f0xx_hal_uart.c ****   * @param  huart Pointer to a UART_HandleTypeDef structure that contains
1485:Drivers/STM32F0xx_HAL_Driver/Src/stm32f0xx_hal_uart.c ****   *               the configuration information for the specified UART.
1486:Drivers/STM32F0xx_HAL_Driver/Src/stm32f0xx_hal_uart.c ****   * @retval UART Error Code
1487:Drivers/STM32F0xx_HAL_Driver/Src/stm32f0xx_hal_uart.c ****   */
1488:Drivers/STM32F0xx_HAL_Driver/Src/stm32f0xx_hal_uart.c **** uint32_t HAL_UART_GetError(UART_HandleTypeDef *huart)
1489:Drivers/STM32F0xx_HAL_Driver/Src/stm32f0xx_hal_uart.c **** {
1490:Drivers/STM32F0xx_HAL_Driver/Src/stm32f0xx_hal_uart.c ****   return huart->ErrorCode;
1491:Drivers/STM32F0xx_HAL_Driver/Src/stm32f0xx_hal_uart.c **** }
1492:Drivers/STM32F0xx_HAL_Driver/Src/stm32f0xx_hal_uart.c **** /**
1493:Drivers/STM32F0xx_HAL_Driver/Src/stm32f0xx_hal_uart.c ****   * @}
1494:Drivers/STM32F0xx_HAL_Driver/Src/stm32f0xx_hal_uart.c ****   */
1495:Drivers/STM32F0xx_HAL_Driver/Src/stm32f0xx_hal_uart.c **** 
1496:Drivers/STM32F0xx_HAL_Driver/Src/stm32f0xx_hal_uart.c **** /**
1497:Drivers/STM32F0xx_HAL_Driver/Src/stm32f0xx_hal_uart.c ****   * @}
1498:Drivers/STM32F0xx_HAL_Driver/Src/stm32f0xx_hal_uart.c ****   */
1499:Drivers/STM32F0xx_HAL_Driver/Src/stm32f0xx_hal_uart.c **** 
1500:Drivers/STM32F0xx_HAL_Driver/Src/stm32f0xx_hal_uart.c **** /** @defgroup UART_Private_Functions UART Private Functions
1501:Drivers/STM32F0xx_HAL_Driver/Src/stm32f0xx_hal_uart.c ****   * @{
1502:Drivers/STM32F0xx_HAL_Driver/Src/stm32f0xx_hal_uart.c ****   */
1503:Drivers/STM32F0xx_HAL_Driver/Src/stm32f0xx_hal_uart.c **** 
1504:Drivers/STM32F0xx_HAL_Driver/Src/stm32f0xx_hal_uart.c **** /**
1505:Drivers/STM32F0xx_HAL_Driver/Src/stm32f0xx_hal_uart.c ****   * @brief Configure the UART peripheral.
1506:Drivers/STM32F0xx_HAL_Driver/Src/stm32f0xx_hal_uart.c ****   * @param huart: UART handle.
1507:Drivers/STM32F0xx_HAL_Driver/Src/stm32f0xx_hal_uart.c ****   * @retval HAL status
1508:Drivers/STM32F0xx_HAL_Driver/Src/stm32f0xx_hal_uart.c ****   */
1509:Drivers/STM32F0xx_HAL_Driver/Src/stm32f0xx_hal_uart.c **** HAL_StatusTypeDef UART_SetConfig(UART_HandleTypeDef *huart)
1510:Drivers/STM32F0xx_HAL_Driver/Src/stm32f0xx_hal_uart.c **** {
1511:Drivers/STM32F0xx_HAL_Driver/Src/stm32f0xx_hal_uart.c ****   uint32_t tmpreg                     = 0x00000000;
1512:Drivers/STM32F0xx_HAL_Driver/Src/stm32f0xx_hal_uart.c ****   UART_ClockSourceTypeDef clocksource = UART_CLOCKSOURCE_UNDEFINED;
1513:Drivers/STM32F0xx_HAL_Driver/Src/stm32f0xx_hal_uart.c ****   uint16_t brrtemp                    = 0x0000;
1514:Drivers/STM32F0xx_HAL_Driver/Src/stm32f0xx_hal_uart.c ****   uint16_t usartdiv                   = 0x0000;
1515:Drivers/STM32F0xx_HAL_Driver/Src/stm32f0xx_hal_uart.c ****   HAL_StatusTypeDef ret               = HAL_OK;
1516:Drivers/STM32F0xx_HAL_Driver/Src/stm32f0xx_hal_uart.c **** 
1517:Drivers/STM32F0xx_HAL_Driver/Src/stm32f0xx_hal_uart.c ****   /* Check the parameters */
1518:Drivers/STM32F0xx_HAL_Driver/Src/stm32f0xx_hal_uart.c ****   assert_param(IS_UART_BAUDRATE(huart->Init.BaudRate));
1519:Drivers/STM32F0xx_HAL_Driver/Src/stm32f0xx_hal_uart.c ****   assert_param(IS_UART_WORD_LENGTH(huart->Init.WordLength));
1520:Drivers/STM32F0xx_HAL_Driver/Src/stm32f0xx_hal_uart.c ****   assert_param(IS_UART_STOPBITS(huart->Init.StopBits));
1521:Drivers/STM32F0xx_HAL_Driver/Src/stm32f0xx_hal_uart.c ****   assert_param(IS_UART_PARITY(huart->Init.Parity));
1522:Drivers/STM32F0xx_HAL_Driver/Src/stm32f0xx_hal_uart.c ****   assert_param(IS_UART_MODE(huart->Init.Mode));
1523:Drivers/STM32F0xx_HAL_Driver/Src/stm32f0xx_hal_uart.c ****   assert_param(IS_UART_HARDWARE_FLOW_CONTROL(huart->Init.HwFlowCtl));
1524:Drivers/STM32F0xx_HAL_Driver/Src/stm32f0xx_hal_uart.c ****   assert_param(IS_UART_ONE_BIT_SAMPLE(huart->Init.OneBitSampling));
1525:Drivers/STM32F0xx_HAL_Driver/Src/stm32f0xx_hal_uart.c ****   assert_param(IS_UART_OVERSAMPLING(huart->Init.OverSampling));
1526:Drivers/STM32F0xx_HAL_Driver/Src/stm32f0xx_hal_uart.c **** 
1527:Drivers/STM32F0xx_HAL_Driver/Src/stm32f0xx_hal_uart.c **** 
1528:Drivers/STM32F0xx_HAL_Driver/Src/stm32f0xx_hal_uart.c ****   /*-------------------------- USART CR1 Configuration -----------------------*/
1529:Drivers/STM32F0xx_HAL_Driver/Src/stm32f0xx_hal_uart.c ****   /* Clear M, PCE, PS, TE, RE and OVER8 bits and configure
1530:Drivers/STM32F0xx_HAL_Driver/Src/stm32f0xx_hal_uart.c ****    *  the UART Word Length, Parity, Mode and oversampling:
1531:Drivers/STM32F0xx_HAL_Driver/Src/stm32f0xx_hal_uart.c ****    *  set the M bits according to huart->Init.WordLength value
1532:Drivers/STM32F0xx_HAL_Driver/Src/stm32f0xx_hal_uart.c ****    *  set PCE and PS bits according to huart->Init.Parity value
1533:Drivers/STM32F0xx_HAL_Driver/Src/stm32f0xx_hal_uart.c ****    *  set TE and RE bits according to huart->Init.Mode value
1534:Drivers/STM32F0xx_HAL_Driver/Src/stm32f0xx_hal_uart.c ****    *  set OVER8 bit according to huart->Init.OverSampling value */
1535:Drivers/STM32F0xx_HAL_Driver/Src/stm32f0xx_hal_uart.c ****   tmpreg = (uint32_t)huart->Init.WordLength | huart->Init.Parity | huart->Init.Mode | huart->Init.O
1536:Drivers/STM32F0xx_HAL_Driver/Src/stm32f0xx_hal_uart.c ****   MODIFY_REG(huart->Instance->CR1, UART_CR1_FIELDS, tmpreg);
1537:Drivers/STM32F0xx_HAL_Driver/Src/stm32f0xx_hal_uart.c **** 
1538:Drivers/STM32F0xx_HAL_Driver/Src/stm32f0xx_hal_uart.c ****   /*-------------------------- USART CR2 Configuration -----------------------*/
ARM GAS  /tmp/ccjaQwTr.s 			page 46


1539:Drivers/STM32F0xx_HAL_Driver/Src/stm32f0xx_hal_uart.c ****   /* Configure the UART Stop Bits: Set STOP[13:12] bits according
1540:Drivers/STM32F0xx_HAL_Driver/Src/stm32f0xx_hal_uart.c ****    * to huart->Init.StopBits value */
1541:Drivers/STM32F0xx_HAL_Driver/Src/stm32f0xx_hal_uart.c ****   MODIFY_REG(huart->Instance->CR2, USART_CR2_STOP, huart->Init.StopBits);
1542:Drivers/STM32F0xx_HAL_Driver/Src/stm32f0xx_hal_uart.c **** 
1543:Drivers/STM32F0xx_HAL_Driver/Src/stm32f0xx_hal_uart.c ****   /*-------------------------- USART CR3 Configuration -----------------------*/
1544:Drivers/STM32F0xx_HAL_Driver/Src/stm32f0xx_hal_uart.c ****   /* Configure
1545:Drivers/STM32F0xx_HAL_Driver/Src/stm32f0xx_hal_uart.c ****    * - UART HardWare Flow Control: set CTSE and RTSE bits according
1546:Drivers/STM32F0xx_HAL_Driver/Src/stm32f0xx_hal_uart.c ****    *   to huart->Init.HwFlowCtl value
1547:Drivers/STM32F0xx_HAL_Driver/Src/stm32f0xx_hal_uart.c ****    * - one-bit sampling method versus three samples' majority rule according
1548:Drivers/STM32F0xx_HAL_Driver/Src/stm32f0xx_hal_uart.c ****    *   to huart->Init.OneBitSampling */
1549:Drivers/STM32F0xx_HAL_Driver/Src/stm32f0xx_hal_uart.c ****   tmpreg = (uint32_t)huart->Init.HwFlowCtl | huart->Init.OneBitSampling ;
1550:Drivers/STM32F0xx_HAL_Driver/Src/stm32f0xx_hal_uart.c ****   MODIFY_REG(huart->Instance->CR3, (USART_CR3_RTSE | USART_CR3_CTSE | USART_CR3_ONEBIT), tmpreg);
1551:Drivers/STM32F0xx_HAL_Driver/Src/stm32f0xx_hal_uart.c **** 
1552:Drivers/STM32F0xx_HAL_Driver/Src/stm32f0xx_hal_uart.c ****   /*-------------------------- USART BRR Configuration -----------------------*/
1553:Drivers/STM32F0xx_HAL_Driver/Src/stm32f0xx_hal_uart.c ****   UART_GETCLOCKSOURCE(huart, clocksource);
1554:Drivers/STM32F0xx_HAL_Driver/Src/stm32f0xx_hal_uart.c ****   
1555:Drivers/STM32F0xx_HAL_Driver/Src/stm32f0xx_hal_uart.c ****   /* Check UART Over Sampling to set Baud Rate Register */
1556:Drivers/STM32F0xx_HAL_Driver/Src/stm32f0xx_hal_uart.c ****   if (huart->Init.OverSampling == UART_OVERSAMPLING_8)
1557:Drivers/STM32F0xx_HAL_Driver/Src/stm32f0xx_hal_uart.c ****   {
1558:Drivers/STM32F0xx_HAL_Driver/Src/stm32f0xx_hal_uart.c ****     switch (clocksource)
1559:Drivers/STM32F0xx_HAL_Driver/Src/stm32f0xx_hal_uart.c ****     {
1560:Drivers/STM32F0xx_HAL_Driver/Src/stm32f0xx_hal_uart.c ****       case UART_CLOCKSOURCE_PCLK1:
1561:Drivers/STM32F0xx_HAL_Driver/Src/stm32f0xx_hal_uart.c ****         usartdiv = (uint16_t)(UART_DIV_SAMPLING8(HAL_RCC_GetPCLK1Freq(), huart->Init.BaudRate));
1562:Drivers/STM32F0xx_HAL_Driver/Src/stm32f0xx_hal_uart.c ****         break;
1563:Drivers/STM32F0xx_HAL_Driver/Src/stm32f0xx_hal_uart.c ****       case UART_CLOCKSOURCE_HSI:
1564:Drivers/STM32F0xx_HAL_Driver/Src/stm32f0xx_hal_uart.c ****         usartdiv = (uint16_t)(UART_DIV_SAMPLING8(HSI_VALUE, huart->Init.BaudRate));
1565:Drivers/STM32F0xx_HAL_Driver/Src/stm32f0xx_hal_uart.c ****         break;
1566:Drivers/STM32F0xx_HAL_Driver/Src/stm32f0xx_hal_uart.c ****       case UART_CLOCKSOURCE_SYSCLK:
1567:Drivers/STM32F0xx_HAL_Driver/Src/stm32f0xx_hal_uart.c ****         usartdiv = (uint16_t)(UART_DIV_SAMPLING8(HAL_RCC_GetSysClockFreq(), huart->Init.BaudRate));
1568:Drivers/STM32F0xx_HAL_Driver/Src/stm32f0xx_hal_uart.c ****         break;
1569:Drivers/STM32F0xx_HAL_Driver/Src/stm32f0xx_hal_uart.c ****       case UART_CLOCKSOURCE_LSE:
1570:Drivers/STM32F0xx_HAL_Driver/Src/stm32f0xx_hal_uart.c ****         usartdiv = (uint16_t)(UART_DIV_SAMPLING8(LSE_VALUE, huart->Init.BaudRate));
1571:Drivers/STM32F0xx_HAL_Driver/Src/stm32f0xx_hal_uart.c ****         break;
1572:Drivers/STM32F0xx_HAL_Driver/Src/stm32f0xx_hal_uart.c ****       case UART_CLOCKSOURCE_UNDEFINED:
1573:Drivers/STM32F0xx_HAL_Driver/Src/stm32f0xx_hal_uart.c ****       default:
1574:Drivers/STM32F0xx_HAL_Driver/Src/stm32f0xx_hal_uart.c ****         ret = HAL_ERROR;
1575:Drivers/STM32F0xx_HAL_Driver/Src/stm32f0xx_hal_uart.c ****         break;
1576:Drivers/STM32F0xx_HAL_Driver/Src/stm32f0xx_hal_uart.c ****     }
1577:Drivers/STM32F0xx_HAL_Driver/Src/stm32f0xx_hal_uart.c **** 
1578:Drivers/STM32F0xx_HAL_Driver/Src/stm32f0xx_hal_uart.c ****     brrtemp = usartdiv & 0xFFF0;
1579:Drivers/STM32F0xx_HAL_Driver/Src/stm32f0xx_hal_uart.c ****     brrtemp |= (uint16_t)((usartdiv & (uint16_t)0x000F) >> 1U);
1580:Drivers/STM32F0xx_HAL_Driver/Src/stm32f0xx_hal_uart.c ****     huart->Instance->BRR = brrtemp;
1581:Drivers/STM32F0xx_HAL_Driver/Src/stm32f0xx_hal_uart.c ****   }
1582:Drivers/STM32F0xx_HAL_Driver/Src/stm32f0xx_hal_uart.c ****   else
1583:Drivers/STM32F0xx_HAL_Driver/Src/stm32f0xx_hal_uart.c ****   {
1584:Drivers/STM32F0xx_HAL_Driver/Src/stm32f0xx_hal_uart.c ****     switch (clocksource)
1585:Drivers/STM32F0xx_HAL_Driver/Src/stm32f0xx_hal_uart.c ****     {
1586:Drivers/STM32F0xx_HAL_Driver/Src/stm32f0xx_hal_uart.c ****       case UART_CLOCKSOURCE_PCLK1:
1587:Drivers/STM32F0xx_HAL_Driver/Src/stm32f0xx_hal_uart.c ****         huart->Instance->BRR = (uint16_t)(UART_DIV_SAMPLING16(HAL_RCC_GetPCLK1Freq(), huart->Init.B
1588:Drivers/STM32F0xx_HAL_Driver/Src/stm32f0xx_hal_uart.c ****         break;
1589:Drivers/STM32F0xx_HAL_Driver/Src/stm32f0xx_hal_uart.c ****       case UART_CLOCKSOURCE_HSI:
1590:Drivers/STM32F0xx_HAL_Driver/Src/stm32f0xx_hal_uart.c ****         huart->Instance->BRR = (uint16_t)(UART_DIV_SAMPLING16(HSI_VALUE, huart->Init.BaudRate)); 
1591:Drivers/STM32F0xx_HAL_Driver/Src/stm32f0xx_hal_uart.c ****         break;
1592:Drivers/STM32F0xx_HAL_Driver/Src/stm32f0xx_hal_uart.c ****       case UART_CLOCKSOURCE_SYSCLK:
1593:Drivers/STM32F0xx_HAL_Driver/Src/stm32f0xx_hal_uart.c ****         huart->Instance->BRR = (uint16_t)(UART_DIV_SAMPLING16(HAL_RCC_GetSysClockFreq(), huart->Ini
1594:Drivers/STM32F0xx_HAL_Driver/Src/stm32f0xx_hal_uart.c ****         break;
1595:Drivers/STM32F0xx_HAL_Driver/Src/stm32f0xx_hal_uart.c ****       case UART_CLOCKSOURCE_LSE:
ARM GAS  /tmp/ccjaQwTr.s 			page 47


1596:Drivers/STM32F0xx_HAL_Driver/Src/stm32f0xx_hal_uart.c ****         huart->Instance->BRR = (uint16_t)(UART_DIV_SAMPLING16(LSE_VALUE, huart->Init.BaudRate)); 
1597:Drivers/STM32F0xx_HAL_Driver/Src/stm32f0xx_hal_uart.c ****         break;
1598:Drivers/STM32F0xx_HAL_Driver/Src/stm32f0xx_hal_uart.c ****       case UART_CLOCKSOURCE_UNDEFINED:
1599:Drivers/STM32F0xx_HAL_Driver/Src/stm32f0xx_hal_uart.c ****       default:
1600:Drivers/STM32F0xx_HAL_Driver/Src/stm32f0xx_hal_uart.c ****         ret = HAL_ERROR;
1601:Drivers/STM32F0xx_HAL_Driver/Src/stm32f0xx_hal_uart.c ****         break;
1602:Drivers/STM32F0xx_HAL_Driver/Src/stm32f0xx_hal_uart.c ****     }
1603:Drivers/STM32F0xx_HAL_Driver/Src/stm32f0xx_hal_uart.c ****   }
1604:Drivers/STM32F0xx_HAL_Driver/Src/stm32f0xx_hal_uart.c **** 
1605:Drivers/STM32F0xx_HAL_Driver/Src/stm32f0xx_hal_uart.c ****   return ret;
1606:Drivers/STM32F0xx_HAL_Driver/Src/stm32f0xx_hal_uart.c **** 
1607:Drivers/STM32F0xx_HAL_Driver/Src/stm32f0xx_hal_uart.c **** }
1608:Drivers/STM32F0xx_HAL_Driver/Src/stm32f0xx_hal_uart.c **** 
1609:Drivers/STM32F0xx_HAL_Driver/Src/stm32f0xx_hal_uart.c **** /**
1610:Drivers/STM32F0xx_HAL_Driver/Src/stm32f0xx_hal_uart.c ****   * @brief Configure the UART peripheral advanced features.
1611:Drivers/STM32F0xx_HAL_Driver/Src/stm32f0xx_hal_uart.c ****   * @param huart: UART handle.
1612:Drivers/STM32F0xx_HAL_Driver/Src/stm32f0xx_hal_uart.c ****   * @retval None
1613:Drivers/STM32F0xx_HAL_Driver/Src/stm32f0xx_hal_uart.c ****   */
1614:Drivers/STM32F0xx_HAL_Driver/Src/stm32f0xx_hal_uart.c **** void UART_AdvFeatureConfig(UART_HandleTypeDef *huart)
1615:Drivers/STM32F0xx_HAL_Driver/Src/stm32f0xx_hal_uart.c **** {
1616:Drivers/STM32F0xx_HAL_Driver/Src/stm32f0xx_hal_uart.c ****   /* Check whether the set of advanced features to configure is properly set */
1617:Drivers/STM32F0xx_HAL_Driver/Src/stm32f0xx_hal_uart.c ****   assert_param(IS_UART_ADVFEATURE_INIT(huart->AdvancedInit.AdvFeatureInit));
1618:Drivers/STM32F0xx_HAL_Driver/Src/stm32f0xx_hal_uart.c **** 
1619:Drivers/STM32F0xx_HAL_Driver/Src/stm32f0xx_hal_uart.c ****   /* if required, configure TX pin active level inversion */
1620:Drivers/STM32F0xx_HAL_Driver/Src/stm32f0xx_hal_uart.c ****   if(HAL_IS_BIT_SET(huart->AdvancedInit.AdvFeatureInit, UART_ADVFEATURE_TXINVERT_INIT))
1621:Drivers/STM32F0xx_HAL_Driver/Src/stm32f0xx_hal_uart.c ****   {
1622:Drivers/STM32F0xx_HAL_Driver/Src/stm32f0xx_hal_uart.c ****     assert_param(IS_UART_ADVFEATURE_TXINV(huart->AdvancedInit.TxPinLevelInvert));
1623:Drivers/STM32F0xx_HAL_Driver/Src/stm32f0xx_hal_uart.c ****     MODIFY_REG(huart->Instance->CR2, USART_CR2_TXINV, huart->AdvancedInit.TxPinLevelInvert);
1624:Drivers/STM32F0xx_HAL_Driver/Src/stm32f0xx_hal_uart.c ****   }
1625:Drivers/STM32F0xx_HAL_Driver/Src/stm32f0xx_hal_uart.c **** 
1626:Drivers/STM32F0xx_HAL_Driver/Src/stm32f0xx_hal_uart.c ****   /* if required, configure RX pin active level inversion */
1627:Drivers/STM32F0xx_HAL_Driver/Src/stm32f0xx_hal_uart.c ****   if(HAL_IS_BIT_SET(huart->AdvancedInit.AdvFeatureInit, UART_ADVFEATURE_RXINVERT_INIT))
1628:Drivers/STM32F0xx_HAL_Driver/Src/stm32f0xx_hal_uart.c ****   {
1629:Drivers/STM32F0xx_HAL_Driver/Src/stm32f0xx_hal_uart.c ****     assert_param(IS_UART_ADVFEATURE_RXINV(huart->AdvancedInit.RxPinLevelInvert));
1630:Drivers/STM32F0xx_HAL_Driver/Src/stm32f0xx_hal_uart.c ****     MODIFY_REG(huart->Instance->CR2, USART_CR2_RXINV, huart->AdvancedInit.RxPinLevelInvert);
1631:Drivers/STM32F0xx_HAL_Driver/Src/stm32f0xx_hal_uart.c ****   }
1632:Drivers/STM32F0xx_HAL_Driver/Src/stm32f0xx_hal_uart.c **** 
1633:Drivers/STM32F0xx_HAL_Driver/Src/stm32f0xx_hal_uart.c ****   /* if required, configure data inversion */
1634:Drivers/STM32F0xx_HAL_Driver/Src/stm32f0xx_hal_uart.c ****   if(HAL_IS_BIT_SET(huart->AdvancedInit.AdvFeatureInit, UART_ADVFEATURE_DATAINVERT_INIT))
1635:Drivers/STM32F0xx_HAL_Driver/Src/stm32f0xx_hal_uart.c ****   {
1636:Drivers/STM32F0xx_HAL_Driver/Src/stm32f0xx_hal_uart.c ****     assert_param(IS_UART_ADVFEATURE_DATAINV(huart->AdvancedInit.DataInvert));
1637:Drivers/STM32F0xx_HAL_Driver/Src/stm32f0xx_hal_uart.c ****     MODIFY_REG(huart->Instance->CR2, USART_CR2_DATAINV, huart->AdvancedInit.DataInvert);
1638:Drivers/STM32F0xx_HAL_Driver/Src/stm32f0xx_hal_uart.c ****   }
1639:Drivers/STM32F0xx_HAL_Driver/Src/stm32f0xx_hal_uart.c **** 
1640:Drivers/STM32F0xx_HAL_Driver/Src/stm32f0xx_hal_uart.c ****   /* if required, configure RX/TX pins swap */
1641:Drivers/STM32F0xx_HAL_Driver/Src/stm32f0xx_hal_uart.c ****   if(HAL_IS_BIT_SET(huart->AdvancedInit.AdvFeatureInit, UART_ADVFEATURE_SWAP_INIT))
1642:Drivers/STM32F0xx_HAL_Driver/Src/stm32f0xx_hal_uart.c ****   {
1643:Drivers/STM32F0xx_HAL_Driver/Src/stm32f0xx_hal_uart.c ****     assert_param(IS_UART_ADVFEATURE_SWAP(huart->AdvancedInit.Swap));
1644:Drivers/STM32F0xx_HAL_Driver/Src/stm32f0xx_hal_uart.c ****     MODIFY_REG(huart->Instance->CR2, USART_CR2_SWAP, huart->AdvancedInit.Swap);
1645:Drivers/STM32F0xx_HAL_Driver/Src/stm32f0xx_hal_uart.c ****   }
1646:Drivers/STM32F0xx_HAL_Driver/Src/stm32f0xx_hal_uart.c **** 
1647:Drivers/STM32F0xx_HAL_Driver/Src/stm32f0xx_hal_uart.c ****   /* if required, configure RX overrun detection disabling */
1648:Drivers/STM32F0xx_HAL_Driver/Src/stm32f0xx_hal_uart.c ****   if(HAL_IS_BIT_SET(huart->AdvancedInit.AdvFeatureInit, UART_ADVFEATURE_RXOVERRUNDISABLE_INIT))
1649:Drivers/STM32F0xx_HAL_Driver/Src/stm32f0xx_hal_uart.c ****   {
1650:Drivers/STM32F0xx_HAL_Driver/Src/stm32f0xx_hal_uart.c ****     assert_param(IS_UART_OVERRUN(huart->AdvancedInit.OverrunDisable));
1651:Drivers/STM32F0xx_HAL_Driver/Src/stm32f0xx_hal_uart.c ****     MODIFY_REG(huart->Instance->CR3, USART_CR3_OVRDIS, huart->AdvancedInit.OverrunDisable);
1652:Drivers/STM32F0xx_HAL_Driver/Src/stm32f0xx_hal_uart.c ****   }
ARM GAS  /tmp/ccjaQwTr.s 			page 48


1653:Drivers/STM32F0xx_HAL_Driver/Src/stm32f0xx_hal_uart.c **** 
1654:Drivers/STM32F0xx_HAL_Driver/Src/stm32f0xx_hal_uart.c ****   /* if required, configure DMA disabling on reception error */
1655:Drivers/STM32F0xx_HAL_Driver/Src/stm32f0xx_hal_uart.c ****   if(HAL_IS_BIT_SET(huart->AdvancedInit.AdvFeatureInit, UART_ADVFEATURE_DMADISABLEONERROR_INIT))
1656:Drivers/STM32F0xx_HAL_Driver/Src/stm32f0xx_hal_uart.c ****   {
1657:Drivers/STM32F0xx_HAL_Driver/Src/stm32f0xx_hal_uart.c ****     assert_param(IS_UART_ADVFEATURE_DMAONRXERROR(huart->AdvancedInit.DMADisableonRxError));
1658:Drivers/STM32F0xx_HAL_Driver/Src/stm32f0xx_hal_uart.c ****     MODIFY_REG(huart->Instance->CR3, USART_CR3_DDRE, huart->AdvancedInit.DMADisableonRxError);
1659:Drivers/STM32F0xx_HAL_Driver/Src/stm32f0xx_hal_uart.c ****   }
1660:Drivers/STM32F0xx_HAL_Driver/Src/stm32f0xx_hal_uart.c **** 
1661:Drivers/STM32F0xx_HAL_Driver/Src/stm32f0xx_hal_uart.c ****   /* if required, configure auto Baud rate detection scheme */
1662:Drivers/STM32F0xx_HAL_Driver/Src/stm32f0xx_hal_uart.c ****   if(HAL_IS_BIT_SET(huart->AdvancedInit.AdvFeatureInit, UART_ADVFEATURE_AUTOBAUDRATE_INIT))
1663:Drivers/STM32F0xx_HAL_Driver/Src/stm32f0xx_hal_uart.c ****   {
1664:Drivers/STM32F0xx_HAL_Driver/Src/stm32f0xx_hal_uart.c ****     assert_param(IS_USART_AUTOBAUDRATE_DETECTION_INSTANCE(huart->Instance));
1665:Drivers/STM32F0xx_HAL_Driver/Src/stm32f0xx_hal_uart.c ****     assert_param(IS_UART_ADVFEATURE_AUTOBAUDRATE(huart->AdvancedInit.AutoBaudRateEnable));
1666:Drivers/STM32F0xx_HAL_Driver/Src/stm32f0xx_hal_uart.c ****     MODIFY_REG(huart->Instance->CR2, USART_CR2_ABREN, huart->AdvancedInit.AutoBaudRateEnable);
1667:Drivers/STM32F0xx_HAL_Driver/Src/stm32f0xx_hal_uart.c ****     /* set auto Baudrate detection parameters if detection is enabled */
1668:Drivers/STM32F0xx_HAL_Driver/Src/stm32f0xx_hal_uart.c ****     if(huart->AdvancedInit.AutoBaudRateEnable == UART_ADVFEATURE_AUTOBAUDRATE_ENABLE)
1669:Drivers/STM32F0xx_HAL_Driver/Src/stm32f0xx_hal_uart.c ****     {
1670:Drivers/STM32F0xx_HAL_Driver/Src/stm32f0xx_hal_uart.c ****       assert_param(IS_UART_ADVFEATURE_AUTOBAUDRATEMODE(huart->AdvancedInit.AutoBaudRateMode));
1671:Drivers/STM32F0xx_HAL_Driver/Src/stm32f0xx_hal_uart.c ****       MODIFY_REG(huart->Instance->CR2, USART_CR2_ABRMODE, huart->AdvancedInit.AutoBaudRateMode);
1672:Drivers/STM32F0xx_HAL_Driver/Src/stm32f0xx_hal_uart.c ****     }
1673:Drivers/STM32F0xx_HAL_Driver/Src/stm32f0xx_hal_uart.c ****   }
1674:Drivers/STM32F0xx_HAL_Driver/Src/stm32f0xx_hal_uart.c **** 
1675:Drivers/STM32F0xx_HAL_Driver/Src/stm32f0xx_hal_uart.c ****   /* if required, configure MSB first on communication line */
1676:Drivers/STM32F0xx_HAL_Driver/Src/stm32f0xx_hal_uart.c ****   if(HAL_IS_BIT_SET(huart->AdvancedInit.AdvFeatureInit, UART_ADVFEATURE_MSBFIRST_INIT))
1677:Drivers/STM32F0xx_HAL_Driver/Src/stm32f0xx_hal_uart.c ****   {
1678:Drivers/STM32F0xx_HAL_Driver/Src/stm32f0xx_hal_uart.c ****     assert_param(IS_UART_ADVFEATURE_MSBFIRST(huart->AdvancedInit.MSBFirst));
1679:Drivers/STM32F0xx_HAL_Driver/Src/stm32f0xx_hal_uart.c ****     MODIFY_REG(huart->Instance->CR2, USART_CR2_MSBFIRST, huart->AdvancedInit.MSBFirst);
1680:Drivers/STM32F0xx_HAL_Driver/Src/stm32f0xx_hal_uart.c ****   }
1681:Drivers/STM32F0xx_HAL_Driver/Src/stm32f0xx_hal_uart.c **** }
1682:Drivers/STM32F0xx_HAL_Driver/Src/stm32f0xx_hal_uart.c **** 
1683:Drivers/STM32F0xx_HAL_Driver/Src/stm32f0xx_hal_uart.c **** /**
1684:Drivers/STM32F0xx_HAL_Driver/Src/stm32f0xx_hal_uart.c ****   * @brief Check the UART Idle State.
1685:Drivers/STM32F0xx_HAL_Driver/Src/stm32f0xx_hal_uart.c ****   * @param huart: UART handle.
1686:Drivers/STM32F0xx_HAL_Driver/Src/stm32f0xx_hal_uart.c ****   * @retval HAL status
1687:Drivers/STM32F0xx_HAL_Driver/Src/stm32f0xx_hal_uart.c ****   */
1688:Drivers/STM32F0xx_HAL_Driver/Src/stm32f0xx_hal_uart.c **** HAL_StatusTypeDef UART_CheckIdleState(UART_HandleTypeDef *huart)
1689:Drivers/STM32F0xx_HAL_Driver/Src/stm32f0xx_hal_uart.c **** {
1690:Drivers/STM32F0xx_HAL_Driver/Src/stm32f0xx_hal_uart.c ****   /* Initialize the UART ErrorCode */
1691:Drivers/STM32F0xx_HAL_Driver/Src/stm32f0xx_hal_uart.c ****   huart->ErrorCode = HAL_UART_ERROR_NONE;
1692:Drivers/STM32F0xx_HAL_Driver/Src/stm32f0xx_hal_uart.c **** 
1693:Drivers/STM32F0xx_HAL_Driver/Src/stm32f0xx_hal_uart.c ****   /* TEACK and REACK bits in ISR are checked only when available (not available on all F0 devices).
1694:Drivers/STM32F0xx_HAL_Driver/Src/stm32f0xx_hal_uart.c ****      Bits are defined for some specific devices, and are available only for UART instances supporti
1695:Drivers/STM32F0xx_HAL_Driver/Src/stm32f0xx_hal_uart.c ****   */
1696:Drivers/STM32F0xx_HAL_Driver/Src/stm32f0xx_hal_uart.c **** #if !defined(STM32F030x6) && !defined(STM32F030x8)&& !defined(STM32F070xB)&& !defined(STM32F070x6)&
1697:Drivers/STM32F0xx_HAL_Driver/Src/stm32f0xx_hal_uart.c ****   if (IS_UART_WAKEUP_FROMSTOP_INSTANCE(huart->Instance))
1698:Drivers/STM32F0xx_HAL_Driver/Src/stm32f0xx_hal_uart.c ****   {
1699:Drivers/STM32F0xx_HAL_Driver/Src/stm32f0xx_hal_uart.c ****     /* Check if the Transmitter is enabled */
1700:Drivers/STM32F0xx_HAL_Driver/Src/stm32f0xx_hal_uart.c ****     if((huart->Instance->CR1 & USART_CR1_TE) == USART_CR1_TE)
1701:Drivers/STM32F0xx_HAL_Driver/Src/stm32f0xx_hal_uart.c ****     {
1702:Drivers/STM32F0xx_HAL_Driver/Src/stm32f0xx_hal_uart.c ****       /* Wait until TEACK flag is set */
1703:Drivers/STM32F0xx_HAL_Driver/Src/stm32f0xx_hal_uart.c ****       if(UART_WaitOnFlagUntilTimeout(huart, USART_ISR_TEACK, RESET, UART_TEACK_REACK_TIMEOUT) != HA
1704:Drivers/STM32F0xx_HAL_Driver/Src/stm32f0xx_hal_uart.c ****       {
1705:Drivers/STM32F0xx_HAL_Driver/Src/stm32f0xx_hal_uart.c ****         /* Timeout occurred */
1706:Drivers/STM32F0xx_HAL_Driver/Src/stm32f0xx_hal_uart.c ****         return HAL_TIMEOUT;
1707:Drivers/STM32F0xx_HAL_Driver/Src/stm32f0xx_hal_uart.c ****       }
1708:Drivers/STM32F0xx_HAL_Driver/Src/stm32f0xx_hal_uart.c ****     }
1709:Drivers/STM32F0xx_HAL_Driver/Src/stm32f0xx_hal_uart.c **** 
ARM GAS  /tmp/ccjaQwTr.s 			page 49


1710:Drivers/STM32F0xx_HAL_Driver/Src/stm32f0xx_hal_uart.c ****     /* Check if the Receiver is enabled */
1711:Drivers/STM32F0xx_HAL_Driver/Src/stm32f0xx_hal_uart.c ****     if((huart->Instance->CR1 & USART_CR1_RE) == USART_CR1_RE)
1712:Drivers/STM32F0xx_HAL_Driver/Src/stm32f0xx_hal_uart.c ****     {
1713:Drivers/STM32F0xx_HAL_Driver/Src/stm32f0xx_hal_uart.c ****       /* Wait until REACK flag is set */
1714:Drivers/STM32F0xx_HAL_Driver/Src/stm32f0xx_hal_uart.c ****       if(UART_WaitOnFlagUntilTimeout(huart, USART_ISR_REACK, RESET,  UART_TEACK_REACK_TIMEOUT) != H
1715:Drivers/STM32F0xx_HAL_Driver/Src/stm32f0xx_hal_uart.c ****       {
1716:Drivers/STM32F0xx_HAL_Driver/Src/stm32f0xx_hal_uart.c ****         /* Timeout occurred */
1717:Drivers/STM32F0xx_HAL_Driver/Src/stm32f0xx_hal_uart.c ****         return HAL_TIMEOUT;
1718:Drivers/STM32F0xx_HAL_Driver/Src/stm32f0xx_hal_uart.c ****       }
1719:Drivers/STM32F0xx_HAL_Driver/Src/stm32f0xx_hal_uart.c ****     }
1720:Drivers/STM32F0xx_HAL_Driver/Src/stm32f0xx_hal_uart.c ****   }
1721:Drivers/STM32F0xx_HAL_Driver/Src/stm32f0xx_hal_uart.c **** #endif /* !defined(STM32F030x6) && !defined(STM32F030x8)&& !defined(STM32F070xB)&& !defined(STM32F0
1722:Drivers/STM32F0xx_HAL_Driver/Src/stm32f0xx_hal_uart.c **** 
1723:Drivers/STM32F0xx_HAL_Driver/Src/stm32f0xx_hal_uart.c ****   /* Initialize the UART State */
1724:Drivers/STM32F0xx_HAL_Driver/Src/stm32f0xx_hal_uart.c ****   huart->gState= HAL_UART_STATE_READY;
1725:Drivers/STM32F0xx_HAL_Driver/Src/stm32f0xx_hal_uart.c ****   huart->RxState= HAL_UART_STATE_READY;
1726:Drivers/STM32F0xx_HAL_Driver/Src/stm32f0xx_hal_uart.c **** 
1727:Drivers/STM32F0xx_HAL_Driver/Src/stm32f0xx_hal_uart.c ****   /* Process Unlocked */
1728:Drivers/STM32F0xx_HAL_Driver/Src/stm32f0xx_hal_uart.c ****   __HAL_UNLOCK(huart);
1729:Drivers/STM32F0xx_HAL_Driver/Src/stm32f0xx_hal_uart.c **** 
1730:Drivers/STM32F0xx_HAL_Driver/Src/stm32f0xx_hal_uart.c ****   return HAL_OK;
1731:Drivers/STM32F0xx_HAL_Driver/Src/stm32f0xx_hal_uart.c **** }
1732:Drivers/STM32F0xx_HAL_Driver/Src/stm32f0xx_hal_uart.c **** 
1733:Drivers/STM32F0xx_HAL_Driver/Src/stm32f0xx_hal_uart.c **** 
1734:Drivers/STM32F0xx_HAL_Driver/Src/stm32f0xx_hal_uart.c **** /**
1735:Drivers/STM32F0xx_HAL_Driver/Src/stm32f0xx_hal_uart.c ****   * @brief  Handle UART Communication Timeout.
1736:Drivers/STM32F0xx_HAL_Driver/Src/stm32f0xx_hal_uart.c ****   * @param  huart: UART handle.
1737:Drivers/STM32F0xx_HAL_Driver/Src/stm32f0xx_hal_uart.c ****   * @param  Flag: specifies the UART flag to check.
1738:Drivers/STM32F0xx_HAL_Driver/Src/stm32f0xx_hal_uart.c ****   * @param  Status: the Flag status (SET or RESET).
1739:Drivers/STM32F0xx_HAL_Driver/Src/stm32f0xx_hal_uart.c ****   * @param  Timeout: Timeout duration.
1740:Drivers/STM32F0xx_HAL_Driver/Src/stm32f0xx_hal_uart.c ****   * @retval HAL status
1741:Drivers/STM32F0xx_HAL_Driver/Src/stm32f0xx_hal_uart.c ****   */
1742:Drivers/STM32F0xx_HAL_Driver/Src/stm32f0xx_hal_uart.c **** HAL_StatusTypeDef UART_WaitOnFlagUntilTimeout(UART_HandleTypeDef *huart, uint32_t Flag, FlagStatus 
1743:Drivers/STM32F0xx_HAL_Driver/Src/stm32f0xx_hal_uart.c **** {
1744:Drivers/STM32F0xx_HAL_Driver/Src/stm32f0xx_hal_uart.c ****   uint32_t tickstart = HAL_GetTick();
1745:Drivers/STM32F0xx_HAL_Driver/Src/stm32f0xx_hal_uart.c **** 
1746:Drivers/STM32F0xx_HAL_Driver/Src/stm32f0xx_hal_uart.c ****   /* Wait until flag is set */
1747:Drivers/STM32F0xx_HAL_Driver/Src/stm32f0xx_hal_uart.c ****   if(Status == RESET)
1748:Drivers/STM32F0xx_HAL_Driver/Src/stm32f0xx_hal_uart.c ****   {
1749:Drivers/STM32F0xx_HAL_Driver/Src/stm32f0xx_hal_uart.c ****     while(__HAL_UART_GET_FLAG(huart, Flag) == RESET)
1750:Drivers/STM32F0xx_HAL_Driver/Src/stm32f0xx_hal_uart.c ****     {
1751:Drivers/STM32F0xx_HAL_Driver/Src/stm32f0xx_hal_uart.c ****       /* Check for the Timeout */
1752:Drivers/STM32F0xx_HAL_Driver/Src/stm32f0xx_hal_uart.c ****       if(Timeout != HAL_MAX_DELAY)
1753:Drivers/STM32F0xx_HAL_Driver/Src/stm32f0xx_hal_uart.c ****       {
1754:Drivers/STM32F0xx_HAL_Driver/Src/stm32f0xx_hal_uart.c ****         if((Timeout == 0) || ((HAL_GetTick()-tickstart) > Timeout))
1755:Drivers/STM32F0xx_HAL_Driver/Src/stm32f0xx_hal_uart.c ****         {
1756:Drivers/STM32F0xx_HAL_Driver/Src/stm32f0xx_hal_uart.c ****           /* Disable TXE, RXNE, PE and ERR (Frame error, noise error, overrun error) interrupts for
1757:Drivers/STM32F0xx_HAL_Driver/Src/stm32f0xx_hal_uart.c ****           __HAL_UART_DISABLE_IT(huart, UART_IT_TXE);
1758:Drivers/STM32F0xx_HAL_Driver/Src/stm32f0xx_hal_uart.c ****           __HAL_UART_DISABLE_IT(huart, UART_IT_RXNE);
1759:Drivers/STM32F0xx_HAL_Driver/Src/stm32f0xx_hal_uart.c ****           __HAL_UART_DISABLE_IT(huart, UART_IT_PE);
1760:Drivers/STM32F0xx_HAL_Driver/Src/stm32f0xx_hal_uart.c ****           __HAL_UART_DISABLE_IT(huart, UART_IT_ERR);
1761:Drivers/STM32F0xx_HAL_Driver/Src/stm32f0xx_hal_uart.c **** 
1762:Drivers/STM32F0xx_HAL_Driver/Src/stm32f0xx_hal_uart.c ****           huart->gState = HAL_UART_STATE_READY;
1763:Drivers/STM32F0xx_HAL_Driver/Src/stm32f0xx_hal_uart.c ****           huart->RxState = HAL_UART_STATE_READY;
1764:Drivers/STM32F0xx_HAL_Driver/Src/stm32f0xx_hal_uart.c **** 
1765:Drivers/STM32F0xx_HAL_Driver/Src/stm32f0xx_hal_uart.c ****           /* Process Unlocked */
1766:Drivers/STM32F0xx_HAL_Driver/Src/stm32f0xx_hal_uart.c ****           __HAL_UNLOCK(huart);
ARM GAS  /tmp/ccjaQwTr.s 			page 50


1767:Drivers/STM32F0xx_HAL_Driver/Src/stm32f0xx_hal_uart.c **** 
1768:Drivers/STM32F0xx_HAL_Driver/Src/stm32f0xx_hal_uart.c ****           return HAL_TIMEOUT;
1769:Drivers/STM32F0xx_HAL_Driver/Src/stm32f0xx_hal_uart.c ****         }
1770:Drivers/STM32F0xx_HAL_Driver/Src/stm32f0xx_hal_uart.c ****       }
1771:Drivers/STM32F0xx_HAL_Driver/Src/stm32f0xx_hal_uart.c ****     }
1772:Drivers/STM32F0xx_HAL_Driver/Src/stm32f0xx_hal_uart.c ****   }
1773:Drivers/STM32F0xx_HAL_Driver/Src/stm32f0xx_hal_uart.c ****   else
1774:Drivers/STM32F0xx_HAL_Driver/Src/stm32f0xx_hal_uart.c ****   {
1775:Drivers/STM32F0xx_HAL_Driver/Src/stm32f0xx_hal_uart.c ****     while(__HAL_UART_GET_FLAG(huart, Flag) != RESET)
1776:Drivers/STM32F0xx_HAL_Driver/Src/stm32f0xx_hal_uart.c ****     {
1777:Drivers/STM32F0xx_HAL_Driver/Src/stm32f0xx_hal_uart.c ****       /* Check for the Timeout */
1778:Drivers/STM32F0xx_HAL_Driver/Src/stm32f0xx_hal_uart.c ****       if(Timeout != HAL_MAX_DELAY)
1779:Drivers/STM32F0xx_HAL_Driver/Src/stm32f0xx_hal_uart.c ****       {
1780:Drivers/STM32F0xx_HAL_Driver/Src/stm32f0xx_hal_uart.c ****         if((Timeout == 0) || ((HAL_GetTick()-tickstart) > Timeout))
1781:Drivers/STM32F0xx_HAL_Driver/Src/stm32f0xx_hal_uart.c ****         {
1782:Drivers/STM32F0xx_HAL_Driver/Src/stm32f0xx_hal_uart.c ****           /* Disable TXE, RXNE, PE and ERR (Frame error, noise error, overrun error) interrupts for
1783:Drivers/STM32F0xx_HAL_Driver/Src/stm32f0xx_hal_uart.c ****           __HAL_UART_DISABLE_IT(huart, UART_IT_TXE);
1784:Drivers/STM32F0xx_HAL_Driver/Src/stm32f0xx_hal_uart.c ****           __HAL_UART_DISABLE_IT(huart, UART_IT_RXNE);
1785:Drivers/STM32F0xx_HAL_Driver/Src/stm32f0xx_hal_uart.c ****           __HAL_UART_DISABLE_IT(huart, UART_IT_PE);
1786:Drivers/STM32F0xx_HAL_Driver/Src/stm32f0xx_hal_uart.c ****           __HAL_UART_DISABLE_IT(huart, UART_IT_ERR);
1787:Drivers/STM32F0xx_HAL_Driver/Src/stm32f0xx_hal_uart.c **** 
1788:Drivers/STM32F0xx_HAL_Driver/Src/stm32f0xx_hal_uart.c ****           huart->gState = HAL_UART_STATE_READY;
1789:Drivers/STM32F0xx_HAL_Driver/Src/stm32f0xx_hal_uart.c ****           huart->RxState = HAL_UART_STATE_READY;
1790:Drivers/STM32F0xx_HAL_Driver/Src/stm32f0xx_hal_uart.c **** 
1791:Drivers/STM32F0xx_HAL_Driver/Src/stm32f0xx_hal_uart.c ****           /* Process Unlocked */
1792:Drivers/STM32F0xx_HAL_Driver/Src/stm32f0xx_hal_uart.c ****           __HAL_UNLOCK(huart);
1793:Drivers/STM32F0xx_HAL_Driver/Src/stm32f0xx_hal_uart.c **** 
1794:Drivers/STM32F0xx_HAL_Driver/Src/stm32f0xx_hal_uart.c ****           return HAL_TIMEOUT;
1795:Drivers/STM32F0xx_HAL_Driver/Src/stm32f0xx_hal_uart.c ****         }
1796:Drivers/STM32F0xx_HAL_Driver/Src/stm32f0xx_hal_uart.c ****       }
1797:Drivers/STM32F0xx_HAL_Driver/Src/stm32f0xx_hal_uart.c ****     }
1798:Drivers/STM32F0xx_HAL_Driver/Src/stm32f0xx_hal_uart.c ****   }
1799:Drivers/STM32F0xx_HAL_Driver/Src/stm32f0xx_hal_uart.c ****   return HAL_OK;
1800:Drivers/STM32F0xx_HAL_Driver/Src/stm32f0xx_hal_uart.c **** }
1801:Drivers/STM32F0xx_HAL_Driver/Src/stm32f0xx_hal_uart.c **** 
1802:Drivers/STM32F0xx_HAL_Driver/Src/stm32f0xx_hal_uart.c **** /**
1803:Drivers/STM32F0xx_HAL_Driver/Src/stm32f0xx_hal_uart.c ****   * @brief DMA UART transmit process complete callback.
1804:Drivers/STM32F0xx_HAL_Driver/Src/stm32f0xx_hal_uart.c ****   * @param hdma: DMA handle.
1805:Drivers/STM32F0xx_HAL_Driver/Src/stm32f0xx_hal_uart.c ****   * @retval None
1806:Drivers/STM32F0xx_HAL_Driver/Src/stm32f0xx_hal_uart.c ****   */
1807:Drivers/STM32F0xx_HAL_Driver/Src/stm32f0xx_hal_uart.c **** static void UART_DMATransmitCplt(DMA_HandleTypeDef *hdma)
1808:Drivers/STM32F0xx_HAL_Driver/Src/stm32f0xx_hal_uart.c **** {
 913              		.loc 1 1808 0
 914              		.cfi_startproc
 915              	.LVL54:
1809:Drivers/STM32F0xx_HAL_Driver/Src/stm32f0xx_hal_uart.c ****   UART_HandleTypeDef* huart = ( UART_HandleTypeDef* )((DMA_HandleTypeDef* )hdma)->Parent;
1810:Drivers/STM32F0xx_HAL_Driver/Src/stm32f0xx_hal_uart.c ****   
1811:Drivers/STM32F0xx_HAL_Driver/Src/stm32f0xx_hal_uart.c ****   /* DMA Normal mode */
1812:Drivers/STM32F0xx_HAL_Driver/Src/stm32f0xx_hal_uart.c ****   if ( HAL_IS_BIT_CLR(hdma->Instance->CCR, DMA_CCR_CIRC) )
 916              		.loc 1 1812 0
 917 0000 2021     		movs	r1, #32
 918 0002 0368     		ldr	r3, [r0]
1808:Drivers/STM32F0xx_HAL_Driver/Src/stm32f0xx_hal_uart.c ****   UART_HandleTypeDef* huart = ( UART_HandleTypeDef* )((DMA_HandleTypeDef* )hdma)->Parent;
 919              		.loc 1 1808 0
 920 0004 10B5     		push	{r4, lr}
 921              	.LCFI8:
 922              		.cfi_def_cfa_offset 8
ARM GAS  /tmp/ccjaQwTr.s 			page 51


 923              		.cfi_offset 4, -8
 924              		.cfi_offset 14, -4
 925              		.loc 1 1812 0
 926 0006 1B68     		ldr	r3, [r3]
1809:Drivers/STM32F0xx_HAL_Driver/Src/stm32f0xx_hal_uart.c ****   UART_HandleTypeDef* huart = ( UART_HandleTypeDef* )((DMA_HandleTypeDef* )hdma)->Parent;
 927              		.loc 1 1809 0
 928 0008 426A     		ldr	r2, [r0, #36]
 929              	.LVL55:
 930              		.loc 1 1812 0
 931 000a 0B40     		ands	r3, r1
 932 000c 0CD1     		bne	.L87
1813:Drivers/STM32F0xx_HAL_Driver/Src/stm32f0xx_hal_uart.c ****   {  
1814:Drivers/STM32F0xx_HAL_Driver/Src/stm32f0xx_hal_uart.c ****     huart->TxXferCount = 0;
 933              		.loc 1 1814 0
 934 000e 1100     		movs	r1, r2
 935 0010 5231     		adds	r1, r1, #82
 936 0012 0B80     		strh	r3, [r1]
1815:Drivers/STM32F0xx_HAL_Driver/Src/stm32f0xx_hal_uart.c ****   
1816:Drivers/STM32F0xx_HAL_Driver/Src/stm32f0xx_hal_uart.c ****     /* Disable the DMA transfer for transmit request by resetting the DMAT bit
1817:Drivers/STM32F0xx_HAL_Driver/Src/stm32f0xx_hal_uart.c ****     in the UART CR3 register */
1818:Drivers/STM32F0xx_HAL_Driver/Src/stm32f0xx_hal_uart.c ****     huart->Instance->CR3 &= (uint32_t)~((uint32_t)USART_CR3_DMAT);
 937              		.loc 1 1818 0
 938 0014 8021     		movs	r1, #128
 939 0016 1368     		ldr	r3, [r2]
 940 0018 9A68     		ldr	r2, [r3, #8]
 941              	.LVL56:
 942 001a 8A43     		bics	r2, r1
 943 001c 9A60     		str	r2, [r3, #8]
1819:Drivers/STM32F0xx_HAL_Driver/Src/stm32f0xx_hal_uart.c **** 
1820:Drivers/STM32F0xx_HAL_Driver/Src/stm32f0xx_hal_uart.c ****     /* Enable the UART Transmit Complete Interrupt */
1821:Drivers/STM32F0xx_HAL_Driver/Src/stm32f0xx_hal_uart.c ****     __HAL_UART_ENABLE_IT(huart, UART_IT_TC);
 944              		.loc 1 1821 0
 945 001e 4022     		movs	r2, #64
 946 0020 1968     		ldr	r1, [r3]
 947 0022 0A43     		orrs	r2, r1
 948 0024 1A60     		str	r2, [r3]
 949              	.LVL57:
 950              	.L86:
1822:Drivers/STM32F0xx_HAL_Driver/Src/stm32f0xx_hal_uart.c ****   }
1823:Drivers/STM32F0xx_HAL_Driver/Src/stm32f0xx_hal_uart.c ****   /* DMA Circular mode */
1824:Drivers/STM32F0xx_HAL_Driver/Src/stm32f0xx_hal_uart.c ****   else
1825:Drivers/STM32F0xx_HAL_Driver/Src/stm32f0xx_hal_uart.c ****   {
1826:Drivers/STM32F0xx_HAL_Driver/Src/stm32f0xx_hal_uart.c ****     HAL_UART_TxCpltCallback(huart);
1827:Drivers/STM32F0xx_HAL_Driver/Src/stm32f0xx_hal_uart.c ****   }
1828:Drivers/STM32F0xx_HAL_Driver/Src/stm32f0xx_hal_uart.c **** 
1829:Drivers/STM32F0xx_HAL_Driver/Src/stm32f0xx_hal_uart.c **** }
 951              		.loc 1 1829 0
 952              		@ sp needed
 953 0026 10BD     		pop	{r4, pc}
 954              	.LVL58:
 955              	.L87:
1826:Drivers/STM32F0xx_HAL_Driver/Src/stm32f0xx_hal_uart.c ****   }
 956              		.loc 1 1826 0
 957 0028 1000     		movs	r0, r2
 958              	.LVL59:
 959 002a FFF7FEFF 		bl	HAL_UART_TxCpltCallback
 960              	.LVL60:
ARM GAS  /tmp/ccjaQwTr.s 			page 52


 961              		.loc 1 1829 0
 962 002e FAE7     		b	.L86
 963              		.cfi_endproc
 964              	.LFE67:
 966              		.section	.text.HAL_UART_TxHalfCpltCallback,"ax",%progbits
 967              		.align	1
 968              		.weak	HAL_UART_TxHalfCpltCallback
 969              		.syntax unified
 970              		.code	16
 971              		.thumb_func
 972              		.fpu softvfp
 974              	HAL_UART_TxHalfCpltCallback:
 975              	.LFB82:
 976              		.cfi_startproc
 977              		@ sp needed
 978 0000 7047     		bx	lr
 979              		.cfi_endproc
 980              	.LFE82:
 982              		.section	.text.UART_DMATxHalfCplt,"ax",%progbits
 983              		.align	1
 984              		.syntax unified
 985              		.code	16
 986              		.thumb_func
 987              		.fpu softvfp
 989              	UART_DMATxHalfCplt:
 990              	.LFB68:
1830:Drivers/STM32F0xx_HAL_Driver/Src/stm32f0xx_hal_uart.c **** 
1831:Drivers/STM32F0xx_HAL_Driver/Src/stm32f0xx_hal_uart.c **** /**
1832:Drivers/STM32F0xx_HAL_Driver/Src/stm32f0xx_hal_uart.c ****   * @brief DMA UART transmit process half complete callback.
1833:Drivers/STM32F0xx_HAL_Driver/Src/stm32f0xx_hal_uart.c ****   * @param hdma : DMA handle.
1834:Drivers/STM32F0xx_HAL_Driver/Src/stm32f0xx_hal_uart.c ****   * @retval None
1835:Drivers/STM32F0xx_HAL_Driver/Src/stm32f0xx_hal_uart.c ****   */
1836:Drivers/STM32F0xx_HAL_Driver/Src/stm32f0xx_hal_uart.c **** static void UART_DMATxHalfCplt(DMA_HandleTypeDef *hdma)
1837:Drivers/STM32F0xx_HAL_Driver/Src/stm32f0xx_hal_uart.c **** {
 991              		.loc 1 1837 0
 992              		.cfi_startproc
 993              	.LVL61:
 994              		.loc 1 1837 0
 995 0000 10B5     		push	{r4, lr}
 996              	.LCFI9:
 997              		.cfi_def_cfa_offset 8
 998              		.cfi_offset 4, -8
 999              		.cfi_offset 14, -4
1838:Drivers/STM32F0xx_HAL_Driver/Src/stm32f0xx_hal_uart.c ****   UART_HandleTypeDef* huart = (UART_HandleTypeDef*)((DMA_HandleTypeDef*)hdma)->Parent;
1839:Drivers/STM32F0xx_HAL_Driver/Src/stm32f0xx_hal_uart.c **** 
1840:Drivers/STM32F0xx_HAL_Driver/Src/stm32f0xx_hal_uart.c ****   HAL_UART_TxHalfCpltCallback(huart);
 1000              		.loc 1 1840 0
 1001 0002 406A     		ldr	r0, [r0, #36]
 1002              	.LVL62:
 1003 0004 FFF7FEFF 		bl	HAL_UART_TxHalfCpltCallback
 1004              	.LVL63:
1841:Drivers/STM32F0xx_HAL_Driver/Src/stm32f0xx_hal_uart.c **** }
 1005              		.loc 1 1841 0
 1006              		@ sp needed
 1007 0008 10BD     		pop	{r4, pc}
 1008              		.cfi_endproc
 1009              	.LFE68:
ARM GAS  /tmp/ccjaQwTr.s 			page 53


 1011              		.section	.text.HAL_UART_RxCpltCallback,"ax",%progbits
 1012              		.align	1
 1013              		.weak	HAL_UART_RxCpltCallback
 1014              		.syntax unified
 1015              		.code	16
 1016              		.thumb_func
 1017              		.fpu softvfp
 1019              	HAL_UART_RxCpltCallback:
 1020              	.LFB80:
 1021              		.cfi_startproc
 1022              		@ sp needed
 1023 0000 7047     		bx	lr
 1024              		.cfi_endproc
 1025              	.LFE80:
 1027              		.section	.text.UART_DMAReceiveCplt,"ax",%progbits
 1028              		.align	1
 1029              		.syntax unified
 1030              		.code	16
 1031              		.thumb_func
 1032              		.fpu softvfp
 1034              	UART_DMAReceiveCplt:
 1035              	.LFB69:
1842:Drivers/STM32F0xx_HAL_Driver/Src/stm32f0xx_hal_uart.c **** 
1843:Drivers/STM32F0xx_HAL_Driver/Src/stm32f0xx_hal_uart.c **** /**
1844:Drivers/STM32F0xx_HAL_Driver/Src/stm32f0xx_hal_uart.c ****   * @brief DMA UART receive process complete callback.
1845:Drivers/STM32F0xx_HAL_Driver/Src/stm32f0xx_hal_uart.c ****   * @param hdma: DMA handle.
1846:Drivers/STM32F0xx_HAL_Driver/Src/stm32f0xx_hal_uart.c ****   * @retval None
1847:Drivers/STM32F0xx_HAL_Driver/Src/stm32f0xx_hal_uart.c ****   */
1848:Drivers/STM32F0xx_HAL_Driver/Src/stm32f0xx_hal_uart.c **** static void UART_DMAReceiveCplt(DMA_HandleTypeDef *hdma)
1849:Drivers/STM32F0xx_HAL_Driver/Src/stm32f0xx_hal_uart.c **** {
 1036              		.loc 1 1849 0
 1037              		.cfi_startproc
 1038              	.LVL64:
1850:Drivers/STM32F0xx_HAL_Driver/Src/stm32f0xx_hal_uart.c ****   UART_HandleTypeDef* huart = ( UART_HandleTypeDef* )((DMA_HandleTypeDef* )hdma)->Parent;
1851:Drivers/STM32F0xx_HAL_Driver/Src/stm32f0xx_hal_uart.c ****   
1852:Drivers/STM32F0xx_HAL_Driver/Src/stm32f0xx_hal_uart.c ****   /* DMA Normal mode */
1853:Drivers/STM32F0xx_HAL_Driver/Src/stm32f0xx_hal_uart.c ****   if ( HAL_IS_BIT_CLR(hdma->Instance->CCR, DMA_CCR_CIRC) )
 1039              		.loc 1 1853 0
 1040 0000 2021     		movs	r1, #32
 1041 0002 0268     		ldr	r2, [r0]
1849:Drivers/STM32F0xx_HAL_Driver/Src/stm32f0xx_hal_uart.c ****   UART_HandleTypeDef* huart = ( UART_HandleTypeDef* )((DMA_HandleTypeDef* )hdma)->Parent;
 1042              		.loc 1 1849 0
 1043 0004 10B5     		push	{r4, lr}
 1044              	.LCFI10:
 1045              		.cfi_def_cfa_offset 8
 1046              		.cfi_offset 4, -8
 1047              		.cfi_offset 14, -4
 1048              		.loc 1 1853 0
 1049 0006 1268     		ldr	r2, [r2]
1850:Drivers/STM32F0xx_HAL_Driver/Src/stm32f0xx_hal_uart.c ****   UART_HandleTypeDef* huart = ( UART_HandleTypeDef* )((DMA_HandleTypeDef* )hdma)->Parent;
 1050              		.loc 1 1850 0
 1051 0008 436A     		ldr	r3, [r0, #36]
 1052              	.LVL65:
 1053              		.loc 1 1853 0
 1054 000a 0A40     		ands	r2, r1
 1055 000c 0AD1     		bne	.L93
1854:Drivers/STM32F0xx_HAL_Driver/Src/stm32f0xx_hal_uart.c ****   {
ARM GAS  /tmp/ccjaQwTr.s 			page 54


1855:Drivers/STM32F0xx_HAL_Driver/Src/stm32f0xx_hal_uart.c ****     huart->RxXferCount = 0;
 1056              		.loc 1 1855 0
 1057 000e 1800     		movs	r0, r3
 1058              	.LVL66:
1856:Drivers/STM32F0xx_HAL_Driver/Src/stm32f0xx_hal_uart.c **** 
1857:Drivers/STM32F0xx_HAL_Driver/Src/stm32f0xx_hal_uart.c ****     /* Disable the DMA transfer for the receiver request by resetting the DMAR bit
1858:Drivers/STM32F0xx_HAL_Driver/Src/stm32f0xx_hal_uart.c ****        in the UART CR3 register */
1859:Drivers/STM32F0xx_HAL_Driver/Src/stm32f0xx_hal_uart.c ****     huart->Instance->CR3 &= (uint32_t)~((uint32_t)USART_CR3_DMAR);
 1059              		.loc 1 1859 0
 1060 0010 4024     		movs	r4, #64
1855:Drivers/STM32F0xx_HAL_Driver/Src/stm32f0xx_hal_uart.c **** 
 1061              		.loc 1 1855 0
 1062 0012 5A30     		adds	r0, r0, #90
 1063 0014 0280     		strh	r2, [r0]
 1064              		.loc 1 1859 0
 1065 0016 1868     		ldr	r0, [r3]
 1066 0018 8268     		ldr	r2, [r0, #8]
 1067 001a A243     		bics	r2, r4
 1068 001c 8260     		str	r2, [r0, #8]
1860:Drivers/STM32F0xx_HAL_Driver/Src/stm32f0xx_hal_uart.c **** 
1861:Drivers/STM32F0xx_HAL_Driver/Src/stm32f0xx_hal_uart.c ****     /* At end of Rx process, restore huart->RxState to Ready */
1862:Drivers/STM32F0xx_HAL_Driver/Src/stm32f0xx_hal_uart.c ****     huart->RxState = HAL_UART_STATE_READY;
 1069              		.loc 1 1862 0
 1070 001e 1A00     		movs	r2, r3
 1071 0020 6A32     		adds	r2, r2, #106
 1072 0022 1170     		strb	r1, [r2]
 1073              	.L93:
1863:Drivers/STM32F0xx_HAL_Driver/Src/stm32f0xx_hal_uart.c ****   }
1864:Drivers/STM32F0xx_HAL_Driver/Src/stm32f0xx_hal_uart.c ****   
1865:Drivers/STM32F0xx_HAL_Driver/Src/stm32f0xx_hal_uart.c ****   HAL_UART_RxCpltCallback(huart);
 1074              		.loc 1 1865 0
 1075 0024 1800     		movs	r0, r3
 1076 0026 FFF7FEFF 		bl	HAL_UART_RxCpltCallback
 1077              	.LVL67:
1866:Drivers/STM32F0xx_HAL_Driver/Src/stm32f0xx_hal_uart.c **** }
 1078              		.loc 1 1866 0
 1079              		@ sp needed
 1080 002a 10BD     		pop	{r4, pc}
 1081              		.cfi_endproc
 1082              	.LFE69:
 1084              		.section	.text.HAL_UART_RxHalfCpltCallback,"ax",%progbits
 1085              		.align	1
 1086              		.weak	HAL_UART_RxHalfCpltCallback
 1087              		.syntax unified
 1088              		.code	16
 1089              		.thumb_func
 1090              		.fpu softvfp
 1092              	HAL_UART_RxHalfCpltCallback:
 1093              	.LFB78:
 1094              		.cfi_startproc
 1095              		@ sp needed
 1096 0000 7047     		bx	lr
 1097              		.cfi_endproc
 1098              	.LFE78:
 1100              		.section	.text.UART_DMARxHalfCplt,"ax",%progbits
 1101              		.align	1
 1102              		.syntax unified
ARM GAS  /tmp/ccjaQwTr.s 			page 55


 1103              		.code	16
 1104              		.thumb_func
 1105              		.fpu softvfp
 1107              	UART_DMARxHalfCplt:
 1108              	.LFB70:
1867:Drivers/STM32F0xx_HAL_Driver/Src/stm32f0xx_hal_uart.c **** 
1868:Drivers/STM32F0xx_HAL_Driver/Src/stm32f0xx_hal_uart.c **** /**
1869:Drivers/STM32F0xx_HAL_Driver/Src/stm32f0xx_hal_uart.c ****   * @brief DMA UART receive process half complete callback.
1870:Drivers/STM32F0xx_HAL_Driver/Src/stm32f0xx_hal_uart.c ****   * @param hdma : DMA handle.
1871:Drivers/STM32F0xx_HAL_Driver/Src/stm32f0xx_hal_uart.c ****   * @retval None
1872:Drivers/STM32F0xx_HAL_Driver/Src/stm32f0xx_hal_uart.c ****   */
1873:Drivers/STM32F0xx_HAL_Driver/Src/stm32f0xx_hal_uart.c **** static void UART_DMARxHalfCplt(DMA_HandleTypeDef *hdma)
1874:Drivers/STM32F0xx_HAL_Driver/Src/stm32f0xx_hal_uart.c **** {
 1109              		.loc 1 1874 0
 1110              		.cfi_startproc
 1111              	.LVL68:
 1112              		.loc 1 1874 0
 1113 0000 10B5     		push	{r4, lr}
 1114              	.LCFI11:
 1115              		.cfi_def_cfa_offset 8
 1116              		.cfi_offset 4, -8
 1117              		.cfi_offset 14, -4
1875:Drivers/STM32F0xx_HAL_Driver/Src/stm32f0xx_hal_uart.c ****   UART_HandleTypeDef* huart = (UART_HandleTypeDef*)((DMA_HandleTypeDef*)hdma)->Parent;
1876:Drivers/STM32F0xx_HAL_Driver/Src/stm32f0xx_hal_uart.c **** 
1877:Drivers/STM32F0xx_HAL_Driver/Src/stm32f0xx_hal_uart.c ****   HAL_UART_RxHalfCpltCallback(huart);
 1118              		.loc 1 1877 0
 1119 0002 406A     		ldr	r0, [r0, #36]
 1120              	.LVL69:
 1121 0004 FFF7FEFF 		bl	HAL_UART_RxHalfCpltCallback
 1122              	.LVL70:
1878:Drivers/STM32F0xx_HAL_Driver/Src/stm32f0xx_hal_uart.c **** }
 1123              		.loc 1 1878 0
 1124              		@ sp needed
 1125 0008 10BD     		pop	{r4, pc}
 1126              		.cfi_endproc
 1127              	.LFE70:
 1129              		.section	.text.HAL_UART_ErrorCallback,"ax",%progbits
 1130              		.align	1
 1131              		.weak	HAL_UART_ErrorCallback
 1132              		.syntax unified
 1133              		.code	16
 1134              		.thumb_func
 1135              		.fpu softvfp
 1137              	HAL_UART_ErrorCallback:
 1138              	.LFB55:
1316:Drivers/STM32F0xx_HAL_Driver/Src/stm32f0xx_hal_uart.c ****   /* Prevent unused argument(s) compilation warning */
 1139              		.loc 1 1316 0
 1140              		.cfi_startproc
 1141              	.LVL71:
1323:Drivers/STM32F0xx_HAL_Driver/Src/stm32f0xx_hal_uart.c **** 
 1142              		.loc 1 1323 0
 1143              		@ sp needed
 1144 0000 7047     		bx	lr
 1145              		.cfi_endproc
 1146              	.LFE55:
 1148              		.section	.text.UART_DMAError,"ax",%progbits
 1149              		.align	1
ARM GAS  /tmp/ccjaQwTr.s 			page 56


 1150              		.syntax unified
 1151              		.code	16
 1152              		.thumb_func
 1153              		.fpu softvfp
 1155              	UART_DMAError:
 1156              	.LFB71:
1879:Drivers/STM32F0xx_HAL_Driver/Src/stm32f0xx_hal_uart.c **** 
1880:Drivers/STM32F0xx_HAL_Driver/Src/stm32f0xx_hal_uart.c **** /**
1881:Drivers/STM32F0xx_HAL_Driver/Src/stm32f0xx_hal_uart.c ****   * @brief DMA UART communication error callback.
1882:Drivers/STM32F0xx_HAL_Driver/Src/stm32f0xx_hal_uart.c ****   * @param hdma: DMA handle.
1883:Drivers/STM32F0xx_HAL_Driver/Src/stm32f0xx_hal_uart.c ****   * @retval None
1884:Drivers/STM32F0xx_HAL_Driver/Src/stm32f0xx_hal_uart.c ****   */
1885:Drivers/STM32F0xx_HAL_Driver/Src/stm32f0xx_hal_uart.c **** static void UART_DMAError(DMA_HandleTypeDef *hdma)
1886:Drivers/STM32F0xx_HAL_Driver/Src/stm32f0xx_hal_uart.c **** {
 1157              		.loc 1 1886 0
 1158              		.cfi_startproc
 1159              	.LVL72:
1887:Drivers/STM32F0xx_HAL_Driver/Src/stm32f0xx_hal_uart.c ****   UART_HandleTypeDef* huart = ( UART_HandleTypeDef* )((DMA_HandleTypeDef* )hdma)->Parent;
 1160              		.loc 1 1887 0
 1161 0000 406A     		ldr	r0, [r0, #36]
 1162              	.LVL73:
1888:Drivers/STM32F0xx_HAL_Driver/Src/stm32f0xx_hal_uart.c ****   huart->RxXferCount = 0;
 1163              		.loc 1 1888 0
 1164 0002 0023     		movs	r3, #0
 1165 0004 0200     		movs	r2, r0
 1166 0006 5A32     		adds	r2, r2, #90
1886:Drivers/STM32F0xx_HAL_Driver/Src/stm32f0xx_hal_uart.c ****   UART_HandleTypeDef* huart = ( UART_HandleTypeDef* )((DMA_HandleTypeDef* )hdma)->Parent;
 1167              		.loc 1 1886 0
 1168 0008 10B5     		push	{r4, lr}
 1169              	.LCFI12:
 1170              		.cfi_def_cfa_offset 8
 1171              		.cfi_offset 4, -8
 1172              		.cfi_offset 14, -4
1889:Drivers/STM32F0xx_HAL_Driver/Src/stm32f0xx_hal_uart.c ****   huart->TxXferCount = 0;
 1173              		.loc 1 1889 0
 1174 000a 083A     		subs	r2, r2, #8
1888:Drivers/STM32F0xx_HAL_Driver/Src/stm32f0xx_hal_uart.c ****   huart->RxXferCount = 0;
 1175              		.loc 1 1888 0
 1176 000c 1381     		strh	r3, [r2, #8]
 1177              		.loc 1 1889 0
 1178 000e 1380     		strh	r3, [r2]
1890:Drivers/STM32F0xx_HAL_Driver/Src/stm32f0xx_hal_uart.c ****   huart->gState= HAL_UART_STATE_READY;
 1179              		.loc 1 1890 0
 1180 0010 2033     		adds	r3, r3, #32
 1181 0012 D375     		strb	r3, [r2, #23]
1891:Drivers/STM32F0xx_HAL_Driver/Src/stm32f0xx_hal_uart.c ****   huart->RxState= HAL_UART_STATE_READY;
 1182              		.loc 1 1891 0
 1183 0014 1376     		strb	r3, [r2, #24]
1892:Drivers/STM32F0xx_HAL_Driver/Src/stm32f0xx_hal_uart.c ****   huart->ErrorCode |= HAL_UART_ERROR_DMA;
 1184              		.loc 1 1892 0
 1185 0016 C26E     		ldr	r2, [r0, #108]
 1186 0018 103B     		subs	r3, r3, #16
 1187 001a 1343     		orrs	r3, r2
 1188 001c C366     		str	r3, [r0, #108]
1893:Drivers/STM32F0xx_HAL_Driver/Src/stm32f0xx_hal_uart.c ****   HAL_UART_ErrorCallback(huart);
 1189              		.loc 1 1893 0
 1190 001e FFF7FEFF 		bl	HAL_UART_ErrorCallback
ARM GAS  /tmp/ccjaQwTr.s 			page 57


 1191              	.LVL74:
1894:Drivers/STM32F0xx_HAL_Driver/Src/stm32f0xx_hal_uart.c **** }
 1192              		.loc 1 1894 0
 1193              		@ sp needed
 1194 0022 10BD     		pop	{r4, pc}
 1195              		.cfi_endproc
 1196              	.LFE71:
 1198              		.section	.text.HAL_MultiProcessor_EnterMuteMode,"ax",%progbits
 1199              		.align	1
 1200              		.global	HAL_MultiProcessor_EnterMuteMode
 1201              		.syntax unified
 1202              		.code	16
 1203              		.thumb_func
 1204              		.fpu softvfp
 1206              	HAL_MultiProcessor_EnterMuteMode:
 1207              	.LFB58:
1396:Drivers/STM32F0xx_HAL_Driver/Src/stm32f0xx_hal_uart.c ****   __HAL_UART_SEND_REQ(huart, UART_MUTE_MODE_REQUEST);
 1208              		.loc 1 1396 0
 1209              		.cfi_startproc
 1210              	.LVL75:
1397:Drivers/STM32F0xx_HAL_Driver/Src/stm32f0xx_hal_uart.c **** }
 1211              		.loc 1 1397 0
 1212 0000 0423     		movs	r3, #4
 1213 0002 0268     		ldr	r2, [r0]
1398:Drivers/STM32F0xx_HAL_Driver/Src/stm32f0xx_hal_uart.c **** 
 1214              		.loc 1 1398 0
 1215              		@ sp needed
1397:Drivers/STM32F0xx_HAL_Driver/Src/stm32f0xx_hal_uart.c **** }
 1216              		.loc 1 1397 0
 1217 0004 9169     		ldr	r1, [r2, #24]
 1218 0006 0B43     		orrs	r3, r1
 1219 0008 9361     		str	r3, [r2, #24]
1398:Drivers/STM32F0xx_HAL_Driver/Src/stm32f0xx_hal_uart.c **** 
 1220              		.loc 1 1398 0
 1221 000a 7047     		bx	lr
 1222              		.cfi_endproc
 1223              	.LFE58:
 1225              		.section	.text.HAL_HalfDuplex_EnableTransmitter,"ax",%progbits
 1226              		.align	1
 1227              		.global	HAL_HalfDuplex_EnableTransmitter
 1228              		.syntax unified
 1229              		.code	16
 1230              		.thumb_func
 1231              		.fpu softvfp
 1233              	HAL_HalfDuplex_EnableTransmitter:
 1234              	.LFB59:
1406:Drivers/STM32F0xx_HAL_Driver/Src/stm32f0xx_hal_uart.c ****   /* Process Locked */
 1235              		.loc 1 1406 0
 1236              		.cfi_startproc
 1237              	.LVL76:
1408:Drivers/STM32F0xx_HAL_Driver/Src/stm32f0xx_hal_uart.c ****   huart->gState = HAL_UART_STATE_BUSY;
 1238              		.loc 1 1408 0
 1239 0000 0100     		movs	r1, r0
1406:Drivers/STM32F0xx_HAL_Driver/Src/stm32f0xx_hal_uart.c ****   /* Process Locked */
 1240              		.loc 1 1406 0
 1241 0002 10B5     		push	{r4, lr}
 1242              	.LCFI13:
ARM GAS  /tmp/ccjaQwTr.s 			page 58


 1243              		.cfi_def_cfa_offset 8
 1244              		.cfi_offset 4, -8
 1245              		.cfi_offset 14, -4
1408:Drivers/STM32F0xx_HAL_Driver/Src/stm32f0xx_hal_uart.c ****   huart->gState = HAL_UART_STATE_BUSY;
 1246              		.loc 1 1408 0
 1247 0004 6831     		adds	r1, r1, #104
 1248 0006 0A78     		ldrb	r2, [r1]
1406:Drivers/STM32F0xx_HAL_Driver/Src/stm32f0xx_hal_uart.c ****   /* Process Locked */
 1249              		.loc 1 1406 0
 1250 0008 0300     		movs	r3, r0
1408:Drivers/STM32F0xx_HAL_Driver/Src/stm32f0xx_hal_uart.c ****   huart->gState = HAL_UART_STATE_BUSY;
 1251              		.loc 1 1408 0
 1252 000a 0220     		movs	r0, #2
 1253              	.LVL77:
 1254 000c 012A     		cmp	r2, #1
 1255 000e 10D0     		beq	.L100
1409:Drivers/STM32F0xx_HAL_Driver/Src/stm32f0xx_hal_uart.c **** 
 1256              		.loc 1 1409 0 discriminator 2
 1257 0010 1800     		movs	r0, r3
 1258 0012 2422     		movs	r2, #36
1412:Drivers/STM32F0xx_HAL_Driver/Src/stm32f0xx_hal_uart.c ****   /* Enable the USART's transmit interface by setting the TE bit in the USART CR1 register */
 1259              		.loc 1 1412 0 discriminator 2
 1260 0014 0C24     		movs	r4, #12
 1261 0016 1B68     		ldr	r3, [r3]
 1262              	.LVL78:
1409:Drivers/STM32F0xx_HAL_Driver/Src/stm32f0xx_hal_uart.c **** 
 1263              		.loc 1 1409 0 discriminator 2
 1264 0018 6930     		adds	r0, r0, #105
 1265              	.LVL79:
 1266 001a 0270     		strb	r2, [r0]
1412:Drivers/STM32F0xx_HAL_Driver/Src/stm32f0xx_hal_uart.c ****   /* Enable the USART's transmit interface by setting the TE bit in the USART CR1 register */
 1267              		.loc 1 1412 0 discriminator 2
 1268 001c 1A68     		ldr	r2, [r3]
 1269 001e A243     		bics	r2, r4
 1270 0020 1A60     		str	r2, [r3]
1414:Drivers/STM32F0xx_HAL_Driver/Src/stm32f0xx_hal_uart.c **** 
 1271              		.loc 1 1414 0 discriminator 2
 1272 0022 0822     		movs	r2, #8
 1273 0024 1C68     		ldr	r4, [r3]
 1274 0026 2243     		orrs	r2, r4
 1275 0028 1A60     		str	r2, [r3]
1416:Drivers/STM32F0xx_HAL_Driver/Src/stm32f0xx_hal_uart.c **** 
 1276              		.loc 1 1416 0 discriminator 2
 1277 002a 2023     		movs	r3, #32
 1278 002c 0370     		strb	r3, [r0]
1419:Drivers/STM32F0xx_HAL_Driver/Src/stm32f0xx_hal_uart.c **** 
 1279              		.loc 1 1419 0 discriminator 2
 1280 002e 0020     		movs	r0, #0
 1281              	.LVL80:
 1282 0030 0870     		strb	r0, [r1]
 1283              	.L100:
1422:Drivers/STM32F0xx_HAL_Driver/Src/stm32f0xx_hal_uart.c **** 
 1284              		.loc 1 1422 0
 1285              		@ sp needed
 1286 0032 10BD     		pop	{r4, pc}
 1287              		.cfi_endproc
 1288              	.LFE59:
ARM GAS  /tmp/ccjaQwTr.s 			page 59


 1290              		.section	.text.HAL_HalfDuplex_EnableReceiver,"ax",%progbits
 1291              		.align	1
 1292              		.global	HAL_HalfDuplex_EnableReceiver
 1293              		.syntax unified
 1294              		.code	16
 1295              		.thumb_func
 1296              		.fpu softvfp
 1298              	HAL_HalfDuplex_EnableReceiver:
 1299              	.LFB60:
1430:Drivers/STM32F0xx_HAL_Driver/Src/stm32f0xx_hal_uart.c ****   /* Process Locked */
 1300              		.loc 1 1430 0
 1301              		.cfi_startproc
 1302              	.LVL81:
1432:Drivers/STM32F0xx_HAL_Driver/Src/stm32f0xx_hal_uart.c ****   huart->gState = HAL_UART_STATE_BUSY;
 1303              		.loc 1 1432 0
 1304 0000 0100     		movs	r1, r0
1430:Drivers/STM32F0xx_HAL_Driver/Src/stm32f0xx_hal_uart.c ****   /* Process Locked */
 1305              		.loc 1 1430 0
 1306 0002 10B5     		push	{r4, lr}
 1307              	.LCFI14:
 1308              		.cfi_def_cfa_offset 8
 1309              		.cfi_offset 4, -8
 1310              		.cfi_offset 14, -4
1432:Drivers/STM32F0xx_HAL_Driver/Src/stm32f0xx_hal_uart.c ****   huart->gState = HAL_UART_STATE_BUSY;
 1311              		.loc 1 1432 0
 1312 0004 6831     		adds	r1, r1, #104
 1313 0006 0A78     		ldrb	r2, [r1]
1430:Drivers/STM32F0xx_HAL_Driver/Src/stm32f0xx_hal_uart.c ****   /* Process Locked */
 1314              		.loc 1 1430 0
 1315 0008 0300     		movs	r3, r0
1432:Drivers/STM32F0xx_HAL_Driver/Src/stm32f0xx_hal_uart.c ****   huart->gState = HAL_UART_STATE_BUSY;
 1316              		.loc 1 1432 0
 1317 000a 0220     		movs	r0, #2
 1318              	.LVL82:
 1319 000c 012A     		cmp	r2, #1
 1320 000e 10D0     		beq	.L104
1433:Drivers/STM32F0xx_HAL_Driver/Src/stm32f0xx_hal_uart.c **** 
 1321              		.loc 1 1433 0 discriminator 2
 1322 0010 1800     		movs	r0, r3
 1323 0012 2422     		movs	r2, #36
1436:Drivers/STM32F0xx_HAL_Driver/Src/stm32f0xx_hal_uart.c ****   /* Enable the USART's receive interface by setting the RE bit in the USART CR1 register */
 1324              		.loc 1 1436 0 discriminator 2
 1325 0014 0C24     		movs	r4, #12
 1326 0016 1B68     		ldr	r3, [r3]
 1327              	.LVL83:
1433:Drivers/STM32F0xx_HAL_Driver/Src/stm32f0xx_hal_uart.c **** 
 1328              		.loc 1 1433 0 discriminator 2
 1329 0018 6930     		adds	r0, r0, #105
 1330              	.LVL84:
 1331 001a 0270     		strb	r2, [r0]
1436:Drivers/STM32F0xx_HAL_Driver/Src/stm32f0xx_hal_uart.c ****   /* Enable the USART's receive interface by setting the RE bit in the USART CR1 register */
 1332              		.loc 1 1436 0 discriminator 2
 1333 001c 1A68     		ldr	r2, [r3]
 1334 001e A243     		bics	r2, r4
 1335 0020 1A60     		str	r2, [r3]
1438:Drivers/STM32F0xx_HAL_Driver/Src/stm32f0xx_hal_uart.c **** 
 1336              		.loc 1 1438 0 discriminator 2
ARM GAS  /tmp/ccjaQwTr.s 			page 60


 1337 0022 0422     		movs	r2, #4
 1338 0024 1C68     		ldr	r4, [r3]
 1339 0026 2243     		orrs	r2, r4
 1340 0028 1A60     		str	r2, [r3]
1440:Drivers/STM32F0xx_HAL_Driver/Src/stm32f0xx_hal_uart.c ****   /* Process Unlocked */
 1341              		.loc 1 1440 0 discriminator 2
 1342 002a 2023     		movs	r3, #32
 1343 002c 0370     		strb	r3, [r0]
1442:Drivers/STM32F0xx_HAL_Driver/Src/stm32f0xx_hal_uart.c **** 
 1344              		.loc 1 1442 0 discriminator 2
 1345 002e 0020     		movs	r0, #0
 1346              	.LVL85:
 1347 0030 0870     		strb	r0, [r1]
