ARM GAS  /tmp/cczZJmfg.s 			page 1


   1              		.cpu cortex-m0
   2              		.eabi_attribute 20, 1
   3              		.eabi_attribute 21, 1
   4              		.eabi_attribute 23, 3
   5              		.eabi_attribute 24, 1
   6              		.eabi_attribute 25, 1
   7              		.eabi_attribute 26, 1
   8              		.eabi_attribute 30, 6
   9              		.eabi_attribute 34, 0
  10              		.eabi_attribute 18, 4
  11              		.file	"stm32f0xx_hal_pcd.c"
  12              		.text
  13              	.Ltext0:
  14              		.cfi_sections	.debug_frame
  15              		.section	.text.HAL_PCD_Init,"ax",%progbits
  16              		.align	1
  17              		.global	HAL_PCD_Init
  18              		.syntax unified
  19              		.code	16
  20              		.thumb_func
  21              		.fpu softvfp
  23              	HAL_PCD_Init:
  24              	.LFB35:
  25              		.file 1 "Drivers/STM32F0xx_HAL_Driver/Src/stm32f0xx_hal_pcd.c"
   1:Drivers/STM32F0xx_HAL_Driver/Src/stm32f0xx_hal_pcd.c **** /**
   2:Drivers/STM32F0xx_HAL_Driver/Src/stm32f0xx_hal_pcd.c ****   ******************************************************************************
   3:Drivers/STM32F0xx_HAL_Driver/Src/stm32f0xx_hal_pcd.c ****   * @file    stm32f0xx_hal_pcd.c
   4:Drivers/STM32F0xx_HAL_Driver/Src/stm32f0xx_hal_pcd.c ****   * @author  MCD Application Team
   5:Drivers/STM32F0xx_HAL_Driver/Src/stm32f0xx_hal_pcd.c ****   * @version V1.4.0
   6:Drivers/STM32F0xx_HAL_Driver/Src/stm32f0xx_hal_pcd.c ****   * @date    27-May-2016
   7:Drivers/STM32F0xx_HAL_Driver/Src/stm32f0xx_hal_pcd.c ****   * @brief   PCD HAL module driver.
   8:Drivers/STM32F0xx_HAL_Driver/Src/stm32f0xx_hal_pcd.c ****   *          This file provides firmware functions to manage the following 
   9:Drivers/STM32F0xx_HAL_Driver/Src/stm32f0xx_hal_pcd.c ****   *          functionalities of the USB Peripheral Controller:
  10:Drivers/STM32F0xx_HAL_Driver/Src/stm32f0xx_hal_pcd.c ****   *           + Initialization and de-initialization functions
  11:Drivers/STM32F0xx_HAL_Driver/Src/stm32f0xx_hal_pcd.c ****   *           + IO operation functions
  12:Drivers/STM32F0xx_HAL_Driver/Src/stm32f0xx_hal_pcd.c ****   *           + Peripheral Control functions 
  13:Drivers/STM32F0xx_HAL_Driver/Src/stm32f0xx_hal_pcd.c ****   *           + Peripheral State functions
  14:Drivers/STM32F0xx_HAL_Driver/Src/stm32f0xx_hal_pcd.c ****   *         
  15:Drivers/STM32F0xx_HAL_Driver/Src/stm32f0xx_hal_pcd.c ****   @verbatim
  16:Drivers/STM32F0xx_HAL_Driver/Src/stm32f0xx_hal_pcd.c ****   ==============================================================================
  17:Drivers/STM32F0xx_HAL_Driver/Src/stm32f0xx_hal_pcd.c ****                     ##### How to use this driver #####
  18:Drivers/STM32F0xx_HAL_Driver/Src/stm32f0xx_hal_pcd.c ****   ==============================================================================
  19:Drivers/STM32F0xx_HAL_Driver/Src/stm32f0xx_hal_pcd.c ****     [..]
  20:Drivers/STM32F0xx_HAL_Driver/Src/stm32f0xx_hal_pcd.c ****       The PCD HAL driver can be used as follows:
  21:Drivers/STM32F0xx_HAL_Driver/Src/stm32f0xx_hal_pcd.c **** 
  22:Drivers/STM32F0xx_HAL_Driver/Src/stm32f0xx_hal_pcd.c ****      (#) Declare a PCD_HandleTypeDef handle structure, for example:
  23:Drivers/STM32F0xx_HAL_Driver/Src/stm32f0xx_hal_pcd.c ****          PCD_HandleTypeDef  hpcd;
  24:Drivers/STM32F0xx_HAL_Driver/Src/stm32f0xx_hal_pcd.c ****         
  25:Drivers/STM32F0xx_HAL_Driver/Src/stm32f0xx_hal_pcd.c ****      (#) Fill parameters of Init structure in HCD handle
  26:Drivers/STM32F0xx_HAL_Driver/Src/stm32f0xx_hal_pcd.c ****   
  27:Drivers/STM32F0xx_HAL_Driver/Src/stm32f0xx_hal_pcd.c ****      (#) Call HAL_PCD_Init() API to initialize the HCD peripheral (Core, Device core, ...) 
  28:Drivers/STM32F0xx_HAL_Driver/Src/stm32f0xx_hal_pcd.c **** 
  29:Drivers/STM32F0xx_HAL_Driver/Src/stm32f0xx_hal_pcd.c ****      (#) Initialize the PCD low level resources through the HAL_PCD_MspInit() API:
  30:Drivers/STM32F0xx_HAL_Driver/Src/stm32f0xx_hal_pcd.c ****          (##) Enable the PCD/USB Low Level interface clock using 
  31:Drivers/STM32F0xx_HAL_Driver/Src/stm32f0xx_hal_pcd.c ****               (+++) __HAL_RCC_USB_CLK_ENABLE);
  32:Drivers/STM32F0xx_HAL_Driver/Src/stm32f0xx_hal_pcd.c ****            
  33:Drivers/STM32F0xx_HAL_Driver/Src/stm32f0xx_hal_pcd.c ****          (##) Initialize the related GPIO clocks
ARM GAS  /tmp/cczZJmfg.s 			page 2


  34:Drivers/STM32F0xx_HAL_Driver/Src/stm32f0xx_hal_pcd.c ****          (##) Configure PCD pin-out
  35:Drivers/STM32F0xx_HAL_Driver/Src/stm32f0xx_hal_pcd.c ****          (##) Configure PCD NVIC interrupt
  36:Drivers/STM32F0xx_HAL_Driver/Src/stm32f0xx_hal_pcd.c ****     
  37:Drivers/STM32F0xx_HAL_Driver/Src/stm32f0xx_hal_pcd.c ****      (#)Associate the Upper USB device stack to the HAL PCD Driver:
  38:Drivers/STM32F0xx_HAL_Driver/Src/stm32f0xx_hal_pcd.c ****          (##) hpcd.pData = pdev;
  39:Drivers/STM32F0xx_HAL_Driver/Src/stm32f0xx_hal_pcd.c **** 
  40:Drivers/STM32F0xx_HAL_Driver/Src/stm32f0xx_hal_pcd.c ****      (#)Enable HCD transmission and reception:
  41:Drivers/STM32F0xx_HAL_Driver/Src/stm32f0xx_hal_pcd.c ****          (##) HAL_PCD_Start();
  42:Drivers/STM32F0xx_HAL_Driver/Src/stm32f0xx_hal_pcd.c **** 
  43:Drivers/STM32F0xx_HAL_Driver/Src/stm32f0xx_hal_pcd.c ****   @endverbatim
  44:Drivers/STM32F0xx_HAL_Driver/Src/stm32f0xx_hal_pcd.c ****   ******************************************************************************
  45:Drivers/STM32F0xx_HAL_Driver/Src/stm32f0xx_hal_pcd.c ****   * @attention
  46:Drivers/STM32F0xx_HAL_Driver/Src/stm32f0xx_hal_pcd.c ****   *
  47:Drivers/STM32F0xx_HAL_Driver/Src/stm32f0xx_hal_pcd.c ****   * <h2><center>&copy; COPYRIGHT(c) 2016 STMicroelectronics</center></h2>
  48:Drivers/STM32F0xx_HAL_Driver/Src/stm32f0xx_hal_pcd.c ****   *
  49:Drivers/STM32F0xx_HAL_Driver/Src/stm32f0xx_hal_pcd.c ****   * Redistribution and use in source and binary forms, with or without modification,
  50:Drivers/STM32F0xx_HAL_Driver/Src/stm32f0xx_hal_pcd.c ****   * are permitted provided that the following conditions are met:
  51:Drivers/STM32F0xx_HAL_Driver/Src/stm32f0xx_hal_pcd.c ****   *   1. Redistributions of source code must retain the above copyright notice,
  52:Drivers/STM32F0xx_HAL_Driver/Src/stm32f0xx_hal_pcd.c ****   *      this list of conditions and the following disclaimer.
  53:Drivers/STM32F0xx_HAL_Driver/Src/stm32f0xx_hal_pcd.c ****   *   2. Redistributions in binary form must reproduce the above copyright notice,
  54:Drivers/STM32F0xx_HAL_Driver/Src/stm32f0xx_hal_pcd.c ****   *      this list of conditions and the following disclaimer in the documentation
  55:Drivers/STM32F0xx_HAL_Driver/Src/stm32f0xx_hal_pcd.c ****   *      and/or other materials provided with the distribution.
  56:Drivers/STM32F0xx_HAL_Driver/Src/stm32f0xx_hal_pcd.c ****   *   3. Neither the name of STMicroelectronics nor the names of its contributors
  57:Drivers/STM32F0xx_HAL_Driver/Src/stm32f0xx_hal_pcd.c ****   *      may be used to endorse or promote products derived from this software
  58:Drivers/STM32F0xx_HAL_Driver/Src/stm32f0xx_hal_pcd.c ****   *      without specific prior written permission.
  59:Drivers/STM32F0xx_HAL_Driver/Src/stm32f0xx_hal_pcd.c ****   *
  60:Drivers/STM32F0xx_HAL_Driver/Src/stm32f0xx_hal_pcd.c ****   * THIS SOFTWARE IS PROVIDED BY THE COPYRIGHT HOLDERS AND CONTRIBUTORS "AS IS"
  61:Drivers/STM32F0xx_HAL_Driver/Src/stm32f0xx_hal_pcd.c ****   * AND ANY EXPRESS OR IMPLIED WARRANTIES, INCLUDING, BUT NOT LIMITED TO, THE
  62:Drivers/STM32F0xx_HAL_Driver/Src/stm32f0xx_hal_pcd.c ****   * IMPLIED WARRANTIES OF MERCHANTABILITY AND FITNESS FOR A PARTICULAR PURPOSE ARE
  63:Drivers/STM32F0xx_HAL_Driver/Src/stm32f0xx_hal_pcd.c ****   * DISCLAIMED. IN NO EVENT SHALL THE COPYRIGHT HOLDER OR CONTRIBUTORS BE LIABLE
  64:Drivers/STM32F0xx_HAL_Driver/Src/stm32f0xx_hal_pcd.c ****   * FOR ANY DIRECT, INDIRECT, INCIDENTAL, SPECIAL, EXEMPLARY, OR CONSEQUENTIAL
  65:Drivers/STM32F0xx_HAL_Driver/Src/stm32f0xx_hal_pcd.c ****   * DAMAGES (INCLUDING, BUT NOT LIMITED TO, PROCUREMENT OF SUBSTITUTE GOODS OR
  66:Drivers/STM32F0xx_HAL_Driver/Src/stm32f0xx_hal_pcd.c ****   * SERVICES; LOSS OF USE, DATA, OR PROFITS; OR BUSINESS INTERRUPTION) HOWEVER
  67:Drivers/STM32F0xx_HAL_Driver/Src/stm32f0xx_hal_pcd.c ****   * CAUSED AND ON ANY THEORY OF LIABILITY, WHETHER IN CONTRACT, STRICT LIABILITY,
  68:Drivers/STM32F0xx_HAL_Driver/Src/stm32f0xx_hal_pcd.c ****   * OR TORT (INCLUDING NEGLIGENCE OR OTHERWISE) ARISING IN ANY WAY OUT OF THE USE
  69:Drivers/STM32F0xx_HAL_Driver/Src/stm32f0xx_hal_pcd.c ****   * OF THIS SOFTWARE, EVEN IF ADVISED OF THE POSSIBILITY OF SUCH DAMAGE.
  70:Drivers/STM32F0xx_HAL_Driver/Src/stm32f0xx_hal_pcd.c ****   *
  71:Drivers/STM32F0xx_HAL_Driver/Src/stm32f0xx_hal_pcd.c ****   ******************************************************************************
  72:Drivers/STM32F0xx_HAL_Driver/Src/stm32f0xx_hal_pcd.c ****   */
  73:Drivers/STM32F0xx_HAL_Driver/Src/stm32f0xx_hal_pcd.c **** 
  74:Drivers/STM32F0xx_HAL_Driver/Src/stm32f0xx_hal_pcd.c **** /* Includes ------------------------------------------------------------------*/
  75:Drivers/STM32F0xx_HAL_Driver/Src/stm32f0xx_hal_pcd.c **** #include "stm32f0xx_hal.h"
  76:Drivers/STM32F0xx_HAL_Driver/Src/stm32f0xx_hal_pcd.c **** 
  77:Drivers/STM32F0xx_HAL_Driver/Src/stm32f0xx_hal_pcd.c **** /** @addtogroup STM32F0xx_HAL_Driver
  78:Drivers/STM32F0xx_HAL_Driver/Src/stm32f0xx_hal_pcd.c ****   * @{
  79:Drivers/STM32F0xx_HAL_Driver/Src/stm32f0xx_hal_pcd.c ****   */
  80:Drivers/STM32F0xx_HAL_Driver/Src/stm32f0xx_hal_pcd.c **** 
  81:Drivers/STM32F0xx_HAL_Driver/Src/stm32f0xx_hal_pcd.c **** #ifdef HAL_PCD_MODULE_ENABLED
  82:Drivers/STM32F0xx_HAL_Driver/Src/stm32f0xx_hal_pcd.c **** 
  83:Drivers/STM32F0xx_HAL_Driver/Src/stm32f0xx_hal_pcd.c **** #if defined(STM32F042x6) || defined(STM32F048xx) || defined(STM32F072xB) || defined(STM32F078xx) ||
  84:Drivers/STM32F0xx_HAL_Driver/Src/stm32f0xx_hal_pcd.c **** 
  85:Drivers/STM32F0xx_HAL_Driver/Src/stm32f0xx_hal_pcd.c **** /** @defgroup PCD PCD
  86:Drivers/STM32F0xx_HAL_Driver/Src/stm32f0xx_hal_pcd.c ****   * @brief PCD HAL module driver
  87:Drivers/STM32F0xx_HAL_Driver/Src/stm32f0xx_hal_pcd.c ****   * @{
  88:Drivers/STM32F0xx_HAL_Driver/Src/stm32f0xx_hal_pcd.c ****   */
  89:Drivers/STM32F0xx_HAL_Driver/Src/stm32f0xx_hal_pcd.c **** 
  90:Drivers/STM32F0xx_HAL_Driver/Src/stm32f0xx_hal_pcd.c **** /* Private typedef -----------------------------------------------------------*/
ARM GAS  /tmp/cczZJmfg.s 			page 3


  91:Drivers/STM32F0xx_HAL_Driver/Src/stm32f0xx_hal_pcd.c **** /* Private define ------------------------------------------------------------*/
  92:Drivers/STM32F0xx_HAL_Driver/Src/stm32f0xx_hal_pcd.c **** 
  93:Drivers/STM32F0xx_HAL_Driver/Src/stm32f0xx_hal_pcd.c **** /** @defgroup PCD_Private_Define PCD Private Define
  94:Drivers/STM32F0xx_HAL_Driver/Src/stm32f0xx_hal_pcd.c ****   * @{
  95:Drivers/STM32F0xx_HAL_Driver/Src/stm32f0xx_hal_pcd.c ****   */
  96:Drivers/STM32F0xx_HAL_Driver/Src/stm32f0xx_hal_pcd.c **** #define BTABLE_ADDRESS                  (0x000)  
  97:Drivers/STM32F0xx_HAL_Driver/Src/stm32f0xx_hal_pcd.c **** /**
  98:Drivers/STM32F0xx_HAL_Driver/Src/stm32f0xx_hal_pcd.c ****   * @}
  99:Drivers/STM32F0xx_HAL_Driver/Src/stm32f0xx_hal_pcd.c ****   */ 
 100:Drivers/STM32F0xx_HAL_Driver/Src/stm32f0xx_hal_pcd.c ****   
 101:Drivers/STM32F0xx_HAL_Driver/Src/stm32f0xx_hal_pcd.c **** /* Private macro -------------------------------------------------------------*/
 102:Drivers/STM32F0xx_HAL_Driver/Src/stm32f0xx_hal_pcd.c **** /* Private variables ---------------------------------------------------------*/
 103:Drivers/STM32F0xx_HAL_Driver/Src/stm32f0xx_hal_pcd.c **** /* Private function prototypes -----------------------------------------------*/
 104:Drivers/STM32F0xx_HAL_Driver/Src/stm32f0xx_hal_pcd.c **** /** @defgroup PCD_Private_Functions PCD Private Functions
 105:Drivers/STM32F0xx_HAL_Driver/Src/stm32f0xx_hal_pcd.c ****   * @{
 106:Drivers/STM32F0xx_HAL_Driver/Src/stm32f0xx_hal_pcd.c ****   */
 107:Drivers/STM32F0xx_HAL_Driver/Src/stm32f0xx_hal_pcd.c **** static HAL_StatusTypeDef PCD_EP_ISR_Handler(PCD_HandleTypeDef *hpcd);
 108:Drivers/STM32F0xx_HAL_Driver/Src/stm32f0xx_hal_pcd.c **** void PCD_WritePMA(USB_TypeDef  *USBx, uint8_t *pbUsrBuf, uint16_t wPMABufAddr, uint16_t wNBytes);
 109:Drivers/STM32F0xx_HAL_Driver/Src/stm32f0xx_hal_pcd.c **** void PCD_ReadPMA(USB_TypeDef  *USBx, uint8_t *pbUsrBuf, uint16_t wPMABufAddr, uint16_t wNBytes);
 110:Drivers/STM32F0xx_HAL_Driver/Src/stm32f0xx_hal_pcd.c **** /**
 111:Drivers/STM32F0xx_HAL_Driver/Src/stm32f0xx_hal_pcd.c ****   * @}
 112:Drivers/STM32F0xx_HAL_Driver/Src/stm32f0xx_hal_pcd.c ****   */ 
 113:Drivers/STM32F0xx_HAL_Driver/Src/stm32f0xx_hal_pcd.c **** 
 114:Drivers/STM32F0xx_HAL_Driver/Src/stm32f0xx_hal_pcd.c **** /* Exported functions --------------------------------------------------------*/
 115:Drivers/STM32F0xx_HAL_Driver/Src/stm32f0xx_hal_pcd.c **** /** @defgroup PCD_Exported_Functions PCD Exported Functions
 116:Drivers/STM32F0xx_HAL_Driver/Src/stm32f0xx_hal_pcd.c ****   * @{
 117:Drivers/STM32F0xx_HAL_Driver/Src/stm32f0xx_hal_pcd.c ****   */
 118:Drivers/STM32F0xx_HAL_Driver/Src/stm32f0xx_hal_pcd.c **** 
 119:Drivers/STM32F0xx_HAL_Driver/Src/stm32f0xx_hal_pcd.c **** /** @defgroup PCD_Exported_Functions_Group1 Initialization and de-initialization functions 
 120:Drivers/STM32F0xx_HAL_Driver/Src/stm32f0xx_hal_pcd.c ****  *  @brief    Initialization and Configuration functions 
 121:Drivers/STM32F0xx_HAL_Driver/Src/stm32f0xx_hal_pcd.c ****  *
 122:Drivers/STM32F0xx_HAL_Driver/Src/stm32f0xx_hal_pcd.c **** @verbatim
 123:Drivers/STM32F0xx_HAL_Driver/Src/stm32f0xx_hal_pcd.c ****  ===============================================================================
 124:Drivers/STM32F0xx_HAL_Driver/Src/stm32f0xx_hal_pcd.c ****             ##### Initialization and de-initialization functions #####
 125:Drivers/STM32F0xx_HAL_Driver/Src/stm32f0xx_hal_pcd.c ****  ===============================================================================
 126:Drivers/STM32F0xx_HAL_Driver/Src/stm32f0xx_hal_pcd.c ****     [..]  This section provides functions allowing to:
 127:Drivers/STM32F0xx_HAL_Driver/Src/stm32f0xx_hal_pcd.c ****  
 128:Drivers/STM32F0xx_HAL_Driver/Src/stm32f0xx_hal_pcd.c **** @endverbatim
 129:Drivers/STM32F0xx_HAL_Driver/Src/stm32f0xx_hal_pcd.c ****   * @{
 130:Drivers/STM32F0xx_HAL_Driver/Src/stm32f0xx_hal_pcd.c ****   */
 131:Drivers/STM32F0xx_HAL_Driver/Src/stm32f0xx_hal_pcd.c **** 
 132:Drivers/STM32F0xx_HAL_Driver/Src/stm32f0xx_hal_pcd.c **** /**
 133:Drivers/STM32F0xx_HAL_Driver/Src/stm32f0xx_hal_pcd.c ****   * @brief  Initializes the PCD according to the specified
 134:Drivers/STM32F0xx_HAL_Driver/Src/stm32f0xx_hal_pcd.c ****   *         parameters in the PCD_InitTypeDef and create the associated handle.
 135:Drivers/STM32F0xx_HAL_Driver/Src/stm32f0xx_hal_pcd.c ****   * @param  hpcd: PCD handle
 136:Drivers/STM32F0xx_HAL_Driver/Src/stm32f0xx_hal_pcd.c ****   * @retval HAL status
 137:Drivers/STM32F0xx_HAL_Driver/Src/stm32f0xx_hal_pcd.c ****   */
 138:Drivers/STM32F0xx_HAL_Driver/Src/stm32f0xx_hal_pcd.c **** HAL_StatusTypeDef HAL_PCD_Init(PCD_HandleTypeDef *hpcd)
 139:Drivers/STM32F0xx_HAL_Driver/Src/stm32f0xx_hal_pcd.c **** { 
  26              		.loc 1 139 0
  27              		.cfi_startproc
  28 0000 90B5     		push	{r4, r7, lr}
  29              	.LCFI0:
  30              		.cfi_def_cfa_offset 12
  31              		.cfi_offset 4, -12
  32              		.cfi_offset 7, -8
  33              		.cfi_offset 14, -4
ARM GAS  /tmp/cczZJmfg.s 			page 4


  34 0002 85B0     		sub	sp, sp, #20
  35              	.LCFI1:
  36              		.cfi_def_cfa_offset 32
  37 0004 00AF     		add	r7, sp, #0
  38              	.LCFI2:
  39              		.cfi_def_cfa_register 7
  40 0006 7860     		str	r0, [r7, #4]
 140:Drivers/STM32F0xx_HAL_Driver/Src/stm32f0xx_hal_pcd.c ****   uint32_t i = 0;
  41              		.loc 1 140 0
  42 0008 0023     		movs	r3, #0
  43 000a FB60     		str	r3, [r7, #12]
 141:Drivers/STM32F0xx_HAL_Driver/Src/stm32f0xx_hal_pcd.c **** 
 142:Drivers/STM32F0xx_HAL_Driver/Src/stm32f0xx_hal_pcd.c ****   uint32_t wInterrupt_Mask = 0;
  44              		.loc 1 142 0
  45 000c 0023     		movs	r3, #0
  46 000e BB60     		str	r3, [r7, #8]
 143:Drivers/STM32F0xx_HAL_Driver/Src/stm32f0xx_hal_pcd.c ****   
 144:Drivers/STM32F0xx_HAL_Driver/Src/stm32f0xx_hal_pcd.c ****   /* Check the PCD handle allocation */
 145:Drivers/STM32F0xx_HAL_Driver/Src/stm32f0xx_hal_pcd.c ****   if(hpcd == NULL)
  47              		.loc 1 145 0
  48 0010 7B68     		ldr	r3, [r7, #4]
  49 0012 002B     		cmp	r3, #0
  50 0014 01D1     		bne	.L2
 146:Drivers/STM32F0xx_HAL_Driver/Src/stm32f0xx_hal_pcd.c ****   {
 147:Drivers/STM32F0xx_HAL_Driver/Src/stm32f0xx_hal_pcd.c ****     return HAL_ERROR;
  51              		.loc 1 147 0
  52 0016 0123     		movs	r3, #1
  53 0018 DEE0     		b	.L3
  54              	.L2:
 148:Drivers/STM32F0xx_HAL_Driver/Src/stm32f0xx_hal_pcd.c ****   }
 149:Drivers/STM32F0xx_HAL_Driver/Src/stm32f0xx_hal_pcd.c ****   
 150:Drivers/STM32F0xx_HAL_Driver/Src/stm32f0xx_hal_pcd.c ****   /* Check the parameters */
 151:Drivers/STM32F0xx_HAL_Driver/Src/stm32f0xx_hal_pcd.c ****   assert_param(IS_PCD_ALL_INSTANCE(hpcd->Instance));
 152:Drivers/STM32F0xx_HAL_Driver/Src/stm32f0xx_hal_pcd.c **** 
 153:Drivers/STM32F0xx_HAL_Driver/Src/stm32f0xx_hal_pcd.c ****   if(hpcd->State == HAL_PCD_STATE_RESET)
  55              		.loc 1 153 0
  56 001a 7A68     		ldr	r2, [r7, #4]
  57 001c EA23     		movs	r3, #234
  58 001e FF33     		adds	r3, r3, #255
  59 0020 D35C     		ldrb	r3, [r2, r3]
  60 0022 DBB2     		uxtb	r3, r3
  61 0024 002B     		cmp	r3, #0
  62 0026 08D1     		bne	.L4
 154:Drivers/STM32F0xx_HAL_Driver/Src/stm32f0xx_hal_pcd.c ****   {  
 155:Drivers/STM32F0xx_HAL_Driver/Src/stm32f0xx_hal_pcd.c ****     /* Allocate lock resource and initialize it */
 156:Drivers/STM32F0xx_HAL_Driver/Src/stm32f0xx_hal_pcd.c ****     hpcd->Lock = HAL_UNLOCKED;
  63              		.loc 1 156 0
  64 0028 7A68     		ldr	r2, [r7, #4]
  65 002a F423     		movs	r3, #244
  66 002c 5B00     		lsls	r3, r3, #1
  67 002e 0021     		movs	r1, #0
  68 0030 D154     		strb	r1, [r2, r3]
 157:Drivers/STM32F0xx_HAL_Driver/Src/stm32f0xx_hal_pcd.c ****   
 158:Drivers/STM32F0xx_HAL_Driver/Src/stm32f0xx_hal_pcd.c ****     /* Init the low level hardware : GPIO, CLOCK, NVIC... */
 159:Drivers/STM32F0xx_HAL_Driver/Src/stm32f0xx_hal_pcd.c ****     HAL_PCD_MspInit(hpcd);
  69              		.loc 1 159 0
  70 0032 7B68     		ldr	r3, [r7, #4]
ARM GAS  /tmp/cczZJmfg.s 			page 5


  71 0034 1800     		movs	r0, r3
  72 0036 FFF7FEFF 		bl	HAL_PCD_MspInit
  73              	.L4:
 160:Drivers/STM32F0xx_HAL_Driver/Src/stm32f0xx_hal_pcd.c ****   }
 161:Drivers/STM32F0xx_HAL_Driver/Src/stm32f0xx_hal_pcd.c **** 
 162:Drivers/STM32F0xx_HAL_Driver/Src/stm32f0xx_hal_pcd.c ****   hpcd->State = HAL_PCD_STATE_BUSY;
  74              		.loc 1 162 0
  75 003a 7A68     		ldr	r2, [r7, #4]
  76 003c EA23     		movs	r3, #234
  77 003e FF33     		adds	r3, r3, #255
  78 0040 0321     		movs	r1, #3
  79 0042 D154     		strb	r1, [r2, r3]
 163:Drivers/STM32F0xx_HAL_Driver/Src/stm32f0xx_hal_pcd.c ****  
 164:Drivers/STM32F0xx_HAL_Driver/Src/stm32f0xx_hal_pcd.c ****  /* Init endpoints structures */
 165:Drivers/STM32F0xx_HAL_Driver/Src/stm32f0xx_hal_pcd.c ****  for (i = 0; i < hpcd->Init.dev_endpoints ; i++)
  80              		.loc 1 165 0
  81 0044 0023     		movs	r3, #0
  82 0046 FB60     		str	r3, [r7, #12]
  83 0048 43E0     		b	.L5
  84              	.L6:
 166:Drivers/STM32F0xx_HAL_Driver/Src/stm32f0xx_hal_pcd.c ****  {
 167:Drivers/STM32F0xx_HAL_Driver/Src/stm32f0xx_hal_pcd.c ****    /* Init ep structure */
 168:Drivers/STM32F0xx_HAL_Driver/Src/stm32f0xx_hal_pcd.c ****    hpcd->IN_ep[i].is_in = 1;
  85              		.loc 1 168 0 discriminator 3
  86 004a 7968     		ldr	r1, [r7, #4]
  87 004c FA68     		ldr	r2, [r7, #12]
  88 004e 2920     		movs	r0, #41
  89 0050 1300     		movs	r3, r2
  90 0052 DB00     		lsls	r3, r3, #3
  91 0054 9B1A     		subs	r3, r3, r2
  92 0056 9B00     		lsls	r3, r3, #2
  93 0058 CB18     		adds	r3, r1, r3
  94 005a 1B18     		adds	r3, r3, r0
  95 005c 0122     		movs	r2, #1
  96 005e 1A70     		strb	r2, [r3]
 169:Drivers/STM32F0xx_HAL_Driver/Src/stm32f0xx_hal_pcd.c ****    hpcd->IN_ep[i].num = i;
  97              		.loc 1 169 0 discriminator 3
  98 0060 FB68     		ldr	r3, [r7, #12]
  99 0062 DCB2     		uxtb	r4, r3
 100 0064 7968     		ldr	r1, [r7, #4]
 101 0066 FA68     		ldr	r2, [r7, #12]
 102 0068 2820     		movs	r0, #40
 103 006a 1300     		movs	r3, r2
 104 006c DB00     		lsls	r3, r3, #3
 105 006e 9B1A     		subs	r3, r3, r2
 106 0070 9B00     		lsls	r3, r3, #2
 107 0072 CB18     		adds	r3, r1, r3
 108 0074 1B18     		adds	r3, r3, r0
 109 0076 221C     		adds	r2, r4, #0
 110 0078 1A70     		strb	r2, [r3]
 170:Drivers/STM32F0xx_HAL_Driver/Src/stm32f0xx_hal_pcd.c ****    /* Control until ep is actvated */
 171:Drivers/STM32F0xx_HAL_Driver/Src/stm32f0xx_hal_pcd.c ****    hpcd->IN_ep[i].type = PCD_EP_TYPE_CTRL;
 111              		.loc 1 171 0 discriminator 3
 112 007a 7968     		ldr	r1, [r7, #4]
 113 007c FA68     		ldr	r2, [r7, #12]
 114 007e 2B20     		movs	r0, #43
 115 0080 1300     		movs	r3, r2
ARM GAS  /tmp/cczZJmfg.s 			page 6


 116 0082 DB00     		lsls	r3, r3, #3
 117 0084 9B1A     		subs	r3, r3, r2
 118 0086 9B00     		lsls	r3, r3, #2
 119 0088 CB18     		adds	r3, r1, r3
 120 008a 1B18     		adds	r3, r3, r0
 121 008c 0022     		movs	r2, #0
 122 008e 1A70     		strb	r2, [r3]
 172:Drivers/STM32F0xx_HAL_Driver/Src/stm32f0xx_hal_pcd.c ****    hpcd->IN_ep[i].maxpacket =  0;
 123              		.loc 1 172 0 discriminator 3
 124 0090 7968     		ldr	r1, [r7, #4]
 125 0092 FA68     		ldr	r2, [r7, #12]
 126 0094 1300     		movs	r3, r2
 127 0096 DB00     		lsls	r3, r3, #3
 128 0098 9B1A     		subs	r3, r3, r2
 129 009a 9B00     		lsls	r3, r3, #2
 130 009c CB18     		adds	r3, r1, r3
 131 009e 3433     		adds	r3, r3, #52
 132 00a0 0022     		movs	r2, #0
 133 00a2 1A60     		str	r2, [r3]
 173:Drivers/STM32F0xx_HAL_Driver/Src/stm32f0xx_hal_pcd.c ****    hpcd->IN_ep[i].xfer_buff = 0;
 134              		.loc 1 173 0 discriminator 3
 135 00a4 7968     		ldr	r1, [r7, #4]
 136 00a6 FA68     		ldr	r2, [r7, #12]
 137 00a8 1300     		movs	r3, r2
 138 00aa DB00     		lsls	r3, r3, #3
 139 00ac 9B1A     		subs	r3, r3, r2
 140 00ae 9B00     		lsls	r3, r3, #2
 141 00b0 CB18     		adds	r3, r1, r3
 142 00b2 3833     		adds	r3, r3, #56
 143 00b4 0022     		movs	r2, #0
 144 00b6 1A60     		str	r2, [r3]
 174:Drivers/STM32F0xx_HAL_Driver/Src/stm32f0xx_hal_pcd.c ****    hpcd->IN_ep[i].xfer_len = 0;
 145              		.loc 1 174 0 discriminator 3
 146 00b8 7968     		ldr	r1, [r7, #4]
 147 00ba FA68     		ldr	r2, [r7, #12]
 148 00bc 1300     		movs	r3, r2
 149 00be DB00     		lsls	r3, r3, #3
 150 00c0 9B1A     		subs	r3, r3, r2
 151 00c2 9B00     		lsls	r3, r3, #2
 152 00c4 CB18     		adds	r3, r1, r3
 153 00c6 3C33     		adds	r3, r3, #60
 154 00c8 0022     		movs	r2, #0
 155 00ca 1A60     		str	r2, [r3]
 165:Drivers/STM32F0xx_HAL_Driver/Src/stm32f0xx_hal_pcd.c ****  {
 156              		.loc 1 165 0 discriminator 3
 157 00cc FB68     		ldr	r3, [r7, #12]
 158 00ce 0133     		adds	r3, r3, #1
 159 00d0 FB60     		str	r3, [r7, #12]
 160              	.L5:
 165:Drivers/STM32F0xx_HAL_Driver/Src/stm32f0xx_hal_pcd.c ****  {
 161              		.loc 1 165 0 is_stmt 0 discriminator 1
 162 00d2 7B68     		ldr	r3, [r7, #4]
 163 00d4 5A68     		ldr	r2, [r3, #4]
 164 00d6 FB68     		ldr	r3, [r7, #12]
 165 00d8 9A42     		cmp	r2, r3
 166 00da B6D8     		bhi	.L6
 175:Drivers/STM32F0xx_HAL_Driver/Src/stm32f0xx_hal_pcd.c ****  }
ARM GAS  /tmp/cczZJmfg.s 			page 7


 176:Drivers/STM32F0xx_HAL_Driver/Src/stm32f0xx_hal_pcd.c ****  
 177:Drivers/STM32F0xx_HAL_Driver/Src/stm32f0xx_hal_pcd.c ****  for (i = 0; i < hpcd->Init.dev_endpoints ; i++)
 167              		.loc 1 177 0 is_stmt 1
 168 00dc 0023     		movs	r3, #0
 169 00de FB60     		str	r3, [r7, #12]
 170 00e0 4EE0     		b	.L7
 171              	.L8:
 178:Drivers/STM32F0xx_HAL_Driver/Src/stm32f0xx_hal_pcd.c ****  {
 179:Drivers/STM32F0xx_HAL_Driver/Src/stm32f0xx_hal_pcd.c ****    hpcd->OUT_ep[i].is_in = 0;
 172              		.loc 1 179 0 discriminator 3
 173 00e2 7868     		ldr	r0, [r7, #4]
 174 00e4 FA68     		ldr	r2, [r7, #12]
 175 00e6 0A23     		movs	r3, #10
 176 00e8 FF33     		adds	r3, r3, #255
 177 00ea 1900     		movs	r1, r3
 178 00ec 1300     		movs	r3, r2
 179 00ee DB00     		lsls	r3, r3, #3
 180 00f0 9B1A     		subs	r3, r3, r2
 181 00f2 9B00     		lsls	r3, r3, #2
 182 00f4 C318     		adds	r3, r0, r3
 183 00f6 5B18     		adds	r3, r3, r1
 184 00f8 0022     		movs	r2, #0
 185 00fa 1A70     		strb	r2, [r3]
 180:Drivers/STM32F0xx_HAL_Driver/Src/stm32f0xx_hal_pcd.c ****    hpcd->OUT_ep[i].num = i;
 186              		.loc 1 180 0 discriminator 3
 187 00fc FB68     		ldr	r3, [r7, #12]
 188 00fe DCB2     		uxtb	r4, r3
 189 0100 7868     		ldr	r0, [r7, #4]
 190 0102 FA68     		ldr	r2, [r7, #12]
 191 0104 8423     		movs	r3, #132
 192 0106 5900     		lsls	r1, r3, #1
 193 0108 1300     		movs	r3, r2
 194 010a DB00     		lsls	r3, r3, #3
 195 010c 9B1A     		subs	r3, r3, r2
 196 010e 9B00     		lsls	r3, r3, #2
 197 0110 C318     		adds	r3, r0, r3
 198 0112 5B18     		adds	r3, r3, r1
 199 0114 221C     		adds	r2, r4, #0
 200 0116 1A70     		strb	r2, [r3]
 181:Drivers/STM32F0xx_HAL_Driver/Src/stm32f0xx_hal_pcd.c ****    /* Control until ep is activated */
 182:Drivers/STM32F0xx_HAL_Driver/Src/stm32f0xx_hal_pcd.c ****    hpcd->OUT_ep[i].type = PCD_EP_TYPE_CTRL;
 201              		.loc 1 182 0 discriminator 3
 202 0118 7868     		ldr	r0, [r7, #4]
 203 011a FA68     		ldr	r2, [r7, #12]
 204 011c 0C23     		movs	r3, #12
 205 011e FF33     		adds	r3, r3, #255
 206 0120 1900     		movs	r1, r3
 207 0122 1300     		movs	r3, r2
 208 0124 DB00     		lsls	r3, r3, #3
 209 0126 9B1A     		subs	r3, r3, r2
 210 0128 9B00     		lsls	r3, r3, #2
 211 012a C318     		adds	r3, r0, r3
 212 012c 5B18     		adds	r3, r3, r1
 213 012e 0022     		movs	r2, #0
 214 0130 1A70     		strb	r2, [r3]
 183:Drivers/STM32F0xx_HAL_Driver/Src/stm32f0xx_hal_pcd.c ****    hpcd->OUT_ep[i].maxpacket = 0;
 215              		.loc 1 183 0 discriminator 3
ARM GAS  /tmp/cczZJmfg.s 			page 8


 216 0132 7868     		ldr	r0, [r7, #4]
 217 0134 FA68     		ldr	r2, [r7, #12]
 218 0136 8A23     		movs	r3, #138
 219 0138 5900     		lsls	r1, r3, #1
 220 013a 1300     		movs	r3, r2
 221 013c DB00     		lsls	r3, r3, #3
 222 013e 9B1A     		subs	r3, r3, r2
 223 0140 9B00     		lsls	r3, r3, #2
 224 0142 C318     		adds	r3, r0, r3
 225 0144 5B18     		adds	r3, r3, r1
 226 0146 0022     		movs	r2, #0
 227 0148 1A60     		str	r2, [r3]
 184:Drivers/STM32F0xx_HAL_Driver/Src/stm32f0xx_hal_pcd.c ****    hpcd->OUT_ep[i].xfer_buff = 0;
 228              		.loc 1 184 0 discriminator 3
 229 014a 7868     		ldr	r0, [r7, #4]
 230 014c FA68     		ldr	r2, [r7, #12]
 231 014e 8C23     		movs	r3, #140
 232 0150 5900     		lsls	r1, r3, #1
 233 0152 1300     		movs	r3, r2
 234 0154 DB00     		lsls	r3, r3, #3
 235 0156 9B1A     		subs	r3, r3, r2
 236 0158 9B00     		lsls	r3, r3, #2
 237 015a C318     		adds	r3, r0, r3
 238 015c 5B18     		adds	r3, r3, r1
 239 015e 0022     		movs	r2, #0
 240 0160 1A60     		str	r2, [r3]
 185:Drivers/STM32F0xx_HAL_Driver/Src/stm32f0xx_hal_pcd.c ****    hpcd->OUT_ep[i].xfer_len = 0;
 241              		.loc 1 185 0 discriminator 3
 242 0162 7868     		ldr	r0, [r7, #4]
 243 0164 FA68     		ldr	r2, [r7, #12]
 244 0166 8E23     		movs	r3, #142
 245 0168 5900     		lsls	r1, r3, #1
 246 016a 1300     		movs	r3, r2
 247 016c DB00     		lsls	r3, r3, #3
 248 016e 9B1A     		subs	r3, r3, r2
 249 0170 9B00     		lsls	r3, r3, #2
 250 0172 C318     		adds	r3, r0, r3
 251 0174 5B18     		adds	r3, r3, r1
 252 0176 0022     		movs	r2, #0
 253 0178 1A60     		str	r2, [r3]
 177:Drivers/STM32F0xx_HAL_Driver/Src/stm32f0xx_hal_pcd.c ****  {
 254              		.loc 1 177 0 discriminator 3
 255 017a FB68     		ldr	r3, [r7, #12]
 256 017c 0133     		adds	r3, r3, #1
 257 017e FB60     		str	r3, [r7, #12]
 258              	.L7:
 177:Drivers/STM32F0xx_HAL_Driver/Src/stm32f0xx_hal_pcd.c ****  {
 259              		.loc 1 177 0 is_stmt 0 discriminator 1
 260 0180 7B68     		ldr	r3, [r7, #4]
 261 0182 5A68     		ldr	r2, [r3, #4]
 262 0184 FB68     		ldr	r3, [r7, #12]
 263 0186 9A42     		cmp	r2, r3
 264 0188 ABD8     		bhi	.L8
 186:Drivers/STM32F0xx_HAL_Driver/Src/stm32f0xx_hal_pcd.c ****  }
 187:Drivers/STM32F0xx_HAL_Driver/Src/stm32f0xx_hal_pcd.c ****   
 188:Drivers/STM32F0xx_HAL_Driver/Src/stm32f0xx_hal_pcd.c ****  /* Init Device */
 189:Drivers/STM32F0xx_HAL_Driver/Src/stm32f0xx_hal_pcd.c ****  /*CNTR_FRES = 1*/
ARM GAS  /tmp/cczZJmfg.s 			page 9


 190:Drivers/STM32F0xx_HAL_Driver/Src/stm32f0xx_hal_pcd.c ****  hpcd->Instance->CNTR = USB_CNTR_FRES;
 265              		.loc 1 190 0 is_stmt 1
 266 018a 7B68     		ldr	r3, [r7, #4]
 267 018c 1B68     		ldr	r3, [r3]
 268 018e 4022     		movs	r2, #64
 269 0190 0121     		movs	r1, #1
 270 0192 9952     		strh	r1, [r3, r2]
 191:Drivers/STM32F0xx_HAL_Driver/Src/stm32f0xx_hal_pcd.c ****  
 192:Drivers/STM32F0xx_HAL_Driver/Src/stm32f0xx_hal_pcd.c ****  /*CNTR_FRES = 0*/
 193:Drivers/STM32F0xx_HAL_Driver/Src/stm32f0xx_hal_pcd.c ****  hpcd->Instance->CNTR = 0;
 271              		.loc 1 193 0
 272 0194 7B68     		ldr	r3, [r7, #4]
 273 0196 1B68     		ldr	r3, [r3]
 274 0198 4022     		movs	r2, #64
 275 019a 0021     		movs	r1, #0
 276 019c 9952     		strh	r1, [r3, r2]
 194:Drivers/STM32F0xx_HAL_Driver/Src/stm32f0xx_hal_pcd.c ****  
 195:Drivers/STM32F0xx_HAL_Driver/Src/stm32f0xx_hal_pcd.c ****  /*Clear pending interrupts*/
 196:Drivers/STM32F0xx_HAL_Driver/Src/stm32f0xx_hal_pcd.c ****  hpcd->Instance->ISTR = 0;
 277              		.loc 1 196 0
 278 019e 7B68     		ldr	r3, [r7, #4]
 279 01a0 1B68     		ldr	r3, [r3]
 280 01a2 4422     		movs	r2, #68
 281 01a4 0021     		movs	r1, #0
 282 01a6 9952     		strh	r1, [r3, r2]
 197:Drivers/STM32F0xx_HAL_Driver/Src/stm32f0xx_hal_pcd.c ****  
 198:Drivers/STM32F0xx_HAL_Driver/Src/stm32f0xx_hal_pcd.c ****   /*Set Btable Adress*/
 199:Drivers/STM32F0xx_HAL_Driver/Src/stm32f0xx_hal_pcd.c ****  hpcd->Instance->BTABLE = BTABLE_ADDRESS;
 283              		.loc 1 199 0
 284 01a8 7B68     		ldr	r3, [r7, #4]
 285 01aa 1B68     		ldr	r3, [r3]
 286 01ac 5022     		movs	r2, #80
 287 01ae 0021     		movs	r1, #0
 288 01b0 9952     		strh	r1, [r3, r2]
 200:Drivers/STM32F0xx_HAL_Driver/Src/stm32f0xx_hal_pcd.c ****   
 201:Drivers/STM32F0xx_HAL_Driver/Src/stm32f0xx_hal_pcd.c ****   /*set wInterrupt_Mask global variable*/
 202:Drivers/STM32F0xx_HAL_Driver/Src/stm32f0xx_hal_pcd.c ****  wInterrupt_Mask = USB_CNTR_CTRM  | USB_CNTR_WKUPM | USB_CNTR_SUSPM | USB_CNTR_ERRM \
 289              		.loc 1 202 0
 290 01b2 BF23     		movs	r3, #191
 291 01b4 1B02     		lsls	r3, r3, #8
 292 01b6 BB60     		str	r3, [r7, #8]
 203:Drivers/STM32F0xx_HAL_Driver/Src/stm32f0xx_hal_pcd.c ****    | USB_CNTR_SOFM | USB_CNTR_ESOFM | USB_CNTR_RESETM;
 204:Drivers/STM32F0xx_HAL_Driver/Src/stm32f0xx_hal_pcd.c ****   
 205:Drivers/STM32F0xx_HAL_Driver/Src/stm32f0xx_hal_pcd.c ****   /*Set interrupt mask*/
 206:Drivers/STM32F0xx_HAL_Driver/Src/stm32f0xx_hal_pcd.c ****   hpcd->Instance->CNTR = wInterrupt_Mask;
 293              		.loc 1 206 0
 294 01b8 7B68     		ldr	r3, [r7, #4]
 295 01ba 1B68     		ldr	r3, [r3]
 296 01bc BA68     		ldr	r2, [r7, #8]
 297 01be 91B2     		uxth	r1, r2
 298 01c0 4022     		movs	r2, #64
 299 01c2 9952     		strh	r1, [r3, r2]
 207:Drivers/STM32F0xx_HAL_Driver/Src/stm32f0xx_hal_pcd.c ****   
 208:Drivers/STM32F0xx_HAL_Driver/Src/stm32f0xx_hal_pcd.c ****   hpcd->USB_Address = 0;
 300              		.loc 1 208 0
 301 01c4 7B68     		ldr	r3, [r7, #4]
 302 01c6 2422     		movs	r2, #36
ARM GAS  /tmp/cczZJmfg.s 			page 10


 303 01c8 0021     		movs	r1, #0
 304 01ca 9954     		strb	r1, [r3, r2]
 209:Drivers/STM32F0xx_HAL_Driver/Src/stm32f0xx_hal_pcd.c ****   hpcd->State= HAL_PCD_STATE_READY;
 305              		.loc 1 209 0
 306 01cc 7A68     		ldr	r2, [r7, #4]
 307 01ce EA23     		movs	r3, #234
 308 01d0 FF33     		adds	r3, r3, #255
 309 01d2 0121     		movs	r1, #1
 310 01d4 D154     		strb	r1, [r2, r3]
 210:Drivers/STM32F0xx_HAL_Driver/Src/stm32f0xx_hal_pcd.c **** 
 211:Drivers/STM32F0xx_HAL_Driver/Src/stm32f0xx_hal_pcd.c ****  return HAL_OK;
 311              		.loc 1 211 0
 312 01d6 0023     		movs	r3, #0
 313              	.L3:
 212:Drivers/STM32F0xx_HAL_Driver/Src/stm32f0xx_hal_pcd.c **** }
 314              		.loc 1 212 0
 315 01d8 1800     		movs	r0, r3
 316 01da BD46     		mov	sp, r7
 317 01dc 05B0     		add	sp, sp, #20
 318              		@ sp needed
 319 01de 90BD     		pop	{r4, r7, pc}
 320              		.cfi_endproc
 321              	.LFE35:
 323              		.section	.text.HAL_PCD_DeInit,"ax",%progbits
 324              		.align	1
 325              		.global	HAL_PCD_DeInit
 326              		.syntax unified
 327              		.code	16
 328              		.thumb_func
 329              		.fpu softvfp
 331              	HAL_PCD_DeInit:
 332              	.LFB36:
 213:Drivers/STM32F0xx_HAL_Driver/Src/stm32f0xx_hal_pcd.c **** 
 214:Drivers/STM32F0xx_HAL_Driver/Src/stm32f0xx_hal_pcd.c **** /**
 215:Drivers/STM32F0xx_HAL_Driver/Src/stm32f0xx_hal_pcd.c ****   * @brief  DeInitializes the PCD peripheral 
 216:Drivers/STM32F0xx_HAL_Driver/Src/stm32f0xx_hal_pcd.c ****   * @param  hpcd: PCD handle
 217:Drivers/STM32F0xx_HAL_Driver/Src/stm32f0xx_hal_pcd.c ****   * @retval HAL status
 218:Drivers/STM32F0xx_HAL_Driver/Src/stm32f0xx_hal_pcd.c ****   */
 219:Drivers/STM32F0xx_HAL_Driver/Src/stm32f0xx_hal_pcd.c **** HAL_StatusTypeDef HAL_PCD_DeInit(PCD_HandleTypeDef *hpcd)
 220:Drivers/STM32F0xx_HAL_Driver/Src/stm32f0xx_hal_pcd.c **** {
 333              		.loc 1 220 0
 334              		.cfi_startproc
 335 0000 80B5     		push	{r7, lr}
 336              	.LCFI3:
 337              		.cfi_def_cfa_offset 8
 338              		.cfi_offset 7, -8
 339              		.cfi_offset 14, -4
 340 0002 82B0     		sub	sp, sp, #8
 341              	.LCFI4:
 342              		.cfi_def_cfa_offset 16
 343 0004 00AF     		add	r7, sp, #0
 344              	.LCFI5:
 345              		.cfi_def_cfa_register 7
 346 0006 7860     		str	r0, [r7, #4]
 221:Drivers/STM32F0xx_HAL_Driver/Src/stm32f0xx_hal_pcd.c ****   /* Check the PCD handle allocation */
 222:Drivers/STM32F0xx_HAL_Driver/Src/stm32f0xx_hal_pcd.c ****   if(hpcd == NULL)
 347              		.loc 1 222 0
ARM GAS  /tmp/cczZJmfg.s 			page 11


 348 0008 7B68     		ldr	r3, [r7, #4]
 349 000a 002B     		cmp	r3, #0
 350 000c 01D1     		bne	.L10
 223:Drivers/STM32F0xx_HAL_Driver/Src/stm32f0xx_hal_pcd.c ****   {
 224:Drivers/STM32F0xx_HAL_Driver/Src/stm32f0xx_hal_pcd.c ****     return HAL_ERROR;
 351              		.loc 1 224 0
 352 000e 0123     		movs	r3, #1
 353 0010 12E0     		b	.L11
 354              	.L10:
 225:Drivers/STM32F0xx_HAL_Driver/Src/stm32f0xx_hal_pcd.c ****   }
 226:Drivers/STM32F0xx_HAL_Driver/Src/stm32f0xx_hal_pcd.c **** 
 227:Drivers/STM32F0xx_HAL_Driver/Src/stm32f0xx_hal_pcd.c ****   hpcd->State = HAL_PCD_STATE_BUSY;
 355              		.loc 1 227 0
 356 0012 7A68     		ldr	r2, [r7, #4]
 357 0014 EA23     		movs	r3, #234
 358 0016 FF33     		adds	r3, r3, #255
 359 0018 0321     		movs	r1, #3
 360 001a D154     		strb	r1, [r2, r3]
 228:Drivers/STM32F0xx_HAL_Driver/Src/stm32f0xx_hal_pcd.c ****   
 229:Drivers/STM32F0xx_HAL_Driver/Src/stm32f0xx_hal_pcd.c ****   /* Stop Device */
 230:Drivers/STM32F0xx_HAL_Driver/Src/stm32f0xx_hal_pcd.c ****   HAL_PCD_Stop(hpcd);
 361              		.loc 1 230 0
 362 001c 7B68     		ldr	r3, [r7, #4]
 363 001e 1800     		movs	r0, r3
 364 0020 FFF7FEFF 		bl	HAL_PCD_Stop
 231:Drivers/STM32F0xx_HAL_Driver/Src/stm32f0xx_hal_pcd.c ****     
 232:Drivers/STM32F0xx_HAL_Driver/Src/stm32f0xx_hal_pcd.c ****   /* DeInit the low level hardware */
 233:Drivers/STM32F0xx_HAL_Driver/Src/stm32f0xx_hal_pcd.c ****   HAL_PCD_MspDeInit(hpcd);
 365              		.loc 1 233 0
 366 0024 7B68     		ldr	r3, [r7, #4]
 367 0026 1800     		movs	r0, r3
 368 0028 FFF7FEFF 		bl	HAL_PCD_MspDeInit
 234:Drivers/STM32F0xx_HAL_Driver/Src/stm32f0xx_hal_pcd.c ****   
 235:Drivers/STM32F0xx_HAL_Driver/Src/stm32f0xx_hal_pcd.c ****   hpcd->State = HAL_PCD_STATE_RESET; 
 369              		.loc 1 235 0
 370 002c 7A68     		ldr	r2, [r7, #4]
 371 002e EA23     		movs	r3, #234
 372 0030 FF33     		adds	r3, r3, #255
 373 0032 0021     		movs	r1, #0
 374 0034 D154     		strb	r1, [r2, r3]
 236:Drivers/STM32F0xx_HAL_Driver/Src/stm32f0xx_hal_pcd.c ****   
 237:Drivers/STM32F0xx_HAL_Driver/Src/stm32f0xx_hal_pcd.c ****   return HAL_OK;
 375              		.loc 1 237 0
 376 0036 0023     		movs	r3, #0
 377              	.L11:
 238:Drivers/STM32F0xx_HAL_Driver/Src/stm32f0xx_hal_pcd.c **** }
 378              		.loc 1 238 0
 379 0038 1800     		movs	r0, r3
 380 003a BD46     		mov	sp, r7
 381 003c 02B0     		add	sp, sp, #8
 382              		@ sp needed
 383 003e 80BD     		pop	{r7, pc}
 384              		.cfi_endproc
 385              	.LFE36:
 387              		.section	.text.HAL_PCD_MspInit,"ax",%progbits
 388              		.align	1
 389              		.weak	HAL_PCD_MspInit
ARM GAS  /tmp/cczZJmfg.s 			page 12


 390              		.syntax unified
 391              		.code	16
 392              		.thumb_func
 393              		.fpu softvfp
 395              	HAL_PCD_MspInit:
 396              	.LFB37:
 239:Drivers/STM32F0xx_HAL_Driver/Src/stm32f0xx_hal_pcd.c **** 
 240:Drivers/STM32F0xx_HAL_Driver/Src/stm32f0xx_hal_pcd.c **** /**
 241:Drivers/STM32F0xx_HAL_Driver/Src/stm32f0xx_hal_pcd.c ****   * @brief  Initializes the PCD MSP.
 242:Drivers/STM32F0xx_HAL_Driver/Src/stm32f0xx_hal_pcd.c ****   * @param  hpcd: PCD handle
 243:Drivers/STM32F0xx_HAL_Driver/Src/stm32f0xx_hal_pcd.c ****   * @retval None
 244:Drivers/STM32F0xx_HAL_Driver/Src/stm32f0xx_hal_pcd.c ****   */
 245:Drivers/STM32F0xx_HAL_Driver/Src/stm32f0xx_hal_pcd.c **** __weak void HAL_PCD_MspInit(PCD_HandleTypeDef *hpcd)
 246:Drivers/STM32F0xx_HAL_Driver/Src/stm32f0xx_hal_pcd.c **** {
 397              		.loc 1 246 0
 398              		.cfi_startproc
 399 0000 80B5     		push	{r7, lr}
 400              	.LCFI6:
 401              		.cfi_def_cfa_offset 8
 402              		.cfi_offset 7, -8
 403              		.cfi_offset 14, -4
 404 0002 82B0     		sub	sp, sp, #8
 405              	.LCFI7:
 406              		.cfi_def_cfa_offset 16
 407 0004 00AF     		add	r7, sp, #0
 408              	.LCFI8:
 409              		.cfi_def_cfa_register 7
 410 0006 7860     		str	r0, [r7, #4]
 247:Drivers/STM32F0xx_HAL_Driver/Src/stm32f0xx_hal_pcd.c ****   /* Prevent unused argument(s) compilation warning */
 248:Drivers/STM32F0xx_HAL_Driver/Src/stm32f0xx_hal_pcd.c ****   UNUSED(hpcd);
 249:Drivers/STM32F0xx_HAL_Driver/Src/stm32f0xx_hal_pcd.c **** 
 250:Drivers/STM32F0xx_HAL_Driver/Src/stm32f0xx_hal_pcd.c ****   /* NOTE : This function Should not be modified, when the callback is needed,
 251:Drivers/STM32F0xx_HAL_Driver/Src/stm32f0xx_hal_pcd.c ****             the HAL_PCD_MspInit could be implemented in the user file
 252:Drivers/STM32F0xx_HAL_Driver/Src/stm32f0xx_hal_pcd.c ****    */
 253:Drivers/STM32F0xx_HAL_Driver/Src/stm32f0xx_hal_pcd.c **** }
 411              		.loc 1 253 0
 412 0008 C046     		nop
 413 000a BD46     		mov	sp, r7
 414 000c 02B0     		add	sp, sp, #8
 415              		@ sp needed
 416 000e 80BD     		pop	{r7, pc}
 417              		.cfi_endproc
 418              	.LFE37:
 420              		.section	.text.HAL_PCD_MspDeInit,"ax",%progbits
 421              		.align	1
 422              		.weak	HAL_PCD_MspDeInit
 423              		.syntax unified
 424              		.code	16
 425              		.thumb_func
 426              		.fpu softvfp
 428              	HAL_PCD_MspDeInit:
 429              	.LFB38:
 254:Drivers/STM32F0xx_HAL_Driver/Src/stm32f0xx_hal_pcd.c **** 
 255:Drivers/STM32F0xx_HAL_Driver/Src/stm32f0xx_hal_pcd.c **** /**
 256:Drivers/STM32F0xx_HAL_Driver/Src/stm32f0xx_hal_pcd.c ****   * @brief  DeInitializes PCD MSP.
 257:Drivers/STM32F0xx_HAL_Driver/Src/stm32f0xx_hal_pcd.c ****   * @param  hpcd: PCD handle
 258:Drivers/STM32F0xx_HAL_Driver/Src/stm32f0xx_hal_pcd.c ****   * @retval None
ARM GAS  /tmp/cczZJmfg.s 			page 13


 259:Drivers/STM32F0xx_HAL_Driver/Src/stm32f0xx_hal_pcd.c ****   */
 260:Drivers/STM32F0xx_HAL_Driver/Src/stm32f0xx_hal_pcd.c **** __weak void HAL_PCD_MspDeInit(PCD_HandleTypeDef *hpcd)
 261:Drivers/STM32F0xx_HAL_Driver/Src/stm32f0xx_hal_pcd.c **** {
 430              		.loc 1 261 0
 431              		.cfi_startproc
 432 0000 80B5     		push	{r7, lr}
 433              	.LCFI9:
 434              		.cfi_def_cfa_offset 8
 435              		.cfi_offset 7, -8
 436              		.cfi_offset 14, -4
 437 0002 82B0     		sub	sp, sp, #8
 438              	.LCFI10:
 439              		.cfi_def_cfa_offset 16
 440 0004 00AF     		add	r7, sp, #0
 441              	.LCFI11:
 442              		.cfi_def_cfa_register 7
 443 0006 7860     		str	r0, [r7, #4]
 262:Drivers/STM32F0xx_HAL_Driver/Src/stm32f0xx_hal_pcd.c ****   /* Prevent unused argument(s) compilation warning */
 263:Drivers/STM32F0xx_HAL_Driver/Src/stm32f0xx_hal_pcd.c ****   UNUSED(hpcd);
 264:Drivers/STM32F0xx_HAL_Driver/Src/stm32f0xx_hal_pcd.c **** 
 265:Drivers/STM32F0xx_HAL_Driver/Src/stm32f0xx_hal_pcd.c ****   /* NOTE : This function Should not be modified, when the callback is needed,
 266:Drivers/STM32F0xx_HAL_Driver/Src/stm32f0xx_hal_pcd.c ****             the HAL_PCD_MspDeInit could be implemented in the user file
 267:Drivers/STM32F0xx_HAL_Driver/Src/stm32f0xx_hal_pcd.c ****    */
 268:Drivers/STM32F0xx_HAL_Driver/Src/stm32f0xx_hal_pcd.c **** }
 444              		.loc 1 268 0
 445 0008 C046     		nop
 446 000a BD46     		mov	sp, r7
 447 000c 02B0     		add	sp, sp, #8
 448              		@ sp needed
 449 000e 80BD     		pop	{r7, pc}
 450              		.cfi_endproc
 451              	.LFE38:
 453              		.section	.text.HAL_PCD_Start,"ax",%progbits
 454              		.align	1
 455              		.global	HAL_PCD_Start
 456              		.syntax unified
 457              		.code	16
 458              		.thumb_func
 459              		.fpu softvfp
 461              	HAL_PCD_Start:
 462              	.LFB39:
 269:Drivers/STM32F0xx_HAL_Driver/Src/stm32f0xx_hal_pcd.c **** 
 270:Drivers/STM32F0xx_HAL_Driver/Src/stm32f0xx_hal_pcd.c **** /**
 271:Drivers/STM32F0xx_HAL_Driver/Src/stm32f0xx_hal_pcd.c ****   * @}
 272:Drivers/STM32F0xx_HAL_Driver/Src/stm32f0xx_hal_pcd.c ****   */
 273:Drivers/STM32F0xx_HAL_Driver/Src/stm32f0xx_hal_pcd.c **** 
 274:Drivers/STM32F0xx_HAL_Driver/Src/stm32f0xx_hal_pcd.c **** /** @defgroup PCD_Exported_Functions_Group2 IO operation functions 
 275:Drivers/STM32F0xx_HAL_Driver/Src/stm32f0xx_hal_pcd.c ****  *  @brief   Data transfers functions 
 276:Drivers/STM32F0xx_HAL_Driver/Src/stm32f0xx_hal_pcd.c ****  *
 277:Drivers/STM32F0xx_HAL_Driver/Src/stm32f0xx_hal_pcd.c **** @verbatim   
 278:Drivers/STM32F0xx_HAL_Driver/Src/stm32f0xx_hal_pcd.c ****  ===============================================================================
 279:Drivers/STM32F0xx_HAL_Driver/Src/stm32f0xx_hal_pcd.c ****                       ##### IO operation functions #####
 280:Drivers/STM32F0xx_HAL_Driver/Src/stm32f0xx_hal_pcd.c ****  ===============================================================================  
 281:Drivers/STM32F0xx_HAL_Driver/Src/stm32f0xx_hal_pcd.c ****     [..]
 282:Drivers/STM32F0xx_HAL_Driver/Src/stm32f0xx_hal_pcd.c ****     This subsection provides a set of functions allowing to manage the PCD data 
 283:Drivers/STM32F0xx_HAL_Driver/Src/stm32f0xx_hal_pcd.c ****     transfers.
 284:Drivers/STM32F0xx_HAL_Driver/Src/stm32f0xx_hal_pcd.c **** 
ARM GAS  /tmp/cczZJmfg.s 			page 14


 285:Drivers/STM32F0xx_HAL_Driver/Src/stm32f0xx_hal_pcd.c **** @endverbatim
 286:Drivers/STM32F0xx_HAL_Driver/Src/stm32f0xx_hal_pcd.c ****   * @{
 287:Drivers/STM32F0xx_HAL_Driver/Src/stm32f0xx_hal_pcd.c ****   */
 288:Drivers/STM32F0xx_HAL_Driver/Src/stm32f0xx_hal_pcd.c ****   
 289:Drivers/STM32F0xx_HAL_Driver/Src/stm32f0xx_hal_pcd.c **** /**
 290:Drivers/STM32F0xx_HAL_Driver/Src/stm32f0xx_hal_pcd.c ****   * @brief  Start the USB device.
 291:Drivers/STM32F0xx_HAL_Driver/Src/stm32f0xx_hal_pcd.c ****   * @param  hpcd: PCD handle
 292:Drivers/STM32F0xx_HAL_Driver/Src/stm32f0xx_hal_pcd.c ****   * @retval HAL status
 293:Drivers/STM32F0xx_HAL_Driver/Src/stm32f0xx_hal_pcd.c ****   */
 294:Drivers/STM32F0xx_HAL_Driver/Src/stm32f0xx_hal_pcd.c **** HAL_StatusTypeDef HAL_PCD_Start(PCD_HandleTypeDef *hpcd)
 295:Drivers/STM32F0xx_HAL_Driver/Src/stm32f0xx_hal_pcd.c **** { 
 463              		.loc 1 295 0
 464              		.cfi_startproc
 465 0000 80B5     		push	{r7, lr}
 466              	.LCFI12:
 467              		.cfi_def_cfa_offset 8
 468              		.cfi_offset 7, -8
 469              		.cfi_offset 14, -4
 470 0002 82B0     		sub	sp, sp, #8
 471              	.LCFI13:
 472              		.cfi_def_cfa_offset 16
 473 0004 00AF     		add	r7, sp, #0
 474              	.LCFI14:
 475              		.cfi_def_cfa_register 7
 476 0006 7860     		str	r0, [r7, #4]
 296:Drivers/STM32F0xx_HAL_Driver/Src/stm32f0xx_hal_pcd.c ****   /* Enabling DP Pull-Down bit to Connect internal pull-up on USB DP line */
 297:Drivers/STM32F0xx_HAL_Driver/Src/stm32f0xx_hal_pcd.c ****   hpcd->Instance->BCDR |= USB_BCDR_DPPU;
 477              		.loc 1 297 0
 478 0008 7B68     		ldr	r3, [r7, #4]
 479 000a 1A68     		ldr	r2, [r3]
 480 000c 7B68     		ldr	r3, [r7, #4]
 481 000e 1B68     		ldr	r3, [r3]
 482 0010 5821     		movs	r1, #88
 483 0012 5B5A     		ldrh	r3, [r3, r1]
 484 0014 9BB2     		uxth	r3, r3
 485 0016 0549     		ldr	r1, .L16
 486 0018 0B43     		orrs	r3, r1
 487 001a 99B2     		uxth	r1, r3
 488 001c 5823     		movs	r3, #88
 489 001e D152     		strh	r1, [r2, r3]
 298:Drivers/STM32F0xx_HAL_Driver/Src/stm32f0xx_hal_pcd.c ****   
 299:Drivers/STM32F0xx_HAL_Driver/Src/stm32f0xx_hal_pcd.c ****   return HAL_OK;
 490              		.loc 1 299 0
 491 0020 0023     		movs	r3, #0
 300:Drivers/STM32F0xx_HAL_Driver/Src/stm32f0xx_hal_pcd.c **** }
 492              		.loc 1 300 0
 493 0022 1800     		movs	r0, r3
 494 0024 BD46     		mov	sp, r7
 495 0026 02B0     		add	sp, sp, #8
 496              		@ sp needed
 497 0028 80BD     		pop	{r7, pc}
 498              	.L17:
 499 002a C046     		.align	2
 500              	.L16:
 501 002c 0080FFFF 		.word	-32768
 502              		.cfi_endproc
 503              	.LFE39:
ARM GAS  /tmp/cczZJmfg.s 			page 15


 505              		.section	.text.HAL_PCD_Stop,"ax",%progbits
 506              		.align	1
 507              		.global	HAL_PCD_Stop
 508              		.syntax unified
 509              		.code	16
 510              		.thumb_func
 511              		.fpu softvfp
 513              	HAL_PCD_Stop:
 514              	.LFB40:
 301:Drivers/STM32F0xx_HAL_Driver/Src/stm32f0xx_hal_pcd.c **** 
 302:Drivers/STM32F0xx_HAL_Driver/Src/stm32f0xx_hal_pcd.c **** /**
 303:Drivers/STM32F0xx_HAL_Driver/Src/stm32f0xx_hal_pcd.c ****   * @brief  Stop the USB device.
 304:Drivers/STM32F0xx_HAL_Driver/Src/stm32f0xx_hal_pcd.c ****   * @param  hpcd: PCD handle
 305:Drivers/STM32F0xx_HAL_Driver/Src/stm32f0xx_hal_pcd.c ****   * @retval HAL status
 306:Drivers/STM32F0xx_HAL_Driver/Src/stm32f0xx_hal_pcd.c ****   */
 307:Drivers/STM32F0xx_HAL_Driver/Src/stm32f0xx_hal_pcd.c **** HAL_StatusTypeDef HAL_PCD_Stop(PCD_HandleTypeDef *hpcd)
 308:Drivers/STM32F0xx_HAL_Driver/Src/stm32f0xx_hal_pcd.c **** { 
 515              		.loc 1 308 0
 516              		.cfi_startproc
 517 0000 80B5     		push	{r7, lr}
 518              	.LCFI15:
 519              		.cfi_def_cfa_offset 8
 520              		.cfi_offset 7, -8
 521              		.cfi_offset 14, -4
 522 0002 82B0     		sub	sp, sp, #8
 523              	.LCFI16:
 524              		.cfi_def_cfa_offset 16
 525 0004 00AF     		add	r7, sp, #0
 526              	.LCFI17:
 527              		.cfi_def_cfa_register 7
 528 0006 7860     		str	r0, [r7, #4]
 309:Drivers/STM32F0xx_HAL_Driver/Src/stm32f0xx_hal_pcd.c ****   __HAL_LOCK(hpcd); 
 529              		.loc 1 309 0
 530 0008 7A68     		ldr	r2, [r7, #4]
 531 000a F423     		movs	r3, #244
 532 000c 5B00     		lsls	r3, r3, #1
 533 000e D35C     		ldrb	r3, [r2, r3]
 534 0010 012B     		cmp	r3, #1
 535 0012 01D1     		bne	.L19
 536              		.loc 1 309 0 is_stmt 0 discriminator 1
 537 0014 0223     		movs	r3, #2
 538 0016 19E0     		b	.L20
 539              	.L19:
 540              		.loc 1 309 0 discriminator 2
 541 0018 7A68     		ldr	r2, [r7, #4]
 542 001a F423     		movs	r3, #244
 543 001c 5B00     		lsls	r3, r3, #1
 544 001e 0121     		movs	r1, #1
 545 0020 D154     		strb	r1, [r2, r3]
 310:Drivers/STM32F0xx_HAL_Driver/Src/stm32f0xx_hal_pcd.c ****   
 311:Drivers/STM32F0xx_HAL_Driver/Src/stm32f0xx_hal_pcd.c ****     /* disable all interrupts and force USB reset */
 312:Drivers/STM32F0xx_HAL_Driver/Src/stm32f0xx_hal_pcd.c ****   hpcd->Instance->CNTR = USB_CNTR_FRES;
 546              		.loc 1 312 0 is_stmt 1 discriminator 2
 547 0022 7B68     		ldr	r3, [r7, #4]
 548 0024 1B68     		ldr	r3, [r3]
 549 0026 4022     		movs	r2, #64
 550 0028 0121     		movs	r1, #1
ARM GAS  /tmp/cczZJmfg.s 			page 16


 551 002a 9952     		strh	r1, [r3, r2]
 313:Drivers/STM32F0xx_HAL_Driver/Src/stm32f0xx_hal_pcd.c ****   
 314:Drivers/STM32F0xx_HAL_Driver/Src/stm32f0xx_hal_pcd.c ****   /* clear interrupt status register */
 315:Drivers/STM32F0xx_HAL_Driver/Src/stm32f0xx_hal_pcd.c ****   hpcd->Instance->ISTR = 0;
 552              		.loc 1 315 0 discriminator 2
 553 002c 7B68     		ldr	r3, [r7, #4]
 554 002e 1B68     		ldr	r3, [r3]
 555 0030 4422     		movs	r2, #68
 556 0032 0021     		movs	r1, #0
 557 0034 9952     		strh	r1, [r3, r2]
 316:Drivers/STM32F0xx_HAL_Driver/Src/stm32f0xx_hal_pcd.c ****   
 317:Drivers/STM32F0xx_HAL_Driver/Src/stm32f0xx_hal_pcd.c ****   /* switch-off device */
 318:Drivers/STM32F0xx_HAL_Driver/Src/stm32f0xx_hal_pcd.c ****   hpcd->Instance->CNTR = (USB_CNTR_FRES | USB_CNTR_PDWN);
 558              		.loc 1 318 0 discriminator 2
 559 0036 7B68     		ldr	r3, [r7, #4]
 560 0038 1B68     		ldr	r3, [r3]
 561 003a 4022     		movs	r2, #64
 562 003c 0321     		movs	r1, #3
 563 003e 9952     		strh	r1, [r3, r2]
 319:Drivers/STM32F0xx_HAL_Driver/Src/stm32f0xx_hal_pcd.c ****   
 320:Drivers/STM32F0xx_HAL_Driver/Src/stm32f0xx_hal_pcd.c ****   __HAL_UNLOCK(hpcd); 
 564              		.loc 1 320 0 discriminator 2
 565 0040 7A68     		ldr	r2, [r7, #4]
 566 0042 F423     		movs	r3, #244
 567 0044 5B00     		lsls	r3, r3, #1
 568 0046 0021     		movs	r1, #0
 569 0048 D154     		strb	r1, [r2, r3]
 321:Drivers/STM32F0xx_HAL_Driver/Src/stm32f0xx_hal_pcd.c ****   return HAL_OK;
 570              		.loc 1 321 0 discriminator 2
 571 004a 0023     		movs	r3, #0
 572              	.L20:
 322:Drivers/STM32F0xx_HAL_Driver/Src/stm32f0xx_hal_pcd.c **** }
 573              		.loc 1 322 0
 574 004c 1800     		movs	r0, r3
 575 004e BD46     		mov	sp, r7
 576 0050 02B0     		add	sp, sp, #8
 577              		@ sp needed
 578 0052 80BD     		pop	{r7, pc}
 579              		.cfi_endproc
 580              	.LFE40:
 582              		.section	.text.HAL_PCD_IRQHandler,"ax",%progbits
 583              		.align	1
 584              		.global	HAL_PCD_IRQHandler
 585              		.syntax unified
 586              		.code	16
 587              		.thumb_func
 588              		.fpu softvfp
 590              	HAL_PCD_IRQHandler:
 591              	.LFB41:
 323:Drivers/STM32F0xx_HAL_Driver/Src/stm32f0xx_hal_pcd.c **** 
 324:Drivers/STM32F0xx_HAL_Driver/Src/stm32f0xx_hal_pcd.c **** /**
 325:Drivers/STM32F0xx_HAL_Driver/Src/stm32f0xx_hal_pcd.c ****   * @brief  This function handles PCD interrupt request.
 326:Drivers/STM32F0xx_HAL_Driver/Src/stm32f0xx_hal_pcd.c ****   * @param  hpcd: PCD handle
 327:Drivers/STM32F0xx_HAL_Driver/Src/stm32f0xx_hal_pcd.c ****   * @retval HAL status
 328:Drivers/STM32F0xx_HAL_Driver/Src/stm32f0xx_hal_pcd.c ****   */
 329:Drivers/STM32F0xx_HAL_Driver/Src/stm32f0xx_hal_pcd.c **** void HAL_PCD_IRQHandler(PCD_HandleTypeDef *hpcd)
 330:Drivers/STM32F0xx_HAL_Driver/Src/stm32f0xx_hal_pcd.c **** {
ARM GAS  /tmp/cczZJmfg.s 			page 17


 592              		.loc 1 330 0
 593              		.cfi_startproc
 594 0000 80B5     		push	{r7, lr}
 595              	.LCFI18:
 596              		.cfi_def_cfa_offset 8
 597              		.cfi_offset 7, -8
 598              		.cfi_offset 14, -4
 599 0002 84B0     		sub	sp, sp, #16
 600              	.LCFI19:
 601              		.cfi_def_cfa_offset 24
 602 0004 00AF     		add	r7, sp, #0
 603              	.LCFI20:
 604              		.cfi_def_cfa_register 7
 605 0006 7860     		str	r0, [r7, #4]
 331:Drivers/STM32F0xx_HAL_Driver/Src/stm32f0xx_hal_pcd.c ****   uint32_t wInterrupt_Mask = 0;
 606              		.loc 1 331 0
 607 0008 0023     		movs	r3, #0
 608 000a FB60     		str	r3, [r7, #12]
 332:Drivers/STM32F0xx_HAL_Driver/Src/stm32f0xx_hal_pcd.c ****   
 333:Drivers/STM32F0xx_HAL_Driver/Src/stm32f0xx_hal_pcd.c ****   if (__HAL_PCD_GET_FLAG (hpcd, USB_ISTR_CTR))
 609              		.loc 1 333 0
 610 000c 7B68     		ldr	r3, [r7, #4]
 611 000e 1B68     		ldr	r3, [r3]
 612 0010 4422     		movs	r2, #68
 613 0012 9B5A     		ldrh	r3, [r3, r2]
 614 0014 9BB2     		uxth	r3, r3
 615 0016 1A00     		movs	r2, r3
 616 0018 8023     		movs	r3, #128
 617 001a 1B02     		lsls	r3, r3, #8
 618 001c 1A40     		ands	r2, r3
 619 001e 8023     		movs	r3, #128
 620 0020 1B02     		lsls	r3, r3, #8
 621 0022 9A42     		cmp	r2, r3
 622 0024 03D1     		bne	.L22
 334:Drivers/STM32F0xx_HAL_Driver/Src/stm32f0xx_hal_pcd.c ****   {
 335:Drivers/STM32F0xx_HAL_Driver/Src/stm32f0xx_hal_pcd.c ****     /* servicing of the endpoint correct transfer interrupt */
 336:Drivers/STM32F0xx_HAL_Driver/Src/stm32f0xx_hal_pcd.c ****     /* clear of the CTR flag into the sub */
 337:Drivers/STM32F0xx_HAL_Driver/Src/stm32f0xx_hal_pcd.c ****     PCD_EP_ISR_Handler(hpcd);
 623              		.loc 1 337 0
 624 0026 7B68     		ldr	r3, [r7, #4]
 625 0028 1800     		movs	r0, r3
 626 002a FFF7FEFF 		bl	PCD_EP_ISR_Handler
 627              	.L22:
 338:Drivers/STM32F0xx_HAL_Driver/Src/stm32f0xx_hal_pcd.c ****   }
 339:Drivers/STM32F0xx_HAL_Driver/Src/stm32f0xx_hal_pcd.c **** 
 340:Drivers/STM32F0xx_HAL_Driver/Src/stm32f0xx_hal_pcd.c ****   if (__HAL_PCD_GET_FLAG (hpcd, USB_ISTR_RESET))
 628              		.loc 1 340 0
 629 002e 7B68     		ldr	r3, [r7, #4]
 630 0030 1B68     		ldr	r3, [r3]
 631 0032 4422     		movs	r2, #68
 632 0034 9B5A     		ldrh	r3, [r3, r2]
 633 0036 9BB2     		uxth	r3, r3
 634 0038 1A00     		movs	r2, r3
 635 003a 8023     		movs	r3, #128
 636 003c DB00     		lsls	r3, r3, #3
 637 003e 1A40     		ands	r2, r3
 638 0040 8023     		movs	r3, #128
ARM GAS  /tmp/cczZJmfg.s 			page 18


 639 0042 DB00     		lsls	r3, r3, #3
 640 0044 9A42     		cmp	r2, r3
 641 0046 14D1     		bne	.L23
 341:Drivers/STM32F0xx_HAL_Driver/Src/stm32f0xx_hal_pcd.c ****   {
 342:Drivers/STM32F0xx_HAL_Driver/Src/stm32f0xx_hal_pcd.c ****     __HAL_PCD_CLEAR_FLAG(hpcd, USB_ISTR_RESET);
 642              		.loc 1 342 0
 643 0048 7B68     		ldr	r3, [r7, #4]
 644 004a 1A68     		ldr	r2, [r3]
 645 004c 7B68     		ldr	r3, [r7, #4]
 646 004e 1B68     		ldr	r3, [r3]
 647 0050 4421     		movs	r1, #68
 648 0052 5B5A     		ldrh	r3, [r3, r1]
 649 0054 9BB2     		uxth	r3, r3
 650 0056 7749     		ldr	r1, .L31
 651 0058 0B40     		ands	r3, r1
 652 005a 99B2     		uxth	r1, r3
 653 005c 4423     		movs	r3, #68
 654 005e D152     		strh	r1, [r2, r3]
 343:Drivers/STM32F0xx_HAL_Driver/Src/stm32f0xx_hal_pcd.c ****     HAL_PCD_ResetCallback(hpcd);
 655              		.loc 1 343 0
 656 0060 7B68     		ldr	r3, [r7, #4]
 657 0062 1800     		movs	r0, r3
 658 0064 FFF7FEFF 		bl	HAL_PCD_ResetCallback
 344:Drivers/STM32F0xx_HAL_Driver/Src/stm32f0xx_hal_pcd.c ****     HAL_PCD_SetAddress(hpcd, 0);
 659              		.loc 1 344 0
 660 0068 7B68     		ldr	r3, [r7, #4]
 661 006a 0021     		movs	r1, #0
 662 006c 1800     		movs	r0, r3
 663 006e FFF7FEFF 		bl	HAL_PCD_SetAddress
 664              	.L23:
 345:Drivers/STM32F0xx_HAL_Driver/Src/stm32f0xx_hal_pcd.c ****   }
 346:Drivers/STM32F0xx_HAL_Driver/Src/stm32f0xx_hal_pcd.c **** 
 347:Drivers/STM32F0xx_HAL_Driver/Src/stm32f0xx_hal_pcd.c ****   if (__HAL_PCD_GET_FLAG (hpcd, USB_ISTR_PMAOVR))
 665              		.loc 1 347 0
 666 0072 7B68     		ldr	r3, [r7, #4]
 667 0074 1B68     		ldr	r3, [r3]
 668 0076 4422     		movs	r2, #68
 669 0078 9B5A     		ldrh	r3, [r3, r2]
 670 007a 9BB2     		uxth	r3, r3
 671 007c 1A00     		movs	r2, r3
 672 007e 8023     		movs	r3, #128
 673 0080 DB01     		lsls	r3, r3, #7
 674 0082 1A40     		ands	r2, r3
 675 0084 8023     		movs	r3, #128
 676 0086 DB01     		lsls	r3, r3, #7
 677 0088 9A42     		cmp	r2, r3
 678 008a 0BD1     		bne	.L24
 348:Drivers/STM32F0xx_HAL_Driver/Src/stm32f0xx_hal_pcd.c ****   {
 349:Drivers/STM32F0xx_HAL_Driver/Src/stm32f0xx_hal_pcd.c ****     __HAL_PCD_CLEAR_FLAG(hpcd, USB_ISTR_PMAOVR);    
 679              		.loc 1 349 0
 680 008c 7B68     		ldr	r3, [r7, #4]
 681 008e 1A68     		ldr	r2, [r3]
 682 0090 7B68     		ldr	r3, [r7, #4]
 683 0092 1B68     		ldr	r3, [r3]
 684 0094 4421     		movs	r1, #68
 685 0096 5B5A     		ldrh	r3, [r3, r1]
 686 0098 9BB2     		uxth	r3, r3
ARM GAS  /tmp/cczZJmfg.s 			page 19


 687 009a 6749     		ldr	r1, .L31+4
 688 009c 0B40     		ands	r3, r1
 689 009e 99B2     		uxth	r1, r3
 690 00a0 4423     		movs	r3, #68
 691 00a2 D152     		strh	r1, [r2, r3]
 692              	.L24:
 350:Drivers/STM32F0xx_HAL_Driver/Src/stm32f0xx_hal_pcd.c ****   }
 351:Drivers/STM32F0xx_HAL_Driver/Src/stm32f0xx_hal_pcd.c **** 
 352:Drivers/STM32F0xx_HAL_Driver/Src/stm32f0xx_hal_pcd.c ****   if (__HAL_PCD_GET_FLAG (hpcd, USB_ISTR_ERR))
 693              		.loc 1 352 0
 694 00a4 7B68     		ldr	r3, [r7, #4]
 695 00a6 1B68     		ldr	r3, [r3]
 696 00a8 4422     		movs	r2, #68
 697 00aa 9B5A     		ldrh	r3, [r3, r2]
 698 00ac 9BB2     		uxth	r3, r3
 699 00ae 1A00     		movs	r2, r3
 700 00b0 8023     		movs	r3, #128
 701 00b2 9B01     		lsls	r3, r3, #6
 702 00b4 1A40     		ands	r2, r3
 703 00b6 8023     		movs	r3, #128
 704 00b8 9B01     		lsls	r3, r3, #6
 705 00ba 9A42     		cmp	r2, r3
 706 00bc 0BD1     		bne	.L25
 353:Drivers/STM32F0xx_HAL_Driver/Src/stm32f0xx_hal_pcd.c ****   {
 354:Drivers/STM32F0xx_HAL_Driver/Src/stm32f0xx_hal_pcd.c ****     __HAL_PCD_CLEAR_FLAG(hpcd, USB_ISTR_ERR); 
 707              		.loc 1 354 0
 708 00be 7B68     		ldr	r3, [r7, #4]
 709 00c0 1A68     		ldr	r2, [r3]
 710 00c2 7B68     		ldr	r3, [r7, #4]
 711 00c4 1B68     		ldr	r3, [r3]
 712 00c6 4421     		movs	r1, #68
 713 00c8 5B5A     		ldrh	r3, [r3, r1]
 714 00ca 9BB2     		uxth	r3, r3
 715 00cc 5B49     		ldr	r1, .L31+8
 716 00ce 0B40     		ands	r3, r1
 717 00d0 99B2     		uxth	r1, r3
 718 00d2 4423     		movs	r3, #68
 719 00d4 D152     		strh	r1, [r2, r3]
 720              	.L25:
 355:Drivers/STM32F0xx_HAL_Driver/Src/stm32f0xx_hal_pcd.c ****   }
 356:Drivers/STM32F0xx_HAL_Driver/Src/stm32f0xx_hal_pcd.c **** 
 357:Drivers/STM32F0xx_HAL_Driver/Src/stm32f0xx_hal_pcd.c ****   if (__HAL_PCD_GET_FLAG (hpcd, USB_ISTR_WKUP))
 721              		.loc 1 357 0
 722 00d6 7B68     		ldr	r3, [r7, #4]
 723 00d8 1B68     		ldr	r3, [r3]
 724 00da 4422     		movs	r2, #68
 725 00dc 9B5A     		ldrh	r3, [r3, r2]
 726 00de 9BB2     		uxth	r3, r3
 727 00e0 1A00     		movs	r2, r3
 728 00e2 8023     		movs	r3, #128
 729 00e4 5B01     		lsls	r3, r3, #5
 730 00e6 1A40     		ands	r2, r3
 731 00e8 8023     		movs	r3, #128
 732 00ea 5B01     		lsls	r3, r3, #5
 733 00ec 9A42     		cmp	r2, r3
 734 00ee 24D1     		bne	.L26
 358:Drivers/STM32F0xx_HAL_Driver/Src/stm32f0xx_hal_pcd.c ****   {
ARM GAS  /tmp/cczZJmfg.s 			page 20


 359:Drivers/STM32F0xx_HAL_Driver/Src/stm32f0xx_hal_pcd.c ****     
 360:Drivers/STM32F0xx_HAL_Driver/Src/stm32f0xx_hal_pcd.c ****     hpcd->Instance->CNTR &= (uint16_t)(~(USB_CNTR_LPMODE));
 735              		.loc 1 360 0
 736 00f0 7B68     		ldr	r3, [r7, #4]
 737 00f2 1A68     		ldr	r2, [r3]
 738 00f4 7B68     		ldr	r3, [r7, #4]
 739 00f6 1B68     		ldr	r3, [r3]
 740 00f8 4021     		movs	r1, #64
 741 00fa 5B5A     		ldrh	r3, [r3, r1]
 742 00fc 9BB2     		uxth	r3, r3
 743 00fe 0421     		movs	r1, #4
 744 0100 8B43     		bics	r3, r1
 745 0102 99B2     		uxth	r1, r3
 746 0104 4023     		movs	r3, #64
 747 0106 D152     		strh	r1, [r2, r3]
 361:Drivers/STM32F0xx_HAL_Driver/Src/stm32f0xx_hal_pcd.c **** 
 362:Drivers/STM32F0xx_HAL_Driver/Src/stm32f0xx_hal_pcd.c ****     /*set wInterrupt_Mask global variable*/
 363:Drivers/STM32F0xx_HAL_Driver/Src/stm32f0xx_hal_pcd.c ****     wInterrupt_Mask = USB_CNTR_CTRM  | USB_CNTR_WKUPM | USB_CNTR_SUSPM | USB_CNTR_ERRM \
 748              		.loc 1 363 0
 749 0108 BD23     		movs	r3, #189
 750 010a 1B02     		lsls	r3, r3, #8
 751 010c FB60     		str	r3, [r7, #12]
 364:Drivers/STM32F0xx_HAL_Driver/Src/stm32f0xx_hal_pcd.c ****       | USB_CNTR_ESOFM | USB_CNTR_RESETM;
 365:Drivers/STM32F0xx_HAL_Driver/Src/stm32f0xx_hal_pcd.c ****     
 366:Drivers/STM32F0xx_HAL_Driver/Src/stm32f0xx_hal_pcd.c ****     /*Set interrupt mask*/
 367:Drivers/STM32F0xx_HAL_Driver/Src/stm32f0xx_hal_pcd.c ****     hpcd->Instance->CNTR = wInterrupt_Mask;
 752              		.loc 1 367 0
 753 010e 7B68     		ldr	r3, [r7, #4]
 754 0110 1B68     		ldr	r3, [r3]
 755 0112 FA68     		ldr	r2, [r7, #12]
 756 0114 91B2     		uxth	r1, r2
 757 0116 4022     		movs	r2, #64
 758 0118 9952     		strh	r1, [r3, r2]
 368:Drivers/STM32F0xx_HAL_Driver/Src/stm32f0xx_hal_pcd.c ****     
 369:Drivers/STM32F0xx_HAL_Driver/Src/stm32f0xx_hal_pcd.c ****     HAL_PCD_ResumeCallback(hpcd);
 759              		.loc 1 369 0
 760 011a 7B68     		ldr	r3, [r7, #4]
 761 011c 1800     		movs	r0, r3
 762 011e FFF7FEFF 		bl	HAL_PCD_ResumeCallback
 370:Drivers/STM32F0xx_HAL_Driver/Src/stm32f0xx_hal_pcd.c ****     
 371:Drivers/STM32F0xx_HAL_Driver/Src/stm32f0xx_hal_pcd.c ****     __HAL_PCD_CLEAR_FLAG(hpcd, USB_ISTR_WKUP);     
 763              		.loc 1 371 0
 764 0122 7B68     		ldr	r3, [r7, #4]
 765 0124 1A68     		ldr	r2, [r3]
 766 0126 7B68     		ldr	r3, [r7, #4]
 767 0128 1B68     		ldr	r3, [r3]
 768 012a 4421     		movs	r1, #68
 769 012c 5B5A     		ldrh	r3, [r3, r1]
 770 012e 9BB2     		uxth	r3, r3
 771 0130 4349     		ldr	r1, .L31+12
 772 0132 0B40     		ands	r3, r1
 773 0134 99B2     		uxth	r1, r3
 774 0136 4423     		movs	r3, #68
 775 0138 D152     		strh	r1, [r2, r3]
 776              	.L26:
 372:Drivers/STM32F0xx_HAL_Driver/Src/stm32f0xx_hal_pcd.c ****   }
 373:Drivers/STM32F0xx_HAL_Driver/Src/stm32f0xx_hal_pcd.c **** 
ARM GAS  /tmp/cczZJmfg.s 			page 21


 374:Drivers/STM32F0xx_HAL_Driver/Src/stm32f0xx_hal_pcd.c ****   if (__HAL_PCD_GET_FLAG (hpcd, USB_ISTR_SUSP))
 777              		.loc 1 374 0
 778 013a 7B68     		ldr	r3, [r7, #4]
 779 013c 1B68     		ldr	r3, [r3]
 780 013e 4422     		movs	r2, #68
 781 0140 9B5A     		ldrh	r3, [r3, r2]
 782 0142 9BB2     		uxth	r3, r3
 783 0144 1A00     		movs	r2, r3
 784 0146 8023     		movs	r3, #128
 785 0148 1B01     		lsls	r3, r3, #4
 786 014a 1A40     		ands	r2, r3
 787 014c 8023     		movs	r3, #128
 788 014e 1B01     		lsls	r3, r3, #4
 789 0150 9A42     		cmp	r2, r3
 790 0152 34D1     		bne	.L27
 375:Drivers/STM32F0xx_HAL_Driver/Src/stm32f0xx_hal_pcd.c ****   {    
 376:Drivers/STM32F0xx_HAL_Driver/Src/stm32f0xx_hal_pcd.c ****     /* clear of the ISTR bit must be done after setting of CNTR_FSUSP */
 377:Drivers/STM32F0xx_HAL_Driver/Src/stm32f0xx_hal_pcd.c ****     __HAL_PCD_CLEAR_FLAG(hpcd, USB_ISTR_SUSP);  
 791              		.loc 1 377 0
 792 0154 7B68     		ldr	r3, [r7, #4]
 793 0156 1A68     		ldr	r2, [r3]
 794 0158 7B68     		ldr	r3, [r7, #4]
 795 015a 1B68     		ldr	r3, [r3]
 796 015c 4421     		movs	r1, #68
 797 015e 5B5A     		ldrh	r3, [r3, r1]
 798 0160 9BB2     		uxth	r3, r3
 799 0162 3849     		ldr	r1, .L31+16
 800 0164 0B40     		ands	r3, r1
 801 0166 99B2     		uxth	r1, r3
 802 0168 4423     		movs	r3, #68
 803 016a D152     		strh	r1, [r2, r3]
 378:Drivers/STM32F0xx_HAL_Driver/Src/stm32f0xx_hal_pcd.c ****     
 379:Drivers/STM32F0xx_HAL_Driver/Src/stm32f0xx_hal_pcd.c ****     /* Force low-power mode in the macrocell */
 380:Drivers/STM32F0xx_HAL_Driver/Src/stm32f0xx_hal_pcd.c ****     hpcd->Instance->CNTR |= USB_CNTR_FSUSP;
 804              		.loc 1 380 0
 805 016c 7B68     		ldr	r3, [r7, #4]
 806 016e 1A68     		ldr	r2, [r3]
 807 0170 7B68     		ldr	r3, [r7, #4]
 808 0172 1B68     		ldr	r3, [r3]
 809 0174 4021     		movs	r1, #64
 810 0176 5B5A     		ldrh	r3, [r3, r1]
 811 0178 9BB2     		uxth	r3, r3
 812 017a 0821     		movs	r1, #8
 813 017c 0B43     		orrs	r3, r1
 814 017e 99B2     		uxth	r1, r3
 815 0180 4023     		movs	r3, #64
 816 0182 D152     		strh	r1, [r2, r3]
 381:Drivers/STM32F0xx_HAL_Driver/Src/stm32f0xx_hal_pcd.c ****     hpcd->Instance->CNTR |= USB_CNTR_LPMODE;
 817              		.loc 1 381 0
 818 0184 7B68     		ldr	r3, [r7, #4]
 819 0186 1A68     		ldr	r2, [r3]
 820 0188 7B68     		ldr	r3, [r7, #4]
 821 018a 1B68     		ldr	r3, [r3]
 822 018c 4021     		movs	r1, #64
 823 018e 5B5A     		ldrh	r3, [r3, r1]
 824 0190 9BB2     		uxth	r3, r3
 825 0192 0421     		movs	r1, #4
ARM GAS  /tmp/cczZJmfg.s 			page 22


 826 0194 0B43     		orrs	r3, r1
 827 0196 99B2     		uxth	r1, r3
 828 0198 4023     		movs	r3, #64
 829 019a D152     		strh	r1, [r2, r3]
 382:Drivers/STM32F0xx_HAL_Driver/Src/stm32f0xx_hal_pcd.c **** 
 383:Drivers/STM32F0xx_HAL_Driver/Src/stm32f0xx_hal_pcd.c ****     if (__HAL_PCD_GET_FLAG (hpcd, USB_ISTR_WKUP) == 0)
 830              		.loc 1 383 0
 831 019c 7B68     		ldr	r3, [r7, #4]
 832 019e 1B68     		ldr	r3, [r3]
 833 01a0 4422     		movs	r2, #68
 834 01a2 9B5A     		ldrh	r3, [r3, r2]
 835 01a4 9BB2     		uxth	r3, r3
 836 01a6 1A00     		movs	r2, r3
 837 01a8 8023     		movs	r3, #128
 838 01aa 5B01     		lsls	r3, r3, #5
 839 01ac 1A40     		ands	r2, r3
 840 01ae 8023     		movs	r3, #128
 841 01b0 5B01     		lsls	r3, r3, #5
 842 01b2 9A42     		cmp	r2, r3
 843 01b4 03D0     		beq	.L27
 384:Drivers/STM32F0xx_HAL_Driver/Src/stm32f0xx_hal_pcd.c ****     {
 385:Drivers/STM32F0xx_HAL_Driver/Src/stm32f0xx_hal_pcd.c ****       HAL_PCD_SuspendCallback(hpcd);
 844              		.loc 1 385 0
 845 01b6 7B68     		ldr	r3, [r7, #4]
 846 01b8 1800     		movs	r0, r3
 847 01ba FFF7FEFF 		bl	HAL_PCD_SuspendCallback
 848              	.L27:
 386:Drivers/STM32F0xx_HAL_Driver/Src/stm32f0xx_hal_pcd.c ****     }
 387:Drivers/STM32F0xx_HAL_Driver/Src/stm32f0xx_hal_pcd.c ****   }
 388:Drivers/STM32F0xx_HAL_Driver/Src/stm32f0xx_hal_pcd.c **** 
 389:Drivers/STM32F0xx_HAL_Driver/Src/stm32f0xx_hal_pcd.c ****   if (__HAL_PCD_GET_FLAG (hpcd, USB_ISTR_SOF))
 849              		.loc 1 389 0
 850 01be 7B68     		ldr	r3, [r7, #4]
 851 01c0 1B68     		ldr	r3, [r3]
 852 01c2 4422     		movs	r2, #68
 853 01c4 9B5A     		ldrh	r3, [r3, r2]
 854 01c6 9BB2     		uxth	r3, r3
 855 01c8 1A00     		movs	r2, r3
 856 01ca 8023     		movs	r3, #128
 857 01cc 9B00     		lsls	r3, r3, #2
 858 01ce 1A40     		ands	r2, r3
 859 01d0 8023     		movs	r3, #128
 860 01d2 9B00     		lsls	r3, r3, #2
 861 01d4 9A42     		cmp	r2, r3
 862 01d6 0FD1     		bne	.L28
 390:Drivers/STM32F0xx_HAL_Driver/Src/stm32f0xx_hal_pcd.c ****   {
 391:Drivers/STM32F0xx_HAL_Driver/Src/stm32f0xx_hal_pcd.c ****     __HAL_PCD_CLEAR_FLAG(hpcd, USB_ISTR_SOF); 
 863              		.loc 1 391 0
 864 01d8 7B68     		ldr	r3, [r7, #4]
 865 01da 1A68     		ldr	r2, [r3]
 866 01dc 7B68     		ldr	r3, [r7, #4]
 867 01de 1B68     		ldr	r3, [r3]
 868 01e0 4421     		movs	r1, #68
 869 01e2 5B5A     		ldrh	r3, [r3, r1]
 870 01e4 9BB2     		uxth	r3, r3
 871 01e6 1849     		ldr	r1, .L31+20
 872 01e8 0B40     		ands	r3, r1
ARM GAS  /tmp/cczZJmfg.s 			page 23


 873 01ea 99B2     		uxth	r1, r3
 874 01ec 4423     		movs	r3, #68
 875 01ee D152     		strh	r1, [r2, r3]
 392:Drivers/STM32F0xx_HAL_Driver/Src/stm32f0xx_hal_pcd.c ****     HAL_PCD_SOFCallback(hpcd);
 876              		.loc 1 392 0
 877 01f0 7B68     		ldr	r3, [r7, #4]
 878 01f2 1800     		movs	r0, r3
 879 01f4 FFF7FEFF 		bl	HAL_PCD_SOFCallback
 880              	.L28:
 393:Drivers/STM32F0xx_HAL_Driver/Src/stm32f0xx_hal_pcd.c ****   }
 394:Drivers/STM32F0xx_HAL_Driver/Src/stm32f0xx_hal_pcd.c **** 
 395:Drivers/STM32F0xx_HAL_Driver/Src/stm32f0xx_hal_pcd.c ****   if (__HAL_PCD_GET_FLAG (hpcd, USB_ISTR_ESOF))
 881              		.loc 1 395 0
 882 01f8 7B68     		ldr	r3, [r7, #4]
 883 01fa 1B68     		ldr	r3, [r3]
 884 01fc 4422     		movs	r2, #68
 885 01fe 9B5A     		ldrh	r3, [r3, r2]
 886 0200 9BB2     		uxth	r3, r3
 887 0202 1A00     		movs	r2, r3
 888 0204 8023     		movs	r3, #128
 889 0206 5B00     		lsls	r3, r3, #1
 890 0208 1A40     		ands	r2, r3
 891 020a 8023     		movs	r3, #128
 892 020c 5B00     		lsls	r3, r3, #1
 893 020e 9A42     		cmp	r2, r3
 894 0210 0BD1     		bne	.L30
 396:Drivers/STM32F0xx_HAL_Driver/Src/stm32f0xx_hal_pcd.c ****   {
 397:Drivers/STM32F0xx_HAL_Driver/Src/stm32f0xx_hal_pcd.c ****     /* clear ESOF flag in ISTR */
 398:Drivers/STM32F0xx_HAL_Driver/Src/stm32f0xx_hal_pcd.c ****     __HAL_PCD_CLEAR_FLAG(hpcd, USB_ISTR_ESOF); 
 895              		.loc 1 398 0
 896 0212 7B68     		ldr	r3, [r7, #4]
 897 0214 1A68     		ldr	r2, [r3]
 898 0216 7B68     		ldr	r3, [r7, #4]
 899 0218 1B68     		ldr	r3, [r3]
 900 021a 4421     		movs	r1, #68
 901 021c 5B5A     		ldrh	r3, [r3, r1]
 902 021e 9BB2     		uxth	r3, r3
 903 0220 0A49     		ldr	r1, .L31+24
 904 0222 0B40     		ands	r3, r1
 905 0224 99B2     		uxth	r1, r3
 906 0226 4423     		movs	r3, #68
 907 0228 D152     		strh	r1, [r2, r3]
 908              	.L30:
 399:Drivers/STM32F0xx_HAL_Driver/Src/stm32f0xx_hal_pcd.c ****   }
 400:Drivers/STM32F0xx_HAL_Driver/Src/stm32f0xx_hal_pcd.c **** }
 909              		.loc 1 400 0
 910 022a C046     		nop
 911 022c BD46     		mov	sp, r7
 912 022e 04B0     		add	sp, sp, #16
 913              		@ sp needed
 914 0230 80BD     		pop	{r7, pc}
 915              	.L32:
 916 0232 C046     		.align	2
 917              	.L31:
 918 0234 FFFBFFFF 		.word	-1025
 919 0238 FFBFFFFF 		.word	-16385
 920 023c FFDFFFFF 		.word	-8193
ARM GAS  /tmp/cczZJmfg.s 			page 24


 921 0240 FFEFFFFF 		.word	-4097
 922 0244 FFF7FFFF 		.word	-2049
 923 0248 FFFDFFFF 		.word	-513
 924 024c FFFEFFFF 		.word	-257
 925              		.cfi_endproc
 926              	.LFE41:
 928              		.section	.text.HAL_PCD_DataOutStageCallback,"ax",%progbits
 929              		.align	1
 930              		.weak	HAL_PCD_DataOutStageCallback
 931              		.syntax unified
 932              		.code	16
 933              		.thumb_func
 934              		.fpu softvfp
 936              	HAL_PCD_DataOutStageCallback:
 937              	.LFB42:
 401:Drivers/STM32F0xx_HAL_Driver/Src/stm32f0xx_hal_pcd.c **** 
 402:Drivers/STM32F0xx_HAL_Driver/Src/stm32f0xx_hal_pcd.c **** /**
 403:Drivers/STM32F0xx_HAL_Driver/Src/stm32f0xx_hal_pcd.c ****   * @brief  Data out stage callbacks
 404:Drivers/STM32F0xx_HAL_Driver/Src/stm32f0xx_hal_pcd.c ****   * @param  hpcd: PCD handle
 405:Drivers/STM32F0xx_HAL_Driver/Src/stm32f0xx_hal_pcd.c ****   * @param  epnum: endpoint number
 406:Drivers/STM32F0xx_HAL_Driver/Src/stm32f0xx_hal_pcd.c ****   * @retval None
 407:Drivers/STM32F0xx_HAL_Driver/Src/stm32f0xx_hal_pcd.c ****   */
 408:Drivers/STM32F0xx_HAL_Driver/Src/stm32f0xx_hal_pcd.c ****  __weak void HAL_PCD_DataOutStageCallback(PCD_HandleTypeDef *hpcd, uint8_t epnum)
 409:Drivers/STM32F0xx_HAL_Driver/Src/stm32f0xx_hal_pcd.c **** {
 938              		.loc 1 409 0
 939              		.cfi_startproc
 940 0000 80B5     		push	{r7, lr}
 941              	.LCFI21:
 942              		.cfi_def_cfa_offset 8
 943              		.cfi_offset 7, -8
 944              		.cfi_offset 14, -4
 945 0002 82B0     		sub	sp, sp, #8
 946              	.LCFI22:
 947              		.cfi_def_cfa_offset 16
 948 0004 00AF     		add	r7, sp, #0
 949              	.LCFI23:
 950              		.cfi_def_cfa_register 7
 951 0006 7860     		str	r0, [r7, #4]
 952 0008 0A00     		movs	r2, r1
 953 000a FB1C     		adds	r3, r7, #3
 954 000c 1A70     		strb	r2, [r3]
 410:Drivers/STM32F0xx_HAL_Driver/Src/stm32f0xx_hal_pcd.c ****   /* Prevent unused argument(s) compilation warning */
 411:Drivers/STM32F0xx_HAL_Driver/Src/stm32f0xx_hal_pcd.c ****   UNUSED(hpcd);
 412:Drivers/STM32F0xx_HAL_Driver/Src/stm32f0xx_hal_pcd.c ****   UNUSED(epnum);
 413:Drivers/STM32F0xx_HAL_Driver/Src/stm32f0xx_hal_pcd.c **** 
 414:Drivers/STM32F0xx_HAL_Driver/Src/stm32f0xx_hal_pcd.c ****   /* NOTE : This function Should not be modified, when the callback is needed,
 415:Drivers/STM32F0xx_HAL_Driver/Src/stm32f0xx_hal_pcd.c ****             the HAL_PCD_DataOutStageCallback could be implemented in the user file
 416:Drivers/STM32F0xx_HAL_Driver/Src/stm32f0xx_hal_pcd.c ****    */ 
 417:Drivers/STM32F0xx_HAL_Driver/Src/stm32f0xx_hal_pcd.c **** }
 955              		.loc 1 417 0
 956 000e C046     		nop
 957 0010 BD46     		mov	sp, r7
 958 0012 02B0     		add	sp, sp, #8
 959              		@ sp needed
 960 0014 80BD     		pop	{r7, pc}
 961              		.cfi_endproc
 962              	.LFE42:
ARM GAS  /tmp/cczZJmfg.s 			page 25


 964              		.section	.text.HAL_PCD_DataInStageCallback,"ax",%progbits
 965              		.align	1
 966              		.weak	HAL_PCD_DataInStageCallback
 967              		.syntax unified
 968              		.code	16
 969              		.thumb_func
 970              		.fpu softvfp
 972              	HAL_PCD_DataInStageCallback:
 973              	.LFB43:
 418:Drivers/STM32F0xx_HAL_Driver/Src/stm32f0xx_hal_pcd.c **** 
 419:Drivers/STM32F0xx_HAL_Driver/Src/stm32f0xx_hal_pcd.c **** /**
 420:Drivers/STM32F0xx_HAL_Driver/Src/stm32f0xx_hal_pcd.c ****   * @brief  Data IN stage callbacks
 421:Drivers/STM32F0xx_HAL_Driver/Src/stm32f0xx_hal_pcd.c ****   * @param  hpcd: PCD handle
 422:Drivers/STM32F0xx_HAL_Driver/Src/stm32f0xx_hal_pcd.c ****   * @param  epnum: endpoint number
 423:Drivers/STM32F0xx_HAL_Driver/Src/stm32f0xx_hal_pcd.c ****   * @retval None
 424:Drivers/STM32F0xx_HAL_Driver/Src/stm32f0xx_hal_pcd.c ****   */
 425:Drivers/STM32F0xx_HAL_Driver/Src/stm32f0xx_hal_pcd.c ****  __weak void HAL_PCD_DataInStageCallback(PCD_HandleTypeDef *hpcd, uint8_t epnum)
 426:Drivers/STM32F0xx_HAL_Driver/Src/stm32f0xx_hal_pcd.c **** {
 974              		.loc 1 426 0
 975              		.cfi_startproc
 976 0000 80B5     		push	{r7, lr}
 977              	.LCFI24:
 978              		.cfi_def_cfa_offset 8
 979              		.cfi_offset 7, -8
 980              		.cfi_offset 14, -4
 981 0002 82B0     		sub	sp, sp, #8
 982              	.LCFI25:
 983              		.cfi_def_cfa_offset 16
 984 0004 00AF     		add	r7, sp, #0
 985              	.LCFI26:
 986              		.cfi_def_cfa_register 7
 987 0006 7860     		str	r0, [r7, #4]
 988 0008 0A00     		movs	r2, r1
 989 000a FB1C     		adds	r3, r7, #3
 990 000c 1A70     		strb	r2, [r3]
 427:Drivers/STM32F0xx_HAL_Driver/Src/stm32f0xx_hal_pcd.c ****   /* Prevent unused argument(s) compilation warning */
 428:Drivers/STM32F0xx_HAL_Driver/Src/stm32f0xx_hal_pcd.c ****   UNUSED(hpcd);
 429:Drivers/STM32F0xx_HAL_Driver/Src/stm32f0xx_hal_pcd.c ****   UNUSED(epnum);
 430:Drivers/STM32F0xx_HAL_Driver/Src/stm32f0xx_hal_pcd.c **** 
 431:Drivers/STM32F0xx_HAL_Driver/Src/stm32f0xx_hal_pcd.c ****   /* NOTE : This function Should not be modified, when the callback is needed,
 432:Drivers/STM32F0xx_HAL_Driver/Src/stm32f0xx_hal_pcd.c ****             the HAL_PCD_DataInStageCallback could be implemented in the user file
 433:Drivers/STM32F0xx_HAL_Driver/Src/stm32f0xx_hal_pcd.c ****    */ 
 434:Drivers/STM32F0xx_HAL_Driver/Src/stm32f0xx_hal_pcd.c **** }
 991              		.loc 1 434 0
 992 000e C046     		nop
 993 0010 BD46     		mov	sp, r7
 994 0012 02B0     		add	sp, sp, #8
 995              		@ sp needed
 996 0014 80BD     		pop	{r7, pc}
 997              		.cfi_endproc
 998              	.LFE43:
 1000              		.section	.text.HAL_PCD_SetupStageCallback,"ax",%progbits
 1001              		.align	1
 1002              		.weak	HAL_PCD_SetupStageCallback
 1003              		.syntax unified
 1004              		.code	16
 1005              		.thumb_func
ARM GAS  /tmp/cczZJmfg.s 			page 26


 1006              		.fpu softvfp
 1008              	HAL_PCD_SetupStageCallback:
 1009              	.LFB44:
 435:Drivers/STM32F0xx_HAL_Driver/Src/stm32f0xx_hal_pcd.c **** /**
 436:Drivers/STM32F0xx_HAL_Driver/Src/stm32f0xx_hal_pcd.c ****   * @brief  Setup stage callback
 437:Drivers/STM32F0xx_HAL_Driver/Src/stm32f0xx_hal_pcd.c ****   * @param  hpcd: PCD handle
 438:Drivers/STM32F0xx_HAL_Driver/Src/stm32f0xx_hal_pcd.c ****   * @retval None
 439:Drivers/STM32F0xx_HAL_Driver/Src/stm32f0xx_hal_pcd.c ****   */
 440:Drivers/STM32F0xx_HAL_Driver/Src/stm32f0xx_hal_pcd.c ****  __weak void HAL_PCD_SetupStageCallback(PCD_HandleTypeDef *hpcd)
 441:Drivers/STM32F0xx_HAL_Driver/Src/stm32f0xx_hal_pcd.c **** {
 1010              		.loc 1 441 0
 1011              		.cfi_startproc
 1012 0000 80B5     		push	{r7, lr}
 1013              	.LCFI27:
 1014              		.cfi_def_cfa_offset 8
 1015              		.cfi_offset 7, -8
 1016              		.cfi_offset 14, -4
 1017 0002 82B0     		sub	sp, sp, #8
 1018              	.LCFI28:
 1019              		.cfi_def_cfa_offset 16
 1020 0004 00AF     		add	r7, sp, #0
 1021              	.LCFI29:
 1022              		.cfi_def_cfa_register 7
 1023 0006 7860     		str	r0, [r7, #4]
 442:Drivers/STM32F0xx_HAL_Driver/Src/stm32f0xx_hal_pcd.c ****   /* Prevent unused argument(s) compilation warning */
 443:Drivers/STM32F0xx_HAL_Driver/Src/stm32f0xx_hal_pcd.c ****   UNUSED(hpcd);
 444:Drivers/STM32F0xx_HAL_Driver/Src/stm32f0xx_hal_pcd.c **** 
 445:Drivers/STM32F0xx_HAL_Driver/Src/stm32f0xx_hal_pcd.c ****   /* NOTE : This function Should not be modified, when the callback is needed,
 446:Drivers/STM32F0xx_HAL_Driver/Src/stm32f0xx_hal_pcd.c ****             the HAL_PCD_SetupStageCallback could be implemented in the user file
 447:Drivers/STM32F0xx_HAL_Driver/Src/stm32f0xx_hal_pcd.c ****    */ 
 448:Drivers/STM32F0xx_HAL_Driver/Src/stm32f0xx_hal_pcd.c **** }
 1024              		.loc 1 448 0
 1025 0008 C046     		nop
 1026 000a BD46     		mov	sp, r7
 1027 000c 02B0     		add	sp, sp, #8
 1028              		@ sp needed
 1029 000e 80BD     		pop	{r7, pc}
 1030              		.cfi_endproc
 1031              	.LFE44:
 1033              		.section	.text.HAL_PCD_SOFCallback,"ax",%progbits
 1034              		.align	1
 1035              		.weak	HAL_PCD_SOFCallback
 1036              		.syntax unified
 1037              		.code	16
 1038              		.thumb_func
 1039              		.fpu softvfp
 1041              	HAL_PCD_SOFCallback:
 1042              	.LFB45:
 449:Drivers/STM32F0xx_HAL_Driver/Src/stm32f0xx_hal_pcd.c **** 
 450:Drivers/STM32F0xx_HAL_Driver/Src/stm32f0xx_hal_pcd.c **** /**
 451:Drivers/STM32F0xx_HAL_Driver/Src/stm32f0xx_hal_pcd.c ****   * @brief  USB Start Of Frame callbacks
 452:Drivers/STM32F0xx_HAL_Driver/Src/stm32f0xx_hal_pcd.c ****   * @param  hpcd: PCD handle
 453:Drivers/STM32F0xx_HAL_Driver/Src/stm32f0xx_hal_pcd.c ****   * @retval None
 454:Drivers/STM32F0xx_HAL_Driver/Src/stm32f0xx_hal_pcd.c ****   */
 455:Drivers/STM32F0xx_HAL_Driver/Src/stm32f0xx_hal_pcd.c ****  __weak void HAL_PCD_SOFCallback(PCD_HandleTypeDef *hpcd)
 456:Drivers/STM32F0xx_HAL_Driver/Src/stm32f0xx_hal_pcd.c **** {
 1043              		.loc 1 456 0
ARM GAS  /tmp/cczZJmfg.s 			page 27


 1044              		.cfi_startproc
 1045 0000 80B5     		push	{r7, lr}
 1046              	.LCFI30:
 1047              		.cfi_def_cfa_offset 8
 1048              		.cfi_offset 7, -8
 1049              		.cfi_offset 14, -4
 1050 0002 82B0     		sub	sp, sp, #8
 1051              	.LCFI31:
 1052              		.cfi_def_cfa_offset 16
 1053 0004 00AF     		add	r7, sp, #0
 1054              	.LCFI32:
 1055              		.cfi_def_cfa_register 7
 1056 0006 7860     		str	r0, [r7, #4]
 457:Drivers/STM32F0xx_HAL_Driver/Src/stm32f0xx_hal_pcd.c ****   /* Prevent unused argument(s) compilation warning */
 458:Drivers/STM32F0xx_HAL_Driver/Src/stm32f0xx_hal_pcd.c ****   UNUSED(hpcd);
 459:Drivers/STM32F0xx_HAL_Driver/Src/stm32f0xx_hal_pcd.c **** 
 460:Drivers/STM32F0xx_HAL_Driver/Src/stm32f0xx_hal_pcd.c ****   /* NOTE : This function Should not be modified, when the callback is needed,
 461:Drivers/STM32F0xx_HAL_Driver/Src/stm32f0xx_hal_pcd.c ****             the HAL_PCD_SOFCallback could be implemented in the user file
 462:Drivers/STM32F0xx_HAL_Driver/Src/stm32f0xx_hal_pcd.c ****    */ 
 463:Drivers/STM32F0xx_HAL_Driver/Src/stm32f0xx_hal_pcd.c **** }
 1057              		.loc 1 463 0
 1058 0008 C046     		nop
 1059 000a BD46     		mov	sp, r7
 1060 000c 02B0     		add	sp, sp, #8
 1061              		@ sp needed
 1062 000e 80BD     		pop	{r7, pc}
 1063              		.cfi_endproc
 1064              	.LFE45:
 1066              		.section	.text.HAL_PCD_ResetCallback,"ax",%progbits
 1067              		.align	1
 1068              		.weak	HAL_PCD_ResetCallback
 1069              		.syntax unified
 1070              		.code	16
 1071              		.thumb_func
 1072              		.fpu softvfp
 1074              	HAL_PCD_ResetCallback:
 1075              	.LFB46:
 464:Drivers/STM32F0xx_HAL_Driver/Src/stm32f0xx_hal_pcd.c **** 
 465:Drivers/STM32F0xx_HAL_Driver/Src/stm32f0xx_hal_pcd.c **** /**
 466:Drivers/STM32F0xx_HAL_Driver/Src/stm32f0xx_hal_pcd.c ****   * @brief  USB Reset callbacks
 467:Drivers/STM32F0xx_HAL_Driver/Src/stm32f0xx_hal_pcd.c ****   * @param  hpcd: PCD handle
 468:Drivers/STM32F0xx_HAL_Driver/Src/stm32f0xx_hal_pcd.c ****   * @retval None
 469:Drivers/STM32F0xx_HAL_Driver/Src/stm32f0xx_hal_pcd.c ****   */
 470:Drivers/STM32F0xx_HAL_Driver/Src/stm32f0xx_hal_pcd.c ****  __weak void HAL_PCD_ResetCallback(PCD_HandleTypeDef *hpcd)
 471:Drivers/STM32F0xx_HAL_Driver/Src/stm32f0xx_hal_pcd.c **** {
 1076              		.loc 1 471 0
 1077              		.cfi_startproc
 1078 0000 80B5     		push	{r7, lr}
 1079              	.LCFI33:
 1080              		.cfi_def_cfa_offset 8
 1081              		.cfi_offset 7, -8
 1082              		.cfi_offset 14, -4
 1083 0002 82B0     		sub	sp, sp, #8
 1084              	.LCFI34:
 1085              		.cfi_def_cfa_offset 16
 1086 0004 00AF     		add	r7, sp, #0
 1087              	.LCFI35:
ARM GAS  /tmp/cczZJmfg.s 			page 28


 1088              		.cfi_def_cfa_register 7
 1089 0006 7860     		str	r0, [r7, #4]
 472:Drivers/STM32F0xx_HAL_Driver/Src/stm32f0xx_hal_pcd.c ****   /* Prevent unused argument(s) compilation warning */
 473:Drivers/STM32F0xx_HAL_Driver/Src/stm32f0xx_hal_pcd.c ****   UNUSED(hpcd);
 474:Drivers/STM32F0xx_HAL_Driver/Src/stm32f0xx_hal_pcd.c **** 
 475:Drivers/STM32F0xx_HAL_Driver/Src/stm32f0xx_hal_pcd.c ****   /* NOTE : This function Should not be modified, when the callback is needed,
 476:Drivers/STM32F0xx_HAL_Driver/Src/stm32f0xx_hal_pcd.c ****             the HAL_PCD_ResetCallback could be implemented in the user file
 477:Drivers/STM32F0xx_HAL_Driver/Src/stm32f0xx_hal_pcd.c ****    */ 
 478:Drivers/STM32F0xx_HAL_Driver/Src/stm32f0xx_hal_pcd.c **** }
 1090              		.loc 1 478 0
 1091 0008 C046     		nop
 1092 000a BD46     		mov	sp, r7
 1093 000c 02B0     		add	sp, sp, #8
 1094              		@ sp needed
 1095 000e 80BD     		pop	{r7, pc}
 1096              		.cfi_endproc
 1097              	.LFE46:
 1099              		.section	.text.HAL_PCD_SuspendCallback,"ax",%progbits
 1100              		.align	1
 1101              		.weak	HAL_PCD_SuspendCallback
 1102              		.syntax unified
 1103              		.code	16
 1104              		.thumb_func
 1105              		.fpu softvfp
 1107              	HAL_PCD_SuspendCallback:
 1108              	.LFB47:
 479:Drivers/STM32F0xx_HAL_Driver/Src/stm32f0xx_hal_pcd.c **** 
 480:Drivers/STM32F0xx_HAL_Driver/Src/stm32f0xx_hal_pcd.c **** /**
 481:Drivers/STM32F0xx_HAL_Driver/Src/stm32f0xx_hal_pcd.c ****   * @brief  Suspend event callbacks
 482:Drivers/STM32F0xx_HAL_Driver/Src/stm32f0xx_hal_pcd.c ****   * @param  hpcd: PCD handle
 483:Drivers/STM32F0xx_HAL_Driver/Src/stm32f0xx_hal_pcd.c ****   * @retval None
 484:Drivers/STM32F0xx_HAL_Driver/Src/stm32f0xx_hal_pcd.c ****   */
 485:Drivers/STM32F0xx_HAL_Driver/Src/stm32f0xx_hal_pcd.c ****  __weak void HAL_PCD_SuspendCallback(PCD_HandleTypeDef *hpcd)
 486:Drivers/STM32F0xx_HAL_Driver/Src/stm32f0xx_hal_pcd.c **** {
 1109              		.loc 1 486 0
 1110              		.cfi_startproc
 1111 0000 80B5     		push	{r7, lr}
 1112              	.LCFI36:
 1113              		.cfi_def_cfa_offset 8
 1114              		.cfi_offset 7, -8
 1115              		.cfi_offset 14, -4
 1116 0002 82B0     		sub	sp, sp, #8
 1117              	.LCFI37:
 1118              		.cfi_def_cfa_offset 16
 1119 0004 00AF     		add	r7, sp, #0
 1120              	.LCFI38:
 1121              		.cfi_def_cfa_register 7
 1122 0006 7860     		str	r0, [r7, #4]
 487:Drivers/STM32F0xx_HAL_Driver/Src/stm32f0xx_hal_pcd.c ****   /* Prevent unused argument(s) compilation warning */
 488:Drivers/STM32F0xx_HAL_Driver/Src/stm32f0xx_hal_pcd.c ****   UNUSED(hpcd);
 489:Drivers/STM32F0xx_HAL_Driver/Src/stm32f0xx_hal_pcd.c **** 
 490:Drivers/STM32F0xx_HAL_Driver/Src/stm32f0xx_hal_pcd.c ****   /* NOTE : This function Should not be modified, when the callback is needed,
 491:Drivers/STM32F0xx_HAL_Driver/Src/stm32f0xx_hal_pcd.c ****             the HAL_PCD_SuspendCallback could be implemented in the user file
 492:Drivers/STM32F0xx_HAL_Driver/Src/stm32f0xx_hal_pcd.c ****    */ 
 493:Drivers/STM32F0xx_HAL_Driver/Src/stm32f0xx_hal_pcd.c **** }
 1123              		.loc 1 493 0
 1124 0008 C046     		nop
ARM GAS  /tmp/cczZJmfg.s 			page 29


 1125 000a BD46     		mov	sp, r7
 1126 000c 02B0     		add	sp, sp, #8
 1127              		@ sp needed
 1128 000e 80BD     		pop	{r7, pc}
 1129              		.cfi_endproc
 1130              	.LFE47:
 1132              		.section	.text.HAL_PCD_ResumeCallback,"ax",%progbits
 1133              		.align	1
 1134              		.weak	HAL_PCD_ResumeCallback
 1135              		.syntax unified
 1136              		.code	16
 1137              		.thumb_func
 1138              		.fpu softvfp
 1140              	HAL_PCD_ResumeCallback:
 1141              	.LFB48:
 494:Drivers/STM32F0xx_HAL_Driver/Src/stm32f0xx_hal_pcd.c **** 
 495:Drivers/STM32F0xx_HAL_Driver/Src/stm32f0xx_hal_pcd.c **** /**
 496:Drivers/STM32F0xx_HAL_Driver/Src/stm32f0xx_hal_pcd.c ****   * @brief  Resume event callbacks
 497:Drivers/STM32F0xx_HAL_Driver/Src/stm32f0xx_hal_pcd.c ****   * @param  hpcd: PCD handle
 498:Drivers/STM32F0xx_HAL_Driver/Src/stm32f0xx_hal_pcd.c ****   * @retval None
 499:Drivers/STM32F0xx_HAL_Driver/Src/stm32f0xx_hal_pcd.c ****   */
 500:Drivers/STM32F0xx_HAL_Driver/Src/stm32f0xx_hal_pcd.c ****  __weak void HAL_PCD_ResumeCallback(PCD_HandleTypeDef *hpcd)
 501:Drivers/STM32F0xx_HAL_Driver/Src/stm32f0xx_hal_pcd.c **** {
 1142              		.loc 1 501 0
 1143              		.cfi_startproc
 1144 0000 80B5     		push	{r7, lr}
 1145              	.LCFI39:
 1146              		.cfi_def_cfa_offset 8
 1147              		.cfi_offset 7, -8
 1148              		.cfi_offset 14, -4
 1149 0002 82B0     		sub	sp, sp, #8
 1150              	.LCFI40:
 1151              		.cfi_def_cfa_offset 16
 1152 0004 00AF     		add	r7, sp, #0
 1153              	.LCFI41:
 1154              		.cfi_def_cfa_register 7
 1155 0006 7860     		str	r0, [r7, #4]
 502:Drivers/STM32F0xx_HAL_Driver/Src/stm32f0xx_hal_pcd.c ****   /* Prevent unused argument(s) compilation warning */
 503:Drivers/STM32F0xx_HAL_Driver/Src/stm32f0xx_hal_pcd.c ****   UNUSED(hpcd);
 504:Drivers/STM32F0xx_HAL_Driver/Src/stm32f0xx_hal_pcd.c **** 
 505:Drivers/STM32F0xx_HAL_Driver/Src/stm32f0xx_hal_pcd.c ****   /* NOTE : This function Should not be modified, when the callback is needed,
 506:Drivers/STM32F0xx_HAL_Driver/Src/stm32f0xx_hal_pcd.c ****             the HAL_PCD_ResumeCallback could be implemented in the user file
 507:Drivers/STM32F0xx_HAL_Driver/Src/stm32f0xx_hal_pcd.c ****    */ 
 508:Drivers/STM32F0xx_HAL_Driver/Src/stm32f0xx_hal_pcd.c **** }
 1156              		.loc 1 508 0
 1157 0008 C046     		nop
 1158 000a BD46     		mov	sp, r7
 1159 000c 02B0     		add	sp, sp, #8
 1160              		@ sp needed
 1161 000e 80BD     		pop	{r7, pc}
 1162              		.cfi_endproc
 1163              	.LFE48:
 1165              		.section	.text.HAL_PCD_ISOOUTIncompleteCallback,"ax",%progbits
 1166              		.align	1
 1167              		.weak	HAL_PCD_ISOOUTIncompleteCallback
 1168              		.syntax unified
 1169              		.code	16
ARM GAS  /tmp/cczZJmfg.s 			page 30


 1170              		.thumb_func
 1171              		.fpu softvfp
 1173              	HAL_PCD_ISOOUTIncompleteCallback:
 1174              	.LFB49:
 509:Drivers/STM32F0xx_HAL_Driver/Src/stm32f0xx_hal_pcd.c **** 
 510:Drivers/STM32F0xx_HAL_Driver/Src/stm32f0xx_hal_pcd.c **** /**
 511:Drivers/STM32F0xx_HAL_Driver/Src/stm32f0xx_hal_pcd.c ****   * @brief  Incomplete ISO OUT callbacks
 512:Drivers/STM32F0xx_HAL_Driver/Src/stm32f0xx_hal_pcd.c ****   * @param  hpcd: PCD handle
 513:Drivers/STM32F0xx_HAL_Driver/Src/stm32f0xx_hal_pcd.c ****   * @param  epnum: endpoint number
 514:Drivers/STM32F0xx_HAL_Driver/Src/stm32f0xx_hal_pcd.c ****   * @retval None
 515:Drivers/STM32F0xx_HAL_Driver/Src/stm32f0xx_hal_pcd.c ****   */
 516:Drivers/STM32F0xx_HAL_Driver/Src/stm32f0xx_hal_pcd.c ****  __weak void HAL_PCD_ISOOUTIncompleteCallback(PCD_HandleTypeDef *hpcd, uint8_t epnum)
 517:Drivers/STM32F0xx_HAL_Driver/Src/stm32f0xx_hal_pcd.c **** {
 1175              		.loc 1 517 0
 1176              		.cfi_startproc
 1177 0000 80B5     		push	{r7, lr}
 1178              	.LCFI42:
 1179              		.cfi_def_cfa_offset 8
 1180              		.cfi_offset 7, -8
 1181              		.cfi_offset 14, -4
 1182 0002 82B0     		sub	sp, sp, #8
 1183              	.LCFI43:
 1184              		.cfi_def_cfa_offset 16
 1185 0004 00AF     		add	r7, sp, #0
 1186              	.LCFI44:
 1187              		.cfi_def_cfa_register 7
 1188 0006 7860     		str	r0, [r7, #4]
 1189 0008 0A00     		movs	r2, r1
 1190 000a FB1C     		adds	r3, r7, #3
 1191 000c 1A70     		strb	r2, [r3]
 518:Drivers/STM32F0xx_HAL_Driver/Src/stm32f0xx_hal_pcd.c ****   /* Prevent unused argument(s) compilation warning */
 519:Drivers/STM32F0xx_HAL_Driver/Src/stm32f0xx_hal_pcd.c ****   UNUSED(hpcd);
 520:Drivers/STM32F0xx_HAL_Driver/Src/stm32f0xx_hal_pcd.c ****   UNUSED(epnum);
 521:Drivers/STM32F0xx_HAL_Driver/Src/stm32f0xx_hal_pcd.c **** 
 522:Drivers/STM32F0xx_HAL_Driver/Src/stm32f0xx_hal_pcd.c ****   /* NOTE : This function Should not be modified, when the callback is needed,
 523:Drivers/STM32F0xx_HAL_Driver/Src/stm32f0xx_hal_pcd.c ****             the HAL_PCD_ISOOUTIncompleteCallback could be implemented in the user file
 524:Drivers/STM32F0xx_HAL_Driver/Src/stm32f0xx_hal_pcd.c ****    */ 
 525:Drivers/STM32F0xx_HAL_Driver/Src/stm32f0xx_hal_pcd.c **** }
 1192              		.loc 1 525 0
 1193 000e C046     		nop
 1194 0010 BD46     		mov	sp, r7
 1195 0012 02B0     		add	sp, sp, #8
 1196              		@ sp needed
 1197 0014 80BD     		pop	{r7, pc}
 1198              		.cfi_endproc
 1199              	.LFE49:
 1201              		.section	.text.HAL_PCD_ISOINIncompleteCallback,"ax",%progbits
 1202              		.align	1
 1203              		.weak	HAL_PCD_ISOINIncompleteCallback
 1204              		.syntax unified
 1205              		.code	16
 1206              		.thumb_func
 1207              		.fpu softvfp
 1209              	HAL_PCD_ISOINIncompleteCallback:
 1210              	.LFB50:
 526:Drivers/STM32F0xx_HAL_Driver/Src/stm32f0xx_hal_pcd.c **** 
 527:Drivers/STM32F0xx_HAL_Driver/Src/stm32f0xx_hal_pcd.c **** /**
ARM GAS  /tmp/cczZJmfg.s 			page 31


 528:Drivers/STM32F0xx_HAL_Driver/Src/stm32f0xx_hal_pcd.c ****   * @brief  Incomplete ISO IN  callbacks
 529:Drivers/STM32F0xx_HAL_Driver/Src/stm32f0xx_hal_pcd.c ****   * @param  hpcd: PCD handle
 530:Drivers/STM32F0xx_HAL_Driver/Src/stm32f0xx_hal_pcd.c ****   * @param  epnum: endpoint number
 531:Drivers/STM32F0xx_HAL_Driver/Src/stm32f0xx_hal_pcd.c ****   * @retval None
 532:Drivers/STM32F0xx_HAL_Driver/Src/stm32f0xx_hal_pcd.c ****   */
 533:Drivers/STM32F0xx_HAL_Driver/Src/stm32f0xx_hal_pcd.c ****  __weak void HAL_PCD_ISOINIncompleteCallback(PCD_HandleTypeDef *hpcd, uint8_t epnum)
 534:Drivers/STM32F0xx_HAL_Driver/Src/stm32f0xx_hal_pcd.c **** {
 1211              		.loc 1 534 0
 1212              		.cfi_startproc
 1213 0000 80B5     		push	{r7, lr}
 1214              	.LCFI45:
 1215              		.cfi_def_cfa_offset 8
 1216              		.cfi_offset 7, -8
 1217              		.cfi_offset 14, -4
 1218 0002 82B0     		sub	sp, sp, #8
 1219              	.LCFI46:
 1220              		.cfi_def_cfa_offset 16
 1221 0004 00AF     		add	r7, sp, #0
 1222              	.LCFI47:
 1223              		.cfi_def_cfa_register 7
 1224 0006 7860     		str	r0, [r7, #4]
 1225 0008 0A00     		movs	r2, r1
 1226 000a FB1C     		adds	r3, r7, #3
 1227 000c 1A70     		strb	r2, [r3]
 535:Drivers/STM32F0xx_HAL_Driver/Src/stm32f0xx_hal_pcd.c ****   /* Prevent unused argument(s) compilation warning */
 536:Drivers/STM32F0xx_HAL_Driver/Src/stm32f0xx_hal_pcd.c ****   UNUSED(hpcd);
 537:Drivers/STM32F0xx_HAL_Driver/Src/stm32f0xx_hal_pcd.c ****   UNUSED(epnum);
 538:Drivers/STM32F0xx_HAL_Driver/Src/stm32f0xx_hal_pcd.c **** 
 539:Drivers/STM32F0xx_HAL_Driver/Src/stm32f0xx_hal_pcd.c ****   /* NOTE : This function Should not be modified, when the callback is needed,
 540:Drivers/STM32F0xx_HAL_Driver/Src/stm32f0xx_hal_pcd.c ****             the HAL_PCD_ISOINIncompleteCallback could be implemented in the user file
 541:Drivers/STM32F0xx_HAL_Driver/Src/stm32f0xx_hal_pcd.c ****    */ 
 542:Drivers/STM32F0xx_HAL_Driver/Src/stm32f0xx_hal_pcd.c **** }
 1228              		.loc 1 542 0
 1229 000e C046     		nop
 1230 0010 BD46     		mov	sp, r7
 1231 0012 02B0     		add	sp, sp, #8
 1232              		@ sp needed
 1233 0014 80BD     		pop	{r7, pc}
 1234              		.cfi_endproc
 1235              	.LFE50:
 1237              		.section	.text.HAL_PCD_ConnectCallback,"ax",%progbits
 1238              		.align	1
 1239              		.weak	HAL_PCD_ConnectCallback
 1240              		.syntax unified
 1241              		.code	16
 1242              		.thumb_func
 1243              		.fpu softvfp
 1245              	HAL_PCD_ConnectCallback:
 1246              	.LFB51:
 543:Drivers/STM32F0xx_HAL_Driver/Src/stm32f0xx_hal_pcd.c **** 
 544:Drivers/STM32F0xx_HAL_Driver/Src/stm32f0xx_hal_pcd.c **** /**
 545:Drivers/STM32F0xx_HAL_Driver/Src/stm32f0xx_hal_pcd.c ****   * @brief  Connection event callbacks
 546:Drivers/STM32F0xx_HAL_Driver/Src/stm32f0xx_hal_pcd.c ****   * @param  hpcd: PCD handle
 547:Drivers/STM32F0xx_HAL_Driver/Src/stm32f0xx_hal_pcd.c ****   * @retval None
 548:Drivers/STM32F0xx_HAL_Driver/Src/stm32f0xx_hal_pcd.c ****   */
 549:Drivers/STM32F0xx_HAL_Driver/Src/stm32f0xx_hal_pcd.c ****  __weak void HAL_PCD_ConnectCallback(PCD_HandleTypeDef *hpcd)
 550:Drivers/STM32F0xx_HAL_Driver/Src/stm32f0xx_hal_pcd.c **** {
ARM GAS  /tmp/cczZJmfg.s 			page 32


 1247              		.loc 1 550 0
 1248              		.cfi_startproc
 1249 0000 80B5     		push	{r7, lr}
 1250              	.LCFI48:
 1251              		.cfi_def_cfa_offset 8
 1252              		.cfi_offset 7, -8
 1253              		.cfi_offset 14, -4
 1254 0002 82B0     		sub	sp, sp, #8
 1255              	.LCFI49:
 1256              		.cfi_def_cfa_offset 16
 1257 0004 00AF     		add	r7, sp, #0
 1258              	.LCFI50:
 1259              		.cfi_def_cfa_register 7
 1260 0006 7860     		str	r0, [r7, #4]
 551:Drivers/STM32F0xx_HAL_Driver/Src/stm32f0xx_hal_pcd.c ****   /* Prevent unused argument(s) compilation warning */
 552:Drivers/STM32F0xx_HAL_Driver/Src/stm32f0xx_hal_pcd.c ****   UNUSED(hpcd);
 553:Drivers/STM32F0xx_HAL_Driver/Src/stm32f0xx_hal_pcd.c **** 
 554:Drivers/STM32F0xx_HAL_Driver/Src/stm32f0xx_hal_pcd.c ****   /* NOTE : This function Should not be modified, when the callback is needed,
 555:Drivers/STM32F0xx_HAL_Driver/Src/stm32f0xx_hal_pcd.c ****             the HAL_PCD_ConnectCallback could be implemented in the user file
 556:Drivers/STM32F0xx_HAL_Driver/Src/stm32f0xx_hal_pcd.c ****    */ 
 557:Drivers/STM32F0xx_HAL_Driver/Src/stm32f0xx_hal_pcd.c **** }
 1261              		.loc 1 557 0
 1262 0008 C046     		nop
 1263 000a BD46     		mov	sp, r7
 1264 000c 02B0     		add	sp, sp, #8
 1265              		@ sp needed
 1266 000e 80BD     		pop	{r7, pc}
 1267              		.cfi_endproc
 1268              	.LFE51:
 1270              		.section	.text.HAL_PCD_DisconnectCallback,"ax",%progbits
 1271              		.align	1
 1272              		.weak	HAL_PCD_DisconnectCallback
 1273              		.syntax unified
 1274              		.code	16
 1275              		.thumb_func
 1276              		.fpu softvfp
 1278              	HAL_PCD_DisconnectCallback:
 1279              	.LFB52:
 558:Drivers/STM32F0xx_HAL_Driver/Src/stm32f0xx_hal_pcd.c **** 
 559:Drivers/STM32F0xx_HAL_Driver/Src/stm32f0xx_hal_pcd.c **** /**
 560:Drivers/STM32F0xx_HAL_Driver/Src/stm32f0xx_hal_pcd.c ****   * @brief  Disconnection event callbacks
 561:Drivers/STM32F0xx_HAL_Driver/Src/stm32f0xx_hal_pcd.c ****   * @param  hpcd: PCD handle
 562:Drivers/STM32F0xx_HAL_Driver/Src/stm32f0xx_hal_pcd.c ****   * @retval None
 563:Drivers/STM32F0xx_HAL_Driver/Src/stm32f0xx_hal_pcd.c ****   */
 564:Drivers/STM32F0xx_HAL_Driver/Src/stm32f0xx_hal_pcd.c ****  __weak void HAL_PCD_DisconnectCallback(PCD_HandleTypeDef *hpcd)
 565:Drivers/STM32F0xx_HAL_Driver/Src/stm32f0xx_hal_pcd.c **** {
 1280              		.loc 1 565 0
 1281              		.cfi_startproc
 1282 0000 80B5     		push	{r7, lr}
 1283              	.LCFI51:
 1284              		.cfi_def_cfa_offset 8
 1285              		.cfi_offset 7, -8
 1286              		.cfi_offset 14, -4
 1287 0002 82B0     		sub	sp, sp, #8
 1288              	.LCFI52:
 1289              		.cfi_def_cfa_offset 16
 1290 0004 00AF     		add	r7, sp, #0
ARM GAS  /tmp/cczZJmfg.s 			page 33


 1291              	.LCFI53:
 1292              		.cfi_def_cfa_register 7
 1293 0006 7860     		str	r0, [r7, #4]
 566:Drivers/STM32F0xx_HAL_Driver/Src/stm32f0xx_hal_pcd.c ****   /* Prevent unused argument(s) compilation warning */
 567:Drivers/STM32F0xx_HAL_Driver/Src/stm32f0xx_hal_pcd.c ****   UNUSED(hpcd);
 568:Drivers/STM32F0xx_HAL_Driver/Src/stm32f0xx_hal_pcd.c **** 
 569:Drivers/STM32F0xx_HAL_Driver/Src/stm32f0xx_hal_pcd.c ****   /* NOTE : This function Should not be modified, when the callback is needed,
 570:Drivers/STM32F0xx_HAL_Driver/Src/stm32f0xx_hal_pcd.c ****             the HAL_PCD_DisconnectCallback could be implemented in the user file
 571:Drivers/STM32F0xx_HAL_Driver/Src/stm32f0xx_hal_pcd.c ****    */ 
 572:Drivers/STM32F0xx_HAL_Driver/Src/stm32f0xx_hal_pcd.c **** }
 1294              		.loc 1 572 0
 1295 0008 C046     		nop
 1296 000a BD46     		mov	sp, r7
 1297 000c 02B0     		add	sp, sp, #8
 1298              		@ sp needed
 1299 000e 80BD     		pop	{r7, pc}
 1300              		.cfi_endproc
 1301              	.LFE52:
 1303              		.section	.text.HAL_PCD_DevConnect,"ax",%progbits
 1304              		.align	1
 1305              		.global	HAL_PCD_DevConnect
 1306              		.syntax unified
 1307              		.code	16
 1308              		.thumb_func
 1309              		.fpu softvfp
 1311              	HAL_PCD_DevConnect:
 1312              	.LFB53:
 573:Drivers/STM32F0xx_HAL_Driver/Src/stm32f0xx_hal_pcd.c **** /**
 574:Drivers/STM32F0xx_HAL_Driver/Src/stm32f0xx_hal_pcd.c ****   * @}
 575:Drivers/STM32F0xx_HAL_Driver/Src/stm32f0xx_hal_pcd.c ****   */
 576:Drivers/STM32F0xx_HAL_Driver/Src/stm32f0xx_hal_pcd.c ****     
 577:Drivers/STM32F0xx_HAL_Driver/Src/stm32f0xx_hal_pcd.c **** /** @defgroup PCD_Exported_Functions_Group3 Peripheral Control functions 
 578:Drivers/STM32F0xx_HAL_Driver/Src/stm32f0xx_hal_pcd.c ****  *  @brief   management functions 
 579:Drivers/STM32F0xx_HAL_Driver/Src/stm32f0xx_hal_pcd.c ****  *
 580:Drivers/STM32F0xx_HAL_Driver/Src/stm32f0xx_hal_pcd.c **** @verbatim   
 581:Drivers/STM32F0xx_HAL_Driver/Src/stm32f0xx_hal_pcd.c ****  ===============================================================================
 582:Drivers/STM32F0xx_HAL_Driver/Src/stm32f0xx_hal_pcd.c ****                       ##### Peripheral Control functions #####
 583:Drivers/STM32F0xx_HAL_Driver/Src/stm32f0xx_hal_pcd.c ****  ===============================================================================  
 584:Drivers/STM32F0xx_HAL_Driver/Src/stm32f0xx_hal_pcd.c ****     [..]
 585:Drivers/STM32F0xx_HAL_Driver/Src/stm32f0xx_hal_pcd.c ****     This subsection provides a set of functions allowing to control the PCD data 
 586:Drivers/STM32F0xx_HAL_Driver/Src/stm32f0xx_hal_pcd.c ****     transfers.
 587:Drivers/STM32F0xx_HAL_Driver/Src/stm32f0xx_hal_pcd.c **** 
 588:Drivers/STM32F0xx_HAL_Driver/Src/stm32f0xx_hal_pcd.c **** @endverbatim
 589:Drivers/STM32F0xx_HAL_Driver/Src/stm32f0xx_hal_pcd.c ****   * @{
 590:Drivers/STM32F0xx_HAL_Driver/Src/stm32f0xx_hal_pcd.c ****   */
 591:Drivers/STM32F0xx_HAL_Driver/Src/stm32f0xx_hal_pcd.c **** 
 592:Drivers/STM32F0xx_HAL_Driver/Src/stm32f0xx_hal_pcd.c **** /**
 593:Drivers/STM32F0xx_HAL_Driver/Src/stm32f0xx_hal_pcd.c ****   * @brief  Connect the USB device 
 594:Drivers/STM32F0xx_HAL_Driver/Src/stm32f0xx_hal_pcd.c ****   * @param  hpcd: PCD handle
 595:Drivers/STM32F0xx_HAL_Driver/Src/stm32f0xx_hal_pcd.c ****   * @retval HAL status
 596:Drivers/STM32F0xx_HAL_Driver/Src/stm32f0xx_hal_pcd.c ****   */
 597:Drivers/STM32F0xx_HAL_Driver/Src/stm32f0xx_hal_pcd.c **** HAL_StatusTypeDef HAL_PCD_DevConnect(PCD_HandleTypeDef *hpcd)
 598:Drivers/STM32F0xx_HAL_Driver/Src/stm32f0xx_hal_pcd.c **** {
 1313              		.loc 1 598 0
 1314              		.cfi_startproc
 1315 0000 80B5     		push	{r7, lr}
 1316              	.LCFI54:
ARM GAS  /tmp/cczZJmfg.s 			page 34


 1317              		.cfi_def_cfa_offset 8
 1318              		.cfi_offset 7, -8
 1319              		.cfi_offset 14, -4
 1320 0002 82B0     		sub	sp, sp, #8
 1321              	.LCFI55:
 1322              		.cfi_def_cfa_offset 16
 1323 0004 00AF     		add	r7, sp, #0
 1324              	.LCFI56:
 1325              		.cfi_def_cfa_register 7
 1326 0006 7860     		str	r0, [r7, #4]
 599:Drivers/STM32F0xx_HAL_Driver/Src/stm32f0xx_hal_pcd.c ****   __HAL_LOCK(hpcd); 
 1327              		.loc 1 599 0
 1328 0008 7A68     		ldr	r2, [r7, #4]
 1329 000a F423     		movs	r3, #244
 1330 000c 5B00     		lsls	r3, r3, #1
 1331 000e D35C     		ldrb	r3, [r2, r3]
 1332 0010 012B     		cmp	r3, #1
 1333 0012 01D1     		bne	.L45
 1334              		.loc 1 599 0 is_stmt 0 discriminator 1
 1335 0014 0223     		movs	r3, #2
 1336 0016 16E0     		b	.L46
 1337              	.L45:
 1338              		.loc 1 599 0 discriminator 2
 1339 0018 7A68     		ldr	r2, [r7, #4]
 1340 001a F423     		movs	r3, #244
 1341 001c 5B00     		lsls	r3, r3, #1
 1342 001e 0121     		movs	r1, #1
 1343 0020 D154     		strb	r1, [r2, r3]
 600:Drivers/STM32F0xx_HAL_Driver/Src/stm32f0xx_hal_pcd.c ****   
 601:Drivers/STM32F0xx_HAL_Driver/Src/stm32f0xx_hal_pcd.c ****   /* Enabling DP Pull-Down bit to Connect internal pull-up on USB DP line */
 602:Drivers/STM32F0xx_HAL_Driver/Src/stm32f0xx_hal_pcd.c ****   hpcd->Instance->BCDR |= USB_BCDR_DPPU;
 1344              		.loc 1 602 0 is_stmt 1 discriminator 2
 1345 0022 7B68     		ldr	r3, [r7, #4]
 1346 0024 1A68     		ldr	r2, [r3]
 1347 0026 7B68     		ldr	r3, [r7, #4]
 1348 0028 1B68     		ldr	r3, [r3]
 1349 002a 5821     		movs	r1, #88
 1350 002c 5B5A     		ldrh	r3, [r3, r1]
 1351 002e 9BB2     		uxth	r3, r3
 1352 0030 0749     		ldr	r1, .L47
 1353 0032 0B43     		orrs	r3, r1
 1354 0034 99B2     		uxth	r1, r3
 1355 0036 5823     		movs	r3, #88
 1356 0038 D152     		strh	r1, [r2, r3]
 603:Drivers/STM32F0xx_HAL_Driver/Src/stm32f0xx_hal_pcd.c ****   
 604:Drivers/STM32F0xx_HAL_Driver/Src/stm32f0xx_hal_pcd.c ****   __HAL_UNLOCK(hpcd); 
 1357              		.loc 1 604 0 discriminator 2
 1358 003a 7A68     		ldr	r2, [r7, #4]
 1359 003c F423     		movs	r3, #244
 1360 003e 5B00     		lsls	r3, r3, #1
 1361 0040 0021     		movs	r1, #0
 1362 0042 D154     		strb	r1, [r2, r3]
 605:Drivers/STM32F0xx_HAL_Driver/Src/stm32f0xx_hal_pcd.c ****   return HAL_OK;
 1363              		.loc 1 605 0 discriminator 2
 1364 0044 0023     		movs	r3, #0
 1365              	.L46:
 606:Drivers/STM32F0xx_HAL_Driver/Src/stm32f0xx_hal_pcd.c **** }
ARM GAS  /tmp/cczZJmfg.s 			page 35


 1366              		.loc 1 606 0
 1367 0046 1800     		movs	r0, r3
 1368 0048 BD46     		mov	sp, r7
 1369 004a 02B0     		add	sp, sp, #8
 1370              		@ sp needed
 1371 004c 80BD     		pop	{r7, pc}
 1372              	.L48:
 1373 004e C046     		.align	2
 1374              	.L47:
 1375 0050 0080FFFF 		.word	-32768
 1376              		.cfi_endproc
 1377              	.LFE53:
 1379              		.section	.text.HAL_PCD_DevDisconnect,"ax",%progbits
 1380              		.align	1
 1381              		.global	HAL_PCD_DevDisconnect
 1382              		.syntax unified
 1383              		.code	16
 1384              		.thumb_func
 1385              		.fpu softvfp
 1387              	HAL_PCD_DevDisconnect:
 1388              	.LFB54:
 607:Drivers/STM32F0xx_HAL_Driver/Src/stm32f0xx_hal_pcd.c **** 
 608:Drivers/STM32F0xx_HAL_Driver/Src/stm32f0xx_hal_pcd.c **** /**
 609:Drivers/STM32F0xx_HAL_Driver/Src/stm32f0xx_hal_pcd.c ****   * @brief  Disconnect the USB device 
 610:Drivers/STM32F0xx_HAL_Driver/Src/stm32f0xx_hal_pcd.c ****   * @param  hpcd: PCD handle
 611:Drivers/STM32F0xx_HAL_Driver/Src/stm32f0xx_hal_pcd.c ****   * @retval HAL status
 612:Drivers/STM32F0xx_HAL_Driver/Src/stm32f0xx_hal_pcd.c ****   */
 613:Drivers/STM32F0xx_HAL_Driver/Src/stm32f0xx_hal_pcd.c **** HAL_StatusTypeDef HAL_PCD_DevDisconnect(PCD_HandleTypeDef *hpcd)
 614:Drivers/STM32F0xx_HAL_Driver/Src/stm32f0xx_hal_pcd.c **** {
 1389              		.loc 1 614 0
 1390              		.cfi_startproc
 1391 0000 80B5     		push	{r7, lr}
 1392              	.LCFI57:
 1393              		.cfi_def_cfa_offset 8
 1394              		.cfi_offset 7, -8
 1395              		.cfi_offset 14, -4
 1396 0002 82B0     		sub	sp, sp, #8
 1397              	.LCFI58:
 1398              		.cfi_def_cfa_offset 16
 1399 0004 00AF     		add	r7, sp, #0
 1400              	.LCFI59:
 1401              		.cfi_def_cfa_register 7
 1402 0006 7860     		str	r0, [r7, #4]
 615:Drivers/STM32F0xx_HAL_Driver/Src/stm32f0xx_hal_pcd.c ****   __HAL_LOCK(hpcd); 
 1403              		.loc 1 615 0
 1404 0008 7A68     		ldr	r2, [r7, #4]
 1405 000a F423     		movs	r3, #244
 1406 000c 5B00     		lsls	r3, r3, #1
 1407 000e D35C     		ldrb	r3, [r2, r3]
 1408 0010 012B     		cmp	r3, #1
 1409 0012 01D1     		bne	.L50
 1410              		.loc 1 615 0 is_stmt 0 discriminator 1
 1411 0014 0223     		movs	r3, #2
 1412 0016 16E0     		b	.L51
 1413              	.L50:
 1414              		.loc 1 615 0 discriminator 2
 1415 0018 7A68     		ldr	r2, [r7, #4]
ARM GAS  /tmp/cczZJmfg.s 			page 36


 1416 001a F423     		movs	r3, #244
 1417 001c 5B00     		lsls	r3, r3, #1
 1418 001e 0121     		movs	r1, #1
 1419 0020 D154     		strb	r1, [r2, r3]
 616:Drivers/STM32F0xx_HAL_Driver/Src/stm32f0xx_hal_pcd.c ****   
 617:Drivers/STM32F0xx_HAL_Driver/Src/stm32f0xx_hal_pcd.c ****   /* Disable DP Pull-Down bit*/
 618:Drivers/STM32F0xx_HAL_Driver/Src/stm32f0xx_hal_pcd.c ****    hpcd->Instance->BCDR &= (uint16_t)(~(USB_BCDR_DPPU));
 1420              		.loc 1 618 0 is_stmt 1 discriminator 2
 1421 0022 7B68     		ldr	r3, [r7, #4]
 1422 0024 1A68     		ldr	r2, [r3]
 1423 0026 7B68     		ldr	r3, [r7, #4]
 1424 0028 1B68     		ldr	r3, [r3]
 1425 002a 5821     		movs	r1, #88
 1426 002c 5B5A     		ldrh	r3, [r3, r1]
 1427 002e 9BB2     		uxth	r3, r3
 1428 0030 5B04     		lsls	r3, r3, #17
 1429 0032 5B0C     		lsrs	r3, r3, #17
 1430 0034 99B2     		uxth	r1, r3
 1431 0036 5823     		movs	r3, #88
 1432 0038 D152     		strh	r1, [r2, r3]
 619:Drivers/STM32F0xx_HAL_Driver/Src/stm32f0xx_hal_pcd.c ****   
 620:Drivers/STM32F0xx_HAL_Driver/Src/stm32f0xx_hal_pcd.c ****   __HAL_UNLOCK(hpcd); 
 1433              		.loc 1 620 0 discriminator 2
 1434 003a 7A68     		ldr	r2, [r7, #4]
 1435 003c F423     		movs	r3, #244
 1436 003e 5B00     		lsls	r3, r3, #1
 1437 0040 0021     		movs	r1, #0
 1438 0042 D154     		strb	r1, [r2, r3]
 621:Drivers/STM32F0xx_HAL_Driver/Src/stm32f0xx_hal_pcd.c ****   return HAL_OK;
 1439              		.loc 1 621 0 discriminator 2
 1440 0044 0023     		movs	r3, #0
 1441              	.L51:
 622:Drivers/STM32F0xx_HAL_Driver/Src/stm32f0xx_hal_pcd.c **** }
 1442              		.loc 1 622 0
 1443 0046 1800     		movs	r0, r3
 1444 0048 BD46     		mov	sp, r7
 1445 004a 02B0     		add	sp, sp, #8
 1446              		@ sp needed
 1447 004c 80BD     		pop	{r7, pc}
 1448              		.cfi_endproc
 1449              	.LFE54:
 1451              		.section	.text.HAL_PCD_SetAddress,"ax",%progbits
 1452              		.align	1
 1453              		.global	HAL_PCD_SetAddress
 1454              		.syntax unified
 1455              		.code	16
 1456              		.thumb_func
 1457              		.fpu softvfp
 1459              	HAL_PCD_SetAddress:
 1460              	.LFB55:
 623:Drivers/STM32F0xx_HAL_Driver/Src/stm32f0xx_hal_pcd.c **** 
 624:Drivers/STM32F0xx_HAL_Driver/Src/stm32f0xx_hal_pcd.c **** /**
 625:Drivers/STM32F0xx_HAL_Driver/Src/stm32f0xx_hal_pcd.c ****   * @brief  Set the USB Device address 
 626:Drivers/STM32F0xx_HAL_Driver/Src/stm32f0xx_hal_pcd.c ****   * @param  hpcd: PCD handle
 627:Drivers/STM32F0xx_HAL_Driver/Src/stm32f0xx_hal_pcd.c ****   * @param  address: new device address
 628:Drivers/STM32F0xx_HAL_Driver/Src/stm32f0xx_hal_pcd.c ****   * @retval HAL status
 629:Drivers/STM32F0xx_HAL_Driver/Src/stm32f0xx_hal_pcd.c ****   */
ARM GAS  /tmp/cczZJmfg.s 			page 37


 630:Drivers/STM32F0xx_HAL_Driver/Src/stm32f0xx_hal_pcd.c **** HAL_StatusTypeDef HAL_PCD_SetAddress(PCD_HandleTypeDef *hpcd, uint8_t address)
 631:Drivers/STM32F0xx_HAL_Driver/Src/stm32f0xx_hal_pcd.c **** {
 1461              		.loc 1 631 0
 1462              		.cfi_startproc
 1463 0000 80B5     		push	{r7, lr}
 1464              	.LCFI60:
 1465              		.cfi_def_cfa_offset 8
 1466              		.cfi_offset 7, -8
 1467              		.cfi_offset 14, -4
 1468 0002 82B0     		sub	sp, sp, #8
 1469              	.LCFI61:
 1470              		.cfi_def_cfa_offset 16
 1471 0004 00AF     		add	r7, sp, #0
 1472              	.LCFI62:
 1473              		.cfi_def_cfa_register 7
 1474 0006 7860     		str	r0, [r7, #4]
 1475 0008 0A00     		movs	r2, r1
 1476 000a FB1C     		adds	r3, r7, #3
 1477 000c 1A70     		strb	r2, [r3]
 632:Drivers/STM32F0xx_HAL_Driver/Src/stm32f0xx_hal_pcd.c ****    __HAL_LOCK(hpcd); 
 1478              		.loc 1 632 0
 1479 000e 7A68     		ldr	r2, [r7, #4]
 1480 0010 F423     		movs	r3, #244
 1481 0012 5B00     		lsls	r3, r3, #1
 1482 0014 D35C     		ldrb	r3, [r2, r3]
 1483 0016 012B     		cmp	r3, #1
 1484 0018 01D1     		bne	.L53
 1485              		.loc 1 632 0 is_stmt 0 discriminator 1
 1486 001a 0223     		movs	r3, #2
 1487 001c 19E0     		b	.L54
 1488              	.L53:
 1489              		.loc 1 632 0 discriminator 2
 1490 001e 7A68     		ldr	r2, [r7, #4]
 1491 0020 F423     		movs	r3, #244
 1492 0022 5B00     		lsls	r3, r3, #1
 1493 0024 0121     		movs	r1, #1
 1494 0026 D154     		strb	r1, [r2, r3]
 633:Drivers/STM32F0xx_HAL_Driver/Src/stm32f0xx_hal_pcd.c **** 
 634:Drivers/STM32F0xx_HAL_Driver/Src/stm32f0xx_hal_pcd.c ****    if(address == 0) 
 1495              		.loc 1 634 0 is_stmt 1 discriminator 2
 1496 0028 FB1C     		adds	r3, r7, #3
 1497 002a 1B78     		ldrb	r3, [r3]
 1498 002c 002B     		cmp	r3, #0
 1499 002e 05D1     		bne	.L55
 635:Drivers/STM32F0xx_HAL_Driver/Src/stm32f0xx_hal_pcd.c ****    {
 636:Drivers/STM32F0xx_HAL_Driver/Src/stm32f0xx_hal_pcd.c ****      /* set device address and enable function */
 637:Drivers/STM32F0xx_HAL_Driver/Src/stm32f0xx_hal_pcd.c ****      hpcd->Instance->DADDR = USB_DADDR_EF;
 1500              		.loc 1 637 0
 1501 0030 7B68     		ldr	r3, [r7, #4]
 1502 0032 1B68     		ldr	r3, [r3]
 1503 0034 4C22     		movs	r2, #76
 1504 0036 8021     		movs	r1, #128
 1505 0038 9952     		strh	r1, [r3, r2]
 1506 003a 04E0     		b	.L56
 1507              	.L55:
 638:Drivers/STM32F0xx_HAL_Driver/Src/stm32f0xx_hal_pcd.c ****    }
 639:Drivers/STM32F0xx_HAL_Driver/Src/stm32f0xx_hal_pcd.c ****    else /* USB Address will be applied later */
ARM GAS  /tmp/cczZJmfg.s 			page 38


 640:Drivers/STM32F0xx_HAL_Driver/Src/stm32f0xx_hal_pcd.c ****    {
 641:Drivers/STM32F0xx_HAL_Driver/Src/stm32f0xx_hal_pcd.c ****      hpcd->USB_Address = address;
 1508              		.loc 1 641 0
 1509 003c 7B68     		ldr	r3, [r7, #4]
 1510 003e FA1C     		adds	r2, r7, #3
 1511 0040 2421     		movs	r1, #36
 1512 0042 1278     		ldrb	r2, [r2]
 1513 0044 5A54     		strb	r2, [r3, r1]
 1514              	.L56:
 642:Drivers/STM32F0xx_HAL_Driver/Src/stm32f0xx_hal_pcd.c ****    }
 643:Drivers/STM32F0xx_HAL_Driver/Src/stm32f0xx_hal_pcd.c **** 
 644:Drivers/STM32F0xx_HAL_Driver/Src/stm32f0xx_hal_pcd.c ****   __HAL_UNLOCK(hpcd);   
 1515              		.loc 1 644 0
 1516 0046 7A68     		ldr	r2, [r7, #4]
 1517 0048 F423     		movs	r3, #244
 1518 004a 5B00     		lsls	r3, r3, #1
 1519 004c 0021     		movs	r1, #0
 1520 004e D154     		strb	r1, [r2, r3]
 645:Drivers/STM32F0xx_HAL_Driver/Src/stm32f0xx_hal_pcd.c ****   return HAL_OK;
 1521              		.loc 1 645 0
 1522 0050 0023     		movs	r3, #0
 1523              	.L54:
 646:Drivers/STM32F0xx_HAL_Driver/Src/stm32f0xx_hal_pcd.c **** }
 1524              		.loc 1 646 0
 1525 0052 1800     		movs	r0, r3
 1526 0054 BD46     		mov	sp, r7
 1527 0056 02B0     		add	sp, sp, #8
 1528              		@ sp needed
 1529 0058 80BD     		pop	{r7, pc}
 1530              		.cfi_endproc
 1531              	.LFE55:
 1533              		.section	.text.HAL_PCD_EP_Open,"ax",%progbits
 1534              		.align	1
 1535              		.global	HAL_PCD_EP_Open
 1536              		.syntax unified
 1537              		.code	16
 1538              		.thumb_func
 1539              		.fpu softvfp
 1541              	HAL_PCD_EP_Open:
 1542              	.LFB56:
 647:Drivers/STM32F0xx_HAL_Driver/Src/stm32f0xx_hal_pcd.c **** /**
 648:Drivers/STM32F0xx_HAL_Driver/Src/stm32f0xx_hal_pcd.c ****   * @brief  Open and configure an endpoint
 649:Drivers/STM32F0xx_HAL_Driver/Src/stm32f0xx_hal_pcd.c ****   * @param  hpcd: PCD handle
 650:Drivers/STM32F0xx_HAL_Driver/Src/stm32f0xx_hal_pcd.c ****   * @param  ep_addr: endpoint address
 651:Drivers/STM32F0xx_HAL_Driver/Src/stm32f0xx_hal_pcd.c ****   * @param  ep_mps: endpoint max packert size
 652:Drivers/STM32F0xx_HAL_Driver/Src/stm32f0xx_hal_pcd.c ****   * @param  ep_type: endpoint type   
 653:Drivers/STM32F0xx_HAL_Driver/Src/stm32f0xx_hal_pcd.c ****   * @retval HAL status
 654:Drivers/STM32F0xx_HAL_Driver/Src/stm32f0xx_hal_pcd.c ****   */
 655:Drivers/STM32F0xx_HAL_Driver/Src/stm32f0xx_hal_pcd.c **** HAL_StatusTypeDef HAL_PCD_EP_Open(PCD_HandleTypeDef *hpcd, uint8_t ep_addr, uint16_t ep_mps, uint8_
 656:Drivers/STM32F0xx_HAL_Driver/Src/stm32f0xx_hal_pcd.c **** {
 1543              		.loc 1 656 0
 1544              		.cfi_startproc
 1545 0000 90B5     		push	{r4, r7, lr}
 1546              	.LCFI63:
 1547              		.cfi_def_cfa_offset 12
 1548              		.cfi_offset 4, -12
 1549              		.cfi_offset 7, -8
ARM GAS  /tmp/cczZJmfg.s 			page 39


 1550              		.cfi_offset 14, -4
 1551 0002 87B0     		sub	sp, sp, #28
 1552              	.LCFI64:
 1553              		.cfi_def_cfa_offset 40
 1554 0004 00AF     		add	r7, sp, #0
 1555              	.LCFI65:
 1556              		.cfi_def_cfa_register 7
 1557 0006 7860     		str	r0, [r7, #4]
 1558 0008 0C00     		movs	r4, r1
 1559 000a 1000     		movs	r0, r2
 1560 000c 1900     		movs	r1, r3
 1561 000e FB1C     		adds	r3, r7, #3
 1562 0010 221C     		adds	r2, r4, #0
 1563 0012 1A70     		strb	r2, [r3]
 1564 0014 3B00     		movs	r3, r7
 1565 0016 021C     		adds	r2, r0, #0
 1566 0018 1A80     		strh	r2, [r3]
 1567 001a BB1C     		adds	r3, r7, #2
 1568 001c 0A1C     		adds	r2, r1, #0
 1569 001e 1A70     		strb	r2, [r3]
 657:Drivers/STM32F0xx_HAL_Driver/Src/stm32f0xx_hal_pcd.c ****   HAL_StatusTypeDef  ret = HAL_OK;
 1570              		.loc 1 657 0
 1571 0020 1123     		movs	r3, #17
 1572 0022 FB18     		adds	r3, r7, r3
 1573 0024 0022     		movs	r2, #0
 1574 0026 1A70     		strb	r2, [r3]
 658:Drivers/STM32F0xx_HAL_Driver/Src/stm32f0xx_hal_pcd.c ****   PCD_EPTypeDef *ep;
 659:Drivers/STM32F0xx_HAL_Driver/Src/stm32f0xx_hal_pcd.c ****   
 660:Drivers/STM32F0xx_HAL_Driver/Src/stm32f0xx_hal_pcd.c ****   if ((ep_addr & 0x80) == 0x80)
 1575              		.loc 1 660 0
 1576 0028 FB1C     		adds	r3, r7, #3
 1577 002a 1B78     		ldrb	r3, [r3]
 1578 002c 5BB2     		sxtb	r3, r3
 1579 002e 002B     		cmp	r3, #0
 1580 0030 0CDA     		bge	.L58
 661:Drivers/STM32F0xx_HAL_Driver/Src/stm32f0xx_hal_pcd.c ****   {
 662:Drivers/STM32F0xx_HAL_Driver/Src/stm32f0xx_hal_pcd.c ****     ep = &hpcd->IN_ep[ep_addr & 0x7F];
 1581              		.loc 1 662 0
 1582 0032 FB1C     		adds	r3, r7, #3
 1583 0034 1B78     		ldrb	r3, [r3]
 1584 0036 7F22     		movs	r2, #127
 1585 0038 1A40     		ands	r2, r3
 1586 003a 1300     		movs	r3, r2
 1587 003c DB00     		lsls	r3, r3, #3
 1588 003e 9B1A     		subs	r3, r3, r2
 1589 0040 9B00     		lsls	r3, r3, #2
 1590 0042 2833     		adds	r3, r3, #40
 1591 0044 7A68     		ldr	r2, [r7, #4]
 1592 0046 D318     		adds	r3, r2, r3
 1593 0048 7B61     		str	r3, [r7, #20]
 1594 004a 0CE0     		b	.L59
 1595              	.L58:
 663:Drivers/STM32F0xx_HAL_Driver/Src/stm32f0xx_hal_pcd.c ****   }
 664:Drivers/STM32F0xx_HAL_Driver/Src/stm32f0xx_hal_pcd.c ****   else
 665:Drivers/STM32F0xx_HAL_Driver/Src/stm32f0xx_hal_pcd.c ****   {
 666:Drivers/STM32F0xx_HAL_Driver/Src/stm32f0xx_hal_pcd.c ****     ep = &hpcd->OUT_ep[ep_addr & 0x7F];
 1596              		.loc 1 666 0
ARM GAS  /tmp/cczZJmfg.s 			page 40


 1597 004c FB1C     		adds	r3, r7, #3
 1598 004e 1B78     		ldrb	r3, [r3]
 1599 0050 7F22     		movs	r2, #127
 1600 0052 1A40     		ands	r2, r3
 1601 0054 1300     		movs	r3, r2
 1602 0056 DB00     		lsls	r3, r3, #3
 1603 0058 9B1A     		subs	r3, r3, r2
 1604 005a 9B00     		lsls	r3, r3, #2
 1605 005c 0933     		adds	r3, r3, #9
 1606 005e FF33     		adds	r3, r3, #255
 1607 0060 7A68     		ldr	r2, [r7, #4]
 1608 0062 D318     		adds	r3, r2, r3
 1609 0064 7B61     		str	r3, [r7, #20]
 1610              	.L59:
 667:Drivers/STM32F0xx_HAL_Driver/Src/stm32f0xx_hal_pcd.c ****   }
 668:Drivers/STM32F0xx_HAL_Driver/Src/stm32f0xx_hal_pcd.c ****   ep->num   = ep_addr & 0x7F;
 1611              		.loc 1 668 0
 1612 0066 FB1C     		adds	r3, r7, #3
 1613 0068 1B78     		ldrb	r3, [r3]
 1614 006a 7F22     		movs	r2, #127
 1615 006c 1340     		ands	r3, r2
 1616 006e DAB2     		uxtb	r2, r3
 1617 0070 7B69     		ldr	r3, [r7, #20]
 1618 0072 1A70     		strb	r2, [r3]
 669:Drivers/STM32F0xx_HAL_Driver/Src/stm32f0xx_hal_pcd.c ****   
 670:Drivers/STM32F0xx_HAL_Driver/Src/stm32f0xx_hal_pcd.c ****   ep->is_in = (0x80 & ep_addr) != 0;
 1619              		.loc 1 670 0
 1620 0074 FB1C     		adds	r3, r7, #3
 1621 0076 1B78     		ldrb	r3, [r3]
 1622 0078 5BB2     		sxtb	r3, r3
 1623 007a DBB2     		uxtb	r3, r3
 1624 007c DB09     		lsrs	r3, r3, #7
 1625 007e DBB2     		uxtb	r3, r3
 1626 0080 1A00     		movs	r2, r3
 1627 0082 7B69     		ldr	r3, [r7, #20]
 1628 0084 5A70     		strb	r2, [r3, #1]
 671:Drivers/STM32F0xx_HAL_Driver/Src/stm32f0xx_hal_pcd.c ****   ep->maxpacket = ep_mps;
 1629              		.loc 1 671 0
 1630 0086 3B00     		movs	r3, r7
 1631 0088 1A88     		ldrh	r2, [r3]
 1632 008a 7B69     		ldr	r3, [r7, #20]
 1633 008c DA60     		str	r2, [r3, #12]
 672:Drivers/STM32F0xx_HAL_Driver/Src/stm32f0xx_hal_pcd.c ****   ep->type = ep_type;
 1634              		.loc 1 672 0
 1635 008e 7B69     		ldr	r3, [r7, #20]
 1636 0090 BA1C     		adds	r2, r7, #2
 1637 0092 1278     		ldrb	r2, [r2]
 1638 0094 DA70     		strb	r2, [r3, #3]
 673:Drivers/STM32F0xx_HAL_Driver/Src/stm32f0xx_hal_pcd.c ****   
 674:Drivers/STM32F0xx_HAL_Driver/Src/stm32f0xx_hal_pcd.c ****   __HAL_LOCK(hpcd); 
 1639              		.loc 1 674 0
 1640 0096 7A68     		ldr	r2, [r7, #4]
 1641 0098 F423     		movs	r3, #244
 1642 009a 5B00     		lsls	r3, r3, #1
 1643 009c D35C     		ldrb	r3, [r2, r3]
 1644 009e 012B     		cmp	r3, #1
 1645 00a0 01D1     		bne	.L60
ARM GAS  /tmp/cczZJmfg.s 			page 41


 1646              		.loc 1 674 0 is_stmt 0 discriminator 1
 1647 00a2 0223     		movs	r3, #2
 1648 00a4 0FE3     		b	.L61
 1649              	.L60:
 1650              		.loc 1 674 0 discriminator 2
 1651 00a6 7A68     		ldr	r2, [r7, #4]
 1652 00a8 F423     		movs	r3, #244
 1653 00aa 5B00     		lsls	r3, r3, #1
 1654 00ac 0121     		movs	r1, #1
 1655 00ae D154     		strb	r1, [r2, r3]
 675:Drivers/STM32F0xx_HAL_Driver/Src/stm32f0xx_hal_pcd.c **** 
 676:Drivers/STM32F0xx_HAL_Driver/Src/stm32f0xx_hal_pcd.c ****   /* initialize Endpoint */
 677:Drivers/STM32F0xx_HAL_Driver/Src/stm32f0xx_hal_pcd.c ****   switch (ep->type)
 1656              		.loc 1 677 0 is_stmt 1 discriminator 2
 1657 00b0 7B69     		ldr	r3, [r7, #20]
 1658 00b2 DB78     		ldrb	r3, [r3, #3]
 1659 00b4 012B     		cmp	r3, #1
 1660 00b6 4CD0     		beq	.L63
 1661 00b8 02DC     		bgt	.L64
 1662 00ba 002B     		cmp	r3, #0
 1663 00bc 05D0     		beq	.L65
 678:Drivers/STM32F0xx_HAL_Driver/Src/stm32f0xx_hal_pcd.c ****   {
 679:Drivers/STM32F0xx_HAL_Driver/Src/stm32f0xx_hal_pcd.c ****   case PCD_EP_TYPE_CTRL:
 680:Drivers/STM32F0xx_HAL_Driver/Src/stm32f0xx_hal_pcd.c ****     PCD_SET_EPTYPE(hpcd->Instance, ep->num, USB_EP_CONTROL);
 681:Drivers/STM32F0xx_HAL_Driver/Src/stm32f0xx_hal_pcd.c ****     break;
 682:Drivers/STM32F0xx_HAL_Driver/Src/stm32f0xx_hal_pcd.c ****   case PCD_EP_TYPE_BULK:
 683:Drivers/STM32F0xx_HAL_Driver/Src/stm32f0xx_hal_pcd.c ****     PCD_SET_EPTYPE(hpcd->Instance, ep->num, USB_EP_BULK);
 684:Drivers/STM32F0xx_HAL_Driver/Src/stm32f0xx_hal_pcd.c ****     break;
 685:Drivers/STM32F0xx_HAL_Driver/Src/stm32f0xx_hal_pcd.c ****   case PCD_EP_TYPE_INTR:
 686:Drivers/STM32F0xx_HAL_Driver/Src/stm32f0xx_hal_pcd.c ****     PCD_SET_EPTYPE(hpcd->Instance, ep->num, USB_EP_INTERRUPT);
 687:Drivers/STM32F0xx_HAL_Driver/Src/stm32f0xx_hal_pcd.c ****     break;
 688:Drivers/STM32F0xx_HAL_Driver/Src/stm32f0xx_hal_pcd.c ****   case PCD_EP_TYPE_ISOC:
 689:Drivers/STM32F0xx_HAL_Driver/Src/stm32f0xx_hal_pcd.c ****     PCD_SET_EPTYPE(hpcd->Instance, ep->num, USB_EP_ISOCHRONOUS);
 690:Drivers/STM32F0xx_HAL_Driver/Src/stm32f0xx_hal_pcd.c ****     break;
 691:Drivers/STM32F0xx_HAL_Driver/Src/stm32f0xx_hal_pcd.c ****   default:
 692:Drivers/STM32F0xx_HAL_Driver/Src/stm32f0xx_hal_pcd.c ****     break;
 1664              		.loc 1 692 0 discriminator 2
 1665 00be 60E0     		b	.L68
 1666              	.L64:
 677:Drivers/STM32F0xx_HAL_Driver/Src/stm32f0xx_hal_pcd.c ****   {
 1667              		.loc 1 677 0 discriminator 2
 1668 00c0 022B     		cmp	r3, #2
 1669 00c2 1AD0     		beq	.L66
 1670 00c4 032B     		cmp	r3, #3
 1671 00c6 2CD0     		beq	.L67
 1672              		.loc 1 692 0 discriminator 2
 1673 00c8 5BE0     		b	.L68
 1674              	.L65:
 680:Drivers/STM32F0xx_HAL_Driver/Src/stm32f0xx_hal_pcd.c ****     break;
 1675              		.loc 1 680 0
 1676 00ca 7B68     		ldr	r3, [r7, #4]
 1677 00cc 1B68     		ldr	r3, [r3]
 1678 00ce 1A00     		movs	r2, r3
 1679 00d0 7B69     		ldr	r3, [r7, #20]
 1680 00d2 1B78     		ldrb	r3, [r3]
 1681 00d4 9B00     		lsls	r3, r3, #2
 1682 00d6 D218     		adds	r2, r2, r3
ARM GAS  /tmp/cczZJmfg.s 			page 42


 1683 00d8 7B68     		ldr	r3, [r7, #4]
 1684 00da 1B68     		ldr	r3, [r3]
 1685 00dc 1900     		movs	r1, r3
 1686 00de 7B69     		ldr	r3, [r7, #20]
 1687 00e0 1B78     		ldrb	r3, [r3]
 1688 00e2 9B00     		lsls	r3, r3, #2
 1689 00e4 CB18     		adds	r3, r1, r3
 1690 00e6 1B88     		ldrh	r3, [r3]
 1691 00e8 B649     		ldr	r1, .L84
 1692 00ea 0B40     		ands	r3, r1
 1693 00ec 9BB2     		uxth	r3, r3
 1694 00ee 8021     		movs	r1, #128
 1695 00f0 8900     		lsls	r1, r1, #2
 1696 00f2 0B43     		orrs	r3, r1
 1697 00f4 9BB2     		uxth	r3, r3
 1698 00f6 1380     		strh	r3, [r2]
 681:Drivers/STM32F0xx_HAL_Driver/Src/stm32f0xx_hal_pcd.c ****   case PCD_EP_TYPE_BULK:
 1699              		.loc 1 681 0
 1700 00f8 43E0     		b	.L68
 1701              	.L66:
 683:Drivers/STM32F0xx_HAL_Driver/Src/stm32f0xx_hal_pcd.c ****     break;
 1702              		.loc 1 683 0
 1703 00fa 7B68     		ldr	r3, [r7, #4]
 1704 00fc 1B68     		ldr	r3, [r3]
 1705 00fe 1A00     		movs	r2, r3
 1706 0100 7B69     		ldr	r3, [r7, #20]
 1707 0102 1B78     		ldrb	r3, [r3]
 1708 0104 9B00     		lsls	r3, r3, #2
 1709 0106 D218     		adds	r2, r2, r3
 1710 0108 7B68     		ldr	r3, [r7, #4]
 1711 010a 1B68     		ldr	r3, [r3]
 1712 010c 1900     		movs	r1, r3
 1713 010e 7B69     		ldr	r3, [r7, #20]
 1714 0110 1B78     		ldrb	r3, [r3]
 1715 0112 9B00     		lsls	r3, r3, #2
 1716 0114 CB18     		adds	r3, r1, r3
 1717 0116 1B88     		ldrh	r3, [r3]
 1718 0118 AA49     		ldr	r1, .L84
 1719 011a 0B40     		ands	r3, r1
 1720 011c 9BB2     		uxth	r3, r3
 1721 011e 1380     		strh	r3, [r2]
 684:Drivers/STM32F0xx_HAL_Driver/Src/stm32f0xx_hal_pcd.c ****   case PCD_EP_TYPE_INTR:
 1722              		.loc 1 684 0
 1723 0120 2FE0     		b	.L68
 1724              	.L67:
 686:Drivers/STM32F0xx_HAL_Driver/Src/stm32f0xx_hal_pcd.c ****     break;
 1725              		.loc 1 686 0
 1726 0122 7B68     		ldr	r3, [r7, #4]
 1727 0124 1B68     		ldr	r3, [r3]
 1728 0126 1A00     		movs	r2, r3
 1729 0128 7B69     		ldr	r3, [r7, #20]
 1730 012a 1B78     		ldrb	r3, [r3]
 1731 012c 9B00     		lsls	r3, r3, #2
 1732 012e D218     		adds	r2, r2, r3
 1733 0130 7B68     		ldr	r3, [r7, #4]
 1734 0132 1B68     		ldr	r3, [r3]
 1735 0134 1900     		movs	r1, r3
ARM GAS  /tmp/cczZJmfg.s 			page 43


 1736 0136 7B69     		ldr	r3, [r7, #20]
 1737 0138 1B78     		ldrb	r3, [r3]
 1738 013a 9B00     		lsls	r3, r3, #2
 1739 013c CB18     		adds	r3, r1, r3
 1740 013e 1B88     		ldrh	r3, [r3]
 1741 0140 A049     		ldr	r1, .L84
 1742 0142 0B40     		ands	r3, r1
 1743 0144 9BB2     		uxth	r3, r3
 1744 0146 C021     		movs	r1, #192
 1745 0148 C900     		lsls	r1, r1, #3
 1746 014a 0B43     		orrs	r3, r1
 1747 014c 9BB2     		uxth	r3, r3
 1748 014e 1380     		strh	r3, [r2]
 687:Drivers/STM32F0xx_HAL_Driver/Src/stm32f0xx_hal_pcd.c ****   case PCD_EP_TYPE_ISOC:
 1749              		.loc 1 687 0
 1750 0150 17E0     		b	.L68
 1751              	.L63:
 689:Drivers/STM32F0xx_HAL_Driver/Src/stm32f0xx_hal_pcd.c ****     break;
 1752              		.loc 1 689 0
 1753 0152 7B68     		ldr	r3, [r7, #4]
 1754 0154 1B68     		ldr	r3, [r3]
 1755 0156 1A00     		movs	r2, r3
 1756 0158 7B69     		ldr	r3, [r7, #20]
 1757 015a 1B78     		ldrb	r3, [r3]
 1758 015c 9B00     		lsls	r3, r3, #2
 1759 015e D218     		adds	r2, r2, r3
 1760 0160 7B68     		ldr	r3, [r7, #4]
 1761 0162 1B68     		ldr	r3, [r3]
 1762 0164 1900     		movs	r1, r3
 1763 0166 7B69     		ldr	r3, [r7, #20]
 1764 0168 1B78     		ldrb	r3, [r3]
 1765 016a 9B00     		lsls	r3, r3, #2
 1766 016c CB18     		adds	r3, r1, r3
 1767 016e 1B88     		ldrh	r3, [r3]
 1768 0170 9449     		ldr	r1, .L84
 1769 0172 0B40     		ands	r3, r1
 1770 0174 9BB2     		uxth	r3, r3
 1771 0176 8021     		movs	r1, #128
 1772 0178 C900     		lsls	r1, r1, #3
 1773 017a 0B43     		orrs	r3, r1
 1774 017c 9BB2     		uxth	r3, r3
 1775 017e 1380     		strh	r3, [r2]
 690:Drivers/STM32F0xx_HAL_Driver/Src/stm32f0xx_hal_pcd.c ****   default:
 1776              		.loc 1 690 0
 1777 0180 C046     		nop
 1778              	.L68:
 693:Drivers/STM32F0xx_HAL_Driver/Src/stm32f0xx_hal_pcd.c ****   } 
 694:Drivers/STM32F0xx_HAL_Driver/Src/stm32f0xx_hal_pcd.c ****   
 695:Drivers/STM32F0xx_HAL_Driver/Src/stm32f0xx_hal_pcd.c ****   PCD_SET_EP_ADDRESS(hpcd->Instance, ep->num, ep->num);
 1779              		.loc 1 695 0
 1780 0182 7B68     		ldr	r3, [r7, #4]
 1781 0184 1B68     		ldr	r3, [r3]
 1782 0186 1A00     		movs	r2, r3
 1783 0188 7B69     		ldr	r3, [r7, #20]
 1784 018a 1B78     		ldrb	r3, [r3]
 1785 018c 9B00     		lsls	r3, r3, #2
 1786 018e D218     		adds	r2, r2, r3
ARM GAS  /tmp/cczZJmfg.s 			page 44


 1787 0190 7B68     		ldr	r3, [r7, #4]
 1788 0192 1B68     		ldr	r3, [r3]
 1789 0194 1900     		movs	r1, r3
 1790 0196 7B69     		ldr	r3, [r7, #20]
 1791 0198 1B78     		ldrb	r3, [r3]
 1792 019a 9B00     		lsls	r3, r3, #2
 1793 019c CB18     		adds	r3, r1, r3
 1794 019e 1B88     		ldrh	r3, [r3]
 1795 01a0 8949     		ldr	r1, .L84+4
 1796 01a2 0B40     		ands	r3, r1
 1797 01a4 99B2     		uxth	r1, r3
 1798 01a6 7B69     		ldr	r3, [r7, #20]
 1799 01a8 1B78     		ldrb	r3, [r3]
 1800 01aa 9BB2     		uxth	r3, r3
 1801 01ac 0B43     		orrs	r3, r1
 1802 01ae 9BB2     		uxth	r3, r3
 1803 01b0 8649     		ldr	r1, .L84+8
 1804 01b2 0B43     		orrs	r3, r1
 1805 01b4 9BB2     		uxth	r3, r3
 1806 01b6 1380     		strh	r3, [r2]
 696:Drivers/STM32F0xx_HAL_Driver/Src/stm32f0xx_hal_pcd.c ****   
 697:Drivers/STM32F0xx_HAL_Driver/Src/stm32f0xx_hal_pcd.c ****   if (ep->doublebuffer == 0) 
 1807              		.loc 1 697 0
 1808 01b8 7B69     		ldr	r3, [r7, #20]
 1809 01ba 9B7A     		ldrb	r3, [r3, #10]
 1810 01bc 002B     		cmp	r3, #0
 1811 01be 00D0     		beq	.LCB1600
 1812 01c0 14E1     		b	.L69	@long jump
 1813              	.LCB1600:
 698:Drivers/STM32F0xx_HAL_Driver/Src/stm32f0xx_hal_pcd.c ****   {
 699:Drivers/STM32F0xx_HAL_Driver/Src/stm32f0xx_hal_pcd.c ****     if (ep->is_in)
 1814              		.loc 1 699 0
 1815 01c2 7B69     		ldr	r3, [r7, #20]
 1816 01c4 5B78     		ldrb	r3, [r3, #1]
 1817 01c6 002B     		cmp	r3, #0
 1818 01c8 55D0     		beq	.L70
 700:Drivers/STM32F0xx_HAL_Driver/Src/stm32f0xx_hal_pcd.c ****     {
 701:Drivers/STM32F0xx_HAL_Driver/Src/stm32f0xx_hal_pcd.c ****       /*Set the endpoint Transmit buffer address */
 702:Drivers/STM32F0xx_HAL_Driver/Src/stm32f0xx_hal_pcd.c ****       PCD_SET_EP_TX_ADDRESS(hpcd->Instance, ep->num, ep->pmaadress);
 1819              		.loc 1 702 0
 1820 01ca 7B68     		ldr	r3, [r7, #4]
 1821 01cc 1B68     		ldr	r3, [r3]
 1822 01ce 5022     		movs	r2, #80
 1823 01d0 9B5A     		ldrh	r3, [r3, r2]
 1824 01d2 9BB2     		uxth	r3, r3
 1825 01d4 1A00     		movs	r2, r3
 1826 01d6 7B69     		ldr	r3, [r7, #20]
 1827 01d8 1B78     		ldrb	r3, [r3]
 1828 01da DB00     		lsls	r3, r3, #3
 1829 01dc D318     		adds	r3, r2, r3
 1830 01de 1A00     		movs	r2, r3
 1831 01e0 7B68     		ldr	r3, [r7, #4]
 1832 01e2 1B68     		ldr	r3, [r3]
 1833 01e4 D318     		adds	r3, r2, r3
 1834 01e6 8022     		movs	r2, #128
 1835 01e8 D200     		lsls	r2, r2, #3
 1836 01ea 9446     		mov	ip, r2
ARM GAS  /tmp/cczZJmfg.s 			page 45


 1837 01ec 6344     		add	r3, r3, ip
 1838 01ee 1A00     		movs	r2, r3
 1839 01f0 7B69     		ldr	r3, [r7, #20]
 1840 01f2 9B88     		ldrh	r3, [r3, #4]
 1841 01f4 5B08     		lsrs	r3, r3, #1
 1842 01f6 9BB2     		uxth	r3, r3
 1843 01f8 DB18     		adds	r3, r3, r3
 1844 01fa 9BB2     		uxth	r3, r3
 1845 01fc 1380     		strh	r3, [r2]
 703:Drivers/STM32F0xx_HAL_Driver/Src/stm32f0xx_hal_pcd.c ****       PCD_CLEAR_TX_DTOG(hpcd->Instance, ep->num)
 1846              		.loc 1 703 0
 1847 01fe 7B68     		ldr	r3, [r7, #4]
 1848 0200 1B68     		ldr	r3, [r3]
 1849 0202 1A00     		movs	r2, r3
 1850 0204 7B69     		ldr	r3, [r7, #20]
 1851 0206 1B78     		ldrb	r3, [r3]
 1852 0208 9B00     		lsls	r3, r3, #2
 1853 020a D318     		adds	r3, r2, r3
 1854 020c 1B88     		ldrh	r3, [r3]
 1855 020e 1A00     		movs	r2, r3
 1856 0210 4023     		movs	r3, #64
 1857 0212 1340     		ands	r3, r2
 1858 0214 15D0     		beq	.L71
 1859              		.loc 1 703 0 is_stmt 0 discriminator 1
 1860 0216 7B68     		ldr	r3, [r7, #4]
 1861 0218 1B68     		ldr	r3, [r3]
 1862 021a 1A00     		movs	r2, r3
 1863 021c 7B69     		ldr	r3, [r7, #20]
 1864 021e 1B78     		ldrb	r3, [r3]
 1865 0220 9B00     		lsls	r3, r3, #2
 1866 0222 D218     		adds	r2, r2, r3
 1867 0224 7B68     		ldr	r3, [r7, #4]
 1868 0226 1B68     		ldr	r3, [r3]
 1869 0228 1900     		movs	r1, r3
 1870 022a 7B69     		ldr	r3, [r7, #20]
 1871 022c 1B78     		ldrb	r3, [r3]
 1872 022e 9B00     		lsls	r3, r3, #2
 1873 0230 CB18     		adds	r3, r1, r3
 1874 0232 1B88     		ldrh	r3, [r3]
 1875 0234 6449     		ldr	r1, .L84+4
 1876 0236 0B40     		ands	r3, r1
 1877 0238 9BB2     		uxth	r3, r3
 1878 023a 6549     		ldr	r1, .L84+12
 1879 023c 0B43     		orrs	r3, r1
 1880 023e 9BB2     		uxth	r3, r3
 1881 0240 1380     		strh	r3, [r2]
 1882              	.L71:
 1883              	.LBB2:
 704:Drivers/STM32F0xx_HAL_Driver/Src/stm32f0xx_hal_pcd.c ****       /* Configure NAK status for the Endpoint*/
 705:Drivers/STM32F0xx_HAL_Driver/Src/stm32f0xx_hal_pcd.c ****       PCD_SET_EP_TX_STATUS(hpcd->Instance, ep->num, USB_EP_TX_NAK) 
 1884              		.loc 1 705 0 is_stmt 1
 1885 0242 7B68     		ldr	r3, [r7, #4]
 1886 0244 1B68     		ldr	r3, [r3]
 1887 0246 1A00     		movs	r2, r3
 1888 0248 7B69     		ldr	r3, [r7, #20]
 1889 024a 1B78     		ldrb	r3, [r3]
 1890 024c 9B00     		lsls	r3, r3, #2
ARM GAS  /tmp/cczZJmfg.s 			page 46


 1891 024e D318     		adds	r3, r2, r3
 1892 0250 1B88     		ldrh	r3, [r3]
 1893 0252 604A     		ldr	r2, .L84+16
 1894 0254 1340     		ands	r3, r2
 1895 0256 9CB2     		uxth	r4, r3
 1896 0258 2023     		movs	r3, #32
 1897 025a 6340     		eors	r3, r4
 1898 025c 9CB2     		uxth	r4, r3
 1899 025e 7B68     		ldr	r3, [r7, #4]
 1900 0260 1B68     		ldr	r3, [r3]
 1901 0262 1A00     		movs	r2, r3
 1902 0264 7B69     		ldr	r3, [r7, #20]
 1903 0266 1B78     		ldrb	r3, [r3]
 1904 0268 9B00     		lsls	r3, r3, #2
 1905 026a D318     		adds	r3, r2, r3
 1906 026c 574A     		ldr	r2, .L84+8
 1907 026e 2243     		orrs	r2, r4
 1908 0270 92B2     		uxth	r2, r2
 1909 0272 1A80     		strh	r2, [r3]
 1910              	.LBE2:
 1911 0274 1FE2     		b	.L78
 1912              	.L70:
 706:Drivers/STM32F0xx_HAL_Driver/Src/stm32f0xx_hal_pcd.c ****     }
 707:Drivers/STM32F0xx_HAL_Driver/Src/stm32f0xx_hal_pcd.c ****     else
 708:Drivers/STM32F0xx_HAL_Driver/Src/stm32f0xx_hal_pcd.c ****     {
 709:Drivers/STM32F0xx_HAL_Driver/Src/stm32f0xx_hal_pcd.c ****       /*Set the endpoint Receive buffer address */
 710:Drivers/STM32F0xx_HAL_Driver/Src/stm32f0xx_hal_pcd.c ****       PCD_SET_EP_RX_ADDRESS(hpcd->Instance, ep->num, ep->pmaadress);
 1913              		.loc 1 710 0
 1914 0276 7B68     		ldr	r3, [r7, #4]
 1915 0278 1B68     		ldr	r3, [r3]
 1916 027a 5022     		movs	r2, #80
 1917 027c 9B5A     		ldrh	r3, [r3, r2]
 1918 027e 9BB2     		uxth	r3, r3
 1919 0280 1A00     		movs	r2, r3
 1920 0282 7B69     		ldr	r3, [r7, #20]
 1921 0284 1B78     		ldrb	r3, [r3]
 1922 0286 DB00     		lsls	r3, r3, #3
 1923 0288 D318     		adds	r3, r2, r3
 1924 028a 1A00     		movs	r2, r3
 1925 028c 7B68     		ldr	r3, [r7, #4]
 1926 028e 1B68     		ldr	r3, [r3]
 1927 0290 D318     		adds	r3, r2, r3
 1928 0292 514A     		ldr	r2, .L84+20
 1929 0294 9446     		mov	ip, r2
 1930 0296 6344     		add	r3, r3, ip
 1931 0298 1A00     		movs	r2, r3
 1932 029a 7B69     		ldr	r3, [r7, #20]
 1933 029c 9B88     		ldrh	r3, [r3, #4]
 1934 029e 5B08     		lsrs	r3, r3, #1
 1935 02a0 9BB2     		uxth	r3, r3
 1936 02a2 DB18     		adds	r3, r3, r3
 1937 02a4 9BB2     		uxth	r3, r3
 1938 02a6 1380     		strh	r3, [r2]
 1939              	.LBB3:
 711:Drivers/STM32F0xx_HAL_Driver/Src/stm32f0xx_hal_pcd.c ****       /*Set the endpoint Receive buffer counter*/
 712:Drivers/STM32F0xx_HAL_Driver/Src/stm32f0xx_hal_pcd.c ****       PCD_SET_EP_RX_CNT(hpcd->Instance, ep->num, ep->maxpacket)
 1940              		.loc 1 712 0
ARM GAS  /tmp/cczZJmfg.s 			page 47


 1941 02a8 7B68     		ldr	r3, [r7, #4]
 1942 02aa 1B68     		ldr	r3, [r3]
 1943 02ac 5022     		movs	r2, #80
 1944 02ae 9B5A     		ldrh	r3, [r3, r2]
 1945 02b0 9BB2     		uxth	r3, r3
 1946 02b2 1A00     		movs	r2, r3
 1947 02b4 7B69     		ldr	r3, [r7, #20]
 1948 02b6 1B78     		ldrb	r3, [r3]
 1949 02b8 DB00     		lsls	r3, r3, #3
 1950 02ba D318     		adds	r3, r2, r3
 1951 02bc 1A00     		movs	r2, r3
 1952 02be 7B68     		ldr	r3, [r7, #4]
 1953 02c0 1B68     		ldr	r3, [r3]
 1954 02c2 D318     		adds	r3, r2, r3
 1955 02c4 454A     		ldr	r2, .L84+24
 1956 02c6 9446     		mov	ip, r2
 1957 02c8 6344     		add	r3, r3, ip
 1958 02ca FB60     		str	r3, [r7, #12]
 1959              	.LBB4:
 1960 02cc 7B69     		ldr	r3, [r7, #20]
 1961 02ce DB68     		ldr	r3, [r3, #12]
 1962 02d0 3E2B     		cmp	r3, #62
 1963 02d2 1CD9     		bls	.L73
 1964              		.loc 1 712 0 is_stmt 0 discriminator 1
 1965 02d4 7B69     		ldr	r3, [r7, #20]
 1966 02d6 DB68     		ldr	r3, [r3, #12]
 1967 02d8 5A09     		lsrs	r2, r3, #5
 1968 02da 1223     		movs	r3, #18
 1969 02dc FB18     		adds	r3, r7, r3
 1970 02de 1A80     		strh	r2, [r3]
 1971 02e0 7B69     		ldr	r3, [r7, #20]
 1972 02e2 DB68     		ldr	r3, [r3, #12]
 1973 02e4 1F22     		movs	r2, #31
 1974 02e6 1340     		ands	r3, r2
 1975 02e8 06D1     		bne	.L74
 1976              		.loc 1 712 0 discriminator 3
 1977 02ea 1223     		movs	r3, #18
 1978 02ec FB18     		adds	r3, r7, r3
 1979 02ee 1A88     		ldrh	r2, [r3]
 1980 02f0 1223     		movs	r3, #18
 1981 02f2 FB18     		adds	r3, r7, r3
 1982 02f4 013A     		subs	r2, r2, #1
 1983 02f6 1A80     		strh	r2, [r3]
 1984              	.L74:
 1985              		.loc 1 712 0 discriminator 5
 1986 02f8 1223     		movs	r3, #18
 1987 02fa FB18     		adds	r3, r7, r3
 1988 02fc 1B88     		ldrh	r3, [r3]
 1989 02fe 9B02     		lsls	r3, r3, #10
 1990 0300 9BB2     		uxth	r3, r3
 1991 0302 374A     		ldr	r2, .L84+28
 1992 0304 1343     		orrs	r3, r2
 1993 0306 9AB2     		uxth	r2, r3
 1994 0308 FB68     		ldr	r3, [r7, #12]
 1995 030a 1A80     		strh	r2, [r3]
 1996 030c 18E0     		b	.L75
 1997              	.L73:
ARM GAS  /tmp/cczZJmfg.s 			page 48


 1998              		.loc 1 712 0 discriminator 2
 1999 030e 7B69     		ldr	r3, [r7, #20]
 2000 0310 DB68     		ldr	r3, [r3, #12]
 2001 0312 5A08     		lsrs	r2, r3, #1
 2002 0314 1223     		movs	r3, #18
 2003 0316 FB18     		adds	r3, r7, r3
 2004 0318 1A80     		strh	r2, [r3]
 2005 031a 7B69     		ldr	r3, [r7, #20]
 2006 031c DB68     		ldr	r3, [r3, #12]
 2007 031e 0122     		movs	r2, #1
 2008 0320 1340     		ands	r3, r2
 2009 0322 06D0     		beq	.L76
 2010              		.loc 1 712 0 discriminator 6
 2011 0324 1223     		movs	r3, #18
 2012 0326 FB18     		adds	r3, r7, r3
 2013 0328 1A88     		ldrh	r2, [r3]
 2014 032a 1223     		movs	r3, #18
 2015 032c FB18     		adds	r3, r7, r3
 2016 032e 0132     		adds	r2, r2, #1
 2017 0330 1A80     		strh	r2, [r3]
 2018              	.L76:
 2019              		.loc 1 712 0 discriminator 8
 2020 0332 1223     		movs	r3, #18
 2021 0334 FB18     		adds	r3, r7, r3
 2022 0336 1B88     		ldrh	r3, [r3]
 2023 0338 9B02     		lsls	r3, r3, #10
 2024 033a 9AB2     		uxth	r2, r3
 2025 033c FB68     		ldr	r3, [r7, #12]
 2026 033e 1A80     		strh	r2, [r3]
 2027              	.L75:
 2028              	.LBE4:
 2029              	.LBE3:
 713:Drivers/STM32F0xx_HAL_Driver/Src/stm32f0xx_hal_pcd.c ****       PCD_CLEAR_RX_DTOG(hpcd->Instance, ep->num)
 2030              		.loc 1 713 0 is_stmt 1
 2031 0340 7B68     		ldr	r3, [r7, #4]
 2032 0342 1B68     		ldr	r3, [r3]
 2033 0344 1A00     		movs	r2, r3
 2034 0346 7B69     		ldr	r3, [r7, #20]
 2035 0348 1B78     		ldrb	r3, [r3]
 2036 034a 9B00     		lsls	r3, r3, #2
 2037 034c D318     		adds	r3, r2, r3
 2038 034e 1B88     		ldrh	r3, [r3]
 2039 0350 1A00     		movs	r2, r3
 2040 0352 8023     		movs	r3, #128
 2041 0354 DB01     		lsls	r3, r3, #7
 2042 0356 1340     		ands	r3, r2
 2043 0358 15D0     		beq	.L77
 2044              		.loc 1 713 0 is_stmt 0 discriminator 1
 2045 035a 7B68     		ldr	r3, [r7, #4]
 2046 035c 1B68     		ldr	r3, [r3]
 2047 035e 1A00     		movs	r2, r3
 2048 0360 7B69     		ldr	r3, [r7, #20]
 2049 0362 1B78     		ldrb	r3, [r3]
 2050 0364 9B00     		lsls	r3, r3, #2
 2051 0366 D218     		adds	r2, r2, r3
 2052 0368 7B68     		ldr	r3, [r7, #4]
 2053 036a 1B68     		ldr	r3, [r3]
ARM GAS  /tmp/cczZJmfg.s 			page 49


 2054 036c 1900     		movs	r1, r3
 2055 036e 7B69     		ldr	r3, [r7, #20]
 2056 0370 1B78     		ldrb	r3, [r3]
 2057 0372 9B00     		lsls	r3, r3, #2
 2058 0374 CB18     		adds	r3, r1, r3
 2059 0376 1B88     		ldrh	r3, [r3]
 2060 0378 1349     		ldr	r1, .L84+4
 2061 037a 0B40     		ands	r3, r1
 2062 037c 9BB2     		uxth	r3, r3
 2063 037e 1949     		ldr	r1, .L84+32
 2064 0380 0B43     		orrs	r3, r1
 2065 0382 9BB2     		uxth	r3, r3
 2066 0384 1380     		strh	r3, [r2]
 2067              	.L77:
 2068              	.LBB5:
 714:Drivers/STM32F0xx_HAL_Driver/Src/stm32f0xx_hal_pcd.c ****       /* Configure VALID status for the Endpoint*/
 715:Drivers/STM32F0xx_HAL_Driver/Src/stm32f0xx_hal_pcd.c ****       PCD_SET_EP_RX_STATUS(hpcd->Instance, ep->num, USB_EP_RX_VALID)
 2069              		.loc 1 715 0 is_stmt 1
 2070 0386 7B68     		ldr	r3, [r7, #4]
 2071 0388 1B68     		ldr	r3, [r3]
 2072 038a 1A00     		movs	r2, r3
 2073 038c 7B69     		ldr	r3, [r7, #20]
 2074 038e 1B78     		ldrb	r3, [r3]
 2075 0390 9B00     		lsls	r3, r3, #2
 2076 0392 D318     		adds	r3, r2, r3
 2077 0394 1B88     		ldrh	r3, [r3]
 2078 0396 144A     		ldr	r2, .L84+36
 2079 0398 1340     		ands	r3, r2
 2080 039a 9CB2     		uxth	r4, r3
 2081 039c 8023     		movs	r3, #128
 2082 039e 5B01     		lsls	r3, r3, #5
 2083 03a0 6340     		eors	r3, r4
 2084 03a2 9CB2     		uxth	r4, r3
 2085 03a4 8023     		movs	r3, #128
 2086 03a6 9B01     		lsls	r3, r3, #6
 2087 03a8 6340     		eors	r3, r4
 2088 03aa 9CB2     		uxth	r4, r3
 2089 03ac 7B68     		ldr	r3, [r7, #4]
 2090 03ae 1B68     		ldr	r3, [r3]
 2091 03b0 1A00     		movs	r2, r3
 2092 03b2 7B69     		ldr	r3, [r7, #20]
 2093 03b4 1B78     		ldrb	r3, [r3]
 2094 03b6 9B00     		lsls	r3, r3, #2
 2095 03b8 D318     		adds	r3, r2, r3
 2096 03ba 044A     		ldr	r2, .L84+8
 2097 03bc 2243     		orrs	r2, r4
 2098 03be 92B2     		uxth	r2, r2
 2099 03c0 1A80     		strh	r2, [r3]
 2100 03c2 78E1     		b	.L78
 2101              	.L85:
 2102              		.align	2
 2103              	.L84:
 2104 03c4 8F89FFFF 		.word	-30321
 2105 03c8 0F0F0000 		.word	3855
 2106 03cc 8080FFFF 		.word	-32640
 2107 03d0 C080FFFF 		.word	-32576
 2108 03d4 BF8FFFFF 		.word	-28737
ARM GAS  /tmp/cczZJmfg.s 			page 50


 2109 03d8 04040000 		.word	1028
 2110 03dc 06040000 		.word	1030
 2111 03e0 0080FFFF 		.word	-32768
 2112 03e4 80C0FFFF 		.word	-16256
 2113 03e8 8FBFFFFF 		.word	-16497
 2114              	.L69:
 2115              	.LBE5:
 716:Drivers/STM32F0xx_HAL_Driver/Src/stm32f0xx_hal_pcd.c ****     }
 717:Drivers/STM32F0xx_HAL_Driver/Src/stm32f0xx_hal_pcd.c ****   }
 718:Drivers/STM32F0xx_HAL_Driver/Src/stm32f0xx_hal_pcd.c ****   /*Double Buffer*/
 719:Drivers/STM32F0xx_HAL_Driver/Src/stm32f0xx_hal_pcd.c ****   else
 720:Drivers/STM32F0xx_HAL_Driver/Src/stm32f0xx_hal_pcd.c ****   {
 721:Drivers/STM32F0xx_HAL_Driver/Src/stm32f0xx_hal_pcd.c ****     /*Set the endpoint as double buffered*/
 722:Drivers/STM32F0xx_HAL_Driver/Src/stm32f0xx_hal_pcd.c ****     PCD_SET_EP_DBUF(hpcd->Instance, ep->num);
 2116              		.loc 1 722 0
 2117 03ec 7B68     		ldr	r3, [r7, #4]
 2118 03ee 1B68     		ldr	r3, [r3]
 2119 03f0 1A00     		movs	r2, r3
 2120 03f2 7B69     		ldr	r3, [r7, #20]
 2121 03f4 1B78     		ldrb	r3, [r3]
 2122 03f6 9B00     		lsls	r3, r3, #2
 2123 03f8 D218     		adds	r2, r2, r3
 2124 03fa 7B68     		ldr	r3, [r7, #4]
 2125 03fc 1B68     		ldr	r3, [r3]
 2126 03fe 1900     		movs	r1, r3
 2127 0400 7B69     		ldr	r3, [r7, #20]
 2128 0402 1B78     		ldrb	r3, [r3]
 2129 0404 9B00     		lsls	r3, r3, #2
 2130 0406 CB18     		adds	r3, r1, r3
 2131 0408 1B88     		ldrh	r3, [r3]
 2132 040a B149     		ldr	r1, .L86
 2133 040c 0B40     		ands	r3, r1
 2134 040e 9BB2     		uxth	r3, r3
 2135 0410 B049     		ldr	r1, .L86+4
 2136 0412 0B43     		orrs	r3, r1
 2137 0414 9BB2     		uxth	r3, r3
 2138 0416 1380     		strh	r3, [r2]
 723:Drivers/STM32F0xx_HAL_Driver/Src/stm32f0xx_hal_pcd.c ****     /*Set buffer address for double buffered mode*/
 724:Drivers/STM32F0xx_HAL_Driver/Src/stm32f0xx_hal_pcd.c ****     PCD_SET_EP_DBUF_ADDR(hpcd->Instance, ep->num,ep->pmaaddr0, ep->pmaaddr1)
 2139              		.loc 1 724 0
 2140 0418 7B68     		ldr	r3, [r7, #4]
 2141 041a 1B68     		ldr	r3, [r3]
 2142 041c 5022     		movs	r2, #80
 2143 041e 9B5A     		ldrh	r3, [r3, r2]
 2144 0420 9BB2     		uxth	r3, r3
 2145 0422 1A00     		movs	r2, r3
 2146 0424 7B69     		ldr	r3, [r7, #20]
 2147 0426 1B78     		ldrb	r3, [r3]
 2148 0428 DB00     		lsls	r3, r3, #3
 2149 042a D318     		adds	r3, r2, r3
 2150 042c 1A00     		movs	r2, r3
 2151 042e 7B68     		ldr	r3, [r7, #4]
 2152 0430 1B68     		ldr	r3, [r3]
 2153 0432 D318     		adds	r3, r2, r3
 2154 0434 8022     		movs	r2, #128
 2155 0436 D200     		lsls	r2, r2, #3
 2156 0438 9446     		mov	ip, r2
ARM GAS  /tmp/cczZJmfg.s 			page 51


 2157 043a 6344     		add	r3, r3, ip
 2158 043c 1A00     		movs	r2, r3
 2159 043e 7B69     		ldr	r3, [r7, #20]
 2160 0440 DB88     		ldrh	r3, [r3, #6]
 2161 0442 5B08     		lsrs	r3, r3, #1
 2162 0444 9BB2     		uxth	r3, r3
 2163 0446 DB18     		adds	r3, r3, r3
 2164 0448 9BB2     		uxth	r3, r3
 2165 044a 1380     		strh	r3, [r2]
 2166 044c 7B68     		ldr	r3, [r7, #4]
 2167 044e 1B68     		ldr	r3, [r3]
 2168 0450 5022     		movs	r2, #80
 2169 0452 9B5A     		ldrh	r3, [r3, r2]
 2170 0454 9BB2     		uxth	r3, r3
 2171 0456 1A00     		movs	r2, r3
 2172 0458 7B69     		ldr	r3, [r7, #20]
 2173 045a 1B78     		ldrb	r3, [r3]
 2174 045c DB00     		lsls	r3, r3, #3
 2175 045e D318     		adds	r3, r2, r3
 2176 0460 1A00     		movs	r2, r3
 2177 0462 7B68     		ldr	r3, [r7, #4]
 2178 0464 1B68     		ldr	r3, [r3]
 2179 0466 D318     		adds	r3, r2, r3
 2180 0468 9B4A     		ldr	r2, .L86+8
 2181 046a 9446     		mov	ip, r2
 2182 046c 6344     		add	r3, r3, ip
 2183 046e 1A00     		movs	r2, r3
 2184 0470 7B69     		ldr	r3, [r7, #20]
 2185 0472 1B89     		ldrh	r3, [r3, #8]
 2186 0474 5B08     		lsrs	r3, r3, #1
 2187 0476 9BB2     		uxth	r3, r3
 2188 0478 DB18     		adds	r3, r3, r3
 2189 047a 9BB2     		uxth	r3, r3
 2190 047c 1380     		strh	r3, [r2]
 725:Drivers/STM32F0xx_HAL_Driver/Src/stm32f0xx_hal_pcd.c ****     
 726:Drivers/STM32F0xx_HAL_Driver/Src/stm32f0xx_hal_pcd.c ****     if (ep->is_in==0)
 2191              		.loc 1 726 0
 2192 047e 7B69     		ldr	r3, [r7, #20]
 2193 0480 5B78     		ldrb	r3, [r3, #1]
 2194 0482 002B     		cmp	r3, #0
 2195 0484 00D0     		beq	.LCB1980
 2196 0486 8FE0     		b	.L79	@long jump
 2197              	.LCB1980:
 727:Drivers/STM32F0xx_HAL_Driver/Src/stm32f0xx_hal_pcd.c ****     {
 728:Drivers/STM32F0xx_HAL_Driver/Src/stm32f0xx_hal_pcd.c ****       /* Clear the data toggle bits for the endpoint IN/OUT*/
 729:Drivers/STM32F0xx_HAL_Driver/Src/stm32f0xx_hal_pcd.c ****       PCD_CLEAR_RX_DTOG(hpcd->Instance, ep->num)
 2198              		.loc 1 729 0
 2199 0488 7B68     		ldr	r3, [r7, #4]
 2200 048a 1B68     		ldr	r3, [r3]
 2201 048c 1A00     		movs	r2, r3
 2202 048e 7B69     		ldr	r3, [r7, #20]
 2203 0490 1B78     		ldrb	r3, [r3]
 2204 0492 9B00     		lsls	r3, r3, #2
 2205 0494 D318     		adds	r3, r2, r3
 2206 0496 1B88     		ldrh	r3, [r3]
 2207 0498 1A00     		movs	r2, r3
 2208 049a 8023     		movs	r3, #128
ARM GAS  /tmp/cczZJmfg.s 			page 52


 2209 049c DB01     		lsls	r3, r3, #7
 2210 049e 1340     		ands	r3, r2
 2211 04a0 15D0     		beq	.L80
 2212              		.loc 1 729 0 is_stmt 0 discriminator 1
 2213 04a2 7B68     		ldr	r3, [r7, #4]
 2214 04a4 1B68     		ldr	r3, [r3]
 2215 04a6 1A00     		movs	r2, r3
 2216 04a8 7B69     		ldr	r3, [r7, #20]
 2217 04aa 1B78     		ldrb	r3, [r3]
 2218 04ac 9B00     		lsls	r3, r3, #2
 2219 04ae D218     		adds	r2, r2, r3
 2220 04b0 7B68     		ldr	r3, [r7, #4]
 2221 04b2 1B68     		ldr	r3, [r3]
 2222 04b4 1900     		movs	r1, r3
 2223 04b6 7B69     		ldr	r3, [r7, #20]
 2224 04b8 1B78     		ldrb	r3, [r3]
 2225 04ba 9B00     		lsls	r3, r3, #2
 2226 04bc CB18     		adds	r3, r1, r3
 2227 04be 1B88     		ldrh	r3, [r3]
 2228 04c0 8649     		ldr	r1, .L86+12
 2229 04c2 0B40     		ands	r3, r1
 2230 04c4 9BB2     		uxth	r3, r3
 2231 04c6 8649     		ldr	r1, .L86+16
 2232 04c8 0B43     		orrs	r3, r1
 2233 04ca 9BB2     		uxth	r3, r3
 2234 04cc 1380     		strh	r3, [r2]
 2235              	.L80:
 730:Drivers/STM32F0xx_HAL_Driver/Src/stm32f0xx_hal_pcd.c ****       PCD_CLEAR_TX_DTOG(hpcd->Instance, ep->num)
 2236              		.loc 1 730 0 is_stmt 1
 2237 04ce 7B68     		ldr	r3, [r7, #4]
 2238 04d0 1B68     		ldr	r3, [r3]
 2239 04d2 1A00     		movs	r2, r3
 2240 04d4 7B69     		ldr	r3, [r7, #20]
 2241 04d6 1B78     		ldrb	r3, [r3]
 2242 04d8 9B00     		lsls	r3, r3, #2
 2243 04da D318     		adds	r3, r2, r3
 2244 04dc 1B88     		ldrh	r3, [r3]
 2245 04de 1A00     		movs	r2, r3
 2246 04e0 4023     		movs	r3, #64
 2247 04e2 1340     		ands	r3, r2
 2248 04e4 15D0     		beq	.L81
 2249              		.loc 1 730 0 is_stmt 0 discriminator 1
 2250 04e6 7B68     		ldr	r3, [r7, #4]
 2251 04e8 1B68     		ldr	r3, [r3]
 2252 04ea 1A00     		movs	r2, r3
 2253 04ec 7B69     		ldr	r3, [r7, #20]
 2254 04ee 1B78     		ldrb	r3, [r3]
 2255 04f0 9B00     		lsls	r3, r3, #2
 2256 04f2 D218     		adds	r2, r2, r3
 2257 04f4 7B68     		ldr	r3, [r7, #4]
 2258 04f6 1B68     		ldr	r3, [r3]
 2259 04f8 1900     		movs	r1, r3
 2260 04fa 7B69     		ldr	r3, [r7, #20]
 2261 04fc 1B78     		ldrb	r3, [r3]
 2262 04fe 9B00     		lsls	r3, r3, #2
 2263 0500 CB18     		adds	r3, r1, r3
 2264 0502 1B88     		ldrh	r3, [r3]
ARM GAS  /tmp/cczZJmfg.s 			page 53


 2265 0504 7549     		ldr	r1, .L86+12
 2266 0506 0B40     		ands	r3, r1
 2267 0508 9BB2     		uxth	r3, r3
 2268 050a 7649     		ldr	r1, .L86+20
 2269 050c 0B43     		orrs	r3, r1
 2270 050e 9BB2     		uxth	r3, r3
 2271 0510 1380     		strh	r3, [r2]
 2272              	.L81:
 731:Drivers/STM32F0xx_HAL_Driver/Src/stm32f0xx_hal_pcd.c ****       
 732:Drivers/STM32F0xx_HAL_Driver/Src/stm32f0xx_hal_pcd.c ****       /* Reset value of the data toggle bits for the endpoint out*/
 733:Drivers/STM32F0xx_HAL_Driver/Src/stm32f0xx_hal_pcd.c ****       PCD_TX_DTOG(hpcd->Instance, ep->num);
 2273              		.loc 1 733 0 is_stmt 1
 2274 0512 7B68     		ldr	r3, [r7, #4]
 2275 0514 1B68     		ldr	r3, [r3]
 2276 0516 1A00     		movs	r2, r3
 2277 0518 7B69     		ldr	r3, [r7, #20]
 2278 051a 1B78     		ldrb	r3, [r3]
 2279 051c 9B00     		lsls	r3, r3, #2
 2280 051e D218     		adds	r2, r2, r3
 2281 0520 7B68     		ldr	r3, [r7, #4]
 2282 0522 1B68     		ldr	r3, [r3]
 2283 0524 1900     		movs	r1, r3
 2284 0526 7B69     		ldr	r3, [r7, #20]
 2285 0528 1B78     		ldrb	r3, [r3]
 2286 052a 9B00     		lsls	r3, r3, #2
 2287 052c CB18     		adds	r3, r1, r3
 2288 052e 1B88     		ldrh	r3, [r3]
 2289 0530 6A49     		ldr	r1, .L86+12
 2290 0532 0B40     		ands	r3, r1
 2291 0534 9BB2     		uxth	r3, r3
 2292 0536 6B49     		ldr	r1, .L86+20
 2293 0538 0B43     		orrs	r3, r1
 2294 053a 9BB2     		uxth	r3, r3
 2295 053c 1380     		strh	r3, [r2]
 2296              	.LBB6:
 734:Drivers/STM32F0xx_HAL_Driver/Src/stm32f0xx_hal_pcd.c ****       
 735:Drivers/STM32F0xx_HAL_Driver/Src/stm32f0xx_hal_pcd.c ****       PCD_SET_EP_RX_STATUS(hpcd->Instance, ep->num, USB_EP_RX_VALID)
 2297              		.loc 1 735 0
 2298 053e 7B68     		ldr	r3, [r7, #4]
 2299 0540 1B68     		ldr	r3, [r3]
 2300 0542 1A00     		movs	r2, r3
 2301 0544 7B69     		ldr	r3, [r7, #20]
 2302 0546 1B78     		ldrb	r3, [r3]
 2303 0548 9B00     		lsls	r3, r3, #2
 2304 054a D318     		adds	r3, r2, r3
 2305 054c 1B88     		ldrh	r3, [r3]
 2306 054e 664A     		ldr	r2, .L86+24
 2307 0550 1340     		ands	r3, r2
 2308 0552 9CB2     		uxth	r4, r3
 2309 0554 8023     		movs	r3, #128
 2310 0556 5B01     		lsls	r3, r3, #5
 2311 0558 6340     		eors	r3, r4
 2312 055a 9CB2     		uxth	r4, r3
 2313 055c 8023     		movs	r3, #128
 2314 055e 9B01     		lsls	r3, r3, #6
 2315 0560 6340     		eors	r3, r4
 2316 0562 9CB2     		uxth	r4, r3
ARM GAS  /tmp/cczZJmfg.s 			page 54


 2317 0564 7B68     		ldr	r3, [r7, #4]
 2318 0566 1B68     		ldr	r3, [r3]
 2319 0568 1A00     		movs	r2, r3
 2320 056a 7B69     		ldr	r3, [r7, #20]
 2321 056c 1B78     		ldrb	r3, [r3]
 2322 056e 9B00     		lsls	r3, r3, #2
 2323 0570 D318     		adds	r3, r2, r3
 2324 0572 5E4A     		ldr	r2, .L86+28
 2325 0574 2243     		orrs	r2, r4
 2326 0576 92B2     		uxth	r2, r2
 2327 0578 1A80     		strh	r2, [r3]
 2328              	.LBE6:
 2329              	.LBB7:
 736:Drivers/STM32F0xx_HAL_Driver/Src/stm32f0xx_hal_pcd.c ****       PCD_SET_EP_TX_STATUS(hpcd->Instance, ep->num, USB_EP_TX_DIS)
 2330              		.loc 1 736 0
 2331 057a 7B68     		ldr	r3, [r7, #4]
 2332 057c 1B68     		ldr	r3, [r3]
 2333 057e 1A00     		movs	r2, r3
 2334 0580 7B69     		ldr	r3, [r7, #20]
 2335 0582 1B78     		ldrb	r3, [r3]
 2336 0584 9B00     		lsls	r3, r3, #2
 2337 0586 D318     		adds	r3, r2, r3
 2338 0588 1B88     		ldrh	r3, [r3]
 2339 058a 594A     		ldr	r2, .L86+32
 2340 058c 1340     		ands	r3, r2
 2341 058e 9CB2     		uxth	r4, r3
 2342 0590 7B68     		ldr	r3, [r7, #4]
 2343 0592 1B68     		ldr	r3, [r3]
 2344 0594 1A00     		movs	r2, r3
 2345 0596 7B69     		ldr	r3, [r7, #20]
 2346 0598 1B78     		ldrb	r3, [r3]
 2347 059a 9B00     		lsls	r3, r3, #2
 2348 059c D318     		adds	r3, r2, r3
 2349 059e 534A     		ldr	r2, .L86+28
 2350 05a0 2243     		orrs	r2, r4
 2351 05a2 92B2     		uxth	r2, r2
 2352 05a4 1A80     		strh	r2, [r3]
 2353              	.LBE7:
 2354 05a6 86E0     		b	.L78
 2355              	.L79:
 737:Drivers/STM32F0xx_HAL_Driver/Src/stm32f0xx_hal_pcd.c ****     }
 738:Drivers/STM32F0xx_HAL_Driver/Src/stm32f0xx_hal_pcd.c ****     else
 739:Drivers/STM32F0xx_HAL_Driver/Src/stm32f0xx_hal_pcd.c ****     {
 740:Drivers/STM32F0xx_HAL_Driver/Src/stm32f0xx_hal_pcd.c ****       /* Clear the data toggle bits for the endpoint IN/OUT*/
 741:Drivers/STM32F0xx_HAL_Driver/Src/stm32f0xx_hal_pcd.c ****       PCD_CLEAR_RX_DTOG(hpcd->Instance, ep->num)
 2356              		.loc 1 741 0
 2357 05a8 7B68     		ldr	r3, [r7, #4]
 2358 05aa 1B68     		ldr	r3, [r3]
 2359 05ac 1A00     		movs	r2, r3
 2360 05ae 7B69     		ldr	r3, [r7, #20]
 2361 05b0 1B78     		ldrb	r3, [r3]
 2362 05b2 9B00     		lsls	r3, r3, #2
 2363 05b4 D318     		adds	r3, r2, r3
 2364 05b6 1B88     		ldrh	r3, [r3]
 2365 05b8 1A00     		movs	r2, r3
 2366 05ba 8023     		movs	r3, #128
 2367 05bc DB01     		lsls	r3, r3, #7
ARM GAS  /tmp/cczZJmfg.s 			page 55


 2368 05be 1340     		ands	r3, r2
 2369 05c0 15D0     		beq	.L82
 2370              		.loc 1 741 0 is_stmt 0 discriminator 1
 2371 05c2 7B68     		ldr	r3, [r7, #4]
 2372 05c4 1B68     		ldr	r3, [r3]
 2373 05c6 1A00     		movs	r2, r3
 2374 05c8 7B69     		ldr	r3, [r7, #20]
 2375 05ca 1B78     		ldrb	r3, [r3]
 2376 05cc 9B00     		lsls	r3, r3, #2
 2377 05ce D218     		adds	r2, r2, r3
 2378 05d0 7B68     		ldr	r3, [r7, #4]
 2379 05d2 1B68     		ldr	r3, [r3]
 2380 05d4 1900     		movs	r1, r3
 2381 05d6 7B69     		ldr	r3, [r7, #20]
 2382 05d8 1B78     		ldrb	r3, [r3]
 2383 05da 9B00     		lsls	r3, r3, #2
 2384 05dc CB18     		adds	r3, r1, r3
 2385 05de 1B88     		ldrh	r3, [r3]
 2386 05e0 3E49     		ldr	r1, .L86+12
 2387 05e2 0B40     		ands	r3, r1
 2388 05e4 9BB2     		uxth	r3, r3
 2389 05e6 3E49     		ldr	r1, .L86+16
 2390 05e8 0B43     		orrs	r3, r1
 2391 05ea 9BB2     		uxth	r3, r3
 2392 05ec 1380     		strh	r3, [r2]
 2393              	.L82:
 742:Drivers/STM32F0xx_HAL_Driver/Src/stm32f0xx_hal_pcd.c ****       PCD_CLEAR_TX_DTOG(hpcd->Instance, ep->num)
 2394              		.loc 1 742 0 is_stmt 1
 2395 05ee 7B68     		ldr	r3, [r7, #4]
 2396 05f0 1B68     		ldr	r3, [r3]
 2397 05f2 1A00     		movs	r2, r3
 2398 05f4 7B69     		ldr	r3, [r7, #20]
 2399 05f6 1B78     		ldrb	r3, [r3]
 2400 05f8 9B00     		lsls	r3, r3, #2
 2401 05fa D318     		adds	r3, r2, r3
 2402 05fc 1B88     		ldrh	r3, [r3]
 2403 05fe 1A00     		movs	r2, r3
 2404 0600 4023     		movs	r3, #64
 2405 0602 1340     		ands	r3, r2
 2406 0604 15D0     		beq	.L83
 2407              		.loc 1 742 0 is_stmt 0 discriminator 1
 2408 0606 7B68     		ldr	r3, [r7, #4]
 2409 0608 1B68     		ldr	r3, [r3]
 2410 060a 1A00     		movs	r2, r3
 2411 060c 7B69     		ldr	r3, [r7, #20]
 2412 060e 1B78     		ldrb	r3, [r3]
 2413 0610 9B00     		lsls	r3, r3, #2
 2414 0612 D218     		adds	r2, r2, r3
 2415 0614 7B68     		ldr	r3, [r7, #4]
 2416 0616 1B68     		ldr	r3, [r3]
 2417 0618 1900     		movs	r1, r3
 2418 061a 7B69     		ldr	r3, [r7, #20]
 2419 061c 1B78     		ldrb	r3, [r3]
 2420 061e 9B00     		lsls	r3, r3, #2
 2421 0620 CB18     		adds	r3, r1, r3
 2422 0622 1B88     		ldrh	r3, [r3]
 2423 0624 2D49     		ldr	r1, .L86+12
ARM GAS  /tmp/cczZJmfg.s 			page 56


 2424 0626 0B40     		ands	r3, r1
 2425 0628 9BB2     		uxth	r3, r3
 2426 062a 2E49     		ldr	r1, .L86+20
 2427 062c 0B43     		orrs	r3, r1
 2428 062e 9BB2     		uxth	r3, r3
 2429 0630 1380     		strh	r3, [r2]
 2430              	.L83:
 743:Drivers/STM32F0xx_HAL_Driver/Src/stm32f0xx_hal_pcd.c ****       PCD_RX_DTOG(hpcd->Instance, ep->num);
 2431              		.loc 1 743 0 is_stmt 1
 2432 0632 7B68     		ldr	r3, [r7, #4]
 2433 0634 1B68     		ldr	r3, [r3]
 2434 0636 1A00     		movs	r2, r3
 2435 0638 7B69     		ldr	r3, [r7, #20]
 2436 063a 1B78     		ldrb	r3, [r3]
 2437 063c 9B00     		lsls	r3, r3, #2
 2438 063e D218     		adds	r2, r2, r3
 2439 0640 7B68     		ldr	r3, [r7, #4]
 2440 0642 1B68     		ldr	r3, [r3]
 2441 0644 1900     		movs	r1, r3
 2442 0646 7B69     		ldr	r3, [r7, #20]
 2443 0648 1B78     		ldrb	r3, [r3]
 2444 064a 9B00     		lsls	r3, r3, #2
 2445 064c CB18     		adds	r3, r1, r3
 2446 064e 1B88     		ldrh	r3, [r3]
 2447 0650 2249     		ldr	r1, .L86+12
 2448 0652 0B40     		ands	r3, r1
 2449 0654 9BB2     		uxth	r3, r3
 2450 0656 2249     		ldr	r1, .L86+16
 2451 0658 0B43     		orrs	r3, r1
 2452 065a 9BB2     		uxth	r3, r3
 2453 065c 1380     		strh	r3, [r2]
 2454              	.LBB8:
 744:Drivers/STM32F0xx_HAL_Driver/Src/stm32f0xx_hal_pcd.c ****       /* Configure DISABLE status for the Endpoint*/
 745:Drivers/STM32F0xx_HAL_Driver/Src/stm32f0xx_hal_pcd.c ****       PCD_SET_EP_TX_STATUS(hpcd->Instance, ep->num, USB_EP_TX_DIS)
 2455              		.loc 1 745 0
 2456 065e 7B68     		ldr	r3, [r7, #4]
 2457 0660 1B68     		ldr	r3, [r3]
 2458 0662 1A00     		movs	r2, r3
 2459 0664 7B69     		ldr	r3, [r7, #20]
 2460 0666 1B78     		ldrb	r3, [r3]
 2461 0668 9B00     		lsls	r3, r3, #2
 2462 066a D318     		adds	r3, r2, r3
 2463 066c 1B88     		ldrh	r3, [r3]
 2464 066e 204A     		ldr	r2, .L86+32
 2465 0670 1340     		ands	r3, r2
 2466 0672 9CB2     		uxth	r4, r3
 2467 0674 7B68     		ldr	r3, [r7, #4]
 2468 0676 1B68     		ldr	r3, [r3]
 2469 0678 1A00     		movs	r2, r3
 2470 067a 7B69     		ldr	r3, [r7, #20]
 2471 067c 1B78     		ldrb	r3, [r3]
 2472 067e 9B00     		lsls	r3, r3, #2
 2473 0680 D318     		adds	r3, r2, r3
 2474 0682 1A4A     		ldr	r2, .L86+28
 2475 0684 2243     		orrs	r2, r4
 2476 0686 92B2     		uxth	r2, r2
 2477 0688 1A80     		strh	r2, [r3]
ARM GAS  /tmp/cczZJmfg.s 			page 57


 2478              	.LBE8:
 2479              	.LBB9:
 746:Drivers/STM32F0xx_HAL_Driver/Src/stm32f0xx_hal_pcd.c ****       PCD_SET_EP_RX_STATUS(hpcd->Instance, ep->num, USB_EP_RX_DIS)
 2480              		.loc 1 746 0
 2481 068a 7B68     		ldr	r3, [r7, #4]
 2482 068c 1B68     		ldr	r3, [r3]
 2483 068e 1A00     		movs	r2, r3
 2484 0690 7B69     		ldr	r3, [r7, #20]
 2485 0692 1B78     		ldrb	r3, [r3]
 2486 0694 9B00     		lsls	r3, r3, #2
 2487 0696 D318     		adds	r3, r2, r3
 2488 0698 1B88     		ldrh	r3, [r3]
 2489 069a 134A     		ldr	r2, .L86+24
 2490 069c 1340     		ands	r3, r2
 2491 069e 9CB2     		uxth	r4, r3
 2492 06a0 7B68     		ldr	r3, [r7, #4]
 2493 06a2 1B68     		ldr	r3, [r3]
 2494 06a4 1A00     		movs	r2, r3
 2495 06a6 7B69     		ldr	r3, [r7, #20]
 2496 06a8 1B78     		ldrb	r3, [r3]
 2497 06aa 9B00     		lsls	r3, r3, #2
 2498 06ac D318     		adds	r3, r2, r3
 2499 06ae 0F4A     		ldr	r2, .L86+28
 2500 06b0 2243     		orrs	r2, r4
 2501 06b2 92B2     		uxth	r2, r2
 2502 06b4 1A80     		strh	r2, [r3]
 2503              	.L78:
 2504              	.LBE9:
 747:Drivers/STM32F0xx_HAL_Driver/Src/stm32f0xx_hal_pcd.c ****     }
 748:Drivers/STM32F0xx_HAL_Driver/Src/stm32f0xx_hal_pcd.c ****   } 
 749:Drivers/STM32F0xx_HAL_Driver/Src/stm32f0xx_hal_pcd.c ****   
 750:Drivers/STM32F0xx_HAL_Driver/Src/stm32f0xx_hal_pcd.c ****   __HAL_UNLOCK(hpcd);   
 2505              		.loc 1 750 0
 2506 06b6 7A68     		ldr	r2, [r7, #4]
 2507 06b8 F423     		movs	r3, #244
 2508 06ba 5B00     		lsls	r3, r3, #1
 2509 06bc 0021     		movs	r1, #0
 2510 06be D154     		strb	r1, [r2, r3]
 751:Drivers/STM32F0xx_HAL_Driver/Src/stm32f0xx_hal_pcd.c ****   return ret;
 2511              		.loc 1 751 0
 2512 06c0 1123     		movs	r3, #17
 2513 06c2 FB18     		adds	r3, r7, r3
 2514 06c4 1B78     		ldrb	r3, [r3]
 2515              	.L61:
 752:Drivers/STM32F0xx_HAL_Driver/Src/stm32f0xx_hal_pcd.c **** }
 2516              		.loc 1 752 0
 2517 06c6 1800     		movs	r0, r3
 2518 06c8 BD46     		mov	sp, r7
 2519 06ca 07B0     		add	sp, sp, #28
 2520              		@ sp needed
 2521 06cc 90BD     		pop	{r4, r7, pc}
 2522              	.L87:
 2523 06ce C046     		.align	2
 2524              	.L86:
 2525 06d0 0F0E0000 		.word	3599
 2526 06d4 8081FFFF 		.word	-32384
 2527 06d8 04040000 		.word	1028
ARM GAS  /tmp/cczZJmfg.s 			page 58


 2528 06dc 0F0F0000 		.word	3855
 2529 06e0 80C0FFFF 		.word	-16256
 2530 06e4 C080FFFF 		.word	-32576
 2531 06e8 8FBFFFFF 		.word	-16497
 2532 06ec 8080FFFF 		.word	-32640
 2533 06f0 BF8FFFFF 		.word	-28737
 2534              		.cfi_endproc
 2535              	.LFE56:
 2537              		.section	.text.HAL_PCD_EP_Close,"ax",%progbits
 2538              		.align	1
 2539              		.global	HAL_PCD_EP_Close
 2540              		.syntax unified
 2541              		.code	16
 2542              		.thumb_func
 2543              		.fpu softvfp
 2545              	HAL_PCD_EP_Close:
 2546              	.LFB57:
 753:Drivers/STM32F0xx_HAL_Driver/Src/stm32f0xx_hal_pcd.c **** 
 754:Drivers/STM32F0xx_HAL_Driver/Src/stm32f0xx_hal_pcd.c **** 
 755:Drivers/STM32F0xx_HAL_Driver/Src/stm32f0xx_hal_pcd.c **** /**
 756:Drivers/STM32F0xx_HAL_Driver/Src/stm32f0xx_hal_pcd.c ****   * @brief  Deactivate an endpoint
 757:Drivers/STM32F0xx_HAL_Driver/Src/stm32f0xx_hal_pcd.c ****   * @param  hpcd: PCD handle
 758:Drivers/STM32F0xx_HAL_Driver/Src/stm32f0xx_hal_pcd.c ****   * @param  ep_addr: endpoint address
 759:Drivers/STM32F0xx_HAL_Driver/Src/stm32f0xx_hal_pcd.c ****   * @retval HAL status
 760:Drivers/STM32F0xx_HAL_Driver/Src/stm32f0xx_hal_pcd.c ****   */
 761:Drivers/STM32F0xx_HAL_Driver/Src/stm32f0xx_hal_pcd.c **** HAL_StatusTypeDef HAL_PCD_EP_Close(PCD_HandleTypeDef *hpcd, uint8_t ep_addr)
 762:Drivers/STM32F0xx_HAL_Driver/Src/stm32f0xx_hal_pcd.c **** {  
 2547              		.loc 1 762 0
 2548              		.cfi_startproc
 2549 0000 90B5     		push	{r4, r7, lr}
 2550              	.LCFI66:
 2551              		.cfi_def_cfa_offset 12
 2552              		.cfi_offset 4, -12
 2553              		.cfi_offset 7, -8
 2554              		.cfi_offset 14, -4
 2555 0002 85B0     		sub	sp, sp, #20
 2556              	.LCFI67:
 2557              		.cfi_def_cfa_offset 32
 2558 0004 00AF     		add	r7, sp, #0
 2559              	.LCFI68:
 2560              		.cfi_def_cfa_register 7
 2561 0006 7860     		str	r0, [r7, #4]
 2562 0008 0A00     		movs	r2, r1
 2563 000a FB1C     		adds	r3, r7, #3
 2564 000c 1A70     		strb	r2, [r3]
 763:Drivers/STM32F0xx_HAL_Driver/Src/stm32f0xx_hal_pcd.c ****   PCD_EPTypeDef *ep;
 764:Drivers/STM32F0xx_HAL_Driver/Src/stm32f0xx_hal_pcd.c ****   
 765:Drivers/STM32F0xx_HAL_Driver/Src/stm32f0xx_hal_pcd.c ****   if ((ep_addr & 0x80) == 0x80)
 2565              		.loc 1 765 0
 2566 000e FB1C     		adds	r3, r7, #3
 2567 0010 1B78     		ldrb	r3, [r3]
 2568 0012 5BB2     		sxtb	r3, r3
 2569 0014 002B     		cmp	r3, #0
 2570 0016 0CDA     		bge	.L89
 766:Drivers/STM32F0xx_HAL_Driver/Src/stm32f0xx_hal_pcd.c ****   {
 767:Drivers/STM32F0xx_HAL_Driver/Src/stm32f0xx_hal_pcd.c ****     ep = &hpcd->IN_ep[ep_addr & 0x7F];
 2571              		.loc 1 767 0
ARM GAS  /tmp/cczZJmfg.s 			page 59


 2572 0018 FB1C     		adds	r3, r7, #3
 2573 001a 1B78     		ldrb	r3, [r3]
 2574 001c 7F22     		movs	r2, #127
 2575 001e 1A40     		ands	r2, r3
 2576 0020 1300     		movs	r3, r2
 2577 0022 DB00     		lsls	r3, r3, #3
 2578 0024 9B1A     		subs	r3, r3, r2
 2579 0026 9B00     		lsls	r3, r3, #2
 2580 0028 2833     		adds	r3, r3, #40
 2581 002a 7A68     		ldr	r2, [r7, #4]
 2582 002c D318     		adds	r3, r2, r3
 2583 002e FB60     		str	r3, [r7, #12]
 2584 0030 0CE0     		b	.L90
 2585              	.L89:
 768:Drivers/STM32F0xx_HAL_Driver/Src/stm32f0xx_hal_pcd.c ****   }
 769:Drivers/STM32F0xx_HAL_Driver/Src/stm32f0xx_hal_pcd.c ****   else
 770:Drivers/STM32F0xx_HAL_Driver/Src/stm32f0xx_hal_pcd.c ****   {
 771:Drivers/STM32F0xx_HAL_Driver/Src/stm32f0xx_hal_pcd.c ****     ep = &hpcd->OUT_ep[ep_addr & 0x7F];
 2586              		.loc 1 771 0
 2587 0032 FB1C     		adds	r3, r7, #3
 2588 0034 1B78     		ldrb	r3, [r3]
 2589 0036 7F22     		movs	r2, #127
 2590 0038 1A40     		ands	r2, r3
 2591 003a 1300     		movs	r3, r2
 2592 003c DB00     		lsls	r3, r3, #3
 2593 003e 9B1A     		subs	r3, r3, r2
 2594 0040 9B00     		lsls	r3, r3, #2
 2595 0042 0933     		adds	r3, r3, #9
 2596 0044 FF33     		adds	r3, r3, #255
 2597 0046 7A68     		ldr	r2, [r7, #4]
 2598 0048 D318     		adds	r3, r2, r3
 2599 004a FB60     		str	r3, [r7, #12]
 2600              	.L90:
 772:Drivers/STM32F0xx_HAL_Driver/Src/stm32f0xx_hal_pcd.c ****   }
 773:Drivers/STM32F0xx_HAL_Driver/Src/stm32f0xx_hal_pcd.c ****   ep->num   = ep_addr & 0x7F;
 2601              		.loc 1 773 0
 2602 004c FB1C     		adds	r3, r7, #3
 2603 004e 1B78     		ldrb	r3, [r3]
 2604 0050 7F22     		movs	r2, #127
 2605 0052 1340     		ands	r3, r2
 2606 0054 DAB2     		uxtb	r2, r3
 2607 0056 FB68     		ldr	r3, [r7, #12]
 2608 0058 1A70     		strb	r2, [r3]
 774:Drivers/STM32F0xx_HAL_Driver/Src/stm32f0xx_hal_pcd.c ****   
 775:Drivers/STM32F0xx_HAL_Driver/Src/stm32f0xx_hal_pcd.c ****   ep->is_in = (0x80 & ep_addr) != 0;
 2609              		.loc 1 775 0
 2610 005a FB1C     		adds	r3, r7, #3
 2611 005c 1B78     		ldrb	r3, [r3]
 2612 005e 5BB2     		sxtb	r3, r3
 2613 0060 DBB2     		uxtb	r3, r3
 2614 0062 DB09     		lsrs	r3, r3, #7
 2615 0064 DBB2     		uxtb	r3, r3
 2616 0066 1A00     		movs	r2, r3
 2617 0068 FB68     		ldr	r3, [r7, #12]
 2618 006a 5A70     		strb	r2, [r3, #1]
 776:Drivers/STM32F0xx_HAL_Driver/Src/stm32f0xx_hal_pcd.c ****   
 777:Drivers/STM32F0xx_HAL_Driver/Src/stm32f0xx_hal_pcd.c ****   __HAL_LOCK(hpcd); 
ARM GAS  /tmp/cczZJmfg.s 			page 60


 2619              		.loc 1 777 0
 2620 006c 7A68     		ldr	r2, [r7, #4]
 2621 006e F423     		movs	r3, #244
 2622 0070 5B00     		lsls	r3, r3, #1
 2623 0072 D35C     		ldrb	r3, [r2, r3]
 2624 0074 012B     		cmp	r3, #1
 2625 0076 01D1     		bne	.L91
 2626              		.loc 1 777 0 is_stmt 0 discriminator 1
 2627 0078 0223     		movs	r3, #2
 2628 007a 9AE1     		b	.L92
 2629              	.L91:
 2630              		.loc 1 777 0 discriminator 2
 2631 007c 7A68     		ldr	r2, [r7, #4]
 2632 007e F423     		movs	r3, #244
 2633 0080 5B00     		lsls	r3, r3, #1
 2634 0082 0121     		movs	r1, #1
 2635 0084 D154     		strb	r1, [r2, r3]
 778:Drivers/STM32F0xx_HAL_Driver/Src/stm32f0xx_hal_pcd.c **** 
 779:Drivers/STM32F0xx_HAL_Driver/Src/stm32f0xx_hal_pcd.c ****   if (ep->doublebuffer == 0) 
 2636              		.loc 1 779 0 is_stmt 1 discriminator 2
 2637 0086 FB68     		ldr	r3, [r7, #12]
 2638 0088 9B7A     		ldrb	r3, [r3, #10]
 2639 008a 002B     		cmp	r3, #0
 2640 008c 00D0     		beq	.LCB2413
 2641 008e 76E0     		b	.L93	@long jump
 2642              	.LCB2413:
 780:Drivers/STM32F0xx_HAL_Driver/Src/stm32f0xx_hal_pcd.c ****   {
 781:Drivers/STM32F0xx_HAL_Driver/Src/stm32f0xx_hal_pcd.c ****     if (ep->is_in)
 2643              		.loc 1 781 0
 2644 0090 FB68     		ldr	r3, [r7, #12]
 2645 0092 5B78     		ldrb	r3, [r3, #1]
 2646 0094 002B     		cmp	r3, #0
 2647 0096 38D0     		beq	.L94
 782:Drivers/STM32F0xx_HAL_Driver/Src/stm32f0xx_hal_pcd.c ****     {
 783:Drivers/STM32F0xx_HAL_Driver/Src/stm32f0xx_hal_pcd.c ****       PCD_CLEAR_TX_DTOG(hpcd->Instance, ep->num)
 2648              		.loc 1 783 0
 2649 0098 7B68     		ldr	r3, [r7, #4]
 2650 009a 1B68     		ldr	r3, [r3]
 2651 009c 1A00     		movs	r2, r3
 2652 009e FB68     		ldr	r3, [r7, #12]
 2653 00a0 1B78     		ldrb	r3, [r3]
 2654 00a2 9B00     		lsls	r3, r3, #2
 2655 00a4 D318     		adds	r3, r2, r3
 2656 00a6 1B88     		ldrh	r3, [r3]
 2657 00a8 1A00     		movs	r2, r3
 2658 00aa 4023     		movs	r3, #64
 2659 00ac 1340     		ands	r3, r2
 2660 00ae 15D0     		beq	.L95
 2661              		.loc 1 783 0 is_stmt 0 discriminator 1
 2662 00b0 7B68     		ldr	r3, [r7, #4]
 2663 00b2 1B68     		ldr	r3, [r3]
 2664 00b4 1A00     		movs	r2, r3
 2665 00b6 FB68     		ldr	r3, [r7, #12]
 2666 00b8 1B78     		ldrb	r3, [r3]
 2667 00ba 9B00     		lsls	r3, r3, #2
 2668 00bc D218     		adds	r2, r2, r3
 2669 00be 7B68     		ldr	r3, [r7, #4]
ARM GAS  /tmp/cczZJmfg.s 			page 61


 2670 00c0 1B68     		ldr	r3, [r3]
 2671 00c2 1900     		movs	r1, r3
 2672 00c4 FB68     		ldr	r3, [r7, #12]
 2673 00c6 1B78     		ldrb	r3, [r3]
 2674 00c8 9B00     		lsls	r3, r3, #2
 2675 00ca CB18     		adds	r3, r1, r3
 2676 00cc 1B88     		ldrh	r3, [r3]
 2677 00ce BB49     		ldr	r1, .L104
 2678 00d0 0B40     		ands	r3, r1
 2679 00d2 9BB2     		uxth	r3, r3
 2680 00d4 BA49     		ldr	r1, .L104+4
 2681 00d6 0B43     		orrs	r3, r1
 2682 00d8 9BB2     		uxth	r3, r3
 2683 00da 1380     		strh	r3, [r2]
 2684              	.L95:
 2685              	.LBB10:
 784:Drivers/STM32F0xx_HAL_Driver/Src/stm32f0xx_hal_pcd.c ****       /* Configure DISABLE status for the Endpoint*/
 785:Drivers/STM32F0xx_HAL_Driver/Src/stm32f0xx_hal_pcd.c ****       PCD_SET_EP_TX_STATUS(hpcd->Instance, ep->num, USB_EP_TX_DIS)
 2686              		.loc 1 785 0 is_stmt 1
 2687 00dc 7B68     		ldr	r3, [r7, #4]
 2688 00de 1B68     		ldr	r3, [r3]
 2689 00e0 1A00     		movs	r2, r3
 2690 00e2 FB68     		ldr	r3, [r7, #12]
 2691 00e4 1B78     		ldrb	r3, [r3]
 2692 00e6 9B00     		lsls	r3, r3, #2
 2693 00e8 D318     		adds	r3, r2, r3
 2694 00ea 1B88     		ldrh	r3, [r3]
 2695 00ec B54A     		ldr	r2, .L104+8
 2696 00ee 1340     		ands	r3, r2
 2697 00f0 9CB2     		uxth	r4, r3
 2698 00f2 7B68     		ldr	r3, [r7, #4]
 2699 00f4 1B68     		ldr	r3, [r3]
 2700 00f6 1A00     		movs	r2, r3
 2701 00f8 FB68     		ldr	r3, [r7, #12]
 2702 00fa 1B78     		ldrb	r3, [r3]
 2703 00fc 9B00     		lsls	r3, r3, #2
 2704 00fe D318     		adds	r3, r2, r3
 2705 0100 B14A     		ldr	r2, .L104+12
 2706 0102 2243     		orrs	r2, r4
 2707 0104 92B2     		uxth	r2, r2
 2708 0106 1A80     		strh	r2, [r3]
 2709              	.LBE10:
 2710 0108 4DE1     		b	.L98
 2711              	.L94:
 786:Drivers/STM32F0xx_HAL_Driver/Src/stm32f0xx_hal_pcd.c ****     }
 787:Drivers/STM32F0xx_HAL_Driver/Src/stm32f0xx_hal_pcd.c ****     else
 788:Drivers/STM32F0xx_HAL_Driver/Src/stm32f0xx_hal_pcd.c ****     {
 789:Drivers/STM32F0xx_HAL_Driver/Src/stm32f0xx_hal_pcd.c ****       PCD_CLEAR_RX_DTOG(hpcd->Instance, ep->num)
 2712              		.loc 1 789 0
 2713 010a 7B68     		ldr	r3, [r7, #4]
 2714 010c 1B68     		ldr	r3, [r3]
 2715 010e 1A00     		movs	r2, r3
 2716 0110 FB68     		ldr	r3, [r7, #12]
 2717 0112 1B78     		ldrb	r3, [r3]
 2718 0114 9B00     		lsls	r3, r3, #2
 2719 0116 D318     		adds	r3, r2, r3
 2720 0118 1B88     		ldrh	r3, [r3]
ARM GAS  /tmp/cczZJmfg.s 			page 62


 2721 011a 1A00     		movs	r2, r3
 2722 011c 8023     		movs	r3, #128
 2723 011e DB01     		lsls	r3, r3, #7
 2724 0120 1340     		ands	r3, r2
 2725 0122 15D0     		beq	.L97
 2726              		.loc 1 789 0 is_stmt 0 discriminator 1
 2727 0124 7B68     		ldr	r3, [r7, #4]
 2728 0126 1B68     		ldr	r3, [r3]
 2729 0128 1A00     		movs	r2, r3
 2730 012a FB68     		ldr	r3, [r7, #12]
 2731 012c 1B78     		ldrb	r3, [r3]
 2732 012e 9B00     		lsls	r3, r3, #2
 2733 0130 D218     		adds	r2, r2, r3
 2734 0132 7B68     		ldr	r3, [r7, #4]
 2735 0134 1B68     		ldr	r3, [r3]
 2736 0136 1900     		movs	r1, r3
 2737 0138 FB68     		ldr	r3, [r7, #12]
 2738 013a 1B78     		ldrb	r3, [r3]
 2739 013c 9B00     		lsls	r3, r3, #2
 2740 013e CB18     		adds	r3, r1, r3
 2741 0140 1B88     		ldrh	r3, [r3]
 2742 0142 9E49     		ldr	r1, .L104
 2743 0144 0B40     		ands	r3, r1
 2744 0146 9BB2     		uxth	r3, r3
 2745 0148 A049     		ldr	r1, .L104+16
 2746 014a 0B43     		orrs	r3, r1
 2747 014c 9BB2     		uxth	r3, r3
 2748 014e 1380     		strh	r3, [r2]
 2749              	.L97:
 2750              	.LBB11:
 790:Drivers/STM32F0xx_HAL_Driver/Src/stm32f0xx_hal_pcd.c ****       /* Configure DISABLE status for the Endpoint*/
 791:Drivers/STM32F0xx_HAL_Driver/Src/stm32f0xx_hal_pcd.c ****       PCD_SET_EP_RX_STATUS(hpcd->Instance, ep->num, USB_EP_RX_DIS)
 2751              		.loc 1 791 0 is_stmt 1
 2752 0150 7B68     		ldr	r3, [r7, #4]
 2753 0152 1B68     		ldr	r3, [r3]
 2754 0154 1A00     		movs	r2, r3
 2755 0156 FB68     		ldr	r3, [r7, #12]
 2756 0158 1B78     		ldrb	r3, [r3]
 2757 015a 9B00     		lsls	r3, r3, #2
 2758 015c D318     		adds	r3, r2, r3
 2759 015e 1B88     		ldrh	r3, [r3]
 2760 0160 9B4A     		ldr	r2, .L104+20
 2761 0162 1340     		ands	r3, r2
 2762 0164 9CB2     		uxth	r4, r3
 2763 0166 7B68     		ldr	r3, [r7, #4]
 2764 0168 1B68     		ldr	r3, [r3]
 2765 016a 1A00     		movs	r2, r3
 2766 016c FB68     		ldr	r3, [r7, #12]
 2767 016e 1B78     		ldrb	r3, [r3]
 2768 0170 9B00     		lsls	r3, r3, #2
 2769 0172 D318     		adds	r3, r2, r3
 2770 0174 944A     		ldr	r2, .L104+12
 2771 0176 2243     		orrs	r2, r4
 2772 0178 92B2     		uxth	r2, r2
 2773 017a 1A80     		strh	r2, [r3]
 2774 017c 13E1     		b	.L98
 2775              	.L93:
ARM GAS  /tmp/cczZJmfg.s 			page 63


 2776              	.LBE11:
 792:Drivers/STM32F0xx_HAL_Driver/Src/stm32f0xx_hal_pcd.c ****     }
 793:Drivers/STM32F0xx_HAL_Driver/Src/stm32f0xx_hal_pcd.c ****   }
 794:Drivers/STM32F0xx_HAL_Driver/Src/stm32f0xx_hal_pcd.c ****   /*Double Buffer*/
 795:Drivers/STM32F0xx_HAL_Driver/Src/stm32f0xx_hal_pcd.c ****   else
 796:Drivers/STM32F0xx_HAL_Driver/Src/stm32f0xx_hal_pcd.c ****   { 
 797:Drivers/STM32F0xx_HAL_Driver/Src/stm32f0xx_hal_pcd.c ****     if (ep->is_in==0)
 2777              		.loc 1 797 0
 2778 017e FB68     		ldr	r3, [r7, #12]
 2779 0180 5B78     		ldrb	r3, [r3, #1]
 2780 0182 002B     		cmp	r3, #0
 2781 0184 00D0     		beq	.LCB2552
 2782 0186 87E0     		b	.L99	@long jump
 2783              	.LCB2552:
 798:Drivers/STM32F0xx_HAL_Driver/Src/stm32f0xx_hal_pcd.c ****     {
 799:Drivers/STM32F0xx_HAL_Driver/Src/stm32f0xx_hal_pcd.c ****       /* Clear the data toggle bits for the endpoint IN/OUT*/
 800:Drivers/STM32F0xx_HAL_Driver/Src/stm32f0xx_hal_pcd.c ****       PCD_CLEAR_RX_DTOG(hpcd->Instance, ep->num)
 2784              		.loc 1 800 0
 2785 0188 7B68     		ldr	r3, [r7, #4]
 2786 018a 1B68     		ldr	r3, [r3]
 2787 018c 1A00     		movs	r2, r3
 2788 018e FB68     		ldr	r3, [r7, #12]
 2789 0190 1B78     		ldrb	r3, [r3]
 2790 0192 9B00     		lsls	r3, r3, #2
 2791 0194 D318     		adds	r3, r2, r3
 2792 0196 1B88     		ldrh	r3, [r3]
 2793 0198 1A00     		movs	r2, r3
 2794 019a 8023     		movs	r3, #128
 2795 019c DB01     		lsls	r3, r3, #7
 2796 019e 1340     		ands	r3, r2
 2797 01a0 15D0     		beq	.L100
 2798              		.loc 1 800 0 is_stmt 0 discriminator 1
 2799 01a2 7B68     		ldr	r3, [r7, #4]
 2800 01a4 1B68     		ldr	r3, [r3]
 2801 01a6 1A00     		movs	r2, r3
 2802 01a8 FB68     		ldr	r3, [r7, #12]
 2803 01aa 1B78     		ldrb	r3, [r3]
 2804 01ac 9B00     		lsls	r3, r3, #2
 2805 01ae D218     		adds	r2, r2, r3
 2806 01b0 7B68     		ldr	r3, [r7, #4]
 2807 01b2 1B68     		ldr	r3, [r3]
 2808 01b4 1900     		movs	r1, r3
 2809 01b6 FB68     		ldr	r3, [r7, #12]
 2810 01b8 1B78     		ldrb	r3, [r3]
 2811 01ba 9B00     		lsls	r3, r3, #2
 2812 01bc CB18     		adds	r3, r1, r3
 2813 01be 1B88     		ldrh	r3, [r3]
 2814 01c0 7E49     		ldr	r1, .L104
 2815 01c2 0B40     		ands	r3, r1
 2816 01c4 9BB2     		uxth	r3, r3
 2817 01c6 8149     		ldr	r1, .L104+16
 2818 01c8 0B43     		orrs	r3, r1
 2819 01ca 9BB2     		uxth	r3, r3
 2820 01cc 1380     		strh	r3, [r2]
 2821              	.L100:
 801:Drivers/STM32F0xx_HAL_Driver/Src/stm32f0xx_hal_pcd.c ****       PCD_CLEAR_TX_DTOG(hpcd->Instance, ep->num)
 2822              		.loc 1 801 0 is_stmt 1
ARM GAS  /tmp/cczZJmfg.s 			page 64


 2823 01ce 7B68     		ldr	r3, [r7, #4]
 2824 01d0 1B68     		ldr	r3, [r3]
 2825 01d2 1A00     		movs	r2, r3
 2826 01d4 FB68     		ldr	r3, [r7, #12]
 2827 01d6 1B78     		ldrb	r3, [r3]
 2828 01d8 9B00     		lsls	r3, r3, #2
 2829 01da D318     		adds	r3, r2, r3
 2830 01dc 1B88     		ldrh	r3, [r3]
 2831 01de 1A00     		movs	r2, r3
 2832 01e0 4023     		movs	r3, #64
 2833 01e2 1340     		ands	r3, r2
 2834 01e4 15D0     		beq	.L101
 2835              		.loc 1 801 0 is_stmt 0 discriminator 1
 2836 01e6 7B68     		ldr	r3, [r7, #4]
 2837 01e8 1B68     		ldr	r3, [r3]
 2838 01ea 1A00     		movs	r2, r3
 2839 01ec FB68     		ldr	r3, [r7, #12]
 2840 01ee 1B78     		ldrb	r3, [r3]
 2841 01f0 9B00     		lsls	r3, r3, #2
 2842 01f2 D218     		adds	r2, r2, r3
 2843 01f4 7B68     		ldr	r3, [r7, #4]
 2844 01f6 1B68     		ldr	r3, [r3]
 2845 01f8 1900     		movs	r1, r3
 2846 01fa FB68     		ldr	r3, [r7, #12]
 2847 01fc 1B78     		ldrb	r3, [r3]
 2848 01fe 9B00     		lsls	r3, r3, #2
 2849 0200 CB18     		adds	r3, r1, r3
 2850 0202 1B88     		ldrh	r3, [r3]
 2851 0204 6D49     		ldr	r1, .L104
 2852 0206 0B40     		ands	r3, r1
 2853 0208 9BB2     		uxth	r3, r3
 2854 020a 6D49     		ldr	r1, .L104+4
 2855 020c 0B43     		orrs	r3, r1
 2856 020e 9BB2     		uxth	r3, r3
 2857 0210 1380     		strh	r3, [r2]
 2858              	.L101:
 802:Drivers/STM32F0xx_HAL_Driver/Src/stm32f0xx_hal_pcd.c ****       
 803:Drivers/STM32F0xx_HAL_Driver/Src/stm32f0xx_hal_pcd.c ****       /* Reset value of the data toggle bits for the endpoint out*/
 804:Drivers/STM32F0xx_HAL_Driver/Src/stm32f0xx_hal_pcd.c ****       PCD_TX_DTOG(hpcd->Instance, ep->num);
 2859              		.loc 1 804 0 is_stmt 1
 2860 0212 7B68     		ldr	r3, [r7, #4]
 2861 0214 1B68     		ldr	r3, [r3]
 2862 0216 1A00     		movs	r2, r3
 2863 0218 FB68     		ldr	r3, [r7, #12]
 2864 021a 1B78     		ldrb	r3, [r3]
 2865 021c 9B00     		lsls	r3, r3, #2
 2866 021e D218     		adds	r2, r2, r3
 2867 0220 7B68     		ldr	r3, [r7, #4]
 2868 0222 1B68     		ldr	r3, [r3]
 2869 0224 1900     		movs	r1, r3
 2870 0226 FB68     		ldr	r3, [r7, #12]
 2871 0228 1B78     		ldrb	r3, [r3]
 2872 022a 9B00     		lsls	r3, r3, #2
 2873 022c CB18     		adds	r3, r1, r3
 2874 022e 1B88     		ldrh	r3, [r3]
 2875 0230 6249     		ldr	r1, .L104
 2876 0232 0B40     		ands	r3, r1
ARM GAS  /tmp/cczZJmfg.s 			page 65


 2877 0234 9BB2     		uxth	r3, r3
 2878 0236 6249     		ldr	r1, .L104+4
 2879 0238 0B43     		orrs	r3, r1
 2880 023a 9BB2     		uxth	r3, r3
 2881 023c 1380     		strh	r3, [r2]
 2882              	.LBB12:
 805:Drivers/STM32F0xx_HAL_Driver/Src/stm32f0xx_hal_pcd.c ****       
 806:Drivers/STM32F0xx_HAL_Driver/Src/stm32f0xx_hal_pcd.c ****       PCD_SET_EP_RX_STATUS(hpcd->Instance, ep->num, USB_EP_RX_DIS)
 2883              		.loc 1 806 0
 2884 023e 7B68     		ldr	r3, [r7, #4]
 2885 0240 1B68     		ldr	r3, [r3]
 2886 0242 1A00     		movs	r2, r3
 2887 0244 FB68     		ldr	r3, [r7, #12]
 2888 0246 1B78     		ldrb	r3, [r3]
 2889 0248 9B00     		lsls	r3, r3, #2
 2890 024a D318     		adds	r3, r2, r3
 2891 024c 1B88     		ldrh	r3, [r3]
 2892 024e 604A     		ldr	r2, .L104+20
 2893 0250 1340     		ands	r3, r2
 2894 0252 9CB2     		uxth	r4, r3
 2895 0254 7B68     		ldr	r3, [r7, #4]
 2896 0256 1B68     		ldr	r3, [r3]
 2897 0258 1A00     		movs	r2, r3
 2898 025a FB68     		ldr	r3, [r7, #12]
 2899 025c 1B78     		ldrb	r3, [r3]
 2900 025e 9B00     		lsls	r3, r3, #2
 2901 0260 D318     		adds	r3, r2, r3
 2902 0262 594A     		ldr	r2, .L104+12
 2903 0264 2243     		orrs	r2, r4
 2904 0266 92B2     		uxth	r2, r2
 2905 0268 1A80     		strh	r2, [r3]
 2906              	.LBE12:
 2907              	.LBB13:
 807:Drivers/STM32F0xx_HAL_Driver/Src/stm32f0xx_hal_pcd.c ****       PCD_SET_EP_TX_STATUS(hpcd->Instance, ep->num, USB_EP_TX_DIS)
 2908              		.loc 1 807 0
 2909 026a 7B68     		ldr	r3, [r7, #4]
 2910 026c 1B68     		ldr	r3, [r3]
 2911 026e 1A00     		movs	r2, r3
 2912 0270 FB68     		ldr	r3, [r7, #12]
 2913 0272 1B78     		ldrb	r3, [r3]
 2914 0274 9B00     		lsls	r3, r3, #2
 2915 0276 D318     		adds	r3, r2, r3
 2916 0278 1B88     		ldrh	r3, [r3]
 2917 027a 524A     		ldr	r2, .L104+8
 2918 027c 1340     		ands	r3, r2
 2919 027e 9CB2     		uxth	r4, r3
 2920 0280 7B68     		ldr	r3, [r7, #4]
 2921 0282 1B68     		ldr	r3, [r3]
 2922 0284 1A00     		movs	r2, r3
 2923 0286 FB68     		ldr	r3, [r7, #12]
 2924 0288 1B78     		ldrb	r3, [r3]
 2925 028a 9B00     		lsls	r3, r3, #2
 2926 028c D318     		adds	r3, r2, r3
 2927 028e 4E4A     		ldr	r2, .L104+12
 2928 0290 2243     		orrs	r2, r4
 2929 0292 92B2     		uxth	r2, r2
 2930 0294 1A80     		strh	r2, [r3]
ARM GAS  /tmp/cczZJmfg.s 			page 66


 2931              	.LBE13:
 2932 0296 86E0     		b	.L98
 2933              	.L99:
 808:Drivers/STM32F0xx_HAL_Driver/Src/stm32f0xx_hal_pcd.c ****     }
 809:Drivers/STM32F0xx_HAL_Driver/Src/stm32f0xx_hal_pcd.c ****     else
 810:Drivers/STM32F0xx_HAL_Driver/Src/stm32f0xx_hal_pcd.c ****     {
 811:Drivers/STM32F0xx_HAL_Driver/Src/stm32f0xx_hal_pcd.c ****       /* Clear the data toggle bits for the endpoint IN/OUT*/
 812:Drivers/STM32F0xx_HAL_Driver/Src/stm32f0xx_hal_pcd.c ****       PCD_CLEAR_RX_DTOG(hpcd->Instance, ep->num)
 2934              		.loc 1 812 0
 2935 0298 7B68     		ldr	r3, [r7, #4]
 2936 029a 1B68     		ldr	r3, [r3]
 2937 029c 1A00     		movs	r2, r3
 2938 029e FB68     		ldr	r3, [r7, #12]
 2939 02a0 1B78     		ldrb	r3, [r3]
 2940 02a2 9B00     		lsls	r3, r3, #2
 2941 02a4 D318     		adds	r3, r2, r3
 2942 02a6 1B88     		ldrh	r3, [r3]
 2943 02a8 1A00     		movs	r2, r3
 2944 02aa 8023     		movs	r3, #128
 2945 02ac DB01     		lsls	r3, r3, #7
 2946 02ae 1340     		ands	r3, r2
 2947 02b0 15D0     		beq	.L102
 2948              		.loc 1 812 0 is_stmt 0 discriminator 1
 2949 02b2 7B68     		ldr	r3, [r7, #4]
 2950 02b4 1B68     		ldr	r3, [r3]
 2951 02b6 1A00     		movs	r2, r3
 2952 02b8 FB68     		ldr	r3, [r7, #12]
 2953 02ba 1B78     		ldrb	r3, [r3]
 2954 02bc 9B00     		lsls	r3, r3, #2
 2955 02be D218     		adds	r2, r2, r3
 2956 02c0 7B68     		ldr	r3, [r7, #4]
 2957 02c2 1B68     		ldr	r3, [r3]
 2958 02c4 1900     		movs	r1, r3
 2959 02c6 FB68     		ldr	r3, [r7, #12]
 2960 02c8 1B78     		ldrb	r3, [r3]
 2961 02ca 9B00     		lsls	r3, r3, #2
 2962 02cc CB18     		adds	r3, r1, r3
 2963 02ce 1B88     		ldrh	r3, [r3]
 2964 02d0 3A49     		ldr	r1, .L104
 2965 02d2 0B40     		ands	r3, r1
 2966 02d4 9BB2     		uxth	r3, r3
 2967 02d6 3D49     		ldr	r1, .L104+16
 2968 02d8 0B43     		orrs	r3, r1
 2969 02da 9BB2     		uxth	r3, r3
 2970 02dc 1380     		strh	r3, [r2]
 2971              	.L102:
 813:Drivers/STM32F0xx_HAL_Driver/Src/stm32f0xx_hal_pcd.c ****       PCD_CLEAR_TX_DTOG(hpcd->Instance, ep->num)
 2972              		.loc 1 813 0 is_stmt 1
 2973 02de 7B68     		ldr	r3, [r7, #4]
 2974 02e0 1B68     		ldr	r3, [r3]
 2975 02e2 1A00     		movs	r2, r3
 2976 02e4 FB68     		ldr	r3, [r7, #12]
 2977 02e6 1B78     		ldrb	r3, [r3]
 2978 02e8 9B00     		lsls	r3, r3, #2
 2979 02ea D318     		adds	r3, r2, r3
 2980 02ec 1B88     		ldrh	r3, [r3]
 2981 02ee 1A00     		movs	r2, r3
ARM GAS  /tmp/cczZJmfg.s 			page 67


 2982 02f0 4023     		movs	r3, #64
 2983 02f2 1340     		ands	r3, r2
 2984 02f4 15D0     		beq	.L103
 2985              		.loc 1 813 0 is_stmt 0 discriminator 1
 2986 02f6 7B68     		ldr	r3, [r7, #4]
 2987 02f8 1B68     		ldr	r3, [r3]
 2988 02fa 1A00     		movs	r2, r3
 2989 02fc FB68     		ldr	r3, [r7, #12]
 2990 02fe 1B78     		ldrb	r3, [r3]
 2991 0300 9B00     		lsls	r3, r3, #2
 2992 0302 D218     		adds	r2, r2, r3
 2993 0304 7B68     		ldr	r3, [r7, #4]
 2994 0306 1B68     		ldr	r3, [r3]
 2995 0308 1900     		movs	r1, r3
 2996 030a FB68     		ldr	r3, [r7, #12]
 2997 030c 1B78     		ldrb	r3, [r3]
 2998 030e 9B00     		lsls	r3, r3, #2
 2999 0310 CB18     		adds	r3, r1, r3
 3000 0312 1B88     		ldrh	r3, [r3]
 3001 0314 2949     		ldr	r1, .L104
 3002 0316 0B40     		ands	r3, r1
 3003 0318 9BB2     		uxth	r3, r3
 3004 031a 2949     		ldr	r1, .L104+4
 3005 031c 0B43     		orrs	r3, r1
 3006 031e 9BB2     		uxth	r3, r3
 3007 0320 1380     		strh	r3, [r2]
 3008              	.L103:
 814:Drivers/STM32F0xx_HAL_Driver/Src/stm32f0xx_hal_pcd.c ****       PCD_RX_DTOG(hpcd->Instance, ep->num);
 3009              		.loc 1 814 0 is_stmt 1
 3010 0322 7B68     		ldr	r3, [r7, #4]
 3011 0324 1B68     		ldr	r3, [r3]
 3012 0326 1A00     		movs	r2, r3
 3013 0328 FB68     		ldr	r3, [r7, #12]
 3014 032a 1B78     		ldrb	r3, [r3]
 3015 032c 9B00     		lsls	r3, r3, #2
 3016 032e D218     		adds	r2, r2, r3
 3017 0330 7B68     		ldr	r3, [r7, #4]
 3018 0332 1B68     		ldr	r3, [r3]
 3019 0334 1900     		movs	r1, r3
 3020 0336 FB68     		ldr	r3, [r7, #12]
 3021 0338 1B78     		ldrb	r3, [r3]
 3022 033a 9B00     		lsls	r3, r3, #2
 3023 033c CB18     		adds	r3, r1, r3
 3024 033e 1B88     		ldrh	r3, [r3]
 3025 0340 1E49     		ldr	r1, .L104
 3026 0342 0B40     		ands	r3, r1
 3027 0344 9BB2     		uxth	r3, r3
 3028 0346 2149     		ldr	r1, .L104+16
 3029 0348 0B43     		orrs	r3, r1
 3030 034a 9BB2     		uxth	r3, r3
 3031 034c 1380     		strh	r3, [r2]
 3032              	.LBB14:
 815:Drivers/STM32F0xx_HAL_Driver/Src/stm32f0xx_hal_pcd.c ****       /* Configure DISABLE status for the Endpoint*/
 816:Drivers/STM32F0xx_HAL_Driver/Src/stm32f0xx_hal_pcd.c ****       PCD_SET_EP_TX_STATUS(hpcd->Instance, ep->num, USB_EP_TX_DIS)
 3033              		.loc 1 816 0
 3034 034e 7B68     		ldr	r3, [r7, #4]
 3035 0350 1B68     		ldr	r3, [r3]
ARM GAS  /tmp/cczZJmfg.s 			page 68


 3036 0352 1A00     		movs	r2, r3
 3037 0354 FB68     		ldr	r3, [r7, #12]
 3038 0356 1B78     		ldrb	r3, [r3]
 3039 0358 9B00     		lsls	r3, r3, #2
 3040 035a D318     		adds	r3, r2, r3
 3041 035c 1B88     		ldrh	r3, [r3]
 3042 035e 194A     		ldr	r2, .L104+8
 3043 0360 1340     		ands	r3, r2
 3044 0362 9CB2     		uxth	r4, r3
 3045 0364 7B68     		ldr	r3, [r7, #4]
 3046 0366 1B68     		ldr	r3, [r3]
 3047 0368 1A00     		movs	r2, r3
 3048 036a FB68     		ldr	r3, [r7, #12]
 3049 036c 1B78     		ldrb	r3, [r3]
 3050 036e 9B00     		lsls	r3, r3, #2
 3051 0370 D318     		adds	r3, r2, r3
 3052 0372 154A     		ldr	r2, .L104+12
 3053 0374 2243     		orrs	r2, r4
 3054 0376 92B2     		uxth	r2, r2
 3055 0378 1A80     		strh	r2, [r3]
 3056              	.LBE14:
 3057              	.LBB15:
 817:Drivers/STM32F0xx_HAL_Driver/Src/stm32f0xx_hal_pcd.c ****       PCD_SET_EP_RX_STATUS(hpcd->Instance, ep->num, USB_EP_RX_DIS)
 3058              		.loc 1 817 0
 3059 037a 7B68     		ldr	r3, [r7, #4]
 3060 037c 1B68     		ldr	r3, [r3]
 3061 037e 1A00     		movs	r2, r3
 3062 0380 FB68     		ldr	r3, [r7, #12]
 3063 0382 1B78     		ldrb	r3, [r3]
 3064 0384 9B00     		lsls	r3, r3, #2
 3065 0386 D318     		adds	r3, r2, r3
 3066 0388 1B88     		ldrh	r3, [r3]
 3067 038a 114A     		ldr	r2, .L104+20
 3068 038c 1340     		ands	r3, r2
 3069 038e 9CB2     		uxth	r4, r3
 3070 0390 7B68     		ldr	r3, [r7, #4]
 3071 0392 1B68     		ldr	r3, [r3]
 3072 0394 1A00     		movs	r2, r3
 3073 0396 FB68     		ldr	r3, [r7, #12]
 3074 0398 1B78     		ldrb	r3, [r3]
 3075 039a 9B00     		lsls	r3, r3, #2
 3076 039c D318     		adds	r3, r2, r3
 3077 039e 0A4A     		ldr	r2, .L104+12
 3078 03a0 2243     		orrs	r2, r4
 3079 03a2 92B2     		uxth	r2, r2
 3080 03a4 1A80     		strh	r2, [r3]
 3081              	.L98:
 3082              	.LBE15:
 818:Drivers/STM32F0xx_HAL_Driver/Src/stm32f0xx_hal_pcd.c ****     }
 819:Drivers/STM32F0xx_HAL_Driver/Src/stm32f0xx_hal_pcd.c ****   } 
 820:Drivers/STM32F0xx_HAL_Driver/Src/stm32f0xx_hal_pcd.c ****   
 821:Drivers/STM32F0xx_HAL_Driver/Src/stm32f0xx_hal_pcd.c ****   __HAL_UNLOCK(hpcd);   
 3083              		.loc 1 821 0
 3084 03a6 7A68     		ldr	r2, [r7, #4]
 3085 03a8 F423     		movs	r3, #244
 3086 03aa 5B00     		lsls	r3, r3, #1
 3087 03ac 0021     		movs	r1, #0
ARM GAS  /tmp/cczZJmfg.s 			page 69


 3088 03ae D154     		strb	r1, [r2, r3]
 822:Drivers/STM32F0xx_HAL_Driver/Src/stm32f0xx_hal_pcd.c ****   return HAL_OK;
 3089              		.loc 1 822 0
 3090 03b0 0023     		movs	r3, #0
 3091              	.L92:
 823:Drivers/STM32F0xx_HAL_Driver/Src/stm32f0xx_hal_pcd.c **** }
 3092              		.loc 1 823 0
 3093 03b2 1800     		movs	r0, r3
 3094 03b4 BD46     		mov	sp, r7
 3095 03b6 05B0     		add	sp, sp, #20
 3096              		@ sp needed
 3097 03b8 90BD     		pop	{r4, r7, pc}
 3098              	.L105:
 3099 03ba C046     		.align	2
 3100              	.L104:
 3101 03bc 0F0F0000 		.word	3855
 3102 03c0 C080FFFF 		.word	-32576
 3103 03c4 BF8FFFFF 		.word	-28737
 3104 03c8 8080FFFF 		.word	-32640
 3105 03cc 80C0FFFF 		.word	-16256
 3106 03d0 8FBFFFFF 		.word	-16497
 3107              		.cfi_endproc
 3108              	.LFE57:
 3110              		.section	.text.HAL_PCD_EP_Receive,"ax",%progbits
 3111              		.align	1
 3112              		.global	HAL_PCD_EP_Receive
 3113              		.syntax unified
 3114              		.code	16
 3115              		.thumb_func
 3116              		.fpu softvfp
 3118              	HAL_PCD_EP_Receive:
 3119              	.LFB58:
 824:Drivers/STM32F0xx_HAL_Driver/Src/stm32f0xx_hal_pcd.c **** 
 825:Drivers/STM32F0xx_HAL_Driver/Src/stm32f0xx_hal_pcd.c **** 
 826:Drivers/STM32F0xx_HAL_Driver/Src/stm32f0xx_hal_pcd.c **** /**
 827:Drivers/STM32F0xx_HAL_Driver/Src/stm32f0xx_hal_pcd.c ****   * @brief  Receive an amount of data  
 828:Drivers/STM32F0xx_HAL_Driver/Src/stm32f0xx_hal_pcd.c ****   * @param  hpcd: PCD handle
 829:Drivers/STM32F0xx_HAL_Driver/Src/stm32f0xx_hal_pcd.c ****   * @param  ep_addr: endpoint address
 830:Drivers/STM32F0xx_HAL_Driver/Src/stm32f0xx_hal_pcd.c ****   * @param  pBuf: pointer to the reception buffer   
 831:Drivers/STM32F0xx_HAL_Driver/Src/stm32f0xx_hal_pcd.c ****   * @param  len: amount of data to be received
 832:Drivers/STM32F0xx_HAL_Driver/Src/stm32f0xx_hal_pcd.c ****   * @retval HAL status
 833:Drivers/STM32F0xx_HAL_Driver/Src/stm32f0xx_hal_pcd.c ****   */
 834:Drivers/STM32F0xx_HAL_Driver/Src/stm32f0xx_hal_pcd.c **** HAL_StatusTypeDef HAL_PCD_EP_Receive(PCD_HandleTypeDef *hpcd, uint8_t ep_addr, uint8_t *pBuf, uint3
 835:Drivers/STM32F0xx_HAL_Driver/Src/stm32f0xx_hal_pcd.c **** {
 3120              		.loc 1 835 0
 3121              		.cfi_startproc
 3122 0000 90B5     		push	{r4, r7, lr}
 3123              	.LCFI69:
 3124              		.cfi_def_cfa_offset 12
 3125              		.cfi_offset 4, -12
 3126              		.cfi_offset 7, -8
 3127              		.cfi_offset 14, -4
 3128 0002 8BB0     		sub	sp, sp, #44
 3129              	.LCFI70:
 3130              		.cfi_def_cfa_offset 56
 3131 0004 00AF     		add	r7, sp, #0
 3132              	.LCFI71:
ARM GAS  /tmp/cczZJmfg.s 			page 70


 3133              		.cfi_def_cfa_register 7
 3134 0006 F860     		str	r0, [r7, #12]
 3135 0008 7A60     		str	r2, [r7, #4]
 3136 000a 3B60     		str	r3, [r7]
 3137 000c 0B23     		movs	r3, #11
 3138 000e FB18     		adds	r3, r7, r3
 3139 0010 0A1C     		adds	r2, r1, #0
 3140 0012 1A70     		strb	r2, [r3]
 836:Drivers/STM32F0xx_HAL_Driver/Src/stm32f0xx_hal_pcd.c ****   
 837:Drivers/STM32F0xx_HAL_Driver/Src/stm32f0xx_hal_pcd.c ****  PCD_EPTypeDef *ep;
 838:Drivers/STM32F0xx_HAL_Driver/Src/stm32f0xx_hal_pcd.c ****   
 839:Drivers/STM32F0xx_HAL_Driver/Src/stm32f0xx_hal_pcd.c ****   ep = &hpcd->OUT_ep[ep_addr & 0x7F];
 3141              		.loc 1 839 0
 3142 0014 0B23     		movs	r3, #11
 3143 0016 FB18     		adds	r3, r7, r3
 3144 0018 1B78     		ldrb	r3, [r3]
 3145 001a 7F22     		movs	r2, #127
 3146 001c 1A40     		ands	r2, r3
 3147 001e 1300     		movs	r3, r2
 3148 0020 DB00     		lsls	r3, r3, #3
 3149 0022 9B1A     		subs	r3, r3, r2
 3150 0024 9B00     		lsls	r3, r3, #2
 3151 0026 0933     		adds	r3, r3, #9
 3152 0028 FF33     		adds	r3, r3, #255
 3153 002a FA68     		ldr	r2, [r7, #12]
 3154 002c D318     		adds	r3, r2, r3
 3155 002e FB61     		str	r3, [r7, #28]
 840:Drivers/STM32F0xx_HAL_Driver/Src/stm32f0xx_hal_pcd.c ****   
 841:Drivers/STM32F0xx_HAL_Driver/Src/stm32f0xx_hal_pcd.c ****   /*setup and start the Xfer */
 842:Drivers/STM32F0xx_HAL_Driver/Src/stm32f0xx_hal_pcd.c ****   ep->xfer_buff = pBuf;  
 3156              		.loc 1 842 0
 3157 0030 FB69     		ldr	r3, [r7, #28]
 3158 0032 7A68     		ldr	r2, [r7, #4]
 3159 0034 1A61     		str	r2, [r3, #16]
 843:Drivers/STM32F0xx_HAL_Driver/Src/stm32f0xx_hal_pcd.c ****   ep->xfer_len = len;
 3160              		.loc 1 843 0
 3161 0036 FB69     		ldr	r3, [r7, #28]
 3162 0038 3A68     		ldr	r2, [r7]
 3163 003a 5A61     		str	r2, [r3, #20]
 844:Drivers/STM32F0xx_HAL_Driver/Src/stm32f0xx_hal_pcd.c ****   ep->xfer_count = 0;
 3164              		.loc 1 844 0
 3165 003c FB69     		ldr	r3, [r7, #28]
 3166 003e 0022     		movs	r2, #0
 3167 0040 9A61     		str	r2, [r3, #24]
 845:Drivers/STM32F0xx_HAL_Driver/Src/stm32f0xx_hal_pcd.c ****   ep->is_in = 0;
 3168              		.loc 1 845 0
 3169 0042 FB69     		ldr	r3, [r7, #28]
 3170 0044 0022     		movs	r2, #0
 3171 0046 5A70     		strb	r2, [r3, #1]
 846:Drivers/STM32F0xx_HAL_Driver/Src/stm32f0xx_hal_pcd.c ****   ep->num = ep_addr & 0x7F;
 3172              		.loc 1 846 0
 3173 0048 0B23     		movs	r3, #11
 3174 004a FB18     		adds	r3, r7, r3
 3175 004c 1B78     		ldrb	r3, [r3]
 3176 004e 7F22     		movs	r2, #127
 3177 0050 1340     		ands	r3, r2
 3178 0052 DAB2     		uxtb	r2, r3
ARM GAS  /tmp/cczZJmfg.s 			page 71


 3179 0054 FB69     		ldr	r3, [r7, #28]
 3180 0056 1A70     		strb	r2, [r3]
 847:Drivers/STM32F0xx_HAL_Driver/Src/stm32f0xx_hal_pcd.c ****    
 848:Drivers/STM32F0xx_HAL_Driver/Src/stm32f0xx_hal_pcd.c ****   __HAL_LOCK(hpcd); 
 3181              		.loc 1 848 0
 3182 0058 FA68     		ldr	r2, [r7, #12]
 3183 005a F423     		movs	r3, #244
 3184 005c 5B00     		lsls	r3, r3, #1
 3185 005e D35C     		ldrb	r3, [r2, r3]
 3186 0060 012B     		cmp	r3, #1
 3187 0062 01D1     		bne	.L107
 3188              		.loc 1 848 0 is_stmt 0 discriminator 1
 3189 0064 0223     		movs	r3, #2
 3190 0066 52E1     		b	.L108
 3191              	.L107:
 3192              		.loc 1 848 0 discriminator 2
 3193 0068 FA68     		ldr	r2, [r7, #12]
 3194 006a F423     		movs	r3, #244
 3195 006c 5B00     		lsls	r3, r3, #1
 3196 006e 0121     		movs	r1, #1
 3197 0070 D154     		strb	r1, [r2, r3]
 849:Drivers/STM32F0xx_HAL_Driver/Src/stm32f0xx_hal_pcd.c ****    
 850:Drivers/STM32F0xx_HAL_Driver/Src/stm32f0xx_hal_pcd.c ****   /* Multi packet transfer*/
 851:Drivers/STM32F0xx_HAL_Driver/Src/stm32f0xx_hal_pcd.c ****   if (ep->xfer_len > ep->maxpacket)
 3198              		.loc 1 851 0 is_stmt 1 discriminator 2
 3199 0072 FB69     		ldr	r3, [r7, #28]
 3200 0074 5A69     		ldr	r2, [r3, #20]
 3201 0076 FB69     		ldr	r3, [r7, #28]
 3202 0078 DB68     		ldr	r3, [r3, #12]
 3203 007a 9A42     		cmp	r2, r3
 3204 007c 09D9     		bls	.L109
 852:Drivers/STM32F0xx_HAL_Driver/Src/stm32f0xx_hal_pcd.c ****   {
 853:Drivers/STM32F0xx_HAL_Driver/Src/stm32f0xx_hal_pcd.c ****     len=ep->maxpacket;
 3205              		.loc 1 853 0
 3206 007e FB69     		ldr	r3, [r7, #28]
 3207 0080 DB68     		ldr	r3, [r3, #12]
 3208 0082 3B60     		str	r3, [r7]
 854:Drivers/STM32F0xx_HAL_Driver/Src/stm32f0xx_hal_pcd.c ****     ep->xfer_len-=len; 
 3209              		.loc 1 854 0
 3210 0084 FB69     		ldr	r3, [r7, #28]
 3211 0086 5A69     		ldr	r2, [r3, #20]
 3212 0088 3B68     		ldr	r3, [r7]
 3213 008a D21A     		subs	r2, r2, r3
 3214 008c FB69     		ldr	r3, [r7, #28]
 3215 008e 5A61     		str	r2, [r3, #20]
 3216 0090 05E0     		b	.L110
 3217              	.L109:
 855:Drivers/STM32F0xx_HAL_Driver/Src/stm32f0xx_hal_pcd.c ****   }
 856:Drivers/STM32F0xx_HAL_Driver/Src/stm32f0xx_hal_pcd.c ****   else
 857:Drivers/STM32F0xx_HAL_Driver/Src/stm32f0xx_hal_pcd.c ****   {
 858:Drivers/STM32F0xx_HAL_Driver/Src/stm32f0xx_hal_pcd.c ****     len=ep->xfer_len;
 3218              		.loc 1 858 0
 3219 0092 FB69     		ldr	r3, [r7, #28]
 3220 0094 5B69     		ldr	r3, [r3, #20]
 3221 0096 3B60     		str	r3, [r7]
 859:Drivers/STM32F0xx_HAL_Driver/Src/stm32f0xx_hal_pcd.c ****     ep->xfer_len =0;
 3222              		.loc 1 859 0
ARM GAS  /tmp/cczZJmfg.s 			page 72


 3223 0098 FB69     		ldr	r3, [r7, #28]
 3224 009a 0022     		movs	r2, #0
 3225 009c 5A61     		str	r2, [r3, #20]
 3226              	.L110:
 860:Drivers/STM32F0xx_HAL_Driver/Src/stm32f0xx_hal_pcd.c ****   }
 861:Drivers/STM32F0xx_HAL_Driver/Src/stm32f0xx_hal_pcd.c ****   
 862:Drivers/STM32F0xx_HAL_Driver/Src/stm32f0xx_hal_pcd.c ****   /* configure and validate Rx endpoint */
 863:Drivers/STM32F0xx_HAL_Driver/Src/stm32f0xx_hal_pcd.c ****   if (ep->doublebuffer == 0) 
 3227              		.loc 1 863 0
 3228 009e FB69     		ldr	r3, [r7, #28]
 3229 00a0 9B7A     		ldrb	r3, [r3, #10]
 3230 00a2 002B     		cmp	r3, #0
 3231 00a4 47D1     		bne	.L111
 3232              	.LBB16:
 864:Drivers/STM32F0xx_HAL_Driver/Src/stm32f0xx_hal_pcd.c ****   {
 865:Drivers/STM32F0xx_HAL_Driver/Src/stm32f0xx_hal_pcd.c ****     /*Set RX buffer count*/
 866:Drivers/STM32F0xx_HAL_Driver/Src/stm32f0xx_hal_pcd.c ****     PCD_SET_EP_RX_CNT(hpcd->Instance, ep->num, len)
 3233              		.loc 1 866 0
 3234 00a6 FB68     		ldr	r3, [r7, #12]
 3235 00a8 1B68     		ldr	r3, [r3]
 3236 00aa 5022     		movs	r2, #80
 3237 00ac 9B5A     		ldrh	r3, [r3, r2]
 3238 00ae 9BB2     		uxth	r3, r3
 3239 00b0 1A00     		movs	r2, r3
 3240 00b2 FB69     		ldr	r3, [r7, #28]
 3241 00b4 1B78     		ldrb	r3, [r3]
 3242 00b6 DB00     		lsls	r3, r3, #3
 3243 00b8 D318     		adds	r3, r2, r3
 3244 00ba 1A00     		movs	r2, r3
 3245 00bc FB68     		ldr	r3, [r7, #12]
 3246 00be 1B68     		ldr	r3, [r3]
 3247 00c0 D318     		adds	r3, r2, r3
 3248 00c2 954A     		ldr	r2, .L128
 3249 00c4 9446     		mov	ip, r2
 3250 00c6 6344     		add	r3, r3, ip
 3251 00c8 BB61     		str	r3, [r7, #24]
 3252              	.LBB17:
 3253 00ca 3B68     		ldr	r3, [r7]
 3254 00cc 3E2B     		cmp	r3, #62
 3255 00ce 1AD9     		bls	.L112
 3256              		.loc 1 866 0 is_stmt 0 discriminator 1
 3257 00d0 3B68     		ldr	r3, [r7]
 3258 00d2 5A09     		lsrs	r2, r3, #5
 3259 00d4 2623     		movs	r3, #38
 3260 00d6 FB18     		adds	r3, r7, r3
 3261 00d8 1A80     		strh	r2, [r3]
 3262 00da 3B68     		ldr	r3, [r7]
 3263 00dc 1F22     		movs	r2, #31
 3264 00de 1340     		ands	r3, r2
 3265 00e0 06D1     		bne	.L113
 3266              		.loc 1 866 0 discriminator 3
 3267 00e2 2623     		movs	r3, #38
 3268 00e4 FB18     		adds	r3, r7, r3
 3269 00e6 1A88     		ldrh	r2, [r3]
 3270 00e8 2623     		movs	r3, #38
 3271 00ea FB18     		adds	r3, r7, r3
 3272 00ec 013A     		subs	r2, r2, #1
ARM GAS  /tmp/cczZJmfg.s 			page 73


 3273 00ee 1A80     		strh	r2, [r3]
 3274              	.L113:
 3275              		.loc 1 866 0 discriminator 5
 3276 00f0 2623     		movs	r3, #38
 3277 00f2 FB18     		adds	r3, r7, r3
 3278 00f4 1B88     		ldrh	r3, [r3]
 3279 00f6 9B02     		lsls	r3, r3, #10
 3280 00f8 9BB2     		uxth	r3, r3
 3281 00fa 884A     		ldr	r2, .L128+4
 3282 00fc 1343     		orrs	r3, r2
 3283 00fe 9AB2     		uxth	r2, r3
 3284 0100 BB69     		ldr	r3, [r7, #24]
 3285 0102 1A80     		strh	r2, [r3]
 3286 0104 DFE0     		b	.L116
 3287              	.L112:
 3288              		.loc 1 866 0 discriminator 2
 3289 0106 3B68     		ldr	r3, [r7]
 3290 0108 5A08     		lsrs	r2, r3, #1
 3291 010a 2623     		movs	r3, #38
 3292 010c FB18     		adds	r3, r7, r3
 3293 010e 1A80     		strh	r2, [r3]
 3294 0110 3B68     		ldr	r3, [r7]
 3295 0112 0122     		movs	r2, #1
 3296 0114 1340     		ands	r3, r2
 3297 0116 06D0     		beq	.L115
 3298              		.loc 1 866 0 discriminator 6
 3299 0118 2623     		movs	r3, #38
 3300 011a FB18     		adds	r3, r7, r3
 3301 011c 1A88     		ldrh	r2, [r3]
 3302 011e 2623     		movs	r3, #38
 3303 0120 FB18     		adds	r3, r7, r3
 3304 0122 0132     		adds	r2, r2, #1
 3305 0124 1A80     		strh	r2, [r3]
 3306              	.L115:
 3307              		.loc 1 866 0 discriminator 8
 3308 0126 2623     		movs	r3, #38
 3309 0128 FB18     		adds	r3, r7, r3
 3310 012a 1B88     		ldrh	r3, [r3]
 3311 012c 9B02     		lsls	r3, r3, #10
 3312 012e 9AB2     		uxth	r2, r3
 3313 0130 BB69     		ldr	r3, [r7, #24]
 3314 0132 1A80     		strh	r2, [r3]
 3315 0134 C7E0     		b	.L116
 3316              	.L111:
 3317              	.LBE17:
 3318              	.LBE16:
 867:Drivers/STM32F0xx_HAL_Driver/Src/stm32f0xx_hal_pcd.c ****   }
 868:Drivers/STM32F0xx_HAL_Driver/Src/stm32f0xx_hal_pcd.c ****   else
 869:Drivers/STM32F0xx_HAL_Driver/Src/stm32f0xx_hal_pcd.c ****   {
 870:Drivers/STM32F0xx_HAL_Driver/Src/stm32f0xx_hal_pcd.c ****     /*Set the Double buffer counter*/
 871:Drivers/STM32F0xx_HAL_Driver/Src/stm32f0xx_hal_pcd.c ****     PCD_SET_EP_DBUF_CNT(hpcd->Instance, ep->num, ep->is_in, len)
 3319              		.loc 1 871 0 is_stmt 1
 3320 0136 FB69     		ldr	r3, [r7, #28]
 3321 0138 5B78     		ldrb	r3, [r3, #1]
 3322 013a 002B     		cmp	r3, #0
 3323 013c 47D1     		bne	.L117
 3324              	.LBB18:
ARM GAS  /tmp/cczZJmfg.s 			page 74


 3325              		.loc 1 871 0 is_stmt 0 discriminator 1
 3326 013e FB68     		ldr	r3, [r7, #12]
 3327 0140 1B68     		ldr	r3, [r3]
 3328 0142 5022     		movs	r2, #80
 3329 0144 9B5A     		ldrh	r3, [r3, r2]
 3330 0146 9BB2     		uxth	r3, r3
 3331 0148 1A00     		movs	r2, r3
 3332 014a FB69     		ldr	r3, [r7, #28]
 3333 014c 1B78     		ldrb	r3, [r3]
 3334 014e DB00     		lsls	r3, r3, #3
 3335 0150 D318     		adds	r3, r2, r3
 3336 0152 1A00     		movs	r2, r3
 3337 0154 FB68     		ldr	r3, [r7, #12]
 3338 0156 1B68     		ldr	r3, [r3]
 3339 0158 D318     		adds	r3, r2, r3
 3340 015a 714A     		ldr	r2, .L128+8
 3341 015c 9446     		mov	ip, r2
 3342 015e 6344     		add	r3, r3, ip
 3343 0160 7B61     		str	r3, [r7, #20]
 3344              	.LBB19:
 3345 0162 3B68     		ldr	r3, [r7]
 3346 0164 3E2B     		cmp	r3, #62
 3347 0166 1AD9     		bls	.L118
 3348              		.loc 1 871 0 discriminator 3
 3349 0168 3B68     		ldr	r3, [r7]
 3350 016a 5A09     		lsrs	r2, r3, #5
 3351 016c 2423     		movs	r3, #36
 3352 016e FB18     		adds	r3, r7, r3
 3353 0170 1A80     		strh	r2, [r3]
 3354 0172 3B68     		ldr	r3, [r7]
 3355 0174 1F22     		movs	r2, #31
 3356 0176 1340     		ands	r3, r2
 3357 0178 06D1     		bne	.L119
 3358              		.loc 1 871 0 discriminator 5
 3359 017a 2423     		movs	r3, #36
 3360 017c FB18     		adds	r3, r7, r3
 3361 017e 1A88     		ldrh	r2, [r3]
 3362 0180 2423     		movs	r3, #36
 3363 0182 FB18     		adds	r3, r7, r3
 3364 0184 013A     		subs	r2, r2, #1
 3365 0186 1A80     		strh	r2, [r3]
 3366              	.L119:
 3367              		.loc 1 871 0 discriminator 7
 3368 0188 2423     		movs	r3, #36
 3369 018a FB18     		adds	r3, r7, r3
 3370 018c 1B88     		ldrh	r3, [r3]
 3371 018e 9B02     		lsls	r3, r3, #10
 3372 0190 9BB2     		uxth	r3, r3
 3373 0192 624A     		ldr	r2, .L128+4
 3374 0194 1343     		orrs	r3, r2
 3375 0196 9AB2     		uxth	r2, r3
 3376 0198 7B69     		ldr	r3, [r7, #20]
 3377 019a 1A80     		strh	r2, [r3]
 3378 019c 2FE0     		b	.L122
 3379              	.L118:
 3380              		.loc 1 871 0 discriminator 4
 3381 019e 3B68     		ldr	r3, [r7]
ARM GAS  /tmp/cczZJmfg.s 			page 75


 3382 01a0 5A08     		lsrs	r2, r3, #1
 3383 01a2 2423     		movs	r3, #36
 3384 01a4 FB18     		adds	r3, r7, r3
 3385 01a6 1A80     		strh	r2, [r3]
 3386 01a8 3B68     		ldr	r3, [r7]
 3387 01aa 0122     		movs	r2, #1
 3388 01ac 1340     		ands	r3, r2
 3389 01ae 06D0     		beq	.L121
 3390              		.loc 1 871 0 discriminator 8
 3391 01b0 2423     		movs	r3, #36
 3392 01b2 FB18     		adds	r3, r7, r3
 3393 01b4 1A88     		ldrh	r2, [r3]
 3394 01b6 2423     		movs	r3, #36
 3395 01b8 FB18     		adds	r3, r7, r3
 3396 01ba 0132     		adds	r2, r2, #1
 3397 01bc 1A80     		strh	r2, [r3]
 3398              	.L121:
 3399              		.loc 1 871 0 discriminator 10
 3400 01be 2423     		movs	r3, #36
 3401 01c0 FB18     		adds	r3, r7, r3
 3402 01c2 1B88     		ldrh	r3, [r3]
 3403 01c4 9B02     		lsls	r3, r3, #10
 3404 01c6 9AB2     		uxth	r2, r3
 3405 01c8 7B69     		ldr	r3, [r7, #20]
 3406 01ca 1A80     		strh	r2, [r3]
 3407 01cc 17E0     		b	.L122
 3408              	.L117:
 3409              	.LBE19:
 3410              	.LBE18:
 3411              		.loc 1 871 0 discriminator 2
 3412 01ce FB69     		ldr	r3, [r7, #28]
 3413 01d0 5B78     		ldrb	r3, [r3, #1]
 3414 01d2 012B     		cmp	r3, #1
 3415 01d4 13D1     		bne	.L122
 3416              		.loc 1 871 0 discriminator 11
 3417 01d6 FB68     		ldr	r3, [r7, #12]
 3418 01d8 1B68     		ldr	r3, [r3]
 3419 01da 5022     		movs	r2, #80
 3420 01dc 9B5A     		ldrh	r3, [r3, r2]
 3421 01de 9BB2     		uxth	r3, r3
 3422 01e0 1A00     		movs	r2, r3
 3423 01e2 FB69     		ldr	r3, [r7, #28]
 3424 01e4 1B78     		ldrb	r3, [r3]
 3425 01e6 DB00     		lsls	r3, r3, #3
 3426 01e8 D318     		adds	r3, r2, r3
 3427 01ea 1A00     		movs	r2, r3
 3428 01ec FB68     		ldr	r3, [r7, #12]
 3429 01ee 1B68     		ldr	r3, [r3]
 3430 01f0 D318     		adds	r3, r2, r3
 3431 01f2 4B4A     		ldr	r2, .L128+8
 3432 01f4 9446     		mov	ip, r2
 3433 01f6 6344     		add	r3, r3, ip
 3434 01f8 3A68     		ldr	r2, [r7]
 3435 01fa 92B2     		uxth	r2, r2
 3436 01fc 1A80     		strh	r2, [r3]
 3437              	.L122:
 3438              		.loc 1 871 0 discriminator 13
ARM GAS  /tmp/cczZJmfg.s 			page 76


 3439 01fe FB69     		ldr	r3, [r7, #28]
 3440 0200 5B78     		ldrb	r3, [r3, #1]
 3441 0202 002B     		cmp	r3, #0
 3442 0204 47D1     		bne	.L123
 3443              	.LBB20:
 3444              		.loc 1 871 0 discriminator 14
 3445 0206 FB68     		ldr	r3, [r7, #12]
 3446 0208 1B68     		ldr	r3, [r3]
 3447 020a 5022     		movs	r2, #80
 3448 020c 9B5A     		ldrh	r3, [r3, r2]
 3449 020e 9BB2     		uxth	r3, r3
 3450 0210 1A00     		movs	r2, r3
 3451 0212 FB69     		ldr	r3, [r7, #28]
 3452 0214 1B78     		ldrb	r3, [r3]
 3453 0216 DB00     		lsls	r3, r3, #3
 3454 0218 D318     		adds	r3, r2, r3
 3455 021a 1A00     		movs	r2, r3
 3456 021c FB68     		ldr	r3, [r7, #12]
 3457 021e 1B68     		ldr	r3, [r3]
 3458 0220 D318     		adds	r3, r2, r3
 3459 0222 3D4A     		ldr	r2, .L128
 3460 0224 9446     		mov	ip, r2
 3461 0226 6344     		add	r3, r3, ip
 3462 0228 3B61     		str	r3, [r7, #16]
 3463              	.LBB21:
 3464 022a 3B68     		ldr	r3, [r7]
 3465 022c 3E2B     		cmp	r3, #62
 3466 022e 1AD9     		bls	.L124
 3467              		.loc 1 871 0 discriminator 16
 3468 0230 3B68     		ldr	r3, [r7]
 3469 0232 5A09     		lsrs	r2, r3, #5
 3470 0234 2223     		movs	r3, #34
 3471 0236 FB18     		adds	r3, r7, r3
 3472 0238 1A80     		strh	r2, [r3]
 3473 023a 3B68     		ldr	r3, [r7]
 3474 023c 1F22     		movs	r2, #31
 3475 023e 1340     		ands	r3, r2
 3476 0240 06D1     		bne	.L125
 3477              		.loc 1 871 0 discriminator 18
 3478 0242 2223     		movs	r3, #34
 3479 0244 FB18     		adds	r3, r7, r3
 3480 0246 1A88     		ldrh	r2, [r3]
 3481 0248 2223     		movs	r3, #34
 3482 024a FB18     		adds	r3, r7, r3
 3483 024c 013A     		subs	r2, r2, #1
 3484 024e 1A80     		strh	r2, [r3]
 3485              	.L125:
 3486              		.loc 1 871 0 discriminator 20
 3487 0250 2223     		movs	r3, #34
 3488 0252 FB18     		adds	r3, r7, r3
 3489 0254 1B88     		ldrh	r3, [r3]
 3490 0256 9B02     		lsls	r3, r3, #10
 3491 0258 9BB2     		uxth	r3, r3
 3492 025a 304A     		ldr	r2, .L128+4
 3493 025c 1343     		orrs	r3, r2
 3494 025e 9AB2     		uxth	r2, r3
 3495 0260 3B69     		ldr	r3, [r7, #16]
ARM GAS  /tmp/cczZJmfg.s 			page 77


 3496 0262 1A80     		strh	r2, [r3]
 3497 0264 2FE0     		b	.L116
 3498              	.L124:
 3499              		.loc 1 871 0 discriminator 17
 3500 0266 3B68     		ldr	r3, [r7]
 3501 0268 5A08     		lsrs	r2, r3, #1
 3502 026a 2223     		movs	r3, #34
 3503 026c FB18     		adds	r3, r7, r3
 3504 026e 1A80     		strh	r2, [r3]
 3505 0270 3B68     		ldr	r3, [r7]
 3506 0272 0122     		movs	r2, #1
 3507 0274 1340     		ands	r3, r2
 3508 0276 06D0     		beq	.L127
 3509              		.loc 1 871 0 discriminator 21
 3510 0278 2223     		movs	r3, #34
 3511 027a FB18     		adds	r3, r7, r3
 3512 027c 1A88     		ldrh	r2, [r3]
 3513 027e 2223     		movs	r3, #34
 3514 0280 FB18     		adds	r3, r7, r3
 3515 0282 0132     		adds	r2, r2, #1
 3516 0284 1A80     		strh	r2, [r3]
 3517              	.L127:
 3518              		.loc 1 871 0 discriminator 23
 3519 0286 2223     		movs	r3, #34
 3520 0288 FB18     		adds	r3, r7, r3
 3521 028a 1B88     		ldrh	r3, [r3]
 3522 028c 9B02     		lsls	r3, r3, #10
 3523 028e 9AB2     		uxth	r2, r3
 3524 0290 3B69     		ldr	r3, [r7, #16]
 3525 0292 1A80     		strh	r2, [r3]
 3526 0294 17E0     		b	.L116
 3527              	.L123:
 3528              	.LBE21:
 3529              	.LBE20:
 3530              		.loc 1 871 0 discriminator 15
 3531 0296 FB69     		ldr	r3, [r7, #28]
 3532 0298 5B78     		ldrb	r3, [r3, #1]
 3533 029a 012B     		cmp	r3, #1
 3534 029c 13D1     		bne	.L116
 3535              		.loc 1 871 0 discriminator 24
 3536 029e FB68     		ldr	r3, [r7, #12]
 3537 02a0 1B68     		ldr	r3, [r3]
 3538 02a2 5022     		movs	r2, #80
 3539 02a4 9B5A     		ldrh	r3, [r3, r2]
 3540 02a6 9BB2     		uxth	r3, r3
 3541 02a8 1A00     		movs	r2, r3
 3542 02aa FB69     		ldr	r3, [r7, #28]
 3543 02ac 1B78     		ldrb	r3, [r3]
 3544 02ae DB00     		lsls	r3, r3, #3
 3545 02b0 D318     		adds	r3, r2, r3
 3546 02b2 1A00     		movs	r2, r3
 3547 02b4 FB68     		ldr	r3, [r7, #12]
 3548 02b6 1B68     		ldr	r3, [r3]
 3549 02b8 D318     		adds	r3, r2, r3
 3550 02ba 194A     		ldr	r2, .L128+8
 3551 02bc 9446     		mov	ip, r2
 3552 02be 6344     		add	r3, r3, ip
ARM GAS  /tmp/cczZJmfg.s 			page 78


 3553 02c0 3A68     		ldr	r2, [r7]
 3554 02c2 92B2     		uxth	r2, r2
 3555 02c4 1A80     		strh	r2, [r3]
 3556              	.L116:
 3557              	.LBB22:
 872:Drivers/STM32F0xx_HAL_Driver/Src/stm32f0xx_hal_pcd.c ****   } 
 873:Drivers/STM32F0xx_HAL_Driver/Src/stm32f0xx_hal_pcd.c ****   
 874:Drivers/STM32F0xx_HAL_Driver/Src/stm32f0xx_hal_pcd.c ****   PCD_SET_EP_RX_STATUS(hpcd->Instance, ep->num, USB_EP_RX_VALID)
 3558              		.loc 1 874 0 is_stmt 1
 3559 02c6 FB68     		ldr	r3, [r7, #12]
 3560 02c8 1B68     		ldr	r3, [r3]
 3561 02ca 1A00     		movs	r2, r3
 3562 02cc FB69     		ldr	r3, [r7, #28]
 3563 02ce 1B78     		ldrb	r3, [r3]
 3564 02d0 9B00     		lsls	r3, r3, #2
 3565 02d2 D318     		adds	r3, r2, r3
 3566 02d4 1B88     		ldrh	r3, [r3]
 3567 02d6 134A     		ldr	r2, .L128+12
 3568 02d8 1340     		ands	r3, r2
 3569 02da 9CB2     		uxth	r4, r3
 3570 02dc 8023     		movs	r3, #128
 3571 02de 5B01     		lsls	r3, r3, #5
 3572 02e0 6340     		eors	r3, r4
 3573 02e2 9CB2     		uxth	r4, r3
 3574 02e4 8023     		movs	r3, #128
 3575 02e6 9B01     		lsls	r3, r3, #6
 3576 02e8 6340     		eors	r3, r4
 3577 02ea 9CB2     		uxth	r4, r3
 3578 02ec FB68     		ldr	r3, [r7, #12]
 3579 02ee 1B68     		ldr	r3, [r3]
 3580 02f0 1A00     		movs	r2, r3
 3581 02f2 FB69     		ldr	r3, [r7, #28]
 3582 02f4 1B78     		ldrb	r3, [r3]
 3583 02f6 9B00     		lsls	r3, r3, #2
 3584 02f8 D318     		adds	r3, r2, r3
 3585 02fa 0B4A     		ldr	r2, .L128+16
 3586 02fc 2243     		orrs	r2, r4
 3587 02fe 92B2     		uxth	r2, r2
 3588 0300 1A80     		strh	r2, [r3]
 3589              	.LBE22:
 875:Drivers/STM32F0xx_HAL_Driver/Src/stm32f0xx_hal_pcd.c ****   
 876:Drivers/STM32F0xx_HAL_Driver/Src/stm32f0xx_hal_pcd.c ****   __HAL_UNLOCK(hpcd); 
 3590              		.loc 1 876 0
 3591 0302 FA68     		ldr	r2, [r7, #12]
 3592 0304 F423     		movs	r3, #244
 3593 0306 5B00     		lsls	r3, r3, #1
 3594 0308 0021     		movs	r1, #0
 3595 030a D154     		strb	r1, [r2, r3]
 877:Drivers/STM32F0xx_HAL_Driver/Src/stm32f0xx_hal_pcd.c ****   
 878:Drivers/STM32F0xx_HAL_Driver/Src/stm32f0xx_hal_pcd.c ****   return HAL_OK;
 3596              		.loc 1 878 0
 3597 030c 0023     		movs	r3, #0
 3598              	.L108:
 879:Drivers/STM32F0xx_HAL_Driver/Src/stm32f0xx_hal_pcd.c **** }
 3599              		.loc 1 879 0
 3600 030e 1800     		movs	r0, r3
 3601 0310 BD46     		mov	sp, r7
ARM GAS  /tmp/cczZJmfg.s 			page 79


 3602 0312 0BB0     		add	sp, sp, #44
 3603              		@ sp needed
 3604 0314 90BD     		pop	{r4, r7, pc}
 3605              	.L129:
 3606 0316 C046     		.align	2
 3607              	.L128:
 3608 0318 06040000 		.word	1030
 3609 031c 0080FFFF 		.word	-32768
 3610 0320 02040000 		.word	1026
 3611 0324 8FBFFFFF 		.word	-16497
 3612 0328 8080FFFF 		.word	-32640
 3613              		.cfi_endproc
 3614              	.LFE58:
 3616              		.section	.text.HAL_PCD_EP_GetRxCount,"ax",%progbits
 3617              		.align	1
 3618              		.global	HAL_PCD_EP_GetRxCount
 3619              		.syntax unified
 3620              		.code	16
 3621              		.thumb_func
 3622              		.fpu softvfp
 3624              	HAL_PCD_EP_GetRxCount:
 3625              	.LFB59:
 880:Drivers/STM32F0xx_HAL_Driver/Src/stm32f0xx_hal_pcd.c **** 
 881:Drivers/STM32F0xx_HAL_Driver/Src/stm32f0xx_hal_pcd.c **** /**
 882:Drivers/STM32F0xx_HAL_Driver/Src/stm32f0xx_hal_pcd.c ****   * @brief  Get Received Data Size
 883:Drivers/STM32F0xx_HAL_Driver/Src/stm32f0xx_hal_pcd.c ****   * @param  hpcd: PCD handle
 884:Drivers/STM32F0xx_HAL_Driver/Src/stm32f0xx_hal_pcd.c ****   * @param  ep_addr: endpoint address
 885:Drivers/STM32F0xx_HAL_Driver/Src/stm32f0xx_hal_pcd.c ****   * @retval Data Size
 886:Drivers/STM32F0xx_HAL_Driver/Src/stm32f0xx_hal_pcd.c ****   */
 887:Drivers/STM32F0xx_HAL_Driver/Src/stm32f0xx_hal_pcd.c **** uint16_t HAL_PCD_EP_GetRxCount(PCD_HandleTypeDef *hpcd, uint8_t ep_addr)
 888:Drivers/STM32F0xx_HAL_Driver/Src/stm32f0xx_hal_pcd.c **** {
 3626              		.loc 1 888 0
 3627              		.cfi_startproc
 3628 0000 80B5     		push	{r7, lr}
 3629              	.LCFI72:
 3630              		.cfi_def_cfa_offset 8
 3631              		.cfi_offset 7, -8
 3632              		.cfi_offset 14, -4
 3633 0002 82B0     		sub	sp, sp, #8
 3634              	.LCFI73:
 3635              		.cfi_def_cfa_offset 16
 3636 0004 00AF     		add	r7, sp, #0
 3637              	.LCFI74:
 3638              		.cfi_def_cfa_register 7
 3639 0006 7860     		str	r0, [r7, #4]
 3640 0008 0A00     		movs	r2, r1
 3641 000a FB1C     		adds	r3, r7, #3
 3642 000c 1A70     		strb	r2, [r3]
 889:Drivers/STM32F0xx_HAL_Driver/Src/stm32f0xx_hal_pcd.c ****   return hpcd->OUT_ep[ep_addr & 0x7F].xfer_count;
 3643              		.loc 1 889 0
 3644 000e FB1C     		adds	r3, r7, #3
 3645 0010 1B78     		ldrb	r3, [r3]
 3646 0012 7F22     		movs	r2, #127
 3647 0014 1A40     		ands	r2, r3
 3648 0016 7868     		ldr	r0, [r7, #4]
 3649 0018 9023     		movs	r3, #144
 3650 001a 5900     		lsls	r1, r3, #1
ARM GAS  /tmp/cczZJmfg.s 			page 80


 3651 001c 1300     		movs	r3, r2
 3652 001e DB00     		lsls	r3, r3, #3
 3653 0020 9B1A     		subs	r3, r3, r2
 3654 0022 9B00     		lsls	r3, r3, #2
 3655 0024 C318     		adds	r3, r0, r3
 3656 0026 5B18     		adds	r3, r3, r1
 3657 0028 1B68     		ldr	r3, [r3]
 3658 002a 9BB2     		uxth	r3, r3
 890:Drivers/STM32F0xx_HAL_Driver/Src/stm32f0xx_hal_pcd.c **** }
 3659              		.loc 1 890 0
 3660 002c 1800     		movs	r0, r3
 3661 002e BD46     		mov	sp, r7
 3662 0030 02B0     		add	sp, sp, #8
 3663              		@ sp needed
 3664 0032 80BD     		pop	{r7, pc}
 3665              		.cfi_endproc
 3666              	.LFE59:
 3668              		.section	.text.HAL_PCD_EP_Transmit,"ax",%progbits
 3669              		.align	1
 3670              		.global	HAL_PCD_EP_Transmit
 3671              		.syntax unified
 3672              		.code	16
 3673              		.thumb_func
 3674              		.fpu softvfp
 3676              	HAL_PCD_EP_Transmit:
 3677              	.LFB60:
 891:Drivers/STM32F0xx_HAL_Driver/Src/stm32f0xx_hal_pcd.c **** /**
 892:Drivers/STM32F0xx_HAL_Driver/Src/stm32f0xx_hal_pcd.c ****   * @brief  Send an amount of data  
 893:Drivers/STM32F0xx_HAL_Driver/Src/stm32f0xx_hal_pcd.c ****   * @param  hpcd: PCD handle
 894:Drivers/STM32F0xx_HAL_Driver/Src/stm32f0xx_hal_pcd.c ****   * @param  ep_addr: endpoint address
 895:Drivers/STM32F0xx_HAL_Driver/Src/stm32f0xx_hal_pcd.c ****   * @param  pBuf: pointer to the transmission buffer   
 896:Drivers/STM32F0xx_HAL_Driver/Src/stm32f0xx_hal_pcd.c ****   * @param  len: amount of data to be sent
 897:Drivers/STM32F0xx_HAL_Driver/Src/stm32f0xx_hal_pcd.c ****   * @retval HAL status
 898:Drivers/STM32F0xx_HAL_Driver/Src/stm32f0xx_hal_pcd.c ****   */
 899:Drivers/STM32F0xx_HAL_Driver/Src/stm32f0xx_hal_pcd.c **** HAL_StatusTypeDef HAL_PCD_EP_Transmit(PCD_HandleTypeDef *hpcd, uint8_t ep_addr, uint8_t *pBuf, uint
 900:Drivers/STM32F0xx_HAL_Driver/Src/stm32f0xx_hal_pcd.c **** {
 3678              		.loc 1 900 0
 3679              		.cfi_startproc
 3680 0000 90B5     		push	{r4, r7, lr}
 3681              	.LCFI75:
 3682              		.cfi_def_cfa_offset 12
 3683              		.cfi_offset 4, -12
 3684              		.cfi_offset 7, -8
 3685              		.cfi_offset 14, -4
 3686 0002 8BB0     		sub	sp, sp, #44
 3687              	.LCFI76:
 3688              		.cfi_def_cfa_offset 56
 3689 0004 00AF     		add	r7, sp, #0
 3690              	.LCFI77:
 3691              		.cfi_def_cfa_register 7
 3692 0006 F860     		str	r0, [r7, #12]
 3693 0008 7A60     		str	r2, [r7, #4]
 3694 000a 3B60     		str	r3, [r7]
 3695 000c 0B23     		movs	r3, #11
 3696 000e FB18     		adds	r3, r7, r3
 3697 0010 0A1C     		adds	r2, r1, #0
 3698 0012 1A70     		strb	r2, [r3]
ARM GAS  /tmp/cczZJmfg.s 			page 81


 901:Drivers/STM32F0xx_HAL_Driver/Src/stm32f0xx_hal_pcd.c ****   PCD_EPTypeDef *ep;
 902:Drivers/STM32F0xx_HAL_Driver/Src/stm32f0xx_hal_pcd.c ****   uint16_t pmabuffer = 0;
 3699              		.loc 1 902 0
 3700 0014 2623     		movs	r3, #38
 3701 0016 FB18     		adds	r3, r7, r3
 3702 0018 0022     		movs	r2, #0
 3703 001a 1A80     		strh	r2, [r3]
 903:Drivers/STM32F0xx_HAL_Driver/Src/stm32f0xx_hal_pcd.c ****     
 904:Drivers/STM32F0xx_HAL_Driver/Src/stm32f0xx_hal_pcd.c ****   ep = &hpcd->IN_ep[ep_addr & 0x7F];
 3704              		.loc 1 904 0
 3705 001c 0B23     		movs	r3, #11
 3706 001e FB18     		adds	r3, r7, r3
 3707 0020 1B78     		ldrb	r3, [r3]
 3708 0022 7F22     		movs	r2, #127
 3709 0024 1A40     		ands	r2, r3
 3710 0026 1300     		movs	r3, r2
 3711 0028 DB00     		lsls	r3, r3, #3
 3712 002a 9B1A     		subs	r3, r3, r2
 3713 002c 9B00     		lsls	r3, r3, #2
 3714 002e 2833     		adds	r3, r3, #40
 3715 0030 FA68     		ldr	r2, [r7, #12]
 3716 0032 D318     		adds	r3, r2, r3
 3717 0034 FB61     		str	r3, [r7, #28]
 905:Drivers/STM32F0xx_HAL_Driver/Src/stm32f0xx_hal_pcd.c ****   
 906:Drivers/STM32F0xx_HAL_Driver/Src/stm32f0xx_hal_pcd.c ****   /*setup and start the Xfer */
 907:Drivers/STM32F0xx_HAL_Driver/Src/stm32f0xx_hal_pcd.c ****   ep->xfer_buff = pBuf;  
 3718              		.loc 1 907 0
 3719 0036 FB69     		ldr	r3, [r7, #28]
 3720 0038 7A68     		ldr	r2, [r7, #4]
 3721 003a 1A61     		str	r2, [r3, #16]
 908:Drivers/STM32F0xx_HAL_Driver/Src/stm32f0xx_hal_pcd.c ****   ep->xfer_len = len;
 3722              		.loc 1 908 0
 3723 003c FB69     		ldr	r3, [r7, #28]
 3724 003e 3A68     		ldr	r2, [r7]
 3725 0040 5A61     		str	r2, [r3, #20]
 909:Drivers/STM32F0xx_HAL_Driver/Src/stm32f0xx_hal_pcd.c ****   ep->xfer_count = 0;
 3726              		.loc 1 909 0
 3727 0042 FB69     		ldr	r3, [r7, #28]
 3728 0044 0022     		movs	r2, #0
 3729 0046 9A61     		str	r2, [r3, #24]
 910:Drivers/STM32F0xx_HAL_Driver/Src/stm32f0xx_hal_pcd.c ****   ep->is_in = 1;
 3730              		.loc 1 910 0
 3731 0048 FB69     		ldr	r3, [r7, #28]
 3732 004a 0122     		movs	r2, #1
 3733 004c 5A70     		strb	r2, [r3, #1]
 911:Drivers/STM32F0xx_HAL_Driver/Src/stm32f0xx_hal_pcd.c ****   ep->num = ep_addr & 0x7F;
 3734              		.loc 1 911 0
 3735 004e 0B23     		movs	r3, #11
 3736 0050 FB18     		adds	r3, r7, r3
 3737 0052 1B78     		ldrb	r3, [r3]
 3738 0054 7F22     		movs	r2, #127
 3739 0056 1340     		ands	r3, r2
 3740 0058 DAB2     		uxtb	r2, r3
 3741 005a FB69     		ldr	r3, [r7, #28]
 3742 005c 1A70     		strb	r2, [r3]
 912:Drivers/STM32F0xx_HAL_Driver/Src/stm32f0xx_hal_pcd.c ****   
 913:Drivers/STM32F0xx_HAL_Driver/Src/stm32f0xx_hal_pcd.c ****   __HAL_LOCK(hpcd); 
ARM GAS  /tmp/cczZJmfg.s 			page 82


 3743              		.loc 1 913 0
 3744 005e FA68     		ldr	r2, [r7, #12]
 3745 0060 F423     		movs	r3, #244
 3746 0062 5B00     		lsls	r3, r3, #1
 3747 0064 D35C     		ldrb	r3, [r2, r3]
 3748 0066 012B     		cmp	r3, #1
 3749 0068 01D1     		bne	.L133
 3750              		.loc 1 913 0 is_stmt 0 discriminator 1
 3751 006a 0223     		movs	r3, #2
 3752 006c 7FE1     		b	.L134
 3753              	.L133:
 3754              		.loc 1 913 0 discriminator 2
 3755 006e FA68     		ldr	r2, [r7, #12]
 3756 0070 F423     		movs	r3, #244
 3757 0072 5B00     		lsls	r3, r3, #1
 3758 0074 0121     		movs	r1, #1
 3759 0076 D154     		strb	r1, [r2, r3]
 914:Drivers/STM32F0xx_HAL_Driver/Src/stm32f0xx_hal_pcd.c ****   
 915:Drivers/STM32F0xx_HAL_Driver/Src/stm32f0xx_hal_pcd.c ****   /*Multi packet transfer*/
 916:Drivers/STM32F0xx_HAL_Driver/Src/stm32f0xx_hal_pcd.c ****   if (ep->xfer_len > ep->maxpacket)
 3760              		.loc 1 916 0 is_stmt 1 discriminator 2
 3761 0078 FB69     		ldr	r3, [r7, #28]
 3762 007a 5A69     		ldr	r2, [r3, #20]
 3763 007c FB69     		ldr	r3, [r7, #28]
 3764 007e DB68     		ldr	r3, [r3, #12]
 3765 0080 9A42     		cmp	r2, r3
 3766 0082 09D9     		bls	.L135
 917:Drivers/STM32F0xx_HAL_Driver/Src/stm32f0xx_hal_pcd.c ****   {
 918:Drivers/STM32F0xx_HAL_Driver/Src/stm32f0xx_hal_pcd.c ****     len=ep->maxpacket;
 3767              		.loc 1 918 0
 3768 0084 FB69     		ldr	r3, [r7, #28]
 3769 0086 DB68     		ldr	r3, [r3, #12]
 3770 0088 3B60     		str	r3, [r7]
 919:Drivers/STM32F0xx_HAL_Driver/Src/stm32f0xx_hal_pcd.c ****     ep->xfer_len-=len; 
 3771              		.loc 1 919 0
 3772 008a FB69     		ldr	r3, [r7, #28]
 3773 008c 5A69     		ldr	r2, [r3, #20]
 3774 008e 3B68     		ldr	r3, [r7]
 3775 0090 D21A     		subs	r2, r2, r3
 3776 0092 FB69     		ldr	r3, [r7, #28]
 3777 0094 5A61     		str	r2, [r3, #20]
 3778 0096 05E0     		b	.L136
 3779              	.L135:
 920:Drivers/STM32F0xx_HAL_Driver/Src/stm32f0xx_hal_pcd.c ****   }
 921:Drivers/STM32F0xx_HAL_Driver/Src/stm32f0xx_hal_pcd.c ****   else
 922:Drivers/STM32F0xx_HAL_Driver/Src/stm32f0xx_hal_pcd.c ****   {  
 923:Drivers/STM32F0xx_HAL_Driver/Src/stm32f0xx_hal_pcd.c ****     len=ep->xfer_len;
 3780              		.loc 1 923 0
 3781 0098 FB69     		ldr	r3, [r7, #28]
 3782 009a 5B69     		ldr	r3, [r3, #20]
 3783 009c 3B60     		str	r3, [r7]
 924:Drivers/STM32F0xx_HAL_Driver/Src/stm32f0xx_hal_pcd.c ****     ep->xfer_len =0;
 3784              		.loc 1 924 0
 3785 009e FB69     		ldr	r3, [r7, #28]
 3786 00a0 0022     		movs	r2, #0
 3787 00a2 5A61     		str	r2, [r3, #20]
 3788              	.L136:
ARM GAS  /tmp/cczZJmfg.s 			page 83


 925:Drivers/STM32F0xx_HAL_Driver/Src/stm32f0xx_hal_pcd.c ****   }
 926:Drivers/STM32F0xx_HAL_Driver/Src/stm32f0xx_hal_pcd.c ****   
 927:Drivers/STM32F0xx_HAL_Driver/Src/stm32f0xx_hal_pcd.c ****   /* configure and validate Tx endpoint */
 928:Drivers/STM32F0xx_HAL_Driver/Src/stm32f0xx_hal_pcd.c ****   if (ep->doublebuffer == 0) 
 3789              		.loc 1 928 0
 3790 00a4 FB69     		ldr	r3, [r7, #28]
 3791 00a6 9B7A     		ldrb	r3, [r3, #10]
 3792 00a8 002B     		cmp	r3, #0
 3793 00aa 1ED1     		bne	.L137
 929:Drivers/STM32F0xx_HAL_Driver/Src/stm32f0xx_hal_pcd.c ****   {
 930:Drivers/STM32F0xx_HAL_Driver/Src/stm32f0xx_hal_pcd.c ****     PCD_WritePMA(hpcd->Instance, ep->xfer_buff, ep->pmaadress, len);
 3794              		.loc 1 930 0
 3795 00ac FB68     		ldr	r3, [r7, #12]
 3796 00ae 1868     		ldr	r0, [r3]
 3797 00b0 FB69     		ldr	r3, [r7, #28]
 3798 00b2 1969     		ldr	r1, [r3, #16]
 3799 00b4 FB69     		ldr	r3, [r7, #28]
 3800 00b6 9A88     		ldrh	r2, [r3, #4]
 3801 00b8 3B68     		ldr	r3, [r7]
 3802 00ba 9BB2     		uxth	r3, r3
 3803 00bc FFF7FEFF 		bl	PCD_WritePMA
 931:Drivers/STM32F0xx_HAL_Driver/Src/stm32f0xx_hal_pcd.c ****     PCD_SET_EP_TX_CNT(hpcd->Instance, ep->num, len);
 3804              		.loc 1 931 0
 3805 00c0 FB68     		ldr	r3, [r7, #12]
 3806 00c2 1B68     		ldr	r3, [r3]
 3807 00c4 5022     		movs	r2, #80
 3808 00c6 9B5A     		ldrh	r3, [r3, r2]
 3809 00c8 9BB2     		uxth	r3, r3
 3810 00ca 1A00     		movs	r2, r3
 3811 00cc FB69     		ldr	r3, [r7, #28]
 3812 00ce 1B78     		ldrb	r3, [r3]
 3813 00d0 DB00     		lsls	r3, r3, #3
 3814 00d2 D318     		adds	r3, r2, r3
 3815 00d4 1A00     		movs	r2, r3
 3816 00d6 FB68     		ldr	r3, [r7, #12]
 3817 00d8 1B68     		ldr	r3, [r3]
 3818 00da D318     		adds	r3, r2, r3
 3819 00dc A64A     		ldr	r2, .L154
 3820 00de 9446     		mov	ip, r2
 3821 00e0 6344     		add	r3, r3, ip
 3822 00e2 3A68     		ldr	r2, [r7]
 3823 00e4 92B2     		uxth	r2, r2
 3824 00e6 1A80     		strh	r2, [r3]
 3825 00e8 1FE1     		b	.L138
 3826              	.L137:
 932:Drivers/STM32F0xx_HAL_Driver/Src/stm32f0xx_hal_pcd.c ****   }
 933:Drivers/STM32F0xx_HAL_Driver/Src/stm32f0xx_hal_pcd.c ****   else
 934:Drivers/STM32F0xx_HAL_Driver/Src/stm32f0xx_hal_pcd.c ****   {
 935:Drivers/STM32F0xx_HAL_Driver/Src/stm32f0xx_hal_pcd.c ****     /*Write the data to the USB endpoint*/
 936:Drivers/STM32F0xx_HAL_Driver/Src/stm32f0xx_hal_pcd.c ****     if ((PCD_GET_ENDPOINT(hpcd->Instance, ep->num)& USB_EP_DTOG_TX) == USB_EP_DTOG_TX)
 3827              		.loc 1 936 0
 3828 00ea FB68     		ldr	r3, [r7, #12]
 3829 00ec 1B68     		ldr	r3, [r3]
 3830 00ee 1A00     		movs	r2, r3
 3831 00f0 FB69     		ldr	r3, [r7, #28]
 3832 00f2 1B78     		ldrb	r3, [r3]
 3833 00f4 9B00     		lsls	r3, r3, #2
ARM GAS  /tmp/cczZJmfg.s 			page 84


 3834 00f6 D318     		adds	r3, r2, r3
 3835 00f8 1B88     		ldrh	r3, [r3]
 3836 00fa 1A00     		movs	r2, r3
 3837 00fc 4023     		movs	r3, #64
 3838 00fe 1340     		ands	r3, r2
 3839 0100 69D0     		beq	.L139
 937:Drivers/STM32F0xx_HAL_Driver/Src/stm32f0xx_hal_pcd.c ****     {
 938:Drivers/STM32F0xx_HAL_Driver/Src/stm32f0xx_hal_pcd.c ****       /*Set the Double buffer counter for pmabuffer1*/
 939:Drivers/STM32F0xx_HAL_Driver/Src/stm32f0xx_hal_pcd.c ****       PCD_SET_EP_DBUF1_CNT(hpcd->Instance, ep->num, ep->is_in, len)
 3840              		.loc 1 939 0
 3841 0102 FB69     		ldr	r3, [r7, #28]
 3842 0104 5B78     		ldrb	r3, [r3, #1]
 3843 0106 002B     		cmp	r3, #0
 3844 0108 47D1     		bne	.L140
 3845              	.LBB23:
 3846              		.loc 1 939 0 is_stmt 0 discriminator 1
 3847 010a FB68     		ldr	r3, [r7, #12]
 3848 010c 1B68     		ldr	r3, [r3]
 3849 010e 5022     		movs	r2, #80
 3850 0110 9B5A     		ldrh	r3, [r3, r2]
 3851 0112 9BB2     		uxth	r3, r3
 3852 0114 1A00     		movs	r2, r3
 3853 0116 FB69     		ldr	r3, [r7, #28]
 3854 0118 1B78     		ldrb	r3, [r3]
 3855 011a DB00     		lsls	r3, r3, #3
 3856 011c D318     		adds	r3, r2, r3
 3857 011e 1A00     		movs	r2, r3
 3858 0120 FB68     		ldr	r3, [r7, #12]
 3859 0122 1B68     		ldr	r3, [r3]
 3860 0124 D318     		adds	r3, r2, r3
 3861 0126 954A     		ldr	r2, .L154+4
 3862 0128 9446     		mov	ip, r2
 3863 012a 6344     		add	r3, r3, ip
 3864 012c BB61     		str	r3, [r7, #24]
 3865              	.LBB24:
 3866 012e 3B68     		ldr	r3, [r7]
 3867 0130 3E2B     		cmp	r3, #62
 3868 0132 1AD9     		bls	.L141
 3869              		.loc 1 939 0 discriminator 3
 3870 0134 3B68     		ldr	r3, [r7]
 3871 0136 5A09     		lsrs	r2, r3, #5
 3872 0138 2423     		movs	r3, #36
 3873 013a FB18     		adds	r3, r7, r3
 3874 013c 1A80     		strh	r2, [r3]
 3875 013e 3B68     		ldr	r3, [r7]
 3876 0140 1F22     		movs	r2, #31
 3877 0142 1340     		ands	r3, r2
 3878 0144 06D1     		bne	.L142
 3879              		.loc 1 939 0 discriminator 5
 3880 0146 2423     		movs	r3, #36
 3881 0148 FB18     		adds	r3, r7, r3
 3882 014a 1A88     		ldrh	r2, [r3]
 3883 014c 2423     		movs	r3, #36
 3884 014e FB18     		adds	r3, r7, r3
 3885 0150 013A     		subs	r2, r2, #1
 3886 0152 1A80     		strh	r2, [r3]
 3887              	.L142:
ARM GAS  /tmp/cczZJmfg.s 			page 85


 3888              		.loc 1 939 0 discriminator 7
 3889 0154 2423     		movs	r3, #36
 3890 0156 FB18     		adds	r3, r7, r3
 3891 0158 1B88     		ldrh	r3, [r3]
 3892 015a 9B02     		lsls	r3, r3, #10
 3893 015c 9BB2     		uxth	r3, r3
 3894 015e 884A     		ldr	r2, .L154+8
 3895 0160 1343     		orrs	r3, r2
 3896 0162 9AB2     		uxth	r2, r3
 3897 0164 BB69     		ldr	r3, [r7, #24]
 3898 0166 1A80     		strh	r2, [r3]
 3899 0168 2FE0     		b	.L145
 3900              	.L141:
 3901              		.loc 1 939 0 discriminator 4
 3902 016a 3B68     		ldr	r3, [r7]
 3903 016c 5A08     		lsrs	r2, r3, #1
 3904 016e 2423     		movs	r3, #36
 3905 0170 FB18     		adds	r3, r7, r3
 3906 0172 1A80     		strh	r2, [r3]
 3907 0174 3B68     		ldr	r3, [r7]
 3908 0176 0122     		movs	r2, #1
 3909 0178 1340     		ands	r3, r2
 3910 017a 06D0     		beq	.L144
 3911              		.loc 1 939 0 discriminator 8
 3912 017c 2423     		movs	r3, #36
 3913 017e FB18     		adds	r3, r7, r3
 3914 0180 1A88     		ldrh	r2, [r3]
 3915 0182 2423     		movs	r3, #36
 3916 0184 FB18     		adds	r3, r7, r3
 3917 0186 0132     		adds	r2, r2, #1
 3918 0188 1A80     		strh	r2, [r3]
 3919              	.L144:
 3920              		.loc 1 939 0 discriminator 10
 3921 018a 2423     		movs	r3, #36
 3922 018c FB18     		adds	r3, r7, r3
 3923 018e 1B88     		ldrh	r3, [r3]
 3924 0190 9B02     		lsls	r3, r3, #10
 3925 0192 9AB2     		uxth	r2, r3
 3926 0194 BB69     		ldr	r3, [r7, #24]
 3927 0196 1A80     		strh	r2, [r3]
 3928 0198 17E0     		b	.L145
 3929              	.L140:
 3930              	.LBE24:
 3931              	.LBE23:
 3932              		.loc 1 939 0 discriminator 2
 3933 019a FB69     		ldr	r3, [r7, #28]
 3934 019c 5B78     		ldrb	r3, [r3, #1]
 3935 019e 012B     		cmp	r3, #1
 3936 01a0 13D1     		bne	.L145
 3937              		.loc 1 939 0 discriminator 11
 3938 01a2 FB68     		ldr	r3, [r7, #12]
 3939 01a4 1B68     		ldr	r3, [r3]
 3940 01a6 5022     		movs	r2, #80
 3941 01a8 9B5A     		ldrh	r3, [r3, r2]
 3942 01aa 9BB2     		uxth	r3, r3
 3943 01ac 1A00     		movs	r2, r3
 3944 01ae FB69     		ldr	r3, [r7, #28]
ARM GAS  /tmp/cczZJmfg.s 			page 86


 3945 01b0 1B78     		ldrb	r3, [r3]
 3946 01b2 DB00     		lsls	r3, r3, #3
 3947 01b4 D318     		adds	r3, r2, r3
 3948 01b6 1A00     		movs	r2, r3
 3949 01b8 FB68     		ldr	r3, [r7, #12]
 3950 01ba 1B68     		ldr	r3, [r3]
 3951 01bc D318     		adds	r3, r2, r3
 3952 01be 6E4A     		ldr	r2, .L154
 3953 01c0 9446     		mov	ip, r2
 3954 01c2 6344     		add	r3, r3, ip
 3955 01c4 3A68     		ldr	r2, [r7]
 3956 01c6 92B2     		uxth	r2, r2
 3957 01c8 1A80     		strh	r2, [r3]
 3958              	.L145:
 940:Drivers/STM32F0xx_HAL_Driver/Src/stm32f0xx_hal_pcd.c ****       pmabuffer = ep->pmaaddr1;
 3959              		.loc 1 940 0 is_stmt 1
 3960 01ca 2623     		movs	r3, #38
 3961 01cc FB18     		adds	r3, r7, r3
 3962 01ce FA69     		ldr	r2, [r7, #28]
 3963 01d0 1289     		ldrh	r2, [r2, #8]
 3964 01d2 1A80     		strh	r2, [r3]
 3965 01d4 68E0     		b	.L146
 3966              	.L139:
 941:Drivers/STM32F0xx_HAL_Driver/Src/stm32f0xx_hal_pcd.c ****     }
 942:Drivers/STM32F0xx_HAL_Driver/Src/stm32f0xx_hal_pcd.c ****     else
 943:Drivers/STM32F0xx_HAL_Driver/Src/stm32f0xx_hal_pcd.c ****     {
 944:Drivers/STM32F0xx_HAL_Driver/Src/stm32f0xx_hal_pcd.c ****       /*Set the Double buffer counter for pmabuffer0*/
 945:Drivers/STM32F0xx_HAL_Driver/Src/stm32f0xx_hal_pcd.c ****       PCD_SET_EP_DBUF0_CNT(hpcd->Instance, ep->num, ep->is_in, len)
 3967              		.loc 1 945 0
 3968 01d6 FB69     		ldr	r3, [r7, #28]
 3969 01d8 5B78     		ldrb	r3, [r3, #1]
 3970 01da 002B     		cmp	r3, #0
 3971 01dc 47D1     		bne	.L147
 3972              	.LBB25:
 3973              		.loc 1 945 0 is_stmt 0 discriminator 1
 3974 01de FB68     		ldr	r3, [r7, #12]
 3975 01e0 1B68     		ldr	r3, [r3]
 3976 01e2 5022     		movs	r2, #80
 3977 01e4 9B5A     		ldrh	r3, [r3, r2]
 3978 01e6 9BB2     		uxth	r3, r3
 3979 01e8 1A00     		movs	r2, r3
 3980 01ea FB69     		ldr	r3, [r7, #28]
 3981 01ec 1B78     		ldrb	r3, [r3]
 3982 01ee DB00     		lsls	r3, r3, #3
 3983 01f0 D318     		adds	r3, r2, r3
 3984 01f2 1A00     		movs	r2, r3
 3985 01f4 FB68     		ldr	r3, [r7, #12]
 3986 01f6 1B68     		ldr	r3, [r3]
 3987 01f8 D318     		adds	r3, r2, r3
 3988 01fa 5F4A     		ldr	r2, .L154
 3989 01fc 9446     		mov	ip, r2
 3990 01fe 6344     		add	r3, r3, ip
 3991 0200 7B61     		str	r3, [r7, #20]
 3992              	.LBB26:
 3993 0202 3B68     		ldr	r3, [r7]
 3994 0204 3E2B     		cmp	r3, #62
 3995 0206 1AD9     		bls	.L148
ARM GAS  /tmp/cczZJmfg.s 			page 87


 3996              		.loc 1 945 0 discriminator 3
 3997 0208 3B68     		ldr	r3, [r7]
 3998 020a 5A09     		lsrs	r2, r3, #5
 3999 020c 2223     		movs	r3, #34
 4000 020e FB18     		adds	r3, r7, r3
 4001 0210 1A80     		strh	r2, [r3]
 4002 0212 3B68     		ldr	r3, [r7]
 4003 0214 1F22     		movs	r2, #31
 4004 0216 1340     		ands	r3, r2
 4005 0218 06D1     		bne	.L149
 4006              		.loc 1 945 0 discriminator 5
 4007 021a 2223     		movs	r3, #34
 4008 021c FB18     		adds	r3, r7, r3
 4009 021e 1A88     		ldrh	r2, [r3]
 4010 0220 2223     		movs	r3, #34
 4011 0222 FB18     		adds	r3, r7, r3
 4012 0224 013A     		subs	r2, r2, #1
 4013 0226 1A80     		strh	r2, [r3]
 4014              	.L149:
 4015              		.loc 1 945 0 discriminator 7
 4016 0228 2223     		movs	r3, #34
 4017 022a FB18     		adds	r3, r7, r3
 4018 022c 1B88     		ldrh	r3, [r3]
 4019 022e 9B02     		lsls	r3, r3, #10
 4020 0230 9BB2     		uxth	r3, r3
 4021 0232 534A     		ldr	r2, .L154+8
 4022 0234 1343     		orrs	r3, r2
 4023 0236 9AB2     		uxth	r2, r3
 4024 0238 7B69     		ldr	r3, [r7, #20]
 4025 023a 1A80     		strh	r2, [r3]
 4026 023c 2FE0     		b	.L152
 4027              	.L148:
 4028              		.loc 1 945 0 discriminator 4
 4029 023e 3B68     		ldr	r3, [r7]
 4030 0240 5A08     		lsrs	r2, r3, #1
 4031 0242 2223     		movs	r3, #34
 4032 0244 FB18     		adds	r3, r7, r3
 4033 0246 1A80     		strh	r2, [r3]
 4034 0248 3B68     		ldr	r3, [r7]
 4035 024a 0122     		movs	r2, #1
 4036 024c 1340     		ands	r3, r2
 4037 024e 06D0     		beq	.L151
 4038              		.loc 1 945 0 discriminator 8
 4039 0250 2223     		movs	r3, #34
 4040 0252 FB18     		adds	r3, r7, r3
 4041 0254 1A88     		ldrh	r2, [r3]
 4042 0256 2223     		movs	r3, #34
 4043 0258 FB18     		adds	r3, r7, r3
 4044 025a 0132     		adds	r2, r2, #1
 4045 025c 1A80     		strh	r2, [r3]
 4046              	.L151:
 4047              		.loc 1 945 0 discriminator 10
 4048 025e 2223     		movs	r3, #34
 4049 0260 FB18     		adds	r3, r7, r3
 4050 0262 1B88     		ldrh	r3, [r3]
 4051 0264 9B02     		lsls	r3, r3, #10
 4052 0266 9AB2     		uxth	r2, r3
ARM GAS  /tmp/cczZJmfg.s 			page 88


 4053 0268 7B69     		ldr	r3, [r7, #20]
 4054 026a 1A80     		strh	r2, [r3]
 4055 026c 17E0     		b	.L152
 4056              	.L147:
 4057              	.LBE26:
 4058              	.LBE25:
 4059              		.loc 1 945 0 discriminator 2
 4060 026e FB69     		ldr	r3, [r7, #28]
 4061 0270 5B78     		ldrb	r3, [r3, #1]
 4062 0272 012B     		cmp	r3, #1
 4063 0274 13D1     		bne	.L152
 4064              		.loc 1 945 0 discriminator 11
 4065 0276 FB68     		ldr	r3, [r7, #12]
 4066 0278 1B68     		ldr	r3, [r3]
 4067 027a 5022     		movs	r2, #80
 4068 027c 9B5A     		ldrh	r3, [r3, r2]
 4069 027e 9BB2     		uxth	r3, r3
 4070 0280 1A00     		movs	r2, r3
 4071 0282 FB69     		ldr	r3, [r7, #28]
 4072 0284 1B78     		ldrb	r3, [r3]
 4073 0286 DB00     		lsls	r3, r3, #3
 4074 0288 D318     		adds	r3, r2, r3
 4075 028a 1A00     		movs	r2, r3
 4076 028c FB68     		ldr	r3, [r7, #12]
 4077 028e 1B68     		ldr	r3, [r3]
 4078 0290 D318     		adds	r3, r2, r3
 4079 0292 394A     		ldr	r2, .L154
 4080 0294 9446     		mov	ip, r2
 4081 0296 6344     		add	r3, r3, ip
 4082 0298 3A68     		ldr	r2, [r7]
 4083 029a 92B2     		uxth	r2, r2
 4084 029c 1A80     		strh	r2, [r3]
 4085              	.L152:
 946:Drivers/STM32F0xx_HAL_Driver/Src/stm32f0xx_hal_pcd.c ****       pmabuffer = ep->pmaaddr0;
 4086              		.loc 1 946 0 is_stmt 1
 4087 029e 2623     		movs	r3, #38
 4088 02a0 FB18     		adds	r3, r7, r3
 4089 02a2 FA69     		ldr	r2, [r7, #28]
 4090 02a4 D288     		ldrh	r2, [r2, #6]
 4091 02a6 1A80     		strh	r2, [r3]
 4092              	.L146:
 947:Drivers/STM32F0xx_HAL_Driver/Src/stm32f0xx_hal_pcd.c ****     }
 948:Drivers/STM32F0xx_HAL_Driver/Src/stm32f0xx_hal_pcd.c **** 
 949:Drivers/STM32F0xx_HAL_Driver/Src/stm32f0xx_hal_pcd.c ****     PCD_WritePMA(hpcd->Instance, ep->xfer_buff, pmabuffer, len);
 4093              		.loc 1 949 0
 4094 02a8 FB68     		ldr	r3, [r7, #12]
 4095 02aa 1868     		ldr	r0, [r3]
 4096 02ac FB69     		ldr	r3, [r7, #28]
 4097 02ae 1969     		ldr	r1, [r3, #16]
 4098 02b0 3B68     		ldr	r3, [r7]
 4099 02b2 9CB2     		uxth	r4, r3
 4100 02b4 2623     		movs	r3, #38
 4101 02b6 FB18     		adds	r3, r7, r3
 4102 02b8 1A88     		ldrh	r2, [r3]
 4103 02ba 2300     		movs	r3, r4
 4104 02bc FFF7FEFF 		bl	PCD_WritePMA
 950:Drivers/STM32F0xx_HAL_Driver/Src/stm32f0xx_hal_pcd.c ****     PCD_FreeUserBuffer(hpcd->Instance, ep->num, ep->is_in)
ARM GAS  /tmp/cczZJmfg.s 			page 89


 4105              		.loc 1 950 0
 4106 02c0 FB69     		ldr	r3, [r7, #28]
 4107 02c2 5B78     		ldrb	r3, [r3, #1]
 4108 02c4 002B     		cmp	r3, #0
 4109 02c6 16D1     		bne	.L153
 4110              		.loc 1 950 0 is_stmt 0 discriminator 1
 4111 02c8 FB68     		ldr	r3, [r7, #12]
 4112 02ca 1B68     		ldr	r3, [r3]
 4113 02cc 1A00     		movs	r2, r3
 4114 02ce FB69     		ldr	r3, [r7, #28]
 4115 02d0 1B78     		ldrb	r3, [r3]
 4116 02d2 9B00     		lsls	r3, r3, #2
 4117 02d4 D218     		adds	r2, r2, r3
 4118 02d6 FB68     		ldr	r3, [r7, #12]
 4119 02d8 1B68     		ldr	r3, [r3]
 4120 02da 1900     		movs	r1, r3
 4121 02dc FB69     		ldr	r3, [r7, #28]
 4122 02de 1B78     		ldrb	r3, [r3]
 4123 02e0 9B00     		lsls	r3, r3, #2
 4124 02e2 CB18     		adds	r3, r1, r3
 4125 02e4 1B88     		ldrh	r3, [r3]
 4126 02e6 2749     		ldr	r1, .L154+12
 4127 02e8 0B40     		ands	r3, r1
 4128 02ea 9BB2     		uxth	r3, r3
 4129 02ec 2649     		ldr	r1, .L154+16
 4130 02ee 0B43     		orrs	r3, r1
 4131 02f0 9BB2     		uxth	r3, r3
 4132 02f2 1380     		strh	r3, [r2]
 4133 02f4 19E0     		b	.L138
 4134              	.L153:
 4135              		.loc 1 950 0 discriminator 2
 4136 02f6 FB69     		ldr	r3, [r7, #28]
 4137 02f8 5B78     		ldrb	r3, [r3, #1]
 4138 02fa 012B     		cmp	r3, #1
 4139 02fc 15D1     		bne	.L138
 4140              		.loc 1 950 0 discriminator 3
 4141 02fe FB68     		ldr	r3, [r7, #12]
 4142 0300 1B68     		ldr	r3, [r3]
 4143 0302 1A00     		movs	r2, r3
 4144 0304 FB69     		ldr	r3, [r7, #28]
 4145 0306 1B78     		ldrb	r3, [r3]
 4146 0308 9B00     		lsls	r3, r3, #2
 4147 030a D218     		adds	r2, r2, r3
 4148 030c FB68     		ldr	r3, [r7, #12]
 4149 030e 1B68     		ldr	r3, [r3]
 4150 0310 1900     		movs	r1, r3
 4151 0312 FB69     		ldr	r3, [r7, #28]
 4152 0314 1B78     		ldrb	r3, [r3]
 4153 0316 9B00     		lsls	r3, r3, #2
 4154 0318 CB18     		adds	r3, r1, r3
 4155 031a 1B88     		ldrh	r3, [r3]
 4156 031c 1949     		ldr	r1, .L154+12
 4157 031e 0B40     		ands	r3, r1
 4158 0320 9BB2     		uxth	r3, r3
 4159 0322 1A49     		ldr	r1, .L154+20
 4160 0324 0B43     		orrs	r3, r1
 4161 0326 9BB2     		uxth	r3, r3
ARM GAS  /tmp/cczZJmfg.s 			page 90


 4162 0328 1380     		strh	r3, [r2]
 4163              	.L138:
 4164              	.LBB27:
 951:Drivers/STM32F0xx_HAL_Driver/Src/stm32f0xx_hal_pcd.c ****   }
 952:Drivers/STM32F0xx_HAL_Driver/Src/stm32f0xx_hal_pcd.c **** 
 953:Drivers/STM32F0xx_HAL_Driver/Src/stm32f0xx_hal_pcd.c ****   PCD_SET_EP_TX_STATUS(hpcd->Instance, ep->num, USB_EP_TX_VALID)
 4165              		.loc 1 953 0 is_stmt 1
 4166 032a FB68     		ldr	r3, [r7, #12]
 4167 032c 1B68     		ldr	r3, [r3]
 4168 032e 1A00     		movs	r2, r3
 4169 0330 FB69     		ldr	r3, [r7, #28]
 4170 0332 1B78     		ldrb	r3, [r3]
 4171 0334 9B00     		lsls	r3, r3, #2
 4172 0336 D318     		adds	r3, r2, r3
 4173 0338 1B88     		ldrh	r3, [r3]
 4174 033a 154A     		ldr	r2, .L154+24
 4175 033c 1340     		ands	r3, r2
 4176 033e 9CB2     		uxth	r4, r3
 4177 0340 1023     		movs	r3, #16
 4178 0342 6340     		eors	r3, r4
 4179 0344 9CB2     		uxth	r4, r3
 4180 0346 2023     		movs	r3, #32
 4181 0348 6340     		eors	r3, r4
 4182 034a 9CB2     		uxth	r4, r3
 4183 034c FB68     		ldr	r3, [r7, #12]
 4184 034e 1B68     		ldr	r3, [r3]
 4185 0350 1A00     		movs	r2, r3
 4186 0352 FB69     		ldr	r3, [r7, #28]
 4187 0354 1B78     		ldrb	r3, [r3]
 4188 0356 9B00     		lsls	r3, r3, #2
 4189 0358 D318     		adds	r3, r2, r3
 4190 035a 0E4A     		ldr	r2, .L154+28
 4191 035c 2243     		orrs	r2, r4
 4192 035e 92B2     		uxth	r2, r2
 4193 0360 1A80     		strh	r2, [r3]
 4194              	.LBE27:
 954:Drivers/STM32F0xx_HAL_Driver/Src/stm32f0xx_hal_pcd.c ****   
 955:Drivers/STM32F0xx_HAL_Driver/Src/stm32f0xx_hal_pcd.c ****   __HAL_UNLOCK(hpcd);
 4195              		.loc 1 955 0
 4196 0362 FA68     		ldr	r2, [r7, #12]
 4197 0364 F423     		movs	r3, #244
 4198 0366 5B00     		lsls	r3, r3, #1
 4199 0368 0021     		movs	r1, #0
 4200 036a D154     		strb	r1, [r2, r3]
 956:Drivers/STM32F0xx_HAL_Driver/Src/stm32f0xx_hal_pcd.c ****      
 957:Drivers/STM32F0xx_HAL_Driver/Src/stm32f0xx_hal_pcd.c ****   return HAL_OK;
 4201              		.loc 1 957 0
 4202 036c 0023     		movs	r3, #0
 4203              	.L134:
 958:Drivers/STM32F0xx_HAL_Driver/Src/stm32f0xx_hal_pcd.c **** }
 4204              		.loc 1 958 0
 4205 036e 1800     		movs	r0, r3
 4206 0370 BD46     		mov	sp, r7
 4207 0372 0BB0     		add	sp, sp, #44
 4208              		@ sp needed
 4209 0374 90BD     		pop	{r4, r7, pc}
 4210              	.L155:
ARM GAS  /tmp/cczZJmfg.s 			page 91


 4211 0376 C046     		.align	2
 4212              	.L154:
 4213 0378 02040000 		.word	1026
 4214 037c 06040000 		.word	1030
 4215 0380 0080FFFF 		.word	-32768
 4216 0384 0F0F0000 		.word	3855
 4217 0388 C080FFFF 		.word	-32576
 4218 038c 80C0FFFF 		.word	-16256
 4219 0390 BF8FFFFF 		.word	-28737
 4220 0394 8080FFFF 		.word	-32640
 4221              		.cfi_endproc
 4222              	.LFE60:
 4224              		.section	.text.HAL_PCD_EP_SetStall,"ax",%progbits
 4225              		.align	1
 4226              		.global	HAL_PCD_EP_SetStall
 4227              		.syntax unified
 4228              		.code	16
 4229              		.thumb_func
 4230              		.fpu softvfp
 4232              	HAL_PCD_EP_SetStall:
 4233              	.LFB61:
 959:Drivers/STM32F0xx_HAL_Driver/Src/stm32f0xx_hal_pcd.c **** 
 960:Drivers/STM32F0xx_HAL_Driver/Src/stm32f0xx_hal_pcd.c **** /**
 961:Drivers/STM32F0xx_HAL_Driver/Src/stm32f0xx_hal_pcd.c ****   * @brief  Set a STALL condition over an endpoint
 962:Drivers/STM32F0xx_HAL_Driver/Src/stm32f0xx_hal_pcd.c ****   * @param  hpcd: PCD handle
 963:Drivers/STM32F0xx_HAL_Driver/Src/stm32f0xx_hal_pcd.c ****   * @param  ep_addr: endpoint address
 964:Drivers/STM32F0xx_HAL_Driver/Src/stm32f0xx_hal_pcd.c ****   * @retval HAL status
 965:Drivers/STM32F0xx_HAL_Driver/Src/stm32f0xx_hal_pcd.c ****   */
 966:Drivers/STM32F0xx_HAL_Driver/Src/stm32f0xx_hal_pcd.c **** HAL_StatusTypeDef HAL_PCD_EP_SetStall(PCD_HandleTypeDef *hpcd, uint8_t ep_addr)
 967:Drivers/STM32F0xx_HAL_Driver/Src/stm32f0xx_hal_pcd.c **** {
 4234              		.loc 1 967 0
 4235              		.cfi_startproc
 4236 0000 90B5     		push	{r4, r7, lr}
 4237              	.LCFI78:
 4238              		.cfi_def_cfa_offset 12
 4239              		.cfi_offset 4, -12
 4240              		.cfi_offset 7, -8
 4241              		.cfi_offset 14, -4
 4242 0002 85B0     		sub	sp, sp, #20
 4243              	.LCFI79:
 4244              		.cfi_def_cfa_offset 32
 4245 0004 00AF     		add	r7, sp, #0
 4246              	.LCFI80:
 4247              		.cfi_def_cfa_register 7
 4248 0006 7860     		str	r0, [r7, #4]
 4249 0008 0A00     		movs	r2, r1
 4250 000a FB1C     		adds	r3, r7, #3
 4251 000c 1A70     		strb	r2, [r3]
 968:Drivers/STM32F0xx_HAL_Driver/Src/stm32f0xx_hal_pcd.c ****   PCD_EPTypeDef *ep;
 969:Drivers/STM32F0xx_HAL_Driver/Src/stm32f0xx_hal_pcd.c ****    
 970:Drivers/STM32F0xx_HAL_Driver/Src/stm32f0xx_hal_pcd.c ****   __HAL_LOCK(hpcd); 
 4252              		.loc 1 970 0
 4253 000e 7A68     		ldr	r2, [r7, #4]
 4254 0010 F423     		movs	r3, #244
 4255 0012 5B00     		lsls	r3, r3, #1
 4256 0014 D35C     		ldrb	r3, [r2, r3]
 4257 0016 012B     		cmp	r3, #1
ARM GAS  /tmp/cczZJmfg.s 			page 92


 4258 0018 01D1     		bne	.L157
 4259              		.loc 1 970 0 is_stmt 0 discriminator 1
 4260 001a 0223     		movs	r3, #2
 4261 001c 96E0     		b	.L158
 4262              	.L157:
 4263              		.loc 1 970 0 discriminator 2
 4264 001e 7A68     		ldr	r2, [r7, #4]
 4265 0020 F423     		movs	r3, #244
 4266 0022 5B00     		lsls	r3, r3, #1
 4267 0024 0121     		movs	r1, #1
 4268 0026 D154     		strb	r1, [r2, r3]
 971:Drivers/STM32F0xx_HAL_Driver/Src/stm32f0xx_hal_pcd.c ****    
 972:Drivers/STM32F0xx_HAL_Driver/Src/stm32f0xx_hal_pcd.c ****   if ((0x80 & ep_addr) == 0x80)
 4269              		.loc 1 972 0 is_stmt 1 discriminator 2
 4270 0028 FB1C     		adds	r3, r7, #3
 4271 002a 1B78     		ldrb	r3, [r3]
 4272 002c 5BB2     		sxtb	r3, r3
 4273 002e 002B     		cmp	r3, #0
 4274 0030 0CDA     		bge	.L159
 973:Drivers/STM32F0xx_HAL_Driver/Src/stm32f0xx_hal_pcd.c ****   {
 974:Drivers/STM32F0xx_HAL_Driver/Src/stm32f0xx_hal_pcd.c ****     ep = &hpcd->IN_ep[ep_addr & 0x7F];
 4275              		.loc 1 974 0
 4276 0032 FB1C     		adds	r3, r7, #3
 4277 0034 1B78     		ldrb	r3, [r3]
 4278 0036 7F22     		movs	r2, #127
 4279 0038 1A40     		ands	r2, r3
 4280 003a 1300     		movs	r3, r2
 4281 003c DB00     		lsls	r3, r3, #3
 4282 003e 9B1A     		subs	r3, r3, r2
 4283 0040 9B00     		lsls	r3, r3, #2
 4284 0042 2833     		adds	r3, r3, #40
 4285 0044 7A68     		ldr	r2, [r7, #4]
 4286 0046 D318     		adds	r3, r2, r3
 4287 0048 FB60     		str	r3, [r7, #12]
 4288 004a 0AE0     		b	.L160
 4289              	.L159:
 975:Drivers/STM32F0xx_HAL_Driver/Src/stm32f0xx_hal_pcd.c ****   }
 976:Drivers/STM32F0xx_HAL_Driver/Src/stm32f0xx_hal_pcd.c ****   else
 977:Drivers/STM32F0xx_HAL_Driver/Src/stm32f0xx_hal_pcd.c ****   {
 978:Drivers/STM32F0xx_HAL_Driver/Src/stm32f0xx_hal_pcd.c ****     ep = &hpcd->OUT_ep[ep_addr];
 4290              		.loc 1 978 0
 4291 004c FB1C     		adds	r3, r7, #3
 4292 004e 1A78     		ldrb	r2, [r3]
 4293 0050 1300     		movs	r3, r2
 4294 0052 DB00     		lsls	r3, r3, #3
 4295 0054 9B1A     		subs	r3, r3, r2
 4296 0056 9B00     		lsls	r3, r3, #2
 4297 0058 0933     		adds	r3, r3, #9
 4298 005a FF33     		adds	r3, r3, #255
 4299 005c 7A68     		ldr	r2, [r7, #4]
 4300 005e D318     		adds	r3, r2, r3
 4301 0060 FB60     		str	r3, [r7, #12]
 4302              	.L160:
 979:Drivers/STM32F0xx_HAL_Driver/Src/stm32f0xx_hal_pcd.c ****   }
 980:Drivers/STM32F0xx_HAL_Driver/Src/stm32f0xx_hal_pcd.c ****   
 981:Drivers/STM32F0xx_HAL_Driver/Src/stm32f0xx_hal_pcd.c ****   ep->is_stall = 1;
 4303              		.loc 1 981 0
ARM GAS  /tmp/cczZJmfg.s 			page 93


 4304 0062 FB68     		ldr	r3, [r7, #12]
 4305 0064 0122     		movs	r2, #1
 4306 0066 9A70     		strb	r2, [r3, #2]
 982:Drivers/STM32F0xx_HAL_Driver/Src/stm32f0xx_hal_pcd.c ****   ep->num   = ep_addr & 0x7F;
 4307              		.loc 1 982 0
 4308 0068 FB1C     		adds	r3, r7, #3
 4309 006a 1B78     		ldrb	r3, [r3]
 4310 006c 7F22     		movs	r2, #127
 4311 006e 1340     		ands	r3, r2
 4312 0070 DAB2     		uxtb	r2, r3
 4313 0072 FB68     		ldr	r3, [r7, #12]
 4314 0074 1A70     		strb	r2, [r3]
 983:Drivers/STM32F0xx_HAL_Driver/Src/stm32f0xx_hal_pcd.c ****   ep->is_in = ((ep_addr & 0x80) == 0x80);
 4315              		.loc 1 983 0
 4316 0076 FB1C     		adds	r3, r7, #3
 4317 0078 1B78     		ldrb	r3, [r3]
 4318 007a 5BB2     		sxtb	r3, r3
 4319 007c DBB2     		uxtb	r3, r3
 4320 007e DB09     		lsrs	r3, r3, #7
 4321 0080 DBB2     		uxtb	r3, r3
 4322 0082 1A00     		movs	r2, r3
 4323 0084 FB68     		ldr	r3, [r7, #12]
 4324 0086 5A70     		strb	r2, [r3, #1]
 984:Drivers/STM32F0xx_HAL_Driver/Src/stm32f0xx_hal_pcd.c ****   
 985:Drivers/STM32F0xx_HAL_Driver/Src/stm32f0xx_hal_pcd.c ****   if (ep->num == 0)
 4325              		.loc 1 985 0
 4326 0088 FB68     		ldr	r3, [r7, #12]
 4327 008a 1B78     		ldrb	r3, [r3]
 4328 008c 002B     		cmp	r3, #0
 4329 008e 1FD1     		bne	.L161
 4330              	.LBB28:
 986:Drivers/STM32F0xx_HAL_Driver/Src/stm32f0xx_hal_pcd.c ****   {
 987:Drivers/STM32F0xx_HAL_Driver/Src/stm32f0xx_hal_pcd.c ****     /* This macro sets STALL status for RX & TX*/ 
 988:Drivers/STM32F0xx_HAL_Driver/Src/stm32f0xx_hal_pcd.c ****     PCD_SET_EP_TXRX_STATUS(hpcd->Instance, ep->num, USB_EP_RX_STALL, USB_EP_TX_STALL)
 4331              		.loc 1 988 0
 4332 0090 7B68     		ldr	r3, [r7, #4]
 4333 0092 1B68     		ldr	r3, [r3]
 4334 0094 1A00     		movs	r2, r3
 4335 0096 FB68     		ldr	r3, [r7, #12]
 4336 0098 1B78     		ldrb	r3, [r3]
 4337 009a 9B00     		lsls	r3, r3, #2
 4338 009c D318     		adds	r3, r2, r3
 4339 009e 1B88     		ldrh	r3, [r3]
 4340 00a0 1A00     		movs	r2, r3
 4341 00a2 2C4B     		ldr	r3, .L164
 4342 00a4 1A40     		ands	r2, r3
 4343 00a6 1400     		movs	r4, r2
 4344 00a8 8023     		movs	r3, #128
 4345 00aa 5B01     		lsls	r3, r3, #5
 4346 00ac 6340     		eors	r3, r4
 4347 00ae 1C00     		movs	r4, r3
 4348 00b0 1023     		movs	r3, #16
 4349 00b2 6340     		eors	r3, r4
 4350 00b4 1C00     		movs	r4, r3
 4351 00b6 7B68     		ldr	r3, [r7, #4]
 4352 00b8 1B68     		ldr	r3, [r3]
 4353 00ba 1A00     		movs	r2, r3
ARM GAS  /tmp/cczZJmfg.s 			page 94


 4354 00bc FB68     		ldr	r3, [r7, #12]
 4355 00be 1B78     		ldrb	r3, [r3]
 4356 00c0 9B00     		lsls	r3, r3, #2
 4357 00c2 D318     		adds	r3, r2, r3
 4358 00c4 A2B2     		uxth	r2, r4
 4359 00c6 2449     		ldr	r1, .L164+4
 4360 00c8 0A43     		orrs	r2, r1
 4361 00ca 92B2     		uxth	r2, r2
 4362 00cc 1A80     		strh	r2, [r3]
 4363              	.LBE28:
 4364 00ce 37E0     		b	.L162
 4365              	.L161:
 989:Drivers/STM32F0xx_HAL_Driver/Src/stm32f0xx_hal_pcd.c ****   }
 990:Drivers/STM32F0xx_HAL_Driver/Src/stm32f0xx_hal_pcd.c ****   else
 991:Drivers/STM32F0xx_HAL_Driver/Src/stm32f0xx_hal_pcd.c ****   {
 992:Drivers/STM32F0xx_HAL_Driver/Src/stm32f0xx_hal_pcd.c ****     if (ep->is_in)
 4366              		.loc 1 992 0
 4367 00d0 FB68     		ldr	r3, [r7, #12]
 4368 00d2 5B78     		ldrb	r3, [r3, #1]
 4369 00d4 002B     		cmp	r3, #0
 4370 00d6 19D0     		beq	.L163
 4371              	.LBB29:
 993:Drivers/STM32F0xx_HAL_Driver/Src/stm32f0xx_hal_pcd.c ****     {
 994:Drivers/STM32F0xx_HAL_Driver/Src/stm32f0xx_hal_pcd.c ****       PCD_SET_EP_TX_STATUS(hpcd->Instance, ep->num , USB_EP_TX_STALL)
 4372              		.loc 1 994 0
 4373 00d8 7B68     		ldr	r3, [r7, #4]
 4374 00da 1B68     		ldr	r3, [r3]
 4375 00dc 1A00     		movs	r2, r3
 4376 00de FB68     		ldr	r3, [r7, #12]
 4377 00e0 1B78     		ldrb	r3, [r3]
 4378 00e2 9B00     		lsls	r3, r3, #2
 4379 00e4 D318     		adds	r3, r2, r3
 4380 00e6 1B88     		ldrh	r3, [r3]
 4381 00e8 1C4A     		ldr	r2, .L164+8
 4382 00ea 1340     		ands	r3, r2
 4383 00ec 9CB2     		uxth	r4, r3
 4384 00ee 1023     		movs	r3, #16
 4385 00f0 6340     		eors	r3, r4
 4386 00f2 9CB2     		uxth	r4, r3
 4387 00f4 7B68     		ldr	r3, [r7, #4]
 4388 00f6 1B68     		ldr	r3, [r3]
 4389 00f8 1A00     		movs	r2, r3
 4390 00fa FB68     		ldr	r3, [r7, #12]
 4391 00fc 1B78     		ldrb	r3, [r3]
 4392 00fe 9B00     		lsls	r3, r3, #2
 4393 0100 D318     		adds	r3, r2, r3
 4394 0102 154A     		ldr	r2, .L164+4
 4395 0104 2243     		orrs	r2, r4
 4396 0106 92B2     		uxth	r2, r2
 4397 0108 1A80     		strh	r2, [r3]
 4398              	.LBE29:
 4399 010a 19E0     		b	.L162
 4400              	.L163:
 4401              	.LBB30:
 995:Drivers/STM32F0xx_HAL_Driver/Src/stm32f0xx_hal_pcd.c ****     }
 996:Drivers/STM32F0xx_HAL_Driver/Src/stm32f0xx_hal_pcd.c ****     else
 997:Drivers/STM32F0xx_HAL_Driver/Src/stm32f0xx_hal_pcd.c ****     {
ARM GAS  /tmp/cczZJmfg.s 			page 95


 998:Drivers/STM32F0xx_HAL_Driver/Src/stm32f0xx_hal_pcd.c ****       PCD_SET_EP_RX_STATUS(hpcd->Instance, ep->num , USB_EP_RX_STALL)
 4402              		.loc 1 998 0
 4403 010c 7B68     		ldr	r3, [r7, #4]
 4404 010e 1B68     		ldr	r3, [r3]
 4405 0110 1A00     		movs	r2, r3
 4406 0112 FB68     		ldr	r3, [r7, #12]
 4407 0114 1B78     		ldrb	r3, [r3]
 4408 0116 9B00     		lsls	r3, r3, #2
 4409 0118 D318     		adds	r3, r2, r3
 4410 011a 1B88     		ldrh	r3, [r3]
 4411 011c 104A     		ldr	r2, .L164+12
 4412 011e 1340     		ands	r3, r2
 4413 0120 9CB2     		uxth	r4, r3
 4414 0122 8023     		movs	r3, #128
 4415 0124 5B01     		lsls	r3, r3, #5
 4416 0126 6340     		eors	r3, r4
 4417 0128 9CB2     		uxth	r4, r3
 4418 012a 7B68     		ldr	r3, [r7, #4]
 4419 012c 1B68     		ldr	r3, [r3]
 4420 012e 1A00     		movs	r2, r3
 4421 0130 FB68     		ldr	r3, [r7, #12]
 4422 0132 1B78     		ldrb	r3, [r3]
 4423 0134 9B00     		lsls	r3, r3, #2
 4424 0136 D318     		adds	r3, r2, r3
 4425 0138 074A     		ldr	r2, .L164+4
 4426 013a 2243     		orrs	r2, r4
 4427 013c 92B2     		uxth	r2, r2
 4428 013e 1A80     		strh	r2, [r3]
 4429              	.L162:
 4430              	.LBE30:
 999:Drivers/STM32F0xx_HAL_Driver/Src/stm32f0xx_hal_pcd.c ****     }
1000:Drivers/STM32F0xx_HAL_Driver/Src/stm32f0xx_hal_pcd.c ****   }
1001:Drivers/STM32F0xx_HAL_Driver/Src/stm32f0xx_hal_pcd.c ****   __HAL_UNLOCK(hpcd); 
 4431              		.loc 1 1001 0
 4432 0140 7A68     		ldr	r2, [r7, #4]
 4433 0142 F423     		movs	r3, #244
 4434 0144 5B00     		lsls	r3, r3, #1
 4435 0146 0021     		movs	r1, #0
 4436 0148 D154     		strb	r1, [r2, r3]
1002:Drivers/STM32F0xx_HAL_Driver/Src/stm32f0xx_hal_pcd.c ****   
1003:Drivers/STM32F0xx_HAL_Driver/Src/stm32f0xx_hal_pcd.c ****   return HAL_OK;
 4437              		.loc 1 1003 0
 4438 014a 0023     		movs	r3, #0
 4439              	.L158:
1004:Drivers/STM32F0xx_HAL_Driver/Src/stm32f0xx_hal_pcd.c **** }
 4440              		.loc 1 1004 0
 4441 014c 1800     		movs	r0, r3
 4442 014e BD46     		mov	sp, r7
 4443 0150 05B0     		add	sp, sp, #20
 4444              		@ sp needed
 4445 0152 90BD     		pop	{r4, r7, pc}
 4446              	.L165:
 4447              		.align	2
 4448              	.L164:
 4449 0154 BFBF0000 		.word	49087
 4450 0158 8080FFFF 		.word	-32640
 4451 015c BF8FFFFF 		.word	-28737
ARM GAS  /tmp/cczZJmfg.s 			page 96


 4452 0160 8FBFFFFF 		.word	-16497
 4453              		.cfi_endproc
 4454              	.LFE61:
 4456              		.section	.text.HAL_PCD_EP_ClrStall,"ax",%progbits
 4457              		.align	1
 4458              		.global	HAL_PCD_EP_ClrStall
 4459              		.syntax unified
 4460              		.code	16
 4461              		.thumb_func
 4462              		.fpu softvfp
 4464              	HAL_PCD_EP_ClrStall:
 4465              	.LFB62:
1005:Drivers/STM32F0xx_HAL_Driver/Src/stm32f0xx_hal_pcd.c **** 
1006:Drivers/STM32F0xx_HAL_Driver/Src/stm32f0xx_hal_pcd.c **** /**
1007:Drivers/STM32F0xx_HAL_Driver/Src/stm32f0xx_hal_pcd.c ****   * @brief  Clear a STALL condition over in an endpoint
1008:Drivers/STM32F0xx_HAL_Driver/Src/stm32f0xx_hal_pcd.c ****   * @param  hpcd: PCD handle
1009:Drivers/STM32F0xx_HAL_Driver/Src/stm32f0xx_hal_pcd.c ****   * @param  ep_addr: endpoint address
1010:Drivers/STM32F0xx_HAL_Driver/Src/stm32f0xx_hal_pcd.c ****   * @retval HAL status
1011:Drivers/STM32F0xx_HAL_Driver/Src/stm32f0xx_hal_pcd.c ****   */
1012:Drivers/STM32F0xx_HAL_Driver/Src/stm32f0xx_hal_pcd.c **** HAL_StatusTypeDef HAL_PCD_EP_ClrStall(PCD_HandleTypeDef *hpcd, uint8_t ep_addr)
1013:Drivers/STM32F0xx_HAL_Driver/Src/stm32f0xx_hal_pcd.c **** {
 4466              		.loc 1 1013 0
 4467              		.cfi_startproc
 4468 0000 90B5     		push	{r4, r7, lr}
 4469              	.LCFI81:
 4470              		.cfi_def_cfa_offset 12
 4471              		.cfi_offset 4, -12
 4472              		.cfi_offset 7, -8
 4473              		.cfi_offset 14, -4
 4474 0002 85B0     		sub	sp, sp, #20
 4475              	.LCFI82:
 4476              		.cfi_def_cfa_offset 32
 4477 0004 00AF     		add	r7, sp, #0
 4478              	.LCFI83:
 4479              		.cfi_def_cfa_register 7
 4480 0006 7860     		str	r0, [r7, #4]
 4481 0008 0A00     		movs	r2, r1
 4482 000a FB1C     		adds	r3, r7, #3
 4483 000c 1A70     		strb	r2, [r3]
1014:Drivers/STM32F0xx_HAL_Driver/Src/stm32f0xx_hal_pcd.c ****   PCD_EPTypeDef *ep;
1015:Drivers/STM32F0xx_HAL_Driver/Src/stm32f0xx_hal_pcd.c ****   
1016:Drivers/STM32F0xx_HAL_Driver/Src/stm32f0xx_hal_pcd.c ****   if ((0x80 & ep_addr) == 0x80)
 4484              		.loc 1 1016 0
 4485 000e FB1C     		adds	r3, r7, #3
 4486 0010 1B78     		ldrb	r3, [r3]
 4487 0012 5BB2     		sxtb	r3, r3
 4488 0014 002B     		cmp	r3, #0
 4489 0016 0CDA     		bge	.L167
1017:Drivers/STM32F0xx_HAL_Driver/Src/stm32f0xx_hal_pcd.c ****   {
1018:Drivers/STM32F0xx_HAL_Driver/Src/stm32f0xx_hal_pcd.c ****     ep = &hpcd->IN_ep[ep_addr & 0x7F];
 4490              		.loc 1 1018 0
 4491 0018 FB1C     		adds	r3, r7, #3
 4492 001a 1B78     		ldrb	r3, [r3]
 4493 001c 7F22     		movs	r2, #127
 4494 001e 1A40     		ands	r2, r3
 4495 0020 1300     		movs	r3, r2
 4496 0022 DB00     		lsls	r3, r3, #3
ARM GAS  /tmp/cczZJmfg.s 			page 97


 4497 0024 9B1A     		subs	r3, r3, r2
 4498 0026 9B00     		lsls	r3, r3, #2
 4499 0028 2833     		adds	r3, r3, #40
 4500 002a 7A68     		ldr	r2, [r7, #4]
 4501 002c D318     		adds	r3, r2, r3
 4502 002e FB60     		str	r3, [r7, #12]
 4503 0030 0AE0     		b	.L168
 4504              	.L167:
1019:Drivers/STM32F0xx_HAL_Driver/Src/stm32f0xx_hal_pcd.c ****   }
1020:Drivers/STM32F0xx_HAL_Driver/Src/stm32f0xx_hal_pcd.c ****   else
1021:Drivers/STM32F0xx_HAL_Driver/Src/stm32f0xx_hal_pcd.c ****   {
1022:Drivers/STM32F0xx_HAL_Driver/Src/stm32f0xx_hal_pcd.c ****     ep = &hpcd->OUT_ep[ep_addr];
 4505              		.loc 1 1022 0
 4506 0032 FB1C     		adds	r3, r7, #3
 4507 0034 1A78     		ldrb	r2, [r3]
 4508 0036 1300     		movs	r3, r2
 4509 0038 DB00     		lsls	r3, r3, #3
 4510 003a 9B1A     		subs	r3, r3, r2
 4511 003c 9B00     		lsls	r3, r3, #2
 4512 003e 0933     		adds	r3, r3, #9
 4513 0040 FF33     		adds	r3, r3, #255
 4514 0042 7A68     		ldr	r2, [r7, #4]
 4515 0044 D318     		adds	r3, r2, r3
 4516 0046 FB60     		str	r3, [r7, #12]
 4517              	.L168:
1023:Drivers/STM32F0xx_HAL_Driver/Src/stm32f0xx_hal_pcd.c ****   }
1024:Drivers/STM32F0xx_HAL_Driver/Src/stm32f0xx_hal_pcd.c ****   
1025:Drivers/STM32F0xx_HAL_Driver/Src/stm32f0xx_hal_pcd.c ****   ep->is_stall = 0;
 4518              		.loc 1 1025 0
 4519 0048 FB68     		ldr	r3, [r7, #12]
 4520 004a 0022     		movs	r2, #0
 4521 004c 9A70     		strb	r2, [r3, #2]
1026:Drivers/STM32F0xx_HAL_Driver/Src/stm32f0xx_hal_pcd.c ****   ep->num   = ep_addr & 0x7F;
 4522              		.loc 1 1026 0
 4523 004e FB1C     		adds	r3, r7, #3
 4524 0050 1B78     		ldrb	r3, [r3]
 4525 0052 7F22     		movs	r2, #127
 4526 0054 1340     		ands	r3, r2
 4527 0056 DAB2     		uxtb	r2, r3
 4528 0058 FB68     		ldr	r3, [r7, #12]
 4529 005a 1A70     		strb	r2, [r3]
1027:Drivers/STM32F0xx_HAL_Driver/Src/stm32f0xx_hal_pcd.c ****   ep->is_in = ((ep_addr & 0x80) == 0x80);
 4530              		.loc 1 1027 0
 4531 005c FB1C     		adds	r3, r7, #3
 4532 005e 1B78     		ldrb	r3, [r3]
 4533 0060 5BB2     		sxtb	r3, r3
 4534 0062 DBB2     		uxtb	r3, r3
 4535 0064 DB09     		lsrs	r3, r3, #7
 4536 0066 DBB2     		uxtb	r3, r3
 4537 0068 1A00     		movs	r2, r3
 4538 006a FB68     		ldr	r3, [r7, #12]
 4539 006c 5A70     		strb	r2, [r3, #1]
1028:Drivers/STM32F0xx_HAL_Driver/Src/stm32f0xx_hal_pcd.c ****   
1029:Drivers/STM32F0xx_HAL_Driver/Src/stm32f0xx_hal_pcd.c ****   __HAL_LOCK(hpcd); 
 4540              		.loc 1 1029 0
 4541 006e 7A68     		ldr	r2, [r7, #4]
 4542 0070 F423     		movs	r3, #244
ARM GAS  /tmp/cczZJmfg.s 			page 98


 4543 0072 5B00     		lsls	r3, r3, #1
 4544 0074 D35C     		ldrb	r3, [r2, r3]
 4545 0076 012B     		cmp	r3, #1
 4546 0078 01D1     		bne	.L169
 4547              		.loc 1 1029 0 is_stmt 0 discriminator 1
 4548 007a 0223     		movs	r3, #2
 4549 007c 8EE0     		b	.L170
 4550              	.L169:
 4551              		.loc 1 1029 0 discriminator 2
 4552 007e 7A68     		ldr	r2, [r7, #4]
 4553 0080 F423     		movs	r3, #244
 4554 0082 5B00     		lsls	r3, r3, #1
 4555 0084 0121     		movs	r1, #1
 4556 0086 D154     		strb	r1, [r2, r3]
1030:Drivers/STM32F0xx_HAL_Driver/Src/stm32f0xx_hal_pcd.c ****   
1031:Drivers/STM32F0xx_HAL_Driver/Src/stm32f0xx_hal_pcd.c ****   if (ep->is_in)
 4557              		.loc 1 1031 0 is_stmt 1 discriminator 2
 4558 0088 FB68     		ldr	r3, [r7, #12]
 4559 008a 5B78     		ldrb	r3, [r3, #1]
 4560 008c 002B     		cmp	r3, #0
 4561 008e 3ED0     		beq	.L171
1032:Drivers/STM32F0xx_HAL_Driver/Src/stm32f0xx_hal_pcd.c ****   {
1033:Drivers/STM32F0xx_HAL_Driver/Src/stm32f0xx_hal_pcd.c ****     PCD_CLEAR_TX_DTOG(hpcd->Instance, ep->num)
 4562              		.loc 1 1033 0
 4563 0090 7B68     		ldr	r3, [r7, #4]
 4564 0092 1B68     		ldr	r3, [r3]
 4565 0094 1A00     		movs	r2, r3
 4566 0096 FB68     		ldr	r3, [r7, #12]
 4567 0098 1B78     		ldrb	r3, [r3]
 4568 009a 9B00     		lsls	r3, r3, #2
 4569 009c D318     		adds	r3, r2, r3
 4570 009e 1B88     		ldrh	r3, [r3]
 4571 00a0 1A00     		movs	r2, r3
 4572 00a2 4023     		movs	r3, #64
 4573 00a4 1340     		ands	r3, r2
 4574 00a6 15D0     		beq	.L172
 4575              		.loc 1 1033 0 is_stmt 0 discriminator 1
 4576 00a8 7B68     		ldr	r3, [r7, #4]
 4577 00aa 1B68     		ldr	r3, [r3]
 4578 00ac 1A00     		movs	r2, r3
 4579 00ae FB68     		ldr	r3, [r7, #12]
 4580 00b0 1B78     		ldrb	r3, [r3]
 4581 00b2 9B00     		lsls	r3, r3, #2
 4582 00b4 D218     		adds	r2, r2, r3
 4583 00b6 7B68     		ldr	r3, [r7, #4]
 4584 00b8 1B68     		ldr	r3, [r3]
 4585 00ba 1900     		movs	r1, r3
 4586 00bc FB68     		ldr	r3, [r7, #12]
 4587 00be 1B78     		ldrb	r3, [r3]
 4588 00c0 9B00     		lsls	r3, r3, #2
 4589 00c2 CB18     		adds	r3, r1, r3
 4590 00c4 1B88     		ldrh	r3, [r3]
 4591 00c6 3749     		ldr	r1, .L175
 4592 00c8 0B40     		ands	r3, r1
 4593 00ca 9BB2     		uxth	r3, r3
 4594 00cc 3649     		ldr	r1, .L175+4
 4595 00ce 0B43     		orrs	r3, r1
ARM GAS  /tmp/cczZJmfg.s 			page 99


 4596 00d0 9BB2     		uxth	r3, r3
 4597 00d2 1380     		strh	r3, [r2]
 4598              	.L172:
 4599              	.LBB31:
1034:Drivers/STM32F0xx_HAL_Driver/Src/stm32f0xx_hal_pcd.c ****     PCD_SET_EP_TX_STATUS(hpcd->Instance, ep->num, USB_EP_TX_VALID)
 4600              		.loc 1 1034 0 is_stmt 1
 4601 00d4 7B68     		ldr	r3, [r7, #4]
 4602 00d6 1B68     		ldr	r3, [r3]
 4603 00d8 1A00     		movs	r2, r3
 4604 00da FB68     		ldr	r3, [r7, #12]
 4605 00dc 1B78     		ldrb	r3, [r3]
 4606 00de 9B00     		lsls	r3, r3, #2
 4607 00e0 D318     		adds	r3, r2, r3
 4608 00e2 1B88     		ldrh	r3, [r3]
 4609 00e4 314A     		ldr	r2, .L175+8
 4610 00e6 1340     		ands	r3, r2
 4611 00e8 9CB2     		uxth	r4, r3
 4612 00ea 1023     		movs	r3, #16
 4613 00ec 6340     		eors	r3, r4
 4614 00ee 9CB2     		uxth	r4, r3
 4615 00f0 2023     		movs	r3, #32
 4616 00f2 6340     		eors	r3, r4
 4617 00f4 9CB2     		uxth	r4, r3
 4618 00f6 7B68     		ldr	r3, [r7, #4]
 4619 00f8 1B68     		ldr	r3, [r3]
 4620 00fa 1A00     		movs	r2, r3
 4621 00fc FB68     		ldr	r3, [r7, #12]
 4622 00fe 1B78     		ldrb	r3, [r3]
 4623 0100 9B00     		lsls	r3, r3, #2
 4624 0102 D318     		adds	r3, r2, r3
 4625 0104 2A4A     		ldr	r2, .L175+12
 4626 0106 2243     		orrs	r2, r4
 4627 0108 92B2     		uxth	r2, r2
 4628 010a 1A80     		strh	r2, [r3]
 4629              	.LBE31:
 4630 010c 40E0     		b	.L173
 4631              	.L171:
1035:Drivers/STM32F0xx_HAL_Driver/Src/stm32f0xx_hal_pcd.c ****   }
1036:Drivers/STM32F0xx_HAL_Driver/Src/stm32f0xx_hal_pcd.c ****   else
1037:Drivers/STM32F0xx_HAL_Driver/Src/stm32f0xx_hal_pcd.c ****   {
1038:Drivers/STM32F0xx_HAL_Driver/Src/stm32f0xx_hal_pcd.c ****     PCD_CLEAR_RX_DTOG(hpcd->Instance, ep->num)
 4632              		.loc 1 1038 0
 4633 010e 7B68     		ldr	r3, [r7, #4]
 4634 0110 1B68     		ldr	r3, [r3]
 4635 0112 1A00     		movs	r2, r3
 4636 0114 FB68     		ldr	r3, [r7, #12]
 4637 0116 1B78     		ldrb	r3, [r3]
 4638 0118 9B00     		lsls	r3, r3, #2
 4639 011a D318     		adds	r3, r2, r3
 4640 011c 1B88     		ldrh	r3, [r3]
 4641 011e 1A00     		movs	r2, r3
 4642 0120 8023     		movs	r3, #128
 4643 0122 DB01     		lsls	r3, r3, #7
 4644 0124 1340     		ands	r3, r2
 4645 0126 15D0     		beq	.L174
 4646              		.loc 1 1038 0 is_stmt 0 discriminator 1
 4647 0128 7B68     		ldr	r3, [r7, #4]
ARM GAS  /tmp/cczZJmfg.s 			page 100


 4648 012a 1B68     		ldr	r3, [r3]
 4649 012c 1A00     		movs	r2, r3
 4650 012e FB68     		ldr	r3, [r7, #12]
 4651 0130 1B78     		ldrb	r3, [r3]
 4652 0132 9B00     		lsls	r3, r3, #2
 4653 0134 D218     		adds	r2, r2, r3
 4654 0136 7B68     		ldr	r3, [r7, #4]
 4655 0138 1B68     		ldr	r3, [r3]
 4656 013a 1900     		movs	r1, r3
 4657 013c FB68     		ldr	r3, [r7, #12]
 4658 013e 1B78     		ldrb	r3, [r3]
 4659 0140 9B00     		lsls	r3, r3, #2
 4660 0142 CB18     		adds	r3, r1, r3
 4661 0144 1B88     		ldrh	r3, [r3]
 4662 0146 1749     		ldr	r1, .L175
 4663 0148 0B40     		ands	r3, r1
 4664 014a 9BB2     		uxth	r3, r3
 4665 014c 1949     		ldr	r1, .L175+16
 4666 014e 0B43     		orrs	r3, r1
 4667 0150 9BB2     		uxth	r3, r3
 4668 0152 1380     		strh	r3, [r2]
 4669              	.L174:
 4670              	.LBB32:
1039:Drivers/STM32F0xx_HAL_Driver/Src/stm32f0xx_hal_pcd.c ****     PCD_SET_EP_RX_STATUS(hpcd->Instance, ep->num, USB_EP_RX_VALID)
 4671              		.loc 1 1039 0 is_stmt 1
 4672 0154 7B68     		ldr	r3, [r7, #4]
 4673 0156 1B68     		ldr	r3, [r3]
 4674 0158 1A00     		movs	r2, r3
 4675 015a FB68     		ldr	r3, [r7, #12]
 4676 015c 1B78     		ldrb	r3, [r3]
 4677 015e 9B00     		lsls	r3, r3, #2
 4678 0160 D318     		adds	r3, r2, r3
 4679 0162 1B88     		ldrh	r3, [r3]
 4680 0164 144A     		ldr	r2, .L175+20
 4681 0166 1340     		ands	r3, r2
 4682 0168 9CB2     		uxth	r4, r3
 4683 016a 8023     		movs	r3, #128
 4684 016c 5B01     		lsls	r3, r3, #5
 4685 016e 6340     		eors	r3, r4
 4686 0170 9CB2     		uxth	r4, r3
 4687 0172 8023     		movs	r3, #128
 4688 0174 9B01     		lsls	r3, r3, #6
 4689 0176 6340     		eors	r3, r4
 4690 0178 9CB2     		uxth	r4, r3
 4691 017a 7B68     		ldr	r3, [r7, #4]
 4692 017c 1B68     		ldr	r3, [r3]
 4693 017e 1A00     		movs	r2, r3
 4694 0180 FB68     		ldr	r3, [r7, #12]
 4695 0182 1B78     		ldrb	r3, [r3]
 4696 0184 9B00     		lsls	r3, r3, #2
 4697 0186 D318     		adds	r3, r2, r3
 4698 0188 094A     		ldr	r2, .L175+12
 4699 018a 2243     		orrs	r2, r4
 4700 018c 92B2     		uxth	r2, r2
 4701 018e 1A80     		strh	r2, [r3]
 4702              	.L173:
 4703              	.LBE32:
ARM GAS  /tmp/cczZJmfg.s 			page 101


1040:Drivers/STM32F0xx_HAL_Driver/Src/stm32f0xx_hal_pcd.c ****   }
1041:Drivers/STM32F0xx_HAL_Driver/Src/stm32f0xx_hal_pcd.c ****   __HAL_UNLOCK(hpcd); 
 4704              		.loc 1 1041 0
 4705 0190 7A68     		ldr	r2, [r7, #4]
 4706 0192 F423     		movs	r3, #244
 4707 0194 5B00     		lsls	r3, r3, #1
 4708 0196 0021     		movs	r1, #0
 4709 0198 D154     		strb	r1, [r2, r3]
1042:Drivers/STM32F0xx_HAL_Driver/Src/stm32f0xx_hal_pcd.c ****     
1043:Drivers/STM32F0xx_HAL_Driver/Src/stm32f0xx_hal_pcd.c ****   return HAL_OK;
 4710              		.loc 1 1043 0
 4711 019a 0023     		movs	r3, #0
 4712              	.L170:
1044:Drivers/STM32F0xx_HAL_Driver/Src/stm32f0xx_hal_pcd.c **** }
 4713              		.loc 1 1044 0
 4714 019c 1800     		movs	r0, r3
 4715 019e BD46     		mov	sp, r7
 4716 01a0 05B0     		add	sp, sp, #20
 4717              		@ sp needed
 4718 01a2 90BD     		pop	{r4, r7, pc}
 4719              	.L176:
 4720              		.align	2
 4721              	.L175:
 4722 01a4 0F0F0000 		.word	3855
 4723 01a8 C080FFFF 		.word	-32576
 4724 01ac BF8FFFFF 		.word	-28737
 4725 01b0 8080FFFF 		.word	-32640
 4726 01b4 80C0FFFF 		.word	-16256
 4727 01b8 8FBFFFFF 		.word	-16497
 4728              		.cfi_endproc
 4729              	.LFE62:
 4731              		.section	.text.HAL_PCD_EP_Flush,"ax",%progbits
 4732              		.align	1
 4733              		.global	HAL_PCD_EP_Flush
 4734              		.syntax unified
 4735              		.code	16
 4736              		.thumb_func
 4737              		.fpu softvfp
 4739              	HAL_PCD_EP_Flush:
 4740              	.LFB63:
1045:Drivers/STM32F0xx_HAL_Driver/Src/stm32f0xx_hal_pcd.c **** 
1046:Drivers/STM32F0xx_HAL_Driver/Src/stm32f0xx_hal_pcd.c **** /**
1047:Drivers/STM32F0xx_HAL_Driver/Src/stm32f0xx_hal_pcd.c ****   * @brief  Flush an endpoint
1048:Drivers/STM32F0xx_HAL_Driver/Src/stm32f0xx_hal_pcd.c ****   * @param  hpcd: PCD handle
1049:Drivers/STM32F0xx_HAL_Driver/Src/stm32f0xx_hal_pcd.c ****   * @param  ep_addr: endpoint address
1050:Drivers/STM32F0xx_HAL_Driver/Src/stm32f0xx_hal_pcd.c ****   * @retval HAL status
1051:Drivers/STM32F0xx_HAL_Driver/Src/stm32f0xx_hal_pcd.c ****   */
1052:Drivers/STM32F0xx_HAL_Driver/Src/stm32f0xx_hal_pcd.c **** HAL_StatusTypeDef HAL_PCD_EP_Flush(PCD_HandleTypeDef *hpcd, uint8_t ep_addr)
1053:Drivers/STM32F0xx_HAL_Driver/Src/stm32f0xx_hal_pcd.c **** { 
 4741              		.loc 1 1053 0
 4742              		.cfi_startproc
 4743 0000 80B5     		push	{r7, lr}
 4744              	.LCFI84:
 4745              		.cfi_def_cfa_offset 8
 4746              		.cfi_offset 7, -8
 4747              		.cfi_offset 14, -4
 4748 0002 82B0     		sub	sp, sp, #8
ARM GAS  /tmp/cczZJmfg.s 			page 102


 4749              	.LCFI85:
 4750              		.cfi_def_cfa_offset 16
 4751 0004 00AF     		add	r7, sp, #0
 4752              	.LCFI86:
 4753              		.cfi_def_cfa_register 7
 4754 0006 7860     		str	r0, [r7, #4]
 4755 0008 0A00     		movs	r2, r1
 4756 000a FB1C     		adds	r3, r7, #3
 4757 000c 1A70     		strb	r2, [r3]
1054:Drivers/STM32F0xx_HAL_Driver/Src/stm32f0xx_hal_pcd.c ****   return HAL_OK;
 4758              		.loc 1 1054 0
 4759 000e 0023     		movs	r3, #0
1055:Drivers/STM32F0xx_HAL_Driver/Src/stm32f0xx_hal_pcd.c **** }
 4760              		.loc 1 1055 0
 4761 0010 1800     		movs	r0, r3
 4762 0012 BD46     		mov	sp, r7
 4763 0014 02B0     		add	sp, sp, #8
 4764              		@ sp needed
 4765 0016 80BD     		pop	{r7, pc}
 4766              		.cfi_endproc
 4767              	.LFE63:
 4769              		.section	.text.HAL_PCD_ActivateRemoteWakeup,"ax",%progbits
 4770              		.align	1
 4771              		.global	HAL_PCD_ActivateRemoteWakeup
 4772              		.syntax unified
 4773              		.code	16
 4774              		.thumb_func
 4775              		.fpu softvfp
 4777              	HAL_PCD_ActivateRemoteWakeup:
 4778              	.LFB64:
1056:Drivers/STM32F0xx_HAL_Driver/Src/stm32f0xx_hal_pcd.c **** 
1057:Drivers/STM32F0xx_HAL_Driver/Src/stm32f0xx_hal_pcd.c **** /**
1058:Drivers/STM32F0xx_HAL_Driver/Src/stm32f0xx_hal_pcd.c ****   * @brief  HAL_PCD_ActivateRemoteWakeup : active remote wakeup signalling
1059:Drivers/STM32F0xx_HAL_Driver/Src/stm32f0xx_hal_pcd.c ****   * @param  hpcd: PCD handle
1060:Drivers/STM32F0xx_HAL_Driver/Src/stm32f0xx_hal_pcd.c ****   * @retval HAL status
1061:Drivers/STM32F0xx_HAL_Driver/Src/stm32f0xx_hal_pcd.c ****   */
1062:Drivers/STM32F0xx_HAL_Driver/Src/stm32f0xx_hal_pcd.c **** HAL_StatusTypeDef HAL_PCD_ActivateRemoteWakeup(PCD_HandleTypeDef *hpcd)
1063:Drivers/STM32F0xx_HAL_Driver/Src/stm32f0xx_hal_pcd.c **** {
 4779              		.loc 1 1063 0
 4780              		.cfi_startproc
 4781 0000 80B5     		push	{r7, lr}
 4782              	.LCFI87:
 4783              		.cfi_def_cfa_offset 8
 4784              		.cfi_offset 7, -8
 4785              		.cfi_offset 14, -4
 4786 0002 82B0     		sub	sp, sp, #8
 4787              	.LCFI88:
 4788              		.cfi_def_cfa_offset 16
 4789 0004 00AF     		add	r7, sp, #0
 4790              	.LCFI89:
 4791              		.cfi_def_cfa_register 7
 4792 0006 7860     		str	r0, [r7, #4]
1064:Drivers/STM32F0xx_HAL_Driver/Src/stm32f0xx_hal_pcd.c ****   hpcd->Instance->CNTR |= USB_CNTR_RESUME;
 4793              		.loc 1 1064 0
 4794 0008 7B68     		ldr	r3, [r7, #4]
 4795 000a 1A68     		ldr	r2, [r3]
 4796 000c 7B68     		ldr	r3, [r7, #4]
ARM GAS  /tmp/cczZJmfg.s 			page 103


 4797 000e 1B68     		ldr	r3, [r3]
 4798 0010 4021     		movs	r1, #64
 4799 0012 5B5A     		ldrh	r3, [r3, r1]
 4800 0014 9BB2     		uxth	r3, r3
 4801 0016 1021     		movs	r1, #16
 4802 0018 0B43     		orrs	r3, r1
 4803 001a 99B2     		uxth	r1, r3
 4804 001c 4023     		movs	r3, #64
 4805 001e D152     		strh	r1, [r2, r3]
1065:Drivers/STM32F0xx_HAL_Driver/Src/stm32f0xx_hal_pcd.c ****   return HAL_OK;  
 4806              		.loc 1 1065 0
 4807 0020 0023     		movs	r3, #0
1066:Drivers/STM32F0xx_HAL_Driver/Src/stm32f0xx_hal_pcd.c **** }
 4808              		.loc 1 1066 0
 4809 0022 1800     		movs	r0, r3
 4810 0024 BD46     		mov	sp, r7
 4811 0026 02B0     		add	sp, sp, #8
 4812              		@ sp needed
 4813 0028 80BD     		pop	{r7, pc}
 4814              		.cfi_endproc
 4815              	.LFE64:
 4817              		.section	.text.HAL_PCD_DeActivateRemoteWakeup,"ax",%progbits
 4818              		.align	1
 4819              		.global	HAL_PCD_DeActivateRemoteWakeup
 4820              		.syntax unified
 4821              		.code	16
 4822              		.thumb_func
 4823              		.fpu softvfp
 4825              	HAL_PCD_DeActivateRemoteWakeup:
 4826              	.LFB65:
1067:Drivers/STM32F0xx_HAL_Driver/Src/stm32f0xx_hal_pcd.c **** 
1068:Drivers/STM32F0xx_HAL_Driver/Src/stm32f0xx_hal_pcd.c **** /**
1069:Drivers/STM32F0xx_HAL_Driver/Src/stm32f0xx_hal_pcd.c ****   * @brief  HAL_PCD_DeActivateRemoteWakeup : de-active remote wakeup signalling
1070:Drivers/STM32F0xx_HAL_Driver/Src/stm32f0xx_hal_pcd.c ****   * @param  hpcd: PCD handle
1071:Drivers/STM32F0xx_HAL_Driver/Src/stm32f0xx_hal_pcd.c ****   * @retval HAL status
1072:Drivers/STM32F0xx_HAL_Driver/Src/stm32f0xx_hal_pcd.c ****   */
1073:Drivers/STM32F0xx_HAL_Driver/Src/stm32f0xx_hal_pcd.c **** HAL_StatusTypeDef HAL_PCD_DeActivateRemoteWakeup(PCD_HandleTypeDef *hpcd)
1074:Drivers/STM32F0xx_HAL_Driver/Src/stm32f0xx_hal_pcd.c **** {
 4827              		.loc 1 1074 0
 4828              		.cfi_startproc
 4829 0000 80B5     		push	{r7, lr}
 4830              	.LCFI90:
 4831              		.cfi_def_cfa_offset 8
 4832              		.cfi_offset 7, -8
 4833              		.cfi_offset 14, -4
 4834 0002 82B0     		sub	sp, sp, #8
 4835              	.LCFI91:
 4836              		.cfi_def_cfa_offset 16
 4837 0004 00AF     		add	r7, sp, #0
 4838              	.LCFI92:
 4839              		.cfi_def_cfa_register 7
 4840 0006 7860     		str	r0, [r7, #4]
1075:Drivers/STM32F0xx_HAL_Driver/Src/stm32f0xx_hal_pcd.c ****   hpcd->Instance->CNTR &= (uint16_t)(~(USB_CNTR_RESUME));
 4841              		.loc 1 1075 0
 4842 0008 7B68     		ldr	r3, [r7, #4]
 4843 000a 1A68     		ldr	r2, [r3]
 4844 000c 7B68     		ldr	r3, [r7, #4]
ARM GAS  /tmp/cczZJmfg.s 			page 104


 4845 000e 1B68     		ldr	r3, [r3]
 4846 0010 4021     		movs	r1, #64
 4847 0012 5B5A     		ldrh	r3, [r3, r1]
 4848 0014 9BB2     		uxth	r3, r3
 4849 0016 1021     		movs	r1, #16
 4850 0018 8B43     		bics	r3, r1
 4851 001a 99B2     		uxth	r1, r3
 4852 001c 4023     		movs	r3, #64
 4853 001e D152     		strh	r1, [r2, r3]
1076:Drivers/STM32F0xx_HAL_Driver/Src/stm32f0xx_hal_pcd.c ****   return HAL_OK;  
 4854              		.loc 1 1076 0
 4855 0020 0023     		movs	r3, #0
1077:Drivers/STM32F0xx_HAL_Driver/Src/stm32f0xx_hal_pcd.c **** }
 4856              		.loc 1 1077 0
 4857 0022 1800     		movs	r0, r3
 4858 0024 BD46     		mov	sp, r7
 4859 0026 02B0     		add	sp, sp, #8
 4860              		@ sp needed
 4861 0028 80BD     		pop	{r7, pc}
 4862              		.cfi_endproc
 4863              	.LFE65:
 4865              		.section	.text.HAL_PCD_GetState,"ax",%progbits
 4866              		.align	1
 4867              		.global	HAL_PCD_GetState
 4868              		.syntax unified
 4869              		.code	16
 4870              		.thumb_func
 4871              		.fpu softvfp
 4873              	HAL_PCD_GetState:
 4874              	.LFB66:
1078:Drivers/STM32F0xx_HAL_Driver/Src/stm32f0xx_hal_pcd.c **** /**
1079:Drivers/STM32F0xx_HAL_Driver/Src/stm32f0xx_hal_pcd.c ****   * @}
1080:Drivers/STM32F0xx_HAL_Driver/Src/stm32f0xx_hal_pcd.c ****   */
1081:Drivers/STM32F0xx_HAL_Driver/Src/stm32f0xx_hal_pcd.c **** 
1082:Drivers/STM32F0xx_HAL_Driver/Src/stm32f0xx_hal_pcd.c **** /** @defgroup PCD_Exported_Functions_Group4 Peripheral State functions 
1083:Drivers/STM32F0xx_HAL_Driver/Src/stm32f0xx_hal_pcd.c ****  *  @brief   Peripheral State functions 
1084:Drivers/STM32F0xx_HAL_Driver/Src/stm32f0xx_hal_pcd.c ****  *
1085:Drivers/STM32F0xx_HAL_Driver/Src/stm32f0xx_hal_pcd.c **** @verbatim   
1086:Drivers/STM32F0xx_HAL_Driver/Src/stm32f0xx_hal_pcd.c ****  ===============================================================================
1087:Drivers/STM32F0xx_HAL_Driver/Src/stm32f0xx_hal_pcd.c ****                       ##### Peripheral State functions #####
1088:Drivers/STM32F0xx_HAL_Driver/Src/stm32f0xx_hal_pcd.c ****  ===============================================================================  
1089:Drivers/STM32F0xx_HAL_Driver/Src/stm32f0xx_hal_pcd.c ****     [..]
1090:Drivers/STM32F0xx_HAL_Driver/Src/stm32f0xx_hal_pcd.c ****     This subsection permits to get in run-time the status of the peripheral 
1091:Drivers/STM32F0xx_HAL_Driver/Src/stm32f0xx_hal_pcd.c ****     and the data flow.
1092:Drivers/STM32F0xx_HAL_Driver/Src/stm32f0xx_hal_pcd.c **** 
1093:Drivers/STM32F0xx_HAL_Driver/Src/stm32f0xx_hal_pcd.c **** @endverbatim
1094:Drivers/STM32F0xx_HAL_Driver/Src/stm32f0xx_hal_pcd.c ****   * @{
1095:Drivers/STM32F0xx_HAL_Driver/Src/stm32f0xx_hal_pcd.c ****   */
1096:Drivers/STM32F0xx_HAL_Driver/Src/stm32f0xx_hal_pcd.c **** 
1097:Drivers/STM32F0xx_HAL_Driver/Src/stm32f0xx_hal_pcd.c **** /**
1098:Drivers/STM32F0xx_HAL_Driver/Src/stm32f0xx_hal_pcd.c ****   * @brief  Return the PCD state
1099:Drivers/STM32F0xx_HAL_Driver/Src/stm32f0xx_hal_pcd.c ****   * @param  hpcd : PCD handle
1100:Drivers/STM32F0xx_HAL_Driver/Src/stm32f0xx_hal_pcd.c ****   * @retval HAL state
1101:Drivers/STM32F0xx_HAL_Driver/Src/stm32f0xx_hal_pcd.c ****   */
1102:Drivers/STM32F0xx_HAL_Driver/Src/stm32f0xx_hal_pcd.c **** PCD_StateTypeDef HAL_PCD_GetState(PCD_HandleTypeDef *hpcd)
1103:Drivers/STM32F0xx_HAL_Driver/Src/stm32f0xx_hal_pcd.c **** {
 4875              		.loc 1 1103 0
ARM GAS  /tmp/cczZJmfg.s 			page 105


 4876              		.cfi_startproc
 4877 0000 80B5     		push	{r7, lr}
 4878              	.LCFI93:
 4879              		.cfi_def_cfa_offset 8
 4880              		.cfi_offset 7, -8
 4881              		.cfi_offset 14, -4
 4882 0002 82B0     		sub	sp, sp, #8
 4883              	.LCFI94:
 4884              		.cfi_def_cfa_offset 16
 4885 0004 00AF     		add	r7, sp, #0
 4886              	.LCFI95:
 4887              		.cfi_def_cfa_register 7
 4888 0006 7860     		str	r0, [r7, #4]
1104:Drivers/STM32F0xx_HAL_Driver/Src/stm32f0xx_hal_pcd.c ****   return hpcd->State;
 4889              		.loc 1 1104 0
 4890 0008 7A68     		ldr	r2, [r7, #4]
 4891 000a EA23     		movs	r3, #234
 4892 000c FF33     		adds	r3, r3, #255
 4893 000e D35C     		ldrb	r3, [r2, r3]
 4894 0010 DBB2     		uxtb	r3, r3
1105:Drivers/STM32F0xx_HAL_Driver/Src/stm32f0xx_hal_pcd.c **** }
 4895              		.loc 1 1105 0
 4896 0012 1800     		movs	r0, r3
 4897 0014 BD46     		mov	sp, r7
 4898 0016 02B0     		add	sp, sp, #8
 4899              		@ sp needed
 4900 0018 80BD     		pop	{r7, pc}
 4901              		.cfi_endproc
 4902              	.LFE66:
 4904              		.section	.text.PCD_WritePMA,"ax",%progbits
 4905              		.align	1
 4906              		.global	PCD_WritePMA
 4907              		.syntax unified
 4908              		.code	16
 4909              		.thumb_func
 4910              		.fpu softvfp
 4912              	PCD_WritePMA:
 4913              	.LFB67:
1106:Drivers/STM32F0xx_HAL_Driver/Src/stm32f0xx_hal_pcd.c **** /**
1107:Drivers/STM32F0xx_HAL_Driver/Src/stm32f0xx_hal_pcd.c ****   * @}
1108:Drivers/STM32F0xx_HAL_Driver/Src/stm32f0xx_hal_pcd.c ****   */
1109:Drivers/STM32F0xx_HAL_Driver/Src/stm32f0xx_hal_pcd.c ****   
1110:Drivers/STM32F0xx_HAL_Driver/Src/stm32f0xx_hal_pcd.c **** /**
1111:Drivers/STM32F0xx_HAL_Driver/Src/stm32f0xx_hal_pcd.c ****   * @}
1112:Drivers/STM32F0xx_HAL_Driver/Src/stm32f0xx_hal_pcd.c ****   */
1113:Drivers/STM32F0xx_HAL_Driver/Src/stm32f0xx_hal_pcd.c **** 
1114:Drivers/STM32F0xx_HAL_Driver/Src/stm32f0xx_hal_pcd.c **** /** @addtogroup PCD_Private_Functions
1115:Drivers/STM32F0xx_HAL_Driver/Src/stm32f0xx_hal_pcd.c ****   * @{
1116:Drivers/STM32F0xx_HAL_Driver/Src/stm32f0xx_hal_pcd.c ****   */
1117:Drivers/STM32F0xx_HAL_Driver/Src/stm32f0xx_hal_pcd.c **** /**
1118:Drivers/STM32F0xx_HAL_Driver/Src/stm32f0xx_hal_pcd.c ****   * @brief Copy a buffer from user memory area to packet memory area (PMA)
1119:Drivers/STM32F0xx_HAL_Driver/Src/stm32f0xx_hal_pcd.c ****   * @param   USBx: USB peripheral instance register address.
1120:Drivers/STM32F0xx_HAL_Driver/Src/stm32f0xx_hal_pcd.c ****   * @param   pbUsrBuf: pointer to user memory area.
1121:Drivers/STM32F0xx_HAL_Driver/Src/stm32f0xx_hal_pcd.c ****   * @param   wPMABufAddr: address into PMA.
1122:Drivers/STM32F0xx_HAL_Driver/Src/stm32f0xx_hal_pcd.c ****   * @param   wNBytes: no. of bytes to be copied.
1123:Drivers/STM32F0xx_HAL_Driver/Src/stm32f0xx_hal_pcd.c ****   * @retval None
1124:Drivers/STM32F0xx_HAL_Driver/Src/stm32f0xx_hal_pcd.c ****   */
ARM GAS  /tmp/cczZJmfg.s 			page 106


1125:Drivers/STM32F0xx_HAL_Driver/Src/stm32f0xx_hal_pcd.c **** void PCD_WritePMA(USB_TypeDef  *USBx, uint8_t *pbUsrBuf, uint16_t wPMABufAddr, uint16_t wNBytes)
1126:Drivers/STM32F0xx_HAL_Driver/Src/stm32f0xx_hal_pcd.c **** {
 4914              		.loc 1 1126 0
 4915              		.cfi_startproc
 4916 0000 80B5     		push	{r7, lr}
 4917              	.LCFI96:
 4918              		.cfi_def_cfa_offset 8
 4919              		.cfi_offset 7, -8
 4920              		.cfi_offset 14, -4
 4921 0002 88B0     		sub	sp, sp, #32
 4922              	.LCFI97:
 4923              		.cfi_def_cfa_offset 40
 4924 0004 00AF     		add	r7, sp, #0
 4925              	.LCFI98:
 4926              		.cfi_def_cfa_register 7
 4927 0006 F860     		str	r0, [r7, #12]
 4928 0008 B960     		str	r1, [r7, #8]
 4929 000a 1900     		movs	r1, r3
 4930 000c BB1D     		adds	r3, r7, #6
 4931 000e 1A80     		strh	r2, [r3]
 4932 0010 3B1D     		adds	r3, r7, #4
 4933 0012 0A1C     		adds	r2, r1, #0
 4934 0014 1A80     		strh	r2, [r3]
1127:Drivers/STM32F0xx_HAL_Driver/Src/stm32f0xx_hal_pcd.c ****   uint32_t n =  ((uint32_t)((uint32_t)wNBytes + 1)) >> 1;
 4935              		.loc 1 1127 0
 4936 0016 3B1D     		adds	r3, r7, #4
 4937 0018 1B88     		ldrh	r3, [r3]
 4938 001a 0133     		adds	r3, r3, #1
 4939 001c 5B08     		lsrs	r3, r3, #1
 4940 001e 7B61     		str	r3, [r7, #20]
1128:Drivers/STM32F0xx_HAL_Driver/Src/stm32f0xx_hal_pcd.c ****   uint32_t i;
1129:Drivers/STM32F0xx_HAL_Driver/Src/stm32f0xx_hal_pcd.c ****   uint16_t temp1, temp2;
1130:Drivers/STM32F0xx_HAL_Driver/Src/stm32f0xx_hal_pcd.c ****   uint16_t *pdwVal;
1131:Drivers/STM32F0xx_HAL_Driver/Src/stm32f0xx_hal_pcd.c ****   pdwVal = (uint16_t *)((uint32_t)(wPMABufAddr + (uint32_t)USBx + 0x400));
 4941              		.loc 1 1131 0
 4942 0020 BB1D     		adds	r3, r7, #6
 4943 0022 1A88     		ldrh	r2, [r3]
 4944 0024 FB68     		ldr	r3, [r7, #12]
 4945 0026 D318     		adds	r3, r2, r3
 4946 0028 8022     		movs	r2, #128
 4947 002a D200     		lsls	r2, r2, #3
 4948 002c 9446     		mov	ip, r2
 4949 002e 6344     		add	r3, r3, ip
 4950 0030 BB61     		str	r3, [r7, #24]
1132:Drivers/STM32F0xx_HAL_Driver/Src/stm32f0xx_hal_pcd.c ****   
1133:Drivers/STM32F0xx_HAL_Driver/Src/stm32f0xx_hal_pcd.c ****   for (i = n; i != 0; i--)
 4951              		.loc 1 1133 0
 4952 0032 7B69     		ldr	r3, [r7, #20]
 4953 0034 FB61     		str	r3, [r7, #28]
 4954 0036 20E0     		b	.L186
 4955              	.L187:
1134:Drivers/STM32F0xx_HAL_Driver/Src/stm32f0xx_hal_pcd.c ****   {
1135:Drivers/STM32F0xx_HAL_Driver/Src/stm32f0xx_hal_pcd.c ****     temp1 = (uint16_t) * pbUsrBuf;
 4956              		.loc 1 1135 0 discriminator 3
 4957 0038 BB68     		ldr	r3, [r7, #8]
 4958 003a 1A78     		ldrb	r2, [r3]
 4959 003c 1223     		movs	r3, #18
ARM GAS  /tmp/cczZJmfg.s 			page 107


 4960 003e FB18     		adds	r3, r7, r3
 4961 0040 1A80     		strh	r2, [r3]
1136:Drivers/STM32F0xx_HAL_Driver/Src/stm32f0xx_hal_pcd.c ****     pbUsrBuf++;
 4962              		.loc 1 1136 0 discriminator 3
 4963 0042 BB68     		ldr	r3, [r7, #8]
 4964 0044 0133     		adds	r3, r3, #1
 4965 0046 BB60     		str	r3, [r7, #8]
1137:Drivers/STM32F0xx_HAL_Driver/Src/stm32f0xx_hal_pcd.c ****     temp2 = temp1 | ((uint16_t)((uint16_t)  * pbUsrBuf << 8)) ;
 4966              		.loc 1 1137 0 discriminator 3
 4967 0048 BB68     		ldr	r3, [r7, #8]
 4968 004a 1B78     		ldrb	r3, [r3]
 4969 004c 9BB2     		uxth	r3, r3
 4970 004e 1B02     		lsls	r3, r3, #8
 4971 0050 99B2     		uxth	r1, r3
 4972 0052 1023     		movs	r3, #16
 4973 0054 FB18     		adds	r3, r7, r3
 4974 0056 1222     		movs	r2, #18
 4975 0058 BA18     		adds	r2, r7, r2
 4976 005a 1288     		ldrh	r2, [r2]
 4977 005c 0A43     		orrs	r2, r1
 4978 005e 1A80     		strh	r2, [r3]
1138:Drivers/STM32F0xx_HAL_Driver/Src/stm32f0xx_hal_pcd.c ****     *pdwVal++ = temp2;
 4979              		.loc 1 1138 0 discriminator 3
 4980 0060 BB69     		ldr	r3, [r7, #24]
 4981 0062 9A1C     		adds	r2, r3, #2
 4982 0064 BA61     		str	r2, [r7, #24]
 4983 0066 1022     		movs	r2, #16
 4984 0068 BA18     		adds	r2, r7, r2
 4985 006a 1288     		ldrh	r2, [r2]
 4986 006c 1A80     		strh	r2, [r3]
1139:Drivers/STM32F0xx_HAL_Driver/Src/stm32f0xx_hal_pcd.c ****     pbUsrBuf++;
 4987              		.loc 1 1139 0 discriminator 3
 4988 006e BB68     		ldr	r3, [r7, #8]
 4989 0070 0133     		adds	r3, r3, #1
 4990 0072 BB60     		str	r3, [r7, #8]
1133:Drivers/STM32F0xx_HAL_Driver/Src/stm32f0xx_hal_pcd.c ****   {
 4991              		.loc 1 1133 0 discriminator 3
 4992 0074 FB69     		ldr	r3, [r7, #28]
 4993 0076 013B     		subs	r3, r3, #1
 4994 0078 FB61     		str	r3, [r7, #28]
 4995              	.L186:
1133:Drivers/STM32F0xx_HAL_Driver/Src/stm32f0xx_hal_pcd.c ****   {
 4996              		.loc 1 1133 0 is_stmt 0 discriminator 1
 4997 007a FB69     		ldr	r3, [r7, #28]
 4998 007c 002B     		cmp	r3, #0
 4999 007e DBD1     		bne	.L187
1140:Drivers/STM32F0xx_HAL_Driver/Src/stm32f0xx_hal_pcd.c ****   }
1141:Drivers/STM32F0xx_HAL_Driver/Src/stm32f0xx_hal_pcd.c **** }
 5000              		.loc 1 1141 0 is_stmt 1
 5001 0080 C046     		nop
 5002 0082 BD46     		mov	sp, r7
 5003 0084 08B0     		add	sp, sp, #32
 5004              		@ sp needed
 5005 0086 80BD     		pop	{r7, pc}
 5006              		.cfi_endproc
 5007              	.LFE67:
 5009              		.section	.text.PCD_ReadPMA,"ax",%progbits
ARM GAS  /tmp/cczZJmfg.s 			page 108


 5010              		.align	1
 5011              		.global	PCD_ReadPMA
 5012              		.syntax unified
 5013              		.code	16
 5014              		.thumb_func
 5015              		.fpu softvfp
 5017              	PCD_ReadPMA:
 5018              	.LFB68:
1142:Drivers/STM32F0xx_HAL_Driver/Src/stm32f0xx_hal_pcd.c **** 
1143:Drivers/STM32F0xx_HAL_Driver/Src/stm32f0xx_hal_pcd.c **** /**
1144:Drivers/STM32F0xx_HAL_Driver/Src/stm32f0xx_hal_pcd.c ****   * @brief Copy a buffer from user memory area to packet memory area (PMA)
1145:Drivers/STM32F0xx_HAL_Driver/Src/stm32f0xx_hal_pcd.c ****   * @param   USBx: USB peripheral instance register address.
1146:Drivers/STM32F0xx_HAL_Driver/Src/stm32f0xx_hal_pcd.c ****   * @param   pbUsrBuf    = pointer to user memory area.
1147:Drivers/STM32F0xx_HAL_Driver/Src/stm32f0xx_hal_pcd.c ****   * @param   wPMABufAddr: address into PMA.
1148:Drivers/STM32F0xx_HAL_Driver/Src/stm32f0xx_hal_pcd.c ****   * @param   wNBytes: no. of bytes to be copied.
1149:Drivers/STM32F0xx_HAL_Driver/Src/stm32f0xx_hal_pcd.c ****   * @retval None
1150:Drivers/STM32F0xx_HAL_Driver/Src/stm32f0xx_hal_pcd.c ****   */
1151:Drivers/STM32F0xx_HAL_Driver/Src/stm32f0xx_hal_pcd.c **** void PCD_ReadPMA(USB_TypeDef  *USBx, uint8_t *pbUsrBuf, uint16_t wPMABufAddr, uint16_t wNBytes)
1152:Drivers/STM32F0xx_HAL_Driver/Src/stm32f0xx_hal_pcd.c **** {
 5019              		.loc 1 1152 0
 5020              		.cfi_startproc
 5021 0000 80B5     		push	{r7, lr}
 5022              	.LCFI99:
 5023              		.cfi_def_cfa_offset 8
 5024              		.cfi_offset 7, -8
 5025              		.cfi_offset 14, -4
 5026 0002 88B0     		sub	sp, sp, #32
 5027              	.LCFI100:
 5028              		.cfi_def_cfa_offset 40
 5029 0004 00AF     		add	r7, sp, #0
 5030              	.LCFI101:
 5031              		.cfi_def_cfa_register 7
 5032 0006 F860     		str	r0, [r7, #12]
 5033 0008 B960     		str	r1, [r7, #8]
 5034 000a 1900     		movs	r1, r3
 5035 000c BB1D     		adds	r3, r7, #6
 5036 000e 1A80     		strh	r2, [r3]
 5037 0010 3B1D     		adds	r3, r7, #4
 5038 0012 0A1C     		adds	r2, r1, #0
 5039 0014 1A80     		strh	r2, [r3]
1153:Drivers/STM32F0xx_HAL_Driver/Src/stm32f0xx_hal_pcd.c ****   uint32_t n =  ((uint32_t)((uint32_t)wNBytes + 1)) >> 1;
 5040              		.loc 1 1153 0
 5041 0016 3B1D     		adds	r3, r7, #4
 5042 0018 1B88     		ldrh	r3, [r3]
 5043 001a 0133     		adds	r3, r3, #1
 5044 001c 5B08     		lsrs	r3, r3, #1
 5045 001e 7B61     		str	r3, [r7, #20]
1154:Drivers/STM32F0xx_HAL_Driver/Src/stm32f0xx_hal_pcd.c ****   uint32_t i;
1155:Drivers/STM32F0xx_HAL_Driver/Src/stm32f0xx_hal_pcd.c ****   uint16_t *pdwVal;
1156:Drivers/STM32F0xx_HAL_Driver/Src/stm32f0xx_hal_pcd.c ****   pdwVal = (uint16_t *)((uint32_t)(wPMABufAddr + (uint32_t)USBx + 0x400));
 5046              		.loc 1 1156 0
 5047 0020 BB1D     		adds	r3, r7, #6
 5048 0022 1A88     		ldrh	r2, [r3]
 5049 0024 FB68     		ldr	r3, [r7, #12]
 5050 0026 D318     		adds	r3, r2, r3
 5051 0028 8022     		movs	r2, #128
 5052 002a D200     		lsls	r2, r2, #3
ARM GAS  /tmp/cczZJmfg.s 			page 109


 5053 002c 9446     		mov	ip, r2
 5054 002e 6344     		add	r3, r3, ip
 5055 0030 BB61     		str	r3, [r7, #24]
1157:Drivers/STM32F0xx_HAL_Driver/Src/stm32f0xx_hal_pcd.c ****   for (i = n; i != 0; i--)
 5056              		.loc 1 1157 0
 5057 0032 7B69     		ldr	r3, [r7, #20]
 5058 0034 FB61     		str	r3, [r7, #28]
 5059 0036 0DE0     		b	.L189
 5060              	.L190:
1158:Drivers/STM32F0xx_HAL_Driver/Src/stm32f0xx_hal_pcd.c ****   {
1159:Drivers/STM32F0xx_HAL_Driver/Src/stm32f0xx_hal_pcd.c ****     *(uint16_t*)((uint32_t)pbUsrBuf++) = *pdwVal++;
 5061              		.loc 1 1159 0 discriminator 3
 5062 0038 BB68     		ldr	r3, [r7, #8]
 5063 003a 5A1C     		adds	r2, r3, #1
 5064 003c BA60     		str	r2, [r7, #8]
 5065 003e BA69     		ldr	r2, [r7, #24]
 5066 0040 911C     		adds	r1, r2, #2
 5067 0042 B961     		str	r1, [r7, #24]
 5068 0044 1288     		ldrh	r2, [r2]
 5069 0046 1A80     		strh	r2, [r3]
1160:Drivers/STM32F0xx_HAL_Driver/Src/stm32f0xx_hal_pcd.c ****     pbUsrBuf++;
 5070              		.loc 1 1160 0 discriminator 3
 5071 0048 BB68     		ldr	r3, [r7, #8]
 5072 004a 0133     		adds	r3, r3, #1
 5073 004c BB60     		str	r3, [r7, #8]
1157:Drivers/STM32F0xx_HAL_Driver/Src/stm32f0xx_hal_pcd.c ****   for (i = n; i != 0; i--)
 5074              		.loc 1 1157 0 discriminator 3
 5075 004e FB69     		ldr	r3, [r7, #28]
 5076 0050 013B     		subs	r3, r3, #1
 5077 0052 FB61     		str	r3, [r7, #28]
 5078              	.L189:
1157:Drivers/STM32F0xx_HAL_Driver/Src/stm32f0xx_hal_pcd.c ****   for (i = n; i != 0; i--)
 5079              		.loc 1 1157 0 is_stmt 0 discriminator 1
 5080 0054 FB69     		ldr	r3, [r7, #28]
 5081 0056 002B     		cmp	r3, #0
 5082 0058 EED1     		bne	.L190
1161:Drivers/STM32F0xx_HAL_Driver/Src/stm32f0xx_hal_pcd.c ****   }
1162:Drivers/STM32F0xx_HAL_Driver/Src/stm32f0xx_hal_pcd.c **** }
 5083              		.loc 1 1162 0 is_stmt 1
 5084 005a C046     		nop
 5085 005c BD46     		mov	sp, r7
 5086 005e 08B0     		add	sp, sp, #32
 5087              		@ sp needed
 5088 0060 80BD     		pop	{r7, pc}
 5089              		.cfi_endproc
 5090              	.LFE68:
 5092              		.section	.text.PCD_EP_ISR_Handler,"ax",%progbits
 5093              		.align	1
 5094              		.syntax unified
 5095              		.code	16
 5096              		.thumb_func
 5097              		.fpu softvfp
 5099              	PCD_EP_ISR_Handler:
 5100              	.LFB69:
1163:Drivers/STM32F0xx_HAL_Driver/Src/stm32f0xx_hal_pcd.c **** 
1164:Drivers/STM32F0xx_HAL_Driver/Src/stm32f0xx_hal_pcd.c **** /**
1165:Drivers/STM32F0xx_HAL_Driver/Src/stm32f0xx_hal_pcd.c ****   * @brief  This function handles PCD Endpoint interrupt request.
ARM GAS  /tmp/cczZJmfg.s 			page 110


1166:Drivers/STM32F0xx_HAL_Driver/Src/stm32f0xx_hal_pcd.c ****   * @param  hpcd: PCD handle
1167:Drivers/STM32F0xx_HAL_Driver/Src/stm32f0xx_hal_pcd.c ****   * @retval HAL status
1168:Drivers/STM32F0xx_HAL_Driver/Src/stm32f0xx_hal_pcd.c ****   */
1169:Drivers/STM32F0xx_HAL_Driver/Src/stm32f0xx_hal_pcd.c **** static HAL_StatusTypeDef PCD_EP_ISR_Handler(PCD_HandleTypeDef *hpcd)
1170:Drivers/STM32F0xx_HAL_Driver/Src/stm32f0xx_hal_pcd.c **** {
 5101              		.loc 1 1170 0
 5102              		.cfi_startproc
 5103 0000 90B5     		push	{r4, r7, lr}
 5104              	.LCFI102:
 5105              		.cfi_def_cfa_offset 12
 5106              		.cfi_offset 4, -12
 5107              		.cfi_offset 7, -8
 5108              		.cfi_offset 14, -4
 5109 0002 89B0     		sub	sp, sp, #36
 5110              	.LCFI103:
 5111              		.cfi_def_cfa_offset 48
 5112 0004 00AF     		add	r7, sp, #0
 5113              	.LCFI104:
 5114              		.cfi_def_cfa_register 7
 5115 0006 7860     		str	r0, [r7, #4]
1171:Drivers/STM32F0xx_HAL_Driver/Src/stm32f0xx_hal_pcd.c ****   PCD_EPTypeDef *ep;
1172:Drivers/STM32F0xx_HAL_Driver/Src/stm32f0xx_hal_pcd.c ****   uint16_t count=0;
 5116              		.loc 1 1172 0
 5117 0008 1E23     		movs	r3, #30
 5118 000a FB18     		adds	r3, r7, r3
 5119 000c 0022     		movs	r2, #0
 5120 000e 1A80     		strh	r2, [r3]
1173:Drivers/STM32F0xx_HAL_Driver/Src/stm32f0xx_hal_pcd.c ****   uint8_t EPindex;
1174:Drivers/STM32F0xx_HAL_Driver/Src/stm32f0xx_hal_pcd.c ****   __IO uint16_t wIstr;  
1175:Drivers/STM32F0xx_HAL_Driver/Src/stm32f0xx_hal_pcd.c ****   __IO uint16_t wEPVal = 0;
 5121              		.loc 1 1175 0
 5122 0010 0C23     		movs	r3, #12
 5123 0012 FB18     		adds	r3, r7, r3
 5124 0014 0022     		movs	r2, #0
 5125 0016 1A80     		strh	r2, [r3]
1176:Drivers/STM32F0xx_HAL_Driver/Src/stm32f0xx_hal_pcd.c ****   
1177:Drivers/STM32F0xx_HAL_Driver/Src/stm32f0xx_hal_pcd.c ****   /* stay in loop while pending interrupts */
1178:Drivers/STM32F0xx_HAL_Driver/Src/stm32f0xx_hal_pcd.c ****   while (((wIstr = hpcd->Instance->ISTR) & USB_ISTR_CTR) != 0)
 5126              		.loc 1 1178 0
 5127 0018 4BE3     		b	.L192
 5128              	.L219:
1179:Drivers/STM32F0xx_HAL_Driver/Src/stm32f0xx_hal_pcd.c ****   {
1180:Drivers/STM32F0xx_HAL_Driver/Src/stm32f0xx_hal_pcd.c ****     /* extract highest priority endpoint number */
1181:Drivers/STM32F0xx_HAL_Driver/Src/stm32f0xx_hal_pcd.c ****     EPindex = (uint8_t)(wIstr & USB_ISTR_EP_ID);
 5129              		.loc 1 1181 0
 5130 001a 0E23     		movs	r3, #14
 5131 001c FB18     		adds	r3, r7, r3
 5132 001e 1B88     		ldrh	r3, [r3]
 5133 0020 9BB2     		uxth	r3, r3
 5134 0022 DAB2     		uxtb	r2, r3
 5135 0024 1B23     		movs	r3, #27
 5136 0026 FB18     		adds	r3, r7, r3
 5137 0028 0F21     		movs	r1, #15
 5138 002a 0A40     		ands	r2, r1
 5139 002c 1A70     		strb	r2, [r3]
1182:Drivers/STM32F0xx_HAL_Driver/Src/stm32f0xx_hal_pcd.c ****     
1183:Drivers/STM32F0xx_HAL_Driver/Src/stm32f0xx_hal_pcd.c ****     if (EPindex == 0)
ARM GAS  /tmp/cczZJmfg.s 			page 111


 5140              		.loc 1 1183 0
 5141 002e 1B23     		movs	r3, #27
 5142 0030 FB18     		adds	r3, r7, r3
 5143 0032 1B78     		ldrb	r3, [r3]
 5144 0034 002B     		cmp	r3, #0
 5145 0036 00D0     		beq	.LCB4803
 5146 0038 39E1     		b	.L193	@long jump
 5147              	.LCB4803:
1184:Drivers/STM32F0xx_HAL_Driver/Src/stm32f0xx_hal_pcd.c ****     {
1185:Drivers/STM32F0xx_HAL_Driver/Src/stm32f0xx_hal_pcd.c ****       /* Decode and service control endpoint interrupt */
1186:Drivers/STM32F0xx_HAL_Driver/Src/stm32f0xx_hal_pcd.c ****       
1187:Drivers/STM32F0xx_HAL_Driver/Src/stm32f0xx_hal_pcd.c ****       /* DIR bit = origin of the interrupt */   
1188:Drivers/STM32F0xx_HAL_Driver/Src/stm32f0xx_hal_pcd.c ****       if ((wIstr & USB_ISTR_DIR) == 0)
 5148              		.loc 1 1188 0
 5149 003a 0E23     		movs	r3, #14
 5150 003c FB18     		adds	r3, r7, r3
 5151 003e 1B88     		ldrh	r3, [r3]
 5152 0040 9BB2     		uxth	r3, r3
 5153 0042 1A00     		movs	r2, r3
 5154 0044 1023     		movs	r3, #16
 5155 0046 1340     		ands	r3, r2
 5156 0048 4CD1     		bne	.L194
1189:Drivers/STM32F0xx_HAL_Driver/Src/stm32f0xx_hal_pcd.c ****       {
1190:Drivers/STM32F0xx_HAL_Driver/Src/stm32f0xx_hal_pcd.c ****         /* DIR = 0 */
1191:Drivers/STM32F0xx_HAL_Driver/Src/stm32f0xx_hal_pcd.c ****         
1192:Drivers/STM32F0xx_HAL_Driver/Src/stm32f0xx_hal_pcd.c ****         /* DIR = 0      => IN  int */
1193:Drivers/STM32F0xx_HAL_Driver/Src/stm32f0xx_hal_pcd.c ****         /* DIR = 0 implies that (EP_CTR_TX = 1) always  */
1194:Drivers/STM32F0xx_HAL_Driver/Src/stm32f0xx_hal_pcd.c ****         PCD_CLEAR_TX_EP_CTR(hpcd->Instance, PCD_ENDP0);
 5157              		.loc 1 1194 0
 5158 004a 7B68     		ldr	r3, [r7, #4]
 5159 004c 1B68     		ldr	r3, [r3]
 5160 004e 1900     		movs	r1, r3
 5161 0050 7B68     		ldr	r3, [r7, #4]
 5162 0052 1B68     		ldr	r3, [r3]
 5163 0054 1B88     		ldrh	r3, [r3]
 5164 0056 C74A     		ldr	r2, .L223
 5165 0058 1340     		ands	r3, r2
 5166 005a 9BB2     		uxth	r3, r3
 5167 005c 0B80     		strh	r3, [r1]
1195:Drivers/STM32F0xx_HAL_Driver/Src/stm32f0xx_hal_pcd.c ****         ep = &hpcd->IN_ep[0];
 5168              		.loc 1 1195 0
 5169 005e 7B68     		ldr	r3, [r7, #4]
 5170 0060 2833     		adds	r3, r3, #40
 5171 0062 7B61     		str	r3, [r7, #20]
1196:Drivers/STM32F0xx_HAL_Driver/Src/stm32f0xx_hal_pcd.c ****         
1197:Drivers/STM32F0xx_HAL_Driver/Src/stm32f0xx_hal_pcd.c ****         ep->xfer_count = PCD_GET_EP_TX_CNT(hpcd->Instance, ep->num);
 5172              		.loc 1 1197 0
 5173 0064 7B68     		ldr	r3, [r7, #4]
 5174 0066 1B68     		ldr	r3, [r3]
 5175 0068 5022     		movs	r2, #80
 5176 006a 9B5A     		ldrh	r3, [r3, r2]
 5177 006c 9BB2     		uxth	r3, r3
 5178 006e 1A00     		movs	r2, r3
 5179 0070 7B69     		ldr	r3, [r7, #20]
 5180 0072 1B78     		ldrb	r3, [r3]
 5181 0074 DB00     		lsls	r3, r3, #3
 5182 0076 D318     		adds	r3, r2, r3
ARM GAS  /tmp/cczZJmfg.s 			page 112


 5183 0078 1A00     		movs	r2, r3
 5184 007a 7B68     		ldr	r3, [r7, #4]
 5185 007c 1B68     		ldr	r3, [r3]
 5186 007e D318     		adds	r3, r2, r3
 5187 0080 BD4A     		ldr	r2, .L223+4
 5188 0082 9446     		mov	ip, r2
 5189 0084 6344     		add	r3, r3, ip
 5190 0086 1B88     		ldrh	r3, [r3]
 5191 0088 9B05     		lsls	r3, r3, #22
 5192 008a 9A0D     		lsrs	r2, r3, #22
 5193 008c 7B69     		ldr	r3, [r7, #20]
 5194 008e 9A61     		str	r2, [r3, #24]
1198:Drivers/STM32F0xx_HAL_Driver/Src/stm32f0xx_hal_pcd.c ****         ep->xfer_buff += ep->xfer_count;
 5195              		.loc 1 1198 0
 5196 0090 7B69     		ldr	r3, [r7, #20]
 5197 0092 1A69     		ldr	r2, [r3, #16]
 5198 0094 7B69     		ldr	r3, [r7, #20]
 5199 0096 9B69     		ldr	r3, [r3, #24]
 5200 0098 D218     		adds	r2, r2, r3
 5201 009a 7B69     		ldr	r3, [r7, #20]
 5202 009c 1A61     		str	r2, [r3, #16]
1199:Drivers/STM32F0xx_HAL_Driver/Src/stm32f0xx_hal_pcd.c ****  
1200:Drivers/STM32F0xx_HAL_Driver/Src/stm32f0xx_hal_pcd.c ****         /* TX COMPLETE */
1201:Drivers/STM32F0xx_HAL_Driver/Src/stm32f0xx_hal_pcd.c ****         HAL_PCD_DataInStageCallback(hpcd, 0);
 5203              		.loc 1 1201 0
 5204 009e 7B68     		ldr	r3, [r7, #4]
 5205 00a0 0021     		movs	r1, #0
 5206 00a2 1800     		movs	r0, r3
 5207 00a4 FFF7FEFF 		bl	HAL_PCD_DataInStageCallback
1202:Drivers/STM32F0xx_HAL_Driver/Src/stm32f0xx_hal_pcd.c ****         
1203:Drivers/STM32F0xx_HAL_Driver/Src/stm32f0xx_hal_pcd.c ****         
1204:Drivers/STM32F0xx_HAL_Driver/Src/stm32f0xx_hal_pcd.c ****         if((hpcd->USB_Address > 0)&& ( ep->xfer_len == 0))
 5208              		.loc 1 1204 0
 5209 00a8 7B68     		ldr	r3, [r7, #4]
 5210 00aa 2422     		movs	r2, #36
 5211 00ac 9B5C     		ldrb	r3, [r3, r2]
 5212 00ae DBB2     		uxtb	r3, r3
 5213 00b0 002B     		cmp	r3, #0
 5214 00b2 00D1     		bne	.LCB4864
 5215 00b4 FDE2     		b	.L192	@long jump
 5216              	.LCB4864:
 5217              		.loc 1 1204 0 is_stmt 0 discriminator 1
 5218 00b6 7B69     		ldr	r3, [r7, #20]
 5219 00b8 5B69     		ldr	r3, [r3, #20]
 5220 00ba 002B     		cmp	r3, #0
 5221 00bc 00D0     		beq	.LCB4868
 5222 00be F8E2     		b	.L192	@long jump
 5223              	.LCB4868:
1205:Drivers/STM32F0xx_HAL_Driver/Src/stm32f0xx_hal_pcd.c ****         {
1206:Drivers/STM32F0xx_HAL_Driver/Src/stm32f0xx_hal_pcd.c ****           hpcd->Instance->DADDR = (hpcd->USB_Address | USB_DADDR_EF);
 5224              		.loc 1 1206 0 is_stmt 1
 5225 00c0 7B68     		ldr	r3, [r7, #4]
 5226 00c2 1B68     		ldr	r3, [r3]
 5227 00c4 7A68     		ldr	r2, [r7, #4]
 5228 00c6 2421     		movs	r1, #36
 5229 00c8 525C     		ldrb	r2, [r2, r1]
 5230 00ca D2B2     		uxtb	r2, r2
ARM GAS  /tmp/cczZJmfg.s 			page 113


 5231 00cc 8021     		movs	r1, #128
 5232 00ce 4942     		rsbs	r1, r1, #0
 5233 00d0 0A43     		orrs	r2, r1
 5234 00d2 D2B2     		uxtb	r2, r2
 5235 00d4 91B2     		uxth	r1, r2
 5236 00d6 4C22     		movs	r2, #76
 5237 00d8 9952     		strh	r1, [r3, r2]
1207:Drivers/STM32F0xx_HAL_Driver/Src/stm32f0xx_hal_pcd.c ****           hpcd->USB_Address = 0;
 5238              		.loc 1 1207 0
 5239 00da 7B68     		ldr	r3, [r7, #4]
 5240 00dc 2422     		movs	r2, #36
 5241 00de 0021     		movs	r1, #0
 5242 00e0 9954     		strb	r1, [r3, r2]
 5243 00e2 E6E2     		b	.L192
 5244              	.L194:
1208:Drivers/STM32F0xx_HAL_Driver/Src/stm32f0xx_hal_pcd.c ****         }
1209:Drivers/STM32F0xx_HAL_Driver/Src/stm32f0xx_hal_pcd.c ****         
1210:Drivers/STM32F0xx_HAL_Driver/Src/stm32f0xx_hal_pcd.c ****       }
1211:Drivers/STM32F0xx_HAL_Driver/Src/stm32f0xx_hal_pcd.c ****       else
1212:Drivers/STM32F0xx_HAL_Driver/Src/stm32f0xx_hal_pcd.c ****       {
1213:Drivers/STM32F0xx_HAL_Driver/Src/stm32f0xx_hal_pcd.c ****         /* DIR = 1 */
1214:Drivers/STM32F0xx_HAL_Driver/Src/stm32f0xx_hal_pcd.c ****         
1215:Drivers/STM32F0xx_HAL_Driver/Src/stm32f0xx_hal_pcd.c ****         /* DIR = 1 & CTR_RX       => SETUP or OUT int */
1216:Drivers/STM32F0xx_HAL_Driver/Src/stm32f0xx_hal_pcd.c ****         /* DIR = 1 & (CTR_TX | CTR_RX) => 2 int pending */
1217:Drivers/STM32F0xx_HAL_Driver/Src/stm32f0xx_hal_pcd.c ****         ep = &hpcd->OUT_ep[0];
 5245              		.loc 1 1217 0
 5246 00e4 7B68     		ldr	r3, [r7, #4]
 5247 00e6 0933     		adds	r3, r3, #9
 5248 00e8 FF33     		adds	r3, r3, #255
 5249 00ea 7B61     		str	r3, [r7, #20]
1218:Drivers/STM32F0xx_HAL_Driver/Src/stm32f0xx_hal_pcd.c ****         wEPVal = PCD_GET_ENDPOINT(hpcd->Instance, PCD_ENDP0);
 5250              		.loc 1 1218 0
 5251 00ec 7B68     		ldr	r3, [r7, #4]
 5252 00ee 1B68     		ldr	r3, [r3]
 5253 00f0 1A88     		ldrh	r2, [r3]
 5254 00f2 0C23     		movs	r3, #12
 5255 00f4 FB18     		adds	r3, r7, r3
 5256 00f6 1A80     		strh	r2, [r3]
1219:Drivers/STM32F0xx_HAL_Driver/Src/stm32f0xx_hal_pcd.c ****         
1220:Drivers/STM32F0xx_HAL_Driver/Src/stm32f0xx_hal_pcd.c ****         if ((wEPVal & USB_EP_SETUP) != 0)
 5257              		.loc 1 1220 0
 5258 00f8 0C23     		movs	r3, #12
 5259 00fa FB18     		adds	r3, r7, r3
 5260 00fc 1B88     		ldrh	r3, [r3]
 5261 00fe 9BB2     		uxth	r3, r3
 5262 0100 1A00     		movs	r2, r3
 5263 0102 8023     		movs	r3, #128
 5264 0104 1B01     		lsls	r3, r3, #4
 5265 0106 1340     		ands	r3, r2
 5266 0108 31D0     		beq	.L197
1221:Drivers/STM32F0xx_HAL_Driver/Src/stm32f0xx_hal_pcd.c ****         {
1222:Drivers/STM32F0xx_HAL_Driver/Src/stm32f0xx_hal_pcd.c ****           /* Get SETUP Packet*/
1223:Drivers/STM32F0xx_HAL_Driver/Src/stm32f0xx_hal_pcd.c ****           ep->xfer_count = PCD_GET_EP_RX_CNT(hpcd->Instance, ep->num);
 5267              		.loc 1 1223 0
 5268 010a 7B68     		ldr	r3, [r7, #4]
 5269 010c 1B68     		ldr	r3, [r3]
 5270 010e 5022     		movs	r2, #80
ARM GAS  /tmp/cczZJmfg.s 			page 114


 5271 0110 9B5A     		ldrh	r3, [r3, r2]
 5272 0112 9BB2     		uxth	r3, r3
 5273 0114 1A00     		movs	r2, r3
 5274 0116 7B69     		ldr	r3, [r7, #20]
 5275 0118 1B78     		ldrb	r3, [r3]
 5276 011a DB00     		lsls	r3, r3, #3
 5277 011c D318     		adds	r3, r2, r3
 5278 011e 1A00     		movs	r2, r3
 5279 0120 7B68     		ldr	r3, [r7, #4]
 5280 0122 1B68     		ldr	r3, [r3]
 5281 0124 D318     		adds	r3, r2, r3
 5282 0126 954A     		ldr	r2, .L223+8
 5283 0128 9446     		mov	ip, r2
 5284 012a 6344     		add	r3, r3, ip
 5285 012c 1B88     		ldrh	r3, [r3]
 5286 012e 9B05     		lsls	r3, r3, #22
 5287 0130 9A0D     		lsrs	r2, r3, #22
 5288 0132 7B69     		ldr	r3, [r7, #20]
 5289 0134 9A61     		str	r2, [r3, #24]
1224:Drivers/STM32F0xx_HAL_Driver/Src/stm32f0xx_hal_pcd.c ****           PCD_ReadPMA(hpcd->Instance, (uint8_t*)hpcd->Setup ,ep->pmaadress , ep->xfer_count);      
 5290              		.loc 1 1224 0
 5291 0136 7B68     		ldr	r3, [r7, #4]
 5292 0138 1868     		ldr	r0, [r3]
 5293 013a 7B68     		ldr	r3, [r7, #4]
 5294 013c ED33     		adds	r3, r3, #237
 5295 013e FF33     		adds	r3, r3, #255
 5296 0140 1900     		movs	r1, r3
 5297 0142 7B69     		ldr	r3, [r7, #20]
 5298 0144 9A88     		ldrh	r2, [r3, #4]
 5299 0146 7B69     		ldr	r3, [r7, #20]
 5300 0148 9B69     		ldr	r3, [r3, #24]
 5301 014a 9BB2     		uxth	r3, r3
 5302 014c FFF7FEFF 		bl	PCD_ReadPMA
1225:Drivers/STM32F0xx_HAL_Driver/Src/stm32f0xx_hal_pcd.c ****           /* SETUP bit kept frozen while CTR_RX = 1*/ 
1226:Drivers/STM32F0xx_HAL_Driver/Src/stm32f0xx_hal_pcd.c ****           PCD_CLEAR_RX_EP_CTR(hpcd->Instance, PCD_ENDP0); 
 5303              		.loc 1 1226 0
 5304 0150 7B68     		ldr	r3, [r7, #4]
 5305 0152 1B68     		ldr	r3, [r3]
 5306 0154 1900     		movs	r1, r3
 5307 0156 7B68     		ldr	r3, [r7, #4]
 5308 0158 1B68     		ldr	r3, [r3]
 5309 015a 1B88     		ldrh	r3, [r3]
 5310 015c 884A     		ldr	r2, .L223+12
 5311 015e 1340     		ands	r3, r2
 5312 0160 9BB2     		uxth	r3, r3
 5313 0162 0B80     		strh	r3, [r1]
1227:Drivers/STM32F0xx_HAL_Driver/Src/stm32f0xx_hal_pcd.c ****           
1228:Drivers/STM32F0xx_HAL_Driver/Src/stm32f0xx_hal_pcd.c ****           /* Process SETUP Packet*/
1229:Drivers/STM32F0xx_HAL_Driver/Src/stm32f0xx_hal_pcd.c ****           HAL_PCD_SetupStageCallback(hpcd);
 5314              		.loc 1 1229 0
 5315 0164 7B68     		ldr	r3, [r7, #4]
 5316 0166 1800     		movs	r0, r3
 5317 0168 FFF7FEFF 		bl	HAL_PCD_SetupStageCallback
 5318 016c A1E2     		b	.L192
 5319              	.L197:
1230:Drivers/STM32F0xx_HAL_Driver/Src/stm32f0xx_hal_pcd.c ****         }
1231:Drivers/STM32F0xx_HAL_Driver/Src/stm32f0xx_hal_pcd.c ****         
ARM GAS  /tmp/cczZJmfg.s 			page 115


1232:Drivers/STM32F0xx_HAL_Driver/Src/stm32f0xx_hal_pcd.c ****         else if ((wEPVal & USB_EP_CTR_RX) != 0)
 5320              		.loc 1 1232 0
 5321 016e 0C23     		movs	r3, #12
 5322 0170 FB18     		adds	r3, r7, r3
 5323 0172 1B88     		ldrh	r3, [r3]
 5324 0174 9BB2     		uxth	r3, r3
 5325 0176 1BB2     		sxth	r3, r3
 5326 0178 002B     		cmp	r3, #0
 5327 017a 00DB     		blt	.LCB4967
 5328 017c 99E2     		b	.L192	@long jump
 5329              	.LCB4967:
1233:Drivers/STM32F0xx_HAL_Driver/Src/stm32f0xx_hal_pcd.c ****         {
1234:Drivers/STM32F0xx_HAL_Driver/Src/stm32f0xx_hal_pcd.c ****           PCD_CLEAR_RX_EP_CTR(hpcd->Instance, PCD_ENDP0);
 5330              		.loc 1 1234 0
 5331 017e 7B68     		ldr	r3, [r7, #4]
 5332 0180 1B68     		ldr	r3, [r3]
 5333 0182 1900     		movs	r1, r3
 5334 0184 7B68     		ldr	r3, [r7, #4]
 5335 0186 1B68     		ldr	r3, [r3]
 5336 0188 1B88     		ldrh	r3, [r3]
 5337 018a 7D4A     		ldr	r2, .L223+12
 5338 018c 1340     		ands	r3, r2
 5339 018e 9BB2     		uxth	r3, r3
 5340 0190 0B80     		strh	r3, [r1]
1235:Drivers/STM32F0xx_HAL_Driver/Src/stm32f0xx_hal_pcd.c ****           /* Get Control Data OUT Packet*/
1236:Drivers/STM32F0xx_HAL_Driver/Src/stm32f0xx_hal_pcd.c ****           ep->xfer_count = PCD_GET_EP_RX_CNT(hpcd->Instance, ep->num);
 5341              		.loc 1 1236 0
 5342 0192 7B68     		ldr	r3, [r7, #4]
 5343 0194 1B68     		ldr	r3, [r3]
 5344 0196 5022     		movs	r2, #80
 5345 0198 9B5A     		ldrh	r3, [r3, r2]
 5346 019a 9BB2     		uxth	r3, r3
 5347 019c 1A00     		movs	r2, r3
 5348 019e 7B69     		ldr	r3, [r7, #20]
 5349 01a0 1B78     		ldrb	r3, [r3]
 5350 01a2 DB00     		lsls	r3, r3, #3
 5351 01a4 D318     		adds	r3, r2, r3
 5352 01a6 1A00     		movs	r2, r3
 5353 01a8 7B68     		ldr	r3, [r7, #4]
 5354 01aa 1B68     		ldr	r3, [r3]
 5355 01ac D318     		adds	r3, r2, r3
 5356 01ae 734A     		ldr	r2, .L223+8
 5357 01b0 9446     		mov	ip, r2
 5358 01b2 6344     		add	r3, r3, ip
 5359 01b4 1B88     		ldrh	r3, [r3]
 5360 01b6 9B05     		lsls	r3, r3, #22
 5361 01b8 9A0D     		lsrs	r2, r3, #22
 5362 01ba 7B69     		ldr	r3, [r7, #20]
 5363 01bc 9A61     		str	r2, [r3, #24]
1237:Drivers/STM32F0xx_HAL_Driver/Src/stm32f0xx_hal_pcd.c ****           
1238:Drivers/STM32F0xx_HAL_Driver/Src/stm32f0xx_hal_pcd.c ****           if (ep->xfer_count != 0)
 5364              		.loc 1 1238 0
 5365 01be 7B69     		ldr	r3, [r7, #20]
 5366 01c0 9B69     		ldr	r3, [r3, #24]
 5367 01c2 002B     		cmp	r3, #0
 5368 01c4 11D0     		beq	.L198
1239:Drivers/STM32F0xx_HAL_Driver/Src/stm32f0xx_hal_pcd.c ****           {
ARM GAS  /tmp/cczZJmfg.s 			page 116


1240:Drivers/STM32F0xx_HAL_Driver/Src/stm32f0xx_hal_pcd.c ****             PCD_ReadPMA(hpcd->Instance, ep->xfer_buff, ep->pmaadress, ep->xfer_count);
 5369              		.loc 1 1240 0
 5370 01c6 7B68     		ldr	r3, [r7, #4]
 5371 01c8 1868     		ldr	r0, [r3]
 5372 01ca 7B69     		ldr	r3, [r7, #20]
 5373 01cc 1969     		ldr	r1, [r3, #16]
 5374 01ce 7B69     		ldr	r3, [r7, #20]
 5375 01d0 9A88     		ldrh	r2, [r3, #4]
 5376 01d2 7B69     		ldr	r3, [r7, #20]
 5377 01d4 9B69     		ldr	r3, [r3, #24]
 5378 01d6 9BB2     		uxth	r3, r3
 5379 01d8 FFF7FEFF 		bl	PCD_ReadPMA
1241:Drivers/STM32F0xx_HAL_Driver/Src/stm32f0xx_hal_pcd.c ****             ep->xfer_buff+=ep->xfer_count;
 5380              		.loc 1 1241 0
 5381 01dc 7B69     		ldr	r3, [r7, #20]
 5382 01de 1A69     		ldr	r2, [r3, #16]
 5383 01e0 7B69     		ldr	r3, [r7, #20]
 5384 01e2 9B69     		ldr	r3, [r3, #24]
 5385 01e4 D218     		adds	r2, r2, r3
 5386 01e6 7B69     		ldr	r3, [r7, #20]
 5387 01e8 1A61     		str	r2, [r3, #16]
 5388              	.L198:
1242:Drivers/STM32F0xx_HAL_Driver/Src/stm32f0xx_hal_pcd.c ****           }
1243:Drivers/STM32F0xx_HAL_Driver/Src/stm32f0xx_hal_pcd.c ****           
1244:Drivers/STM32F0xx_HAL_Driver/Src/stm32f0xx_hal_pcd.c ****           /* Process Control Data OUT Packet*/
1245:Drivers/STM32F0xx_HAL_Driver/Src/stm32f0xx_hal_pcd.c ****            HAL_PCD_DataOutStageCallback(hpcd, 0);
 5389              		.loc 1 1245 0
 5390 01ea 7B68     		ldr	r3, [r7, #4]
 5391 01ec 0021     		movs	r1, #0
 5392 01ee 1800     		movs	r0, r3
 5393 01f0 FFF7FEFF 		bl	HAL_PCD_DataOutStageCallback
 5394              	.LBB33:
1246:Drivers/STM32F0xx_HAL_Driver/Src/stm32f0xx_hal_pcd.c ****           
1247:Drivers/STM32F0xx_HAL_Driver/Src/stm32f0xx_hal_pcd.c ****           PCD_SET_EP_RX_CNT(hpcd->Instance, PCD_ENDP0, ep->maxpacket)
 5395              		.loc 1 1247 0
 5396 01f4 7B68     		ldr	r3, [r7, #4]
 5397 01f6 1B68     		ldr	r3, [r3]
 5398 01f8 5022     		movs	r2, #80
 5399 01fa 9B5A     		ldrh	r3, [r3, r2]
 5400 01fc 9BB2     		uxth	r3, r3
 5401 01fe 1A00     		movs	r2, r3
 5402 0200 7B68     		ldr	r3, [r7, #4]
 5403 0202 1B68     		ldr	r3, [r3]
 5404 0204 D318     		adds	r3, r2, r3
 5405 0206 5D4A     		ldr	r2, .L223+8
 5406 0208 9446     		mov	ip, r2
 5407 020a 6344     		add	r3, r3, ip
 5408 020c 3B61     		str	r3, [r7, #16]
 5409              	.LBB34:
 5410 020e 7B69     		ldr	r3, [r7, #20]
 5411 0210 DB68     		ldr	r3, [r3, #12]
 5412 0212 3E2B     		cmp	r3, #62
 5413 0214 1CD9     		bls	.L199
 5414              		.loc 1 1247 0 is_stmt 0 discriminator 1
 5415 0216 7B69     		ldr	r3, [r7, #20]
 5416 0218 DB68     		ldr	r3, [r3, #12]
 5417 021a 5A09     		lsrs	r2, r3, #5
ARM GAS  /tmp/cczZJmfg.s 			page 117


 5418 021c 1C23     		movs	r3, #28
 5419 021e FB18     		adds	r3, r7, r3
 5420 0220 1A80     		strh	r2, [r3]
 5421 0222 7B69     		ldr	r3, [r7, #20]
 5422 0224 DB68     		ldr	r3, [r3, #12]
 5423 0226 1F22     		movs	r2, #31
 5424 0228 1340     		ands	r3, r2
 5425 022a 06D1     		bne	.L200
 5426              		.loc 1 1247 0 discriminator 3
 5427 022c 1C23     		movs	r3, #28
 5428 022e FB18     		adds	r3, r7, r3
 5429 0230 1A88     		ldrh	r2, [r3]
 5430 0232 1C23     		movs	r3, #28
 5431 0234 FB18     		adds	r3, r7, r3
 5432 0236 013A     		subs	r2, r2, #1
 5433 0238 1A80     		strh	r2, [r3]
 5434              	.L200:
 5435              		.loc 1 1247 0 discriminator 5
 5436 023a 1C23     		movs	r3, #28
 5437 023c FB18     		adds	r3, r7, r3
 5438 023e 1B88     		ldrh	r3, [r3]
 5439 0240 9B02     		lsls	r3, r3, #10
 5440 0242 9BB2     		uxth	r3, r3
 5441 0244 4F4A     		ldr	r2, .L223+16
 5442 0246 1343     		orrs	r3, r2
 5443 0248 9AB2     		uxth	r2, r3
 5444 024a 3B69     		ldr	r3, [r7, #16]
 5445 024c 1A80     		strh	r2, [r3]
 5446 024e 18E0     		b	.L201
 5447              	.L199:
 5448              		.loc 1 1247 0 discriminator 2
 5449 0250 7B69     		ldr	r3, [r7, #20]
 5450 0252 DB68     		ldr	r3, [r3, #12]
 5451 0254 5A08     		lsrs	r2, r3, #1
 5452 0256 1C23     		movs	r3, #28
 5453 0258 FB18     		adds	r3, r7, r3
 5454 025a 1A80     		strh	r2, [r3]
 5455 025c 7B69     		ldr	r3, [r7, #20]
 5456 025e DB68     		ldr	r3, [r3, #12]
 5457 0260 0122     		movs	r2, #1
 5458 0262 1340     		ands	r3, r2
 5459 0264 06D0     		beq	.L202
 5460              		.loc 1 1247 0 discriminator 6
 5461 0266 1C23     		movs	r3, #28
 5462 0268 FB18     		adds	r3, r7, r3
 5463 026a 1A88     		ldrh	r2, [r3]
 5464 026c 1C23     		movs	r3, #28
 5465 026e FB18     		adds	r3, r7, r3
 5466 0270 0132     		adds	r2, r2, #1
 5467 0272 1A80     		strh	r2, [r3]
 5468              	.L202:
 5469              		.loc 1 1247 0 discriminator 8
 5470 0274 1C23     		movs	r3, #28
 5471 0276 FB18     		adds	r3, r7, r3
 5472 0278 1B88     		ldrh	r3, [r3]
 5473 027a 9B02     		lsls	r3, r3, #10
 5474 027c 9AB2     		uxth	r2, r3
ARM GAS  /tmp/cczZJmfg.s 			page 118


 5475 027e 3B69     		ldr	r3, [r7, #16]
 5476 0280 1A80     		strh	r2, [r3]
 5477              	.L201:
 5478              	.LBE34:
 5479              	.LBE33:
 5480              	.LBB35:
1248:Drivers/STM32F0xx_HAL_Driver/Src/stm32f0xx_hal_pcd.c ****           PCD_SET_EP_RX_STATUS(hpcd->Instance, PCD_ENDP0, USB_EP_RX_VALID)
 5481              		.loc 1 1248 0 is_stmt 1
 5482 0282 7B68     		ldr	r3, [r7, #4]
 5483 0284 1B68     		ldr	r3, [r3]
 5484 0286 1B88     		ldrh	r3, [r3]
 5485 0288 3F4A     		ldr	r2, .L223+20
 5486 028a 1340     		ands	r3, r2
 5487 028c 9CB2     		uxth	r4, r3
 5488 028e 8023     		movs	r3, #128
 5489 0290 5B01     		lsls	r3, r3, #5
 5490 0292 6340     		eors	r3, r4
 5491 0294 9CB2     		uxth	r4, r3
 5492 0296 8023     		movs	r3, #128
 5493 0298 9B01     		lsls	r3, r3, #6
 5494 029a 6340     		eors	r3, r4
 5495 029c 9CB2     		uxth	r4, r3
 5496 029e 7B68     		ldr	r3, [r7, #4]
 5497 02a0 1B68     		ldr	r3, [r3]
 5498 02a2 1A00     		movs	r2, r3
 5499 02a4 394B     		ldr	r3, .L223+24
 5500 02a6 2343     		orrs	r3, r4
 5501 02a8 9BB2     		uxth	r3, r3
 5502 02aa 1380     		strh	r3, [r2]
 5503              	.LBE35:
 5504 02ac 01E2     		b	.L192
 5505              	.L193:
1249:Drivers/STM32F0xx_HAL_Driver/Src/stm32f0xx_hal_pcd.c ****         }
1250:Drivers/STM32F0xx_HAL_Driver/Src/stm32f0xx_hal_pcd.c ****       }
1251:Drivers/STM32F0xx_HAL_Driver/Src/stm32f0xx_hal_pcd.c ****     }
1252:Drivers/STM32F0xx_HAL_Driver/Src/stm32f0xx_hal_pcd.c ****     else
1253:Drivers/STM32F0xx_HAL_Driver/Src/stm32f0xx_hal_pcd.c ****     {
1254:Drivers/STM32F0xx_HAL_Driver/Src/stm32f0xx_hal_pcd.c ****       
1255:Drivers/STM32F0xx_HAL_Driver/Src/stm32f0xx_hal_pcd.c ****       /* Decode and service non control endpoints interrupt  */
1256:Drivers/STM32F0xx_HAL_Driver/Src/stm32f0xx_hal_pcd.c ****       
1257:Drivers/STM32F0xx_HAL_Driver/Src/stm32f0xx_hal_pcd.c ****       /* process related endpoint register */
1258:Drivers/STM32F0xx_HAL_Driver/Src/stm32f0xx_hal_pcd.c ****       wEPVal = PCD_GET_ENDPOINT(hpcd->Instance, EPindex);
 5506              		.loc 1 1258 0
 5507 02ae 7B68     		ldr	r3, [r7, #4]
 5508 02b0 1B68     		ldr	r3, [r3]
 5509 02b2 1A00     		movs	r2, r3
 5510 02b4 1B23     		movs	r3, #27
 5511 02b6 FB18     		adds	r3, r7, r3
 5512 02b8 1B78     		ldrb	r3, [r3]
 5513 02ba 9B00     		lsls	r3, r3, #2
 5514 02bc D318     		adds	r3, r2, r3
 5515 02be 1A88     		ldrh	r2, [r3]
 5516 02c0 0C23     		movs	r3, #12
 5517 02c2 FB18     		adds	r3, r7, r3
 5518 02c4 1A80     		strh	r2, [r3]
1259:Drivers/STM32F0xx_HAL_Driver/Src/stm32f0xx_hal_pcd.c ****       if ((wEPVal & USB_EP_CTR_RX) != 0)
 5519              		.loc 1 1259 0
ARM GAS  /tmp/cczZJmfg.s 			page 119


 5520 02c6 0C23     		movs	r3, #12
 5521 02c8 FB18     		adds	r3, r7, r3
 5522 02ca 1B88     		ldrh	r3, [r3]
 5523 02cc 9BB2     		uxth	r3, r3
 5524 02ce 1BB2     		sxth	r3, r3
 5525 02d0 002B     		cmp	r3, #0
 5526 02d2 00DB     		blt	.LCB5158
 5527 02d4 FAE0     		b	.L203	@long jump
 5528              	.LCB5158:
1260:Drivers/STM32F0xx_HAL_Driver/Src/stm32f0xx_hal_pcd.c ****       {  
1261:Drivers/STM32F0xx_HAL_Driver/Src/stm32f0xx_hal_pcd.c ****         /* clear int flag */
1262:Drivers/STM32F0xx_HAL_Driver/Src/stm32f0xx_hal_pcd.c ****         PCD_CLEAR_RX_EP_CTR(hpcd->Instance, EPindex);
 5529              		.loc 1 1262 0
 5530 02d6 7B68     		ldr	r3, [r7, #4]
 5531 02d8 1B68     		ldr	r3, [r3]
 5532 02da 1A00     		movs	r2, r3
 5533 02dc 1B23     		movs	r3, #27
 5534 02de FB18     		adds	r3, r7, r3
 5535 02e0 1B78     		ldrb	r3, [r3]
 5536 02e2 9B00     		lsls	r3, r3, #2
 5537 02e4 D218     		adds	r2, r2, r3
 5538 02e6 7B68     		ldr	r3, [r7, #4]
 5539 02e8 1B68     		ldr	r3, [r3]
 5540 02ea 1900     		movs	r1, r3
 5541 02ec 1B23     		movs	r3, #27
 5542 02ee FB18     		adds	r3, r7, r3
 5543 02f0 1B78     		ldrb	r3, [r3]
 5544 02f2 9B00     		lsls	r3, r3, #2
 5545 02f4 CB18     		adds	r3, r1, r3
 5546 02f6 1B88     		ldrh	r3, [r3]
 5547 02f8 2149     		ldr	r1, .L223+12
 5548 02fa 0B40     		ands	r3, r1
 5549 02fc 9BB2     		uxth	r3, r3
 5550 02fe 1380     		strh	r3, [r2]
1263:Drivers/STM32F0xx_HAL_Driver/Src/stm32f0xx_hal_pcd.c ****         ep = &hpcd->OUT_ep[EPindex];
 5551              		.loc 1 1263 0
 5552 0300 1B23     		movs	r3, #27
 5553 0302 FB18     		adds	r3, r7, r3
 5554 0304 1A78     		ldrb	r2, [r3]
 5555 0306 1300     		movs	r3, r2
 5556 0308 DB00     		lsls	r3, r3, #3
 5557 030a 9B1A     		subs	r3, r3, r2
 5558 030c 9B00     		lsls	r3, r3, #2
 5559 030e 0933     		adds	r3, r3, #9
 5560 0310 FF33     		adds	r3, r3, #255
 5561 0312 7A68     		ldr	r2, [r7, #4]
 5562 0314 D318     		adds	r3, r2, r3
 5563 0316 7B61     		str	r3, [r7, #20]
1264:Drivers/STM32F0xx_HAL_Driver/Src/stm32f0xx_hal_pcd.c ****         
1265:Drivers/STM32F0xx_HAL_Driver/Src/stm32f0xx_hal_pcd.c ****         /* OUT double Buffering*/
1266:Drivers/STM32F0xx_HAL_Driver/Src/stm32f0xx_hal_pcd.c ****         if (ep->doublebuffer == 0)
 5564              		.loc 1 1266 0
 5565 0318 7B69     		ldr	r3, [r7, #20]
 5566 031a 9B7A     		ldrb	r3, [r3, #10]
 5567 031c 002B     		cmp	r3, #0
 5568 031e 37D1     		bne	.L204
1267:Drivers/STM32F0xx_HAL_Driver/Src/stm32f0xx_hal_pcd.c ****         {
ARM GAS  /tmp/cczZJmfg.s 			page 120


1268:Drivers/STM32F0xx_HAL_Driver/Src/stm32f0xx_hal_pcd.c ****           count = PCD_GET_EP_RX_CNT(hpcd->Instance, ep->num);
 5569              		.loc 1 1268 0
 5570 0320 7B68     		ldr	r3, [r7, #4]
 5571 0322 1B68     		ldr	r3, [r3]
 5572 0324 5022     		movs	r2, #80
 5573 0326 9B5A     		ldrh	r3, [r3, r2]
 5574 0328 9BB2     		uxth	r3, r3
 5575 032a 1A00     		movs	r2, r3
 5576 032c 7B69     		ldr	r3, [r7, #20]
 5577 032e 1B78     		ldrb	r3, [r3]
 5578 0330 DB00     		lsls	r3, r3, #3
 5579 0332 D318     		adds	r3, r2, r3
 5580 0334 1A00     		movs	r2, r3
 5581 0336 7B68     		ldr	r3, [r7, #4]
 5582 0338 1B68     		ldr	r3, [r3]
 5583 033a D318     		adds	r3, r2, r3
 5584 033c 0F4A     		ldr	r2, .L223+8
 5585 033e 9446     		mov	ip, r2
 5586 0340 6344     		add	r3, r3, ip
 5587 0342 1A88     		ldrh	r2, [r3]
 5588 0344 1E23     		movs	r3, #30
 5589 0346 FB18     		adds	r3, r7, r3
 5590 0348 9205     		lsls	r2, r2, #22
 5591 034a 920D     		lsrs	r2, r2, #22
 5592 034c 1A80     		strh	r2, [r3]
1269:Drivers/STM32F0xx_HAL_Driver/Src/stm32f0xx_hal_pcd.c ****           if (count != 0)
 5593              		.loc 1 1269 0
 5594 034e 1E23     		movs	r3, #30
 5595 0350 FB18     		adds	r3, r7, r3
 5596 0352 1B88     		ldrh	r3, [r3]
 5597 0354 002B     		cmp	r3, #0
 5598 0356 00D1     		bne	.LCB5223
 5599 0358 8CE0     		b	.L206	@long jump
 5600              	.LCB5223:
1270:Drivers/STM32F0xx_HAL_Driver/Src/stm32f0xx_hal_pcd.c ****           {
1271:Drivers/STM32F0xx_HAL_Driver/Src/stm32f0xx_hal_pcd.c ****             PCD_ReadPMA(hpcd->Instance, ep->xfer_buff, ep->pmaadress, count);
 5601              		.loc 1 1271 0
 5602 035a 7B68     		ldr	r3, [r7, #4]
 5603 035c 1868     		ldr	r0, [r3]
 5604 035e 7B69     		ldr	r3, [r7, #20]
 5605 0360 1969     		ldr	r1, [r3, #16]
 5606 0362 7B69     		ldr	r3, [r7, #20]
 5607 0364 9A88     		ldrh	r2, [r3, #4]
 5608 0366 1E23     		movs	r3, #30
 5609 0368 FB18     		adds	r3, r7, r3
 5610 036a 1B88     		ldrh	r3, [r3]
 5611 036c FFF7FEFF 		bl	PCD_ReadPMA
 5612 0370 80E0     		b	.L206
 5613              	.L224:
 5614 0372 C046     		.align	2
 5615              	.L223:
 5616 0374 0F8FFFFF 		.word	-28913
 5617 0378 02040000 		.word	1026
 5618 037c 06040000 		.word	1030
 5619 0380 8F0F0000 		.word	3983
 5620 0384 0080FFFF 		.word	-32768
 5621 0388 8FBFFFFF 		.word	-16497
ARM GAS  /tmp/cczZJmfg.s 			page 121


 5622 038c 8080FFFF 		.word	-32640
 5623              	.L204:
1272:Drivers/STM32F0xx_HAL_Driver/Src/stm32f0xx_hal_pcd.c ****           }
1273:Drivers/STM32F0xx_HAL_Driver/Src/stm32f0xx_hal_pcd.c ****         }
1274:Drivers/STM32F0xx_HAL_Driver/Src/stm32f0xx_hal_pcd.c ****         else
1275:Drivers/STM32F0xx_HAL_Driver/Src/stm32f0xx_hal_pcd.c ****         {
1276:Drivers/STM32F0xx_HAL_Driver/Src/stm32f0xx_hal_pcd.c ****           
1277:Drivers/STM32F0xx_HAL_Driver/Src/stm32f0xx_hal_pcd.c ****           if ((PCD_GET_ENDPOINT(hpcd->Instance, ep->num)& USB_EP_DTOG_RX) == USB_EP_DTOG_RX)
 5624              		.loc 1 1277 0
 5625 0390 7B68     		ldr	r3, [r7, #4]
 5626 0392 1B68     		ldr	r3, [r3]
 5627 0394 1A00     		movs	r2, r3
 5628 0396 7B69     		ldr	r3, [r7, #20]
 5629 0398 1B78     		ldrb	r3, [r3]
 5630 039a 9B00     		lsls	r3, r3, #2
 5631 039c D318     		adds	r3, r2, r3
 5632 039e 1B88     		ldrh	r3, [r3]
 5633 03a0 1A00     		movs	r2, r3
 5634 03a2 8023     		movs	r3, #128
 5635 03a4 DB01     		lsls	r3, r3, #7
 5636 03a6 1340     		ands	r3, r2
 5637 03a8 27D0     		beq	.L207
1278:Drivers/STM32F0xx_HAL_Driver/Src/stm32f0xx_hal_pcd.c ****           {
1279:Drivers/STM32F0xx_HAL_Driver/Src/stm32f0xx_hal_pcd.c ****             /*read from endpoint BUF0Addr buffer*/
1280:Drivers/STM32F0xx_HAL_Driver/Src/stm32f0xx_hal_pcd.c ****             count = PCD_GET_EP_DBUF0_CNT(hpcd->Instance, ep->num);
 5638              		.loc 1 1280 0
 5639 03aa 7B68     		ldr	r3, [r7, #4]
 5640 03ac 1B68     		ldr	r3, [r3]
 5641 03ae 5022     		movs	r2, #80
 5642 03b0 9B5A     		ldrh	r3, [r3, r2]
 5643 03b2 9BB2     		uxth	r3, r3
 5644 03b4 1A00     		movs	r2, r3
 5645 03b6 7B69     		ldr	r3, [r7, #20]
 5646 03b8 1B78     		ldrb	r3, [r3]
 5647 03ba DB00     		lsls	r3, r3, #3
 5648 03bc D318     		adds	r3, r2, r3
 5649 03be 1A00     		movs	r2, r3
 5650 03c0 7B68     		ldr	r3, [r7, #4]
 5651 03c2 1B68     		ldr	r3, [r3]
 5652 03c4 D318     		adds	r3, r2, r3
 5653 03c6 C44A     		ldr	r2, .L225
 5654 03c8 9446     		mov	ip, r2
 5655 03ca 6344     		add	r3, r3, ip
 5656 03cc 1A88     		ldrh	r2, [r3]
 5657 03ce 1E23     		movs	r3, #30
 5658 03d0 FB18     		adds	r3, r7, r3
 5659 03d2 9205     		lsls	r2, r2, #22
 5660 03d4 920D     		lsrs	r2, r2, #22
 5661 03d6 1A80     		strh	r2, [r3]
1281:Drivers/STM32F0xx_HAL_Driver/Src/stm32f0xx_hal_pcd.c ****             if (count != 0)
 5662              		.loc 1 1281 0
 5663 03d8 1E23     		movs	r3, #30
 5664 03da FB18     		adds	r3, r7, r3
 5665 03dc 1B88     		ldrh	r3, [r3]
 5666 03de 002B     		cmp	r3, #0
 5667 03e0 32D0     		beq	.L221
1282:Drivers/STM32F0xx_HAL_Driver/Src/stm32f0xx_hal_pcd.c ****             {
ARM GAS  /tmp/cczZJmfg.s 			page 122


1283:Drivers/STM32F0xx_HAL_Driver/Src/stm32f0xx_hal_pcd.c ****               PCD_ReadPMA(hpcd->Instance, ep->xfer_buff, ep->pmaaddr0, count);
 5668              		.loc 1 1283 0
 5669 03e2 7B68     		ldr	r3, [r7, #4]
 5670 03e4 1868     		ldr	r0, [r3]
 5671 03e6 7B69     		ldr	r3, [r7, #20]
 5672 03e8 1969     		ldr	r1, [r3, #16]
 5673 03ea 7B69     		ldr	r3, [r7, #20]
 5674 03ec DA88     		ldrh	r2, [r3, #6]
 5675 03ee 1E23     		movs	r3, #30
 5676 03f0 FB18     		adds	r3, r7, r3
 5677 03f2 1B88     		ldrh	r3, [r3]
 5678 03f4 FFF7FEFF 		bl	PCD_ReadPMA
 5679 03f8 26E0     		b	.L221
 5680              	.L207:
1284:Drivers/STM32F0xx_HAL_Driver/Src/stm32f0xx_hal_pcd.c ****             }
1285:Drivers/STM32F0xx_HAL_Driver/Src/stm32f0xx_hal_pcd.c ****           }
1286:Drivers/STM32F0xx_HAL_Driver/Src/stm32f0xx_hal_pcd.c ****           else
1287:Drivers/STM32F0xx_HAL_Driver/Src/stm32f0xx_hal_pcd.c ****           {
1288:Drivers/STM32F0xx_HAL_Driver/Src/stm32f0xx_hal_pcd.c ****             /*read from endpoint BUF1Addr buffer*/
1289:Drivers/STM32F0xx_HAL_Driver/Src/stm32f0xx_hal_pcd.c ****             count = PCD_GET_EP_DBUF1_CNT(hpcd->Instance, ep->num);
 5681              		.loc 1 1289 0
 5682 03fa 7B68     		ldr	r3, [r7, #4]
 5683 03fc 1B68     		ldr	r3, [r3]
 5684 03fe 5022     		movs	r2, #80
 5685 0400 9B5A     		ldrh	r3, [r3, r2]
 5686 0402 9BB2     		uxth	r3, r3
 5687 0404 1A00     		movs	r2, r3
 5688 0406 7B69     		ldr	r3, [r7, #20]
 5689 0408 1B78     		ldrb	r3, [r3]
 5690 040a DB00     		lsls	r3, r3, #3
 5691 040c D318     		adds	r3, r2, r3
 5692 040e 1A00     		movs	r2, r3
 5693 0410 7B68     		ldr	r3, [r7, #4]
 5694 0412 1B68     		ldr	r3, [r3]
 5695 0414 D318     		adds	r3, r2, r3
 5696 0416 B14A     		ldr	r2, .L225+4
 5697 0418 9446     		mov	ip, r2
 5698 041a 6344     		add	r3, r3, ip
 5699 041c 1A88     		ldrh	r2, [r3]
 5700 041e 1E23     		movs	r3, #30
 5701 0420 FB18     		adds	r3, r7, r3
 5702 0422 9205     		lsls	r2, r2, #22
 5703 0424 920D     		lsrs	r2, r2, #22
 5704 0426 1A80     		strh	r2, [r3]
1290:Drivers/STM32F0xx_HAL_Driver/Src/stm32f0xx_hal_pcd.c ****             if (count != 0)
 5705              		.loc 1 1290 0
 5706 0428 1E23     		movs	r3, #30
 5707 042a FB18     		adds	r3, r7, r3
 5708 042c 1B88     		ldrh	r3, [r3]
 5709 042e 002B     		cmp	r3, #0
 5710 0430 0AD0     		beq	.L221
1291:Drivers/STM32F0xx_HAL_Driver/Src/stm32f0xx_hal_pcd.c ****             {
1292:Drivers/STM32F0xx_HAL_Driver/Src/stm32f0xx_hal_pcd.c ****               PCD_ReadPMA(hpcd->Instance, ep->xfer_buff, ep->pmaaddr1, count);
 5711              		.loc 1 1292 0
 5712 0432 7B68     		ldr	r3, [r7, #4]
 5713 0434 1868     		ldr	r0, [r3]
 5714 0436 7B69     		ldr	r3, [r7, #20]
ARM GAS  /tmp/cczZJmfg.s 			page 123


 5715 0438 1969     		ldr	r1, [r3, #16]
 5716 043a 7B69     		ldr	r3, [r7, #20]
 5717 043c 1A89     		ldrh	r2, [r3, #8]
 5718 043e 1E23     		movs	r3, #30
 5719 0440 FB18     		adds	r3, r7, r3
 5720 0442 1B88     		ldrh	r3, [r3]
 5721 0444 FFF7FEFF 		bl	PCD_ReadPMA
 5722              	.L221:
1293:Drivers/STM32F0xx_HAL_Driver/Src/stm32f0xx_hal_pcd.c ****             }
1294:Drivers/STM32F0xx_HAL_Driver/Src/stm32f0xx_hal_pcd.c ****           }
1295:Drivers/STM32F0xx_HAL_Driver/Src/stm32f0xx_hal_pcd.c ****           PCD_FreeUserBuffer(hpcd->Instance, ep->num, PCD_EP_DBUF_OUT)  
 5723              		.loc 1 1295 0 discriminator 1
 5724 0448 7B68     		ldr	r3, [r7, #4]
 5725 044a 1B68     		ldr	r3, [r3]
 5726 044c 1A00     		movs	r2, r3
 5727 044e 7B69     		ldr	r3, [r7, #20]
 5728 0450 1B78     		ldrb	r3, [r3]
 5729 0452 9B00     		lsls	r3, r3, #2
 5730 0454 D218     		adds	r2, r2, r3
 5731 0456 7B68     		ldr	r3, [r7, #4]
 5732 0458 1B68     		ldr	r3, [r3]
 5733 045a 1900     		movs	r1, r3
 5734 045c 7B69     		ldr	r3, [r7, #20]
 5735 045e 1B78     		ldrb	r3, [r3]
 5736 0460 9B00     		lsls	r3, r3, #2
 5737 0462 CB18     		adds	r3, r1, r3
 5738 0464 1B88     		ldrh	r3, [r3]
 5739 0466 9E49     		ldr	r1, .L225+8
 5740 0468 0B40     		ands	r3, r1
 5741 046a 9BB2     		uxth	r3, r3
 5742 046c 9D49     		ldr	r1, .L225+12
 5743 046e 0B43     		orrs	r3, r1
 5744 0470 9BB2     		uxth	r3, r3
 5745 0472 1380     		strh	r3, [r2]
 5746              	.L206:
1296:Drivers/STM32F0xx_HAL_Driver/Src/stm32f0xx_hal_pcd.c ****         }
1297:Drivers/STM32F0xx_HAL_Driver/Src/stm32f0xx_hal_pcd.c ****         /*multi-packet on the NON control OUT endpoint*/
1298:Drivers/STM32F0xx_HAL_Driver/Src/stm32f0xx_hal_pcd.c ****         ep->xfer_count+=count;
 5747              		.loc 1 1298 0
 5748 0474 7B69     		ldr	r3, [r7, #20]
 5749 0476 9A69     		ldr	r2, [r3, #24]
 5750 0478 1E23     		movs	r3, #30
 5751 047a FB18     		adds	r3, r7, r3
 5752 047c 1B88     		ldrh	r3, [r3]
 5753 047e D218     		adds	r2, r2, r3
 5754 0480 7B69     		ldr	r3, [r7, #20]
 5755 0482 9A61     		str	r2, [r3, #24]
1299:Drivers/STM32F0xx_HAL_Driver/Src/stm32f0xx_hal_pcd.c ****         ep->xfer_buff+=count;
 5756              		.loc 1 1299 0
 5757 0484 7B69     		ldr	r3, [r7, #20]
 5758 0486 1A69     		ldr	r2, [r3, #16]
 5759 0488 1E23     		movs	r3, #30
 5760 048a FB18     		adds	r3, r7, r3
 5761 048c 1B88     		ldrh	r3, [r3]
 5762 048e D218     		adds	r2, r2, r3
 5763 0490 7B69     		ldr	r3, [r7, #20]
 5764 0492 1A61     		str	r2, [r3, #16]
ARM GAS  /tmp/cczZJmfg.s 			page 124


1300:Drivers/STM32F0xx_HAL_Driver/Src/stm32f0xx_hal_pcd.c ****        
1301:Drivers/STM32F0xx_HAL_Driver/Src/stm32f0xx_hal_pcd.c ****         if ((ep->xfer_len == 0) || (count < ep->maxpacket))
 5765              		.loc 1 1301 0
 5766 0494 7B69     		ldr	r3, [r7, #20]
 5767 0496 5B69     		ldr	r3, [r3, #20]
 5768 0498 002B     		cmp	r3, #0
 5769 049a 06D0     		beq	.L210
 5770              		.loc 1 1301 0 is_stmt 0 discriminator 1
 5771 049c 1E23     		movs	r3, #30
 5772 049e FB18     		adds	r3, r7, r3
 5773 04a0 1A88     		ldrh	r2, [r3]
 5774 04a2 7B69     		ldr	r3, [r7, #20]
 5775 04a4 DB68     		ldr	r3, [r3, #12]
 5776 04a6 9A42     		cmp	r2, r3
 5777 04a8 07D2     		bcs	.L211
 5778              	.L210:
1302:Drivers/STM32F0xx_HAL_Driver/Src/stm32f0xx_hal_pcd.c ****         {
1303:Drivers/STM32F0xx_HAL_Driver/Src/stm32f0xx_hal_pcd.c ****           /* RX COMPLETE */
1304:Drivers/STM32F0xx_HAL_Driver/Src/stm32f0xx_hal_pcd.c ****           HAL_PCD_DataOutStageCallback(hpcd, ep->num);
 5779              		.loc 1 1304 0 is_stmt 1
 5780 04aa 7B69     		ldr	r3, [r7, #20]
 5781 04ac 1A78     		ldrb	r2, [r3]
 5782 04ae 7B68     		ldr	r3, [r7, #4]
 5783 04b0 1100     		movs	r1, r2
 5784 04b2 1800     		movs	r0, r3
 5785 04b4 FFF7FEFF 		bl	HAL_PCD_DataOutStageCallback
 5786 04b8 08E0     		b	.L203
 5787              	.L211:
1305:Drivers/STM32F0xx_HAL_Driver/Src/stm32f0xx_hal_pcd.c ****         }
1306:Drivers/STM32F0xx_HAL_Driver/Src/stm32f0xx_hal_pcd.c ****         else
1307:Drivers/STM32F0xx_HAL_Driver/Src/stm32f0xx_hal_pcd.c ****         {
1308:Drivers/STM32F0xx_HAL_Driver/Src/stm32f0xx_hal_pcd.c ****           HAL_PCD_EP_Receive(hpcd, ep->num, ep->xfer_buff, ep->xfer_len);
 5788              		.loc 1 1308 0
 5789 04ba 7B69     		ldr	r3, [r7, #20]
 5790 04bc 1978     		ldrb	r1, [r3]
 5791 04be 7B69     		ldr	r3, [r7, #20]
 5792 04c0 1A69     		ldr	r2, [r3, #16]
 5793 04c2 7B69     		ldr	r3, [r7, #20]
 5794 04c4 5B69     		ldr	r3, [r3, #20]
 5795 04c6 7868     		ldr	r0, [r7, #4]
 5796 04c8 FFF7FEFF 		bl	HAL_PCD_EP_Receive
 5797              	.L203:
1309:Drivers/STM32F0xx_HAL_Driver/Src/stm32f0xx_hal_pcd.c ****         }
1310:Drivers/STM32F0xx_HAL_Driver/Src/stm32f0xx_hal_pcd.c ****         
1311:Drivers/STM32F0xx_HAL_Driver/Src/stm32f0xx_hal_pcd.c ****       } /* if((wEPVal & EP_CTR_RX) */
1312:Drivers/STM32F0xx_HAL_Driver/Src/stm32f0xx_hal_pcd.c ****       
1313:Drivers/STM32F0xx_HAL_Driver/Src/stm32f0xx_hal_pcd.c ****       if ((wEPVal & USB_EP_CTR_TX) != 0)
 5798              		.loc 1 1313 0
 5799 04cc 0C23     		movs	r3, #12
 5800 04ce FB18     		adds	r3, r7, r3
 5801 04d0 1B88     		ldrh	r3, [r3]
 5802 04d2 9BB2     		uxth	r3, r3
 5803 04d4 1A00     		movs	r2, r3
 5804 04d6 8023     		movs	r3, #128
 5805 04d8 1340     		ands	r3, r2
 5806 04da 00D1     		bne	.LCB5426
 5807 04dc E9E0     		b	.L192	@long jump
ARM GAS  /tmp/cczZJmfg.s 			page 125


 5808              	.LCB5426:
1314:Drivers/STM32F0xx_HAL_Driver/Src/stm32f0xx_hal_pcd.c ****       {
1315:Drivers/STM32F0xx_HAL_Driver/Src/stm32f0xx_hal_pcd.c ****         ep = &hpcd->IN_ep[EPindex];
 5809              		.loc 1 1315 0
 5810 04de 1B23     		movs	r3, #27
 5811 04e0 FB18     		adds	r3, r7, r3
 5812 04e2 1A78     		ldrb	r2, [r3]
 5813 04e4 1300     		movs	r3, r2
 5814 04e6 DB00     		lsls	r3, r3, #3
 5815 04e8 9B1A     		subs	r3, r3, r2
 5816 04ea 9B00     		lsls	r3, r3, #2
 5817 04ec 2833     		adds	r3, r3, #40
 5818 04ee 7A68     		ldr	r2, [r7, #4]
 5819 04f0 D318     		adds	r3, r2, r3
 5820 04f2 7B61     		str	r3, [r7, #20]
1316:Drivers/STM32F0xx_HAL_Driver/Src/stm32f0xx_hal_pcd.c ****         
1317:Drivers/STM32F0xx_HAL_Driver/Src/stm32f0xx_hal_pcd.c ****         /* clear int flag */
1318:Drivers/STM32F0xx_HAL_Driver/Src/stm32f0xx_hal_pcd.c ****         PCD_CLEAR_TX_EP_CTR(hpcd->Instance, EPindex);
 5821              		.loc 1 1318 0
 5822 04f4 7B68     		ldr	r3, [r7, #4]
 5823 04f6 1B68     		ldr	r3, [r3]
 5824 04f8 1A00     		movs	r2, r3
 5825 04fa 1B23     		movs	r3, #27
 5826 04fc FB18     		adds	r3, r7, r3
 5827 04fe 1B78     		ldrb	r3, [r3]
 5828 0500 9B00     		lsls	r3, r3, #2
 5829 0502 D218     		adds	r2, r2, r3
 5830 0504 7B68     		ldr	r3, [r7, #4]
 5831 0506 1B68     		ldr	r3, [r3]
 5832 0508 1900     		movs	r1, r3
 5833 050a 1B23     		movs	r3, #27
 5834 050c FB18     		adds	r3, r7, r3
 5835 050e 1B78     		ldrb	r3, [r3]
 5836 0510 9B00     		lsls	r3, r3, #2
 5837 0512 CB18     		adds	r3, r1, r3
 5838 0514 1B88     		ldrh	r3, [r3]
 5839 0516 7449     		ldr	r1, .L225+16
 5840 0518 0B40     		ands	r3, r1
 5841 051a 9BB2     		uxth	r3, r3
 5842 051c 1380     		strh	r3, [r2]
1319:Drivers/STM32F0xx_HAL_Driver/Src/stm32f0xx_hal_pcd.c ****         
1320:Drivers/STM32F0xx_HAL_Driver/Src/stm32f0xx_hal_pcd.c ****         /* IN double Buffering*/
1321:Drivers/STM32F0xx_HAL_Driver/Src/stm32f0xx_hal_pcd.c ****         if (ep->doublebuffer == 0)
 5843              		.loc 1 1321 0
 5844 051e 7B69     		ldr	r3, [r7, #20]
 5845 0520 9B7A     		ldrb	r3, [r3, #10]
 5846 0522 002B     		cmp	r3, #0
 5847 0524 26D1     		bne	.L212
1322:Drivers/STM32F0xx_HAL_Driver/Src/stm32f0xx_hal_pcd.c ****         {
1323:Drivers/STM32F0xx_HAL_Driver/Src/stm32f0xx_hal_pcd.c ****           ep->xfer_count = PCD_GET_EP_TX_CNT(hpcd->Instance, ep->num);
 5848              		.loc 1 1323 0
 5849 0526 7B68     		ldr	r3, [r7, #4]
 5850 0528 1B68     		ldr	r3, [r3]
 5851 052a 5022     		movs	r2, #80
 5852 052c 9B5A     		ldrh	r3, [r3, r2]
 5853 052e 9BB2     		uxth	r3, r3
 5854 0530 1A00     		movs	r2, r3
ARM GAS  /tmp/cczZJmfg.s 			page 126


 5855 0532 7B69     		ldr	r3, [r7, #20]
 5856 0534 1B78     		ldrb	r3, [r3]
 5857 0536 DB00     		lsls	r3, r3, #3
 5858 0538 D318     		adds	r3, r2, r3
 5859 053a 1A00     		movs	r2, r3
 5860 053c 7B68     		ldr	r3, [r7, #4]
 5861 053e 1B68     		ldr	r3, [r3]
 5862 0540 D318     		adds	r3, r2, r3
 5863 0542 654A     		ldr	r2, .L225
 5864 0544 9446     		mov	ip, r2
 5865 0546 6344     		add	r3, r3, ip
 5866 0548 1B88     		ldrh	r3, [r3]
 5867 054a 9B05     		lsls	r3, r3, #22
 5868 054c 9A0D     		lsrs	r2, r3, #22
 5869 054e 7B69     		ldr	r3, [r7, #20]
 5870 0550 9A61     		str	r2, [r3, #24]
1324:Drivers/STM32F0xx_HAL_Driver/Src/stm32f0xx_hal_pcd.c ****           if (ep->xfer_count != 0)
 5871              		.loc 1 1324 0
 5872 0552 7B69     		ldr	r3, [r7, #20]
 5873 0554 9B69     		ldr	r3, [r3, #24]
 5874 0556 002B     		cmp	r3, #0
 5875 0558 00D1     		bne	.LCB5488
 5876 055a 78E0     		b	.L214	@long jump
 5877              	.LCB5488:
1325:Drivers/STM32F0xx_HAL_Driver/Src/stm32f0xx_hal_pcd.c ****           {
1326:Drivers/STM32F0xx_HAL_Driver/Src/stm32f0xx_hal_pcd.c ****             PCD_WritePMA(hpcd->Instance, ep->xfer_buff, ep->pmaadress, ep->xfer_count);
 5878              		.loc 1 1326 0
 5879 055c 7B68     		ldr	r3, [r7, #4]
 5880 055e 1868     		ldr	r0, [r3]
 5881 0560 7B69     		ldr	r3, [r7, #20]
 5882 0562 1969     		ldr	r1, [r3, #16]
 5883 0564 7B69     		ldr	r3, [r7, #20]
 5884 0566 9A88     		ldrh	r2, [r3, #4]
 5885 0568 7B69     		ldr	r3, [r7, #20]
 5886 056a 9B69     		ldr	r3, [r3, #24]
 5887 056c 9BB2     		uxth	r3, r3
 5888 056e FFF7FEFF 		bl	PCD_WritePMA
 5889 0572 6CE0     		b	.L214
 5890              	.L212:
1327:Drivers/STM32F0xx_HAL_Driver/Src/stm32f0xx_hal_pcd.c ****           }
1328:Drivers/STM32F0xx_HAL_Driver/Src/stm32f0xx_hal_pcd.c ****         }
1329:Drivers/STM32F0xx_HAL_Driver/Src/stm32f0xx_hal_pcd.c ****         else
1330:Drivers/STM32F0xx_HAL_Driver/Src/stm32f0xx_hal_pcd.c ****         {
1331:Drivers/STM32F0xx_HAL_Driver/Src/stm32f0xx_hal_pcd.c ****           if ((PCD_GET_ENDPOINT(hpcd->Instance, ep->num)& USB_EP_DTOG_TX) == USB_EP_DTOG_TX)
 5891              		.loc 1 1331 0
 5892 0574 7B68     		ldr	r3, [r7, #4]
 5893 0576 1B68     		ldr	r3, [r3]
 5894 0578 1A00     		movs	r2, r3
 5895 057a 7B69     		ldr	r3, [r7, #20]
 5896 057c 1B78     		ldrb	r3, [r3]
 5897 057e 9B00     		lsls	r3, r3, #2
 5898 0580 D318     		adds	r3, r2, r3
 5899 0582 1B88     		ldrh	r3, [r3]
 5900 0584 1A00     		movs	r2, r3
 5901 0586 4023     		movs	r3, #64
 5902 0588 1340     		ands	r3, r2
 5903 058a 25D0     		beq	.L215
ARM GAS  /tmp/cczZJmfg.s 			page 127


1332:Drivers/STM32F0xx_HAL_Driver/Src/stm32f0xx_hal_pcd.c ****           {
1333:Drivers/STM32F0xx_HAL_Driver/Src/stm32f0xx_hal_pcd.c ****             /*read from endpoint BUF0Addr buffer*/
1334:Drivers/STM32F0xx_HAL_Driver/Src/stm32f0xx_hal_pcd.c ****             ep->xfer_count = PCD_GET_EP_DBUF0_CNT(hpcd->Instance, ep->num);
 5904              		.loc 1 1334 0
 5905 058c 7B68     		ldr	r3, [r7, #4]
 5906 058e 1B68     		ldr	r3, [r3]
 5907 0590 5022     		movs	r2, #80
 5908 0592 9B5A     		ldrh	r3, [r3, r2]
 5909 0594 9BB2     		uxth	r3, r3
 5910 0596 1A00     		movs	r2, r3
 5911 0598 7B69     		ldr	r3, [r7, #20]
 5912 059a 1B78     		ldrb	r3, [r3]
 5913 059c DB00     		lsls	r3, r3, #3
 5914 059e D318     		adds	r3, r2, r3
 5915 05a0 1A00     		movs	r2, r3
 5916 05a2 7B68     		ldr	r3, [r7, #4]
 5917 05a4 1B68     		ldr	r3, [r3]
 5918 05a6 D318     		adds	r3, r2, r3
 5919 05a8 4B4A     		ldr	r2, .L225
 5920 05aa 9446     		mov	ip, r2
 5921 05ac 6344     		add	r3, r3, ip
 5922 05ae 1B88     		ldrh	r3, [r3]
 5923 05b0 9B05     		lsls	r3, r3, #22
 5924 05b2 9A0D     		lsrs	r2, r3, #22
 5925 05b4 7B69     		ldr	r3, [r7, #20]
 5926 05b6 9A61     		str	r2, [r3, #24]
1335:Drivers/STM32F0xx_HAL_Driver/Src/stm32f0xx_hal_pcd.c ****             if (ep->xfer_count != 0)
 5927              		.loc 1 1335 0
 5928 05b8 7B69     		ldr	r3, [r7, #20]
 5929 05ba 9B69     		ldr	r3, [r3, #24]
 5930 05bc 002B     		cmp	r3, #0
 5931 05be 30D0     		beq	.L222
1336:Drivers/STM32F0xx_HAL_Driver/Src/stm32f0xx_hal_pcd.c ****             {
1337:Drivers/STM32F0xx_HAL_Driver/Src/stm32f0xx_hal_pcd.c ****               PCD_WritePMA(hpcd->Instance, ep->xfer_buff, ep->pmaaddr0, ep->xfer_count);
 5932              		.loc 1 1337 0
 5933 05c0 7B68     		ldr	r3, [r7, #4]
 5934 05c2 1868     		ldr	r0, [r3]
 5935 05c4 7B69     		ldr	r3, [r7, #20]
 5936 05c6 1969     		ldr	r1, [r3, #16]
 5937 05c8 7B69     		ldr	r3, [r7, #20]
 5938 05ca DA88     		ldrh	r2, [r3, #6]
 5939 05cc 7B69     		ldr	r3, [r7, #20]
 5940 05ce 9B69     		ldr	r3, [r3, #24]
 5941 05d0 9BB2     		uxth	r3, r3
 5942 05d2 FFF7FEFF 		bl	PCD_WritePMA
 5943 05d6 24E0     		b	.L222
 5944              	.L215:
1338:Drivers/STM32F0xx_HAL_Driver/Src/stm32f0xx_hal_pcd.c ****             }
1339:Drivers/STM32F0xx_HAL_Driver/Src/stm32f0xx_hal_pcd.c ****           }
1340:Drivers/STM32F0xx_HAL_Driver/Src/stm32f0xx_hal_pcd.c ****           else
1341:Drivers/STM32F0xx_HAL_Driver/Src/stm32f0xx_hal_pcd.c ****           {
1342:Drivers/STM32F0xx_HAL_Driver/Src/stm32f0xx_hal_pcd.c ****             /*read from endpoint BUF1Addr buffer*/
1343:Drivers/STM32F0xx_HAL_Driver/Src/stm32f0xx_hal_pcd.c ****             ep->xfer_count = PCD_GET_EP_DBUF1_CNT(hpcd->Instance, ep->num);
 5945              		.loc 1 1343 0
 5946 05d8 7B68     		ldr	r3, [r7, #4]
 5947 05da 1B68     		ldr	r3, [r3]
 5948 05dc 5022     		movs	r2, #80
ARM GAS  /tmp/cczZJmfg.s 			page 128


 5949 05de 9B5A     		ldrh	r3, [r3, r2]
 5950 05e0 9BB2     		uxth	r3, r3
 5951 05e2 1A00     		movs	r2, r3
 5952 05e4 7B69     		ldr	r3, [r7, #20]
 5953 05e6 1B78     		ldrb	r3, [r3]
 5954 05e8 DB00     		lsls	r3, r3, #3
 5955 05ea D318     		adds	r3, r2, r3
 5956 05ec 1A00     		movs	r2, r3
 5957 05ee 7B68     		ldr	r3, [r7, #4]
 5958 05f0 1B68     		ldr	r3, [r3]
 5959 05f2 D318     		adds	r3, r2, r3
 5960 05f4 394A     		ldr	r2, .L225+4
 5961 05f6 9446     		mov	ip, r2
 5962 05f8 6344     		add	r3, r3, ip
 5963 05fa 1B88     		ldrh	r3, [r3]
 5964 05fc 9B05     		lsls	r3, r3, #22
 5965 05fe 9A0D     		lsrs	r2, r3, #22
 5966 0600 7B69     		ldr	r3, [r7, #20]
 5967 0602 9A61     		str	r2, [r3, #24]
1344:Drivers/STM32F0xx_HAL_Driver/Src/stm32f0xx_hal_pcd.c ****             if (ep->xfer_count != 0)
 5968              		.loc 1 1344 0
 5969 0604 7B69     		ldr	r3, [r7, #20]
 5970 0606 9B69     		ldr	r3, [r3, #24]
 5971 0608 002B     		cmp	r3, #0
 5972 060a 0AD0     		beq	.L222
1345:Drivers/STM32F0xx_HAL_Driver/Src/stm32f0xx_hal_pcd.c ****             {
1346:Drivers/STM32F0xx_HAL_Driver/Src/stm32f0xx_hal_pcd.c ****               PCD_WritePMA(hpcd->Instance, ep->xfer_buff, ep->pmaaddr1, ep->xfer_count);
 5973              		.loc 1 1346 0
 5974 060c 7B68     		ldr	r3, [r7, #4]
 5975 060e 1868     		ldr	r0, [r3]
 5976 0610 7B69     		ldr	r3, [r7, #20]
 5977 0612 1969     		ldr	r1, [r3, #16]
 5978 0614 7B69     		ldr	r3, [r7, #20]
 5979 0616 1A89     		ldrh	r2, [r3, #8]
 5980 0618 7B69     		ldr	r3, [r7, #20]
 5981 061a 9B69     		ldr	r3, [r3, #24]
 5982 061c 9BB2     		uxth	r3, r3
 5983 061e FFF7FEFF 		bl	PCD_WritePMA
 5984              	.L222:
1347:Drivers/STM32F0xx_HAL_Driver/Src/stm32f0xx_hal_pcd.c ****             }
1348:Drivers/STM32F0xx_HAL_Driver/Src/stm32f0xx_hal_pcd.c ****           }
1349:Drivers/STM32F0xx_HAL_Driver/Src/stm32f0xx_hal_pcd.c ****           PCD_FreeUserBuffer(hpcd->Instance, ep->num, PCD_EP_DBUF_IN) 
 5985              		.loc 1 1349 0 discriminator 3
 5986 0622 7B68     		ldr	r3, [r7, #4]
 5987 0624 1B68     		ldr	r3, [r3]
 5988 0626 1A00     		movs	r2, r3
 5989 0628 7B69     		ldr	r3, [r7, #20]
 5990 062a 1B78     		ldrb	r3, [r3]
 5991 062c 9B00     		lsls	r3, r3, #2
 5992 062e D218     		adds	r2, r2, r3
 5993 0630 7B68     		ldr	r3, [r7, #4]
 5994 0632 1B68     		ldr	r3, [r3]
 5995 0634 1900     		movs	r1, r3
 5996 0636 7B69     		ldr	r3, [r7, #20]
 5997 0638 1B78     		ldrb	r3, [r3]
 5998 063a 9B00     		lsls	r3, r3, #2
 5999 063c CB18     		adds	r3, r1, r3
ARM GAS  /tmp/cczZJmfg.s 			page 129


 6000 063e 1B88     		ldrh	r3, [r3]
 6001 0640 2749     		ldr	r1, .L225+8
 6002 0642 0B40     		ands	r3, r1
 6003 0644 9BB2     		uxth	r3, r3
 6004 0646 2949     		ldr	r1, .L225+20
 6005 0648 0B43     		orrs	r3, r1
 6006 064a 9BB2     		uxth	r3, r3
 6007 064c 1380     		strh	r3, [r2]
 6008              	.L214:
1350:Drivers/STM32F0xx_HAL_Driver/Src/stm32f0xx_hal_pcd.c ****         }
1351:Drivers/STM32F0xx_HAL_Driver/Src/stm32f0xx_hal_pcd.c ****         /*multi-packet on the NON control IN endpoint*/
1352:Drivers/STM32F0xx_HAL_Driver/Src/stm32f0xx_hal_pcd.c ****         ep->xfer_count = PCD_GET_EP_TX_CNT(hpcd->Instance, ep->num);
 6009              		.loc 1 1352 0
 6010 064e 7B68     		ldr	r3, [r7, #4]
 6011 0650 1B68     		ldr	r3, [r3]
 6012 0652 5022     		movs	r2, #80
 6013 0654 9B5A     		ldrh	r3, [r3, r2]
 6014 0656 9BB2     		uxth	r3, r3
 6015 0658 1A00     		movs	r2, r3
 6016 065a 7B69     		ldr	r3, [r7, #20]
 6017 065c 1B78     		ldrb	r3, [r3]
 6018 065e DB00     		lsls	r3, r3, #3
 6019 0660 D318     		adds	r3, r2, r3
 6020 0662 1A00     		movs	r2, r3
 6021 0664 7B68     		ldr	r3, [r7, #4]
 6022 0666 1B68     		ldr	r3, [r3]
 6023 0668 D318     		adds	r3, r2, r3
 6024 066a 1B4A     		ldr	r2, .L225
 6025 066c 9446     		mov	ip, r2
 6026 066e 6344     		add	r3, r3, ip
 6027 0670 1B88     		ldrh	r3, [r3]
 6028 0672 9B05     		lsls	r3, r3, #22
 6029 0674 9A0D     		lsrs	r2, r3, #22
 6030 0676 7B69     		ldr	r3, [r7, #20]
 6031 0678 9A61     		str	r2, [r3, #24]
1353:Drivers/STM32F0xx_HAL_Driver/Src/stm32f0xx_hal_pcd.c ****         ep->xfer_buff+=ep->xfer_count;
 6032              		.loc 1 1353 0
 6033 067a 7B69     		ldr	r3, [r7, #20]
 6034 067c 1A69     		ldr	r2, [r3, #16]
 6035 067e 7B69     		ldr	r3, [r7, #20]
 6036 0680 9B69     		ldr	r3, [r3, #24]
 6037 0682 D218     		adds	r2, r2, r3
 6038 0684 7B69     		ldr	r3, [r7, #20]
 6039 0686 1A61     		str	r2, [r3, #16]
1354:Drivers/STM32F0xx_HAL_Driver/Src/stm32f0xx_hal_pcd.c ****        
1355:Drivers/STM32F0xx_HAL_Driver/Src/stm32f0xx_hal_pcd.c ****         /* Zero Length Packet? */
1356:Drivers/STM32F0xx_HAL_Driver/Src/stm32f0xx_hal_pcd.c ****         if (ep->xfer_len == 0)
 6040              		.loc 1 1356 0
 6041 0688 7B69     		ldr	r3, [r7, #20]
 6042 068a 5B69     		ldr	r3, [r3, #20]
 6043 068c 002B     		cmp	r3, #0
 6044 068e 07D1     		bne	.L218
1357:Drivers/STM32F0xx_HAL_Driver/Src/stm32f0xx_hal_pcd.c ****         {
1358:Drivers/STM32F0xx_HAL_Driver/Src/stm32f0xx_hal_pcd.c ****           /* TX COMPLETE */
1359:Drivers/STM32F0xx_HAL_Driver/Src/stm32f0xx_hal_pcd.c ****           HAL_PCD_DataInStageCallback(hpcd, ep->num);
 6045              		.loc 1 1359 0
 6046 0690 7B69     		ldr	r3, [r7, #20]
ARM GAS  /tmp/cczZJmfg.s 			page 130


 6047 0692 1A78     		ldrb	r2, [r3]
 6048 0694 7B68     		ldr	r3, [r7, #4]
 6049 0696 1100     		movs	r1, r2
 6050 0698 1800     		movs	r0, r3
 6051 069a FFF7FEFF 		bl	HAL_PCD_DataInStageCallback
 6052 069e 08E0     		b	.L192
 6053              	.L218:
1360:Drivers/STM32F0xx_HAL_Driver/Src/stm32f0xx_hal_pcd.c ****         }
1361:Drivers/STM32F0xx_HAL_Driver/Src/stm32f0xx_hal_pcd.c ****         else
1362:Drivers/STM32F0xx_HAL_Driver/Src/stm32f0xx_hal_pcd.c ****         {
1363:Drivers/STM32F0xx_HAL_Driver/Src/stm32f0xx_hal_pcd.c ****           HAL_PCD_EP_Transmit(hpcd, ep->num, ep->xfer_buff, ep->xfer_len);
 6054              		.loc 1 1363 0
 6055 06a0 7B69     		ldr	r3, [r7, #20]
 6056 06a2 1978     		ldrb	r1, [r3]
 6057 06a4 7B69     		ldr	r3, [r7, #20]
 6058 06a6 1A69     		ldr	r2, [r3, #16]
 6059 06a8 7B69     		ldr	r3, [r7, #20]
 6060 06aa 5B69     		ldr	r3, [r3, #20]
 6061 06ac 7868     		ldr	r0, [r7, #4]
 6062 06ae FFF7FEFF 		bl	HAL_PCD_EP_Transmit
 6063              	.L192:
1178:Drivers/STM32F0xx_HAL_Driver/Src/stm32f0xx_hal_pcd.c ****   {
 6064              		.loc 1 1178 0
 6065 06b2 7B68     		ldr	r3, [r7, #4]
 6066 06b4 1B68     		ldr	r3, [r3]
 6067 06b6 4422     		movs	r2, #68
 6068 06b8 9B5A     		ldrh	r3, [r3, r2]
 6069 06ba 9AB2     		uxth	r2, r3
 6070 06bc 0E23     		movs	r3, #14
 6071 06be FB18     		adds	r3, r7, r3
 6072 06c0 111C     		adds	r1, r2, #0
 6073 06c2 1980     		strh	r1, [r3]
 6074 06c4 13B2     		sxth	r3, r2
 6075 06c6 002B     		cmp	r3, #0
 6076 06c8 00DA     		bge	.LCB5682
 6077 06ca A6E4     		b	.L219	@long jump
 6078              	.LCB5682:
1364:Drivers/STM32F0xx_HAL_Driver/Src/stm32f0xx_hal_pcd.c ****         }
1365:Drivers/STM32F0xx_HAL_Driver/Src/stm32f0xx_hal_pcd.c ****       } 
1366:Drivers/STM32F0xx_HAL_Driver/Src/stm32f0xx_hal_pcd.c ****     }
1367:Drivers/STM32F0xx_HAL_Driver/Src/stm32f0xx_hal_pcd.c ****   }
1368:Drivers/STM32F0xx_HAL_Driver/Src/stm32f0xx_hal_pcd.c ****   return HAL_OK;
 6079              		.loc 1 1368 0
 6080 06cc 0023     		movs	r3, #0
1369:Drivers/STM32F0xx_HAL_Driver/Src/stm32f0xx_hal_pcd.c **** }
 6081              		.loc 1 1369 0
 6082 06ce 1800     		movs	r0, r3
 6083 06d0 BD46     		mov	sp, r7
 6084 06d2 09B0     		add	sp, sp, #36
 6085              		@ sp needed
 6086 06d4 90BD     		pop	{r4, r7, pc}
 6087              	.L226:
 6088 06d6 C046     		.align	2
 6089              	.L225:
 6090 06d8 02040000 		.word	1026
 6091 06dc 06040000 		.word	1030
 6092 06e0 0F0F0000 		.word	3855
ARM GAS  /tmp/cczZJmfg.s 			page 131


 6093 06e4 C080FFFF 		.word	-32576
 6094 06e8 0F8FFFFF 		.word	-28913
 6095 06ec 80C0FFFF 		.word	-16256
 6096              		.cfi_endproc
 6097              	.LFE69:
 6099              		.text
 6100              	.Letext0:
 6101              		.file 2 "/usr/arm-none-eabi/include/machine/_default_types.h"
 6102              		.file 3 "/usr/arm-none-eabi/include/sys/_stdint.h"
 6103              		.file 4 "Drivers/CMSIS/Device/ST/STM32F0xx/Include/system_stm32f0xx.h"
 6104              		.file 5 "Drivers/CMSIS/Device/ST/STM32F0xx/Include/stm32f072xb.h"
 6105              		.file 6 "/usr/arm-none-eabi/include/sys/lock.h"
 6106              		.file 7 "/usr/arm-none-eabi/include/sys/_types.h"
 6107              		.file 8 "/usr/lib/gcc/arm-none-eabi/6.2.0/include/stddef.h"
 6108              		.file 9 "/usr/arm-none-eabi/include/sys/reent.h"
 6109              		.file 10 "Drivers/STM32F0xx_HAL_Driver/Inc/stm32f0xx_hal_def.h"
 6110              		.file 11 "Drivers/STM32F0xx_HAL_Driver/Inc/stm32f0xx_hal_pcd.h"
ARM GAS  /tmp/cczZJmfg.s 			page 132


DEFINED SYMBOLS
                            *ABS*:0000000000000000 stm32f0xx_hal_pcd.c
     /tmp/cczZJmfg.s:16     .text.HAL_PCD_Init:0000000000000000 $t
     /tmp/cczZJmfg.s:23     .text.HAL_PCD_Init:0000000000000000 HAL_PCD_Init
     /tmp/cczZJmfg.s:395    .text.HAL_PCD_MspInit:0000000000000000 HAL_PCD_MspInit
     /tmp/cczZJmfg.s:324    .text.HAL_PCD_DeInit:0000000000000000 $t
     /tmp/cczZJmfg.s:331    .text.HAL_PCD_DeInit:0000000000000000 HAL_PCD_DeInit
     /tmp/cczZJmfg.s:513    .text.HAL_PCD_Stop:0000000000000000 HAL_PCD_Stop
     /tmp/cczZJmfg.s:428    .text.HAL_PCD_MspDeInit:0000000000000000 HAL_PCD_MspDeInit
     /tmp/cczZJmfg.s:388    .text.HAL_PCD_MspInit:0000000000000000 $t
     /tmp/cczZJmfg.s:421    .text.HAL_PCD_MspDeInit:0000000000000000 $t
     /tmp/cczZJmfg.s:454    .text.HAL_PCD_Start:0000000000000000 $t
     /tmp/cczZJmfg.s:461    .text.HAL_PCD_Start:0000000000000000 HAL_PCD_Start
     /tmp/cczZJmfg.s:501    .text.HAL_PCD_Start:000000000000002c $d
     /tmp/cczZJmfg.s:506    .text.HAL_PCD_Stop:0000000000000000 $t
     /tmp/cczZJmfg.s:583    .text.HAL_PCD_IRQHandler:0000000000000000 $t
     /tmp/cczZJmfg.s:590    .text.HAL_PCD_IRQHandler:0000000000000000 HAL_PCD_IRQHandler
     /tmp/cczZJmfg.s:5099   .text.PCD_EP_ISR_Handler:0000000000000000 PCD_EP_ISR_Handler
     /tmp/cczZJmfg.s:1074   .text.HAL_PCD_ResetCallback:0000000000000000 HAL_PCD_ResetCallback
     /tmp/cczZJmfg.s:1459   .text.HAL_PCD_SetAddress:0000000000000000 HAL_PCD_SetAddress
     /tmp/cczZJmfg.s:1140   .text.HAL_PCD_ResumeCallback:0000000000000000 HAL_PCD_ResumeCallback
     /tmp/cczZJmfg.s:1107   .text.HAL_PCD_SuspendCallback:0000000000000000 HAL_PCD_SuspendCallback
     /tmp/cczZJmfg.s:1041   .text.HAL_PCD_SOFCallback:0000000000000000 HAL_PCD_SOFCallback
     /tmp/cczZJmfg.s:918    .text.HAL_PCD_IRQHandler:0000000000000234 $d
     /tmp/cczZJmfg.s:929    .text.HAL_PCD_DataOutStageCallback:0000000000000000 $t
     /tmp/cczZJmfg.s:936    .text.HAL_PCD_DataOutStageCallback:0000000000000000 HAL_PCD_DataOutStageCallback
     /tmp/cczZJmfg.s:965    .text.HAL_PCD_DataInStageCallback:0000000000000000 $t
     /tmp/cczZJmfg.s:972    .text.HAL_PCD_DataInStageCallback:0000000000000000 HAL_PCD_DataInStageCallback
     /tmp/cczZJmfg.s:1001   .text.HAL_PCD_SetupStageCallback:0000000000000000 $t
     /tmp/cczZJmfg.s:1008   .text.HAL_PCD_SetupStageCallback:0000000000000000 HAL_PCD_SetupStageCallback
     /tmp/cczZJmfg.s:1034   .text.HAL_PCD_SOFCallback:0000000000000000 $t
     /tmp/cczZJmfg.s:1067   .text.HAL_PCD_ResetCallback:0000000000000000 $t
     /tmp/cczZJmfg.s:1100   .text.HAL_PCD_SuspendCallback:0000000000000000 $t
     /tmp/cczZJmfg.s:1133   .text.HAL_PCD_ResumeCallback:0000000000000000 $t
     /tmp/cczZJmfg.s:1166   .text.HAL_PCD_ISOOUTIncompleteCallback:0000000000000000 $t
     /tmp/cczZJmfg.s:1173   .text.HAL_PCD_ISOOUTIncompleteCallback:0000000000000000 HAL_PCD_ISOOUTIncompleteCallback
     /tmp/cczZJmfg.s:1202   .text.HAL_PCD_ISOINIncompleteCallback:0000000000000000 $t
     /tmp/cczZJmfg.s:1209   .text.HAL_PCD_ISOINIncompleteCallback:0000000000000000 HAL_PCD_ISOINIncompleteCallback
     /tmp/cczZJmfg.s:1238   .text.HAL_PCD_ConnectCallback:0000000000000000 $t
     /tmp/cczZJmfg.s:1245   .text.HAL_PCD_ConnectCallback:0000000000000000 HAL_PCD_ConnectCallback
     /tmp/cczZJmfg.s:1271   .text.HAL_PCD_DisconnectCallback:0000000000000000 $t
     /tmp/cczZJmfg.s:1278   .text.HAL_PCD_DisconnectCallback:0000000000000000 HAL_PCD_DisconnectCallback
     /tmp/cczZJmfg.s:1304   .text.HAL_PCD_DevConnect:0000000000000000 $t
     /tmp/cczZJmfg.s:1311   .text.HAL_PCD_DevConnect:0000000000000000 HAL_PCD_DevConnect
     /tmp/cczZJmfg.s:1375   .text.HAL_PCD_DevConnect:0000000000000050 $d
     /tmp/cczZJmfg.s:1380   .text.HAL_PCD_DevDisconnect:0000000000000000 $t
     /tmp/cczZJmfg.s:1387   .text.HAL_PCD_DevDisconnect:0000000000000000 HAL_PCD_DevDisconnect
     /tmp/cczZJmfg.s:1452   .text.HAL_PCD_SetAddress:0000000000000000 $t
     /tmp/cczZJmfg.s:1534   .text.HAL_PCD_EP_Open:0000000000000000 $t
     /tmp/cczZJmfg.s:1541   .text.HAL_PCD_EP_Open:0000000000000000 HAL_PCD_EP_Open
     /tmp/cczZJmfg.s:2104   .text.HAL_PCD_EP_Open:00000000000003c4 $d
     /tmp/cczZJmfg.s:2117   .text.HAL_PCD_EP_Open:00000000000003ec $t
     /tmp/cczZJmfg.s:2525   .text.HAL_PCD_EP_Open:00000000000006d0 $d
     /tmp/cczZJmfg.s:2538   .text.HAL_PCD_EP_Close:0000000000000000 $t
     /tmp/cczZJmfg.s:2545   .text.HAL_PCD_EP_Close:0000000000000000 HAL_PCD_EP_Close
     /tmp/cczZJmfg.s:3101   .text.HAL_PCD_EP_Close:00000000000003bc $d
     /tmp/cczZJmfg.s:3111   .text.HAL_PCD_EP_Receive:0000000000000000 $t
ARM GAS  /tmp/cczZJmfg.s 			page 133


     /tmp/cczZJmfg.s:3118   .text.HAL_PCD_EP_Receive:0000000000000000 HAL_PCD_EP_Receive
     /tmp/cczZJmfg.s:3608   .text.HAL_PCD_EP_Receive:0000000000000318 $d
     /tmp/cczZJmfg.s:3617   .text.HAL_PCD_EP_GetRxCount:0000000000000000 $t
     /tmp/cczZJmfg.s:3624   .text.HAL_PCD_EP_GetRxCount:0000000000000000 HAL_PCD_EP_GetRxCount
     /tmp/cczZJmfg.s:3669   .text.HAL_PCD_EP_Transmit:0000000000000000 $t
     /tmp/cczZJmfg.s:3676   .text.HAL_PCD_EP_Transmit:0000000000000000 HAL_PCD_EP_Transmit
     /tmp/cczZJmfg.s:4912   .text.PCD_WritePMA:0000000000000000 PCD_WritePMA
     /tmp/cczZJmfg.s:4213   .text.HAL_PCD_EP_Transmit:0000000000000378 $d
     /tmp/cczZJmfg.s:4225   .text.HAL_PCD_EP_SetStall:0000000000000000 $t
     /tmp/cczZJmfg.s:4232   .text.HAL_PCD_EP_SetStall:0000000000000000 HAL_PCD_EP_SetStall
     /tmp/cczZJmfg.s:4449   .text.HAL_PCD_EP_SetStall:0000000000000154 $d
     /tmp/cczZJmfg.s:4457   .text.HAL_PCD_EP_ClrStall:0000000000000000 $t
     /tmp/cczZJmfg.s:4464   .text.HAL_PCD_EP_ClrStall:0000000000000000 HAL_PCD_EP_ClrStall
     /tmp/cczZJmfg.s:4722   .text.HAL_PCD_EP_ClrStall:00000000000001a4 $d
     /tmp/cczZJmfg.s:4732   .text.HAL_PCD_EP_Flush:0000000000000000 $t
     /tmp/cczZJmfg.s:4739   .text.HAL_PCD_EP_Flush:0000000000000000 HAL_PCD_EP_Flush
     /tmp/cczZJmfg.s:4770   .text.HAL_PCD_ActivateRemoteWakeup:0000000000000000 $t
     /tmp/cczZJmfg.s:4777   .text.HAL_PCD_ActivateRemoteWakeup:0000000000000000 HAL_PCD_ActivateRemoteWakeup
     /tmp/cczZJmfg.s:4818   .text.HAL_PCD_DeActivateRemoteWakeup:0000000000000000 $t
     /tmp/cczZJmfg.s:4825   .text.HAL_PCD_DeActivateRemoteWakeup:0000000000000000 HAL_PCD_DeActivateRemoteWakeup
     /tmp/cczZJmfg.s:4866   .text.HAL_PCD_GetState:0000000000000000 $t
     /tmp/cczZJmfg.s:4873   .text.HAL_PCD_GetState:0000000000000000 HAL_PCD_GetState
     /tmp/cczZJmfg.s:4905   .text.PCD_WritePMA:0000000000000000 $t
     /tmp/cczZJmfg.s:5010   .text.PCD_ReadPMA:0000000000000000 $t
     /tmp/cczZJmfg.s:5017   .text.PCD_ReadPMA:0000000000000000 PCD_ReadPMA
     /tmp/cczZJmfg.s:5093   .text.PCD_EP_ISR_Handler:0000000000000000 $t
     /tmp/cczZJmfg.s:5616   .text.PCD_EP_ISR_Handler:0000000000000374 $d
     /tmp/cczZJmfg.s:5625   .text.PCD_EP_ISR_Handler:0000000000000390 $t
     /tmp/cczZJmfg.s:6090   .text.PCD_EP_ISR_Handler:00000000000006d8 $d
                     .debug_frame:0000000000000010 $d

NO UNDEFINED SYMBOLS
