ARM GAS  /tmp/cct1Lg5Q.s 			page 1


   1              		.cpu cortex-m0
   2              		.eabi_attribute 20, 1
   3              		.eabi_attribute 21, 1
   4              		.eabi_attribute 23, 3
   5              		.eabi_attribute 24, 1
   6              		.eabi_attribute 25, 1
   7              		.eabi_attribute 26, 1
   8              		.eabi_attribute 30, 6
   9              		.eabi_attribute 34, 0
  10              		.eabi_attribute 18, 4
  11              		.file	"stm32f0xx_hal_tim_ex.c"
  12              		.text
  13              	.Ltext0:
  14              		.cfi_sections	.debug_frame
  15              		.section	.text.HAL_TIMEx_HallSensor_Init,"ax",%progbits
  16              		.align	1
  17              		.global	HAL_TIMEx_HallSensor_Init
  18              		.syntax unified
  19              		.code	16
  20              		.thumb_func
  21              		.fpu softvfp
  23              	HAL_TIMEx_HallSensor_Init:
  24              	.LFB35:
  25              		.file 1 "Drivers/STM32F0xx_HAL_Driver/Src/stm32f0xx_hal_tim_ex.c"
   1:Drivers/STM32F0xx_HAL_Driver/Src/stm32f0xx_hal_tim_ex.c **** /**
   2:Drivers/STM32F0xx_HAL_Driver/Src/stm32f0xx_hal_tim_ex.c ****   ******************************************************************************
   3:Drivers/STM32F0xx_HAL_Driver/Src/stm32f0xx_hal_tim_ex.c ****   * @file    stm32f0xx_hal_tim_ex.c
   4:Drivers/STM32F0xx_HAL_Driver/Src/stm32f0xx_hal_tim_ex.c ****   * @author  MCD Application Team
   5:Drivers/STM32F0xx_HAL_Driver/Src/stm32f0xx_hal_tim_ex.c ****   * @version V1.4.0
   6:Drivers/STM32F0xx_HAL_Driver/Src/stm32f0xx_hal_tim_ex.c ****   * @date    27-May-2016
   7:Drivers/STM32F0xx_HAL_Driver/Src/stm32f0xx_hal_tim_ex.c ****   * @brief   TIM HAL module driver.
   8:Drivers/STM32F0xx_HAL_Driver/Src/stm32f0xx_hal_tim_ex.c ****   *          This file provides firmware functions to manage the following 
   9:Drivers/STM32F0xx_HAL_Driver/Src/stm32f0xx_hal_tim_ex.c ****   *          functionalities of the Timer Extended peripheral:
  10:Drivers/STM32F0xx_HAL_Driver/Src/stm32f0xx_hal_tim_ex.c ****   *           + Time Hall Sensor Interface Initialization
  11:Drivers/STM32F0xx_HAL_Driver/Src/stm32f0xx_hal_tim_ex.c ****   *           + Time Hall Sensor Interface Start
  12:Drivers/STM32F0xx_HAL_Driver/Src/stm32f0xx_hal_tim_ex.c ****   *           + Time Complementary signal bread and dead time configuration 
  13:Drivers/STM32F0xx_HAL_Driver/Src/stm32f0xx_hal_tim_ex.c ****   *           + Time Master and Slave synchronization configuration
  14:Drivers/STM32F0xx_HAL_Driver/Src/stm32f0xx_hal_tim_ex.c ****   *           + Timer remapping capabilities configuration
  15:Drivers/STM32F0xx_HAL_Driver/Src/stm32f0xx_hal_tim_ex.c ****   @verbatim
  16:Drivers/STM32F0xx_HAL_Driver/Src/stm32f0xx_hal_tim_ex.c ****   ==============================================================================
  17:Drivers/STM32F0xx_HAL_Driver/Src/stm32f0xx_hal_tim_ex.c ****                       ##### TIMER Extended features #####
  18:Drivers/STM32F0xx_HAL_Driver/Src/stm32f0xx_hal_tim_ex.c ****   ==============================================================================
  19:Drivers/STM32F0xx_HAL_Driver/Src/stm32f0xx_hal_tim_ex.c ****   [..]
  20:Drivers/STM32F0xx_HAL_Driver/Src/stm32f0xx_hal_tim_ex.c ****     The Timer Extended features include:
  21:Drivers/STM32F0xx_HAL_Driver/Src/stm32f0xx_hal_tim_ex.c ****     (#) Complementary outputs with programmable dead-time for :
  22:Drivers/STM32F0xx_HAL_Driver/Src/stm32f0xx_hal_tim_ex.c ****         (++) Output Compare
  23:Drivers/STM32F0xx_HAL_Driver/Src/stm32f0xx_hal_tim_ex.c ****         (++) PWM generation (Edge and Center-aligned Mode)
  24:Drivers/STM32F0xx_HAL_Driver/Src/stm32f0xx_hal_tim_ex.c ****         (++) One-pulse mode output
  25:Drivers/STM32F0xx_HAL_Driver/Src/stm32f0xx_hal_tim_ex.c ****     (#) Synchronization circuit to control the timer with external signals and to 
  26:Drivers/STM32F0xx_HAL_Driver/Src/stm32f0xx_hal_tim_ex.c ****         interconnect several timers together.
  27:Drivers/STM32F0xx_HAL_Driver/Src/stm32f0xx_hal_tim_ex.c ****     (#) Break input to put the timer output signals in reset state or in a known state.
  28:Drivers/STM32F0xx_HAL_Driver/Src/stm32f0xx_hal_tim_ex.c ****     (#) Supports incremental (quadrature) encoder and hall-sensor circuitry for 
  29:Drivers/STM32F0xx_HAL_Driver/Src/stm32f0xx_hal_tim_ex.c ****         positioning purposes
  30:Drivers/STM32F0xx_HAL_Driver/Src/stm32f0xx_hal_tim_ex.c **** 
  31:Drivers/STM32F0xx_HAL_Driver/Src/stm32f0xx_hal_tim_ex.c ****             ##### How to use this driver #####
  32:Drivers/STM32F0xx_HAL_Driver/Src/stm32f0xx_hal_tim_ex.c ****   ==============================================================================
  33:Drivers/STM32F0xx_HAL_Driver/Src/stm32f0xx_hal_tim_ex.c ****     [..]
ARM GAS  /tmp/cct1Lg5Q.s 			page 2


  34:Drivers/STM32F0xx_HAL_Driver/Src/stm32f0xx_hal_tim_ex.c ****      (#) Initialize the TIM low level resources by implementing the following functions 
  35:Drivers/STM32F0xx_HAL_Driver/Src/stm32f0xx_hal_tim_ex.c ****          depending from feature used :
  36:Drivers/STM32F0xx_HAL_Driver/Src/stm32f0xx_hal_tim_ex.c ****            (++) Complementary Output Compare : HAL_TIM_OC_MspInit()
  37:Drivers/STM32F0xx_HAL_Driver/Src/stm32f0xx_hal_tim_ex.c ****            (++) Complementary PWM generation : HAL_TIM_PWM_MspInit()
  38:Drivers/STM32F0xx_HAL_Driver/Src/stm32f0xx_hal_tim_ex.c ****            (++) Complementary One-pulse mode output : HAL_TIM_OnePulse_MspInit()
  39:Drivers/STM32F0xx_HAL_Driver/Src/stm32f0xx_hal_tim_ex.c ****            (++) Hall Sensor output : HAL_TIM_HallSensor_MspInit()
  40:Drivers/STM32F0xx_HAL_Driver/Src/stm32f0xx_hal_tim_ex.c **** 
  41:Drivers/STM32F0xx_HAL_Driver/Src/stm32f0xx_hal_tim_ex.c ****      (#) Initialize the TIM low level resources :
  42:Drivers/STM32F0xx_HAL_Driver/Src/stm32f0xx_hal_tim_ex.c ****         (##) Enable the TIM interface clock using __HAL_RCC_TIMx_CLK_ENABLE();
  43:Drivers/STM32F0xx_HAL_Driver/Src/stm32f0xx_hal_tim_ex.c ****         (##) TIM pins configuration
  44:Drivers/STM32F0xx_HAL_Driver/Src/stm32f0xx_hal_tim_ex.c ****             (+++) Enable the clock for the TIM GPIOs using the following function:
  45:Drivers/STM32F0xx_HAL_Driver/Src/stm32f0xx_hal_tim_ex.c ****               __HAL_RCC_GPIOx_CLK_ENABLE();
  46:Drivers/STM32F0xx_HAL_Driver/Src/stm32f0xx_hal_tim_ex.c ****             (+++) Configure these TIM pins in Alternate function mode using HAL_GPIO_Init();
  47:Drivers/STM32F0xx_HAL_Driver/Src/stm32f0xx_hal_tim_ex.c **** 
  48:Drivers/STM32F0xx_HAL_Driver/Src/stm32f0xx_hal_tim_ex.c ****      (#) The external Clock can be configured, if needed (the default clock is the 
  49:Drivers/STM32F0xx_HAL_Driver/Src/stm32f0xx_hal_tim_ex.c ****          internal clock from the APBx), using the following function:
  50:Drivers/STM32F0xx_HAL_Driver/Src/stm32f0xx_hal_tim_ex.c ****          HAL_TIM_ConfigClockSource, the clock configuration should be done before 
  51:Drivers/STM32F0xx_HAL_Driver/Src/stm32f0xx_hal_tim_ex.c ****          any start function.
  52:Drivers/STM32F0xx_HAL_Driver/Src/stm32f0xx_hal_tim_ex.c **** 
  53:Drivers/STM32F0xx_HAL_Driver/Src/stm32f0xx_hal_tim_ex.c ****      (#) Configure the TIM in the desired functioning mode using one of the 
  54:Drivers/STM32F0xx_HAL_Driver/Src/stm32f0xx_hal_tim_ex.c ****          initialization function of this driver:
  55:Drivers/STM32F0xx_HAL_Driver/Src/stm32f0xx_hal_tim_ex.c ****           (++) HAL_TIMEx_HallSensor_Init and HAL_TIMEx_ConfigCommutationEvent: to use the 
  56:Drivers/STM32F0xx_HAL_Driver/Src/stm32f0xx_hal_tim_ex.c ****               Timer Hall Sensor Interface and the commutation event with the corresponding 
  57:Drivers/STM32F0xx_HAL_Driver/Src/stm32f0xx_hal_tim_ex.c ****               Interrupt and DMA request if needed (Note that One Timer is used to interface 
  58:Drivers/STM32F0xx_HAL_Driver/Src/stm32f0xx_hal_tim_ex.c ****              with the Hall sensor Interface and another Timer should be used to use 
  59:Drivers/STM32F0xx_HAL_Driver/Src/stm32f0xx_hal_tim_ex.c ****              the commutation event).
  60:Drivers/STM32F0xx_HAL_Driver/Src/stm32f0xx_hal_tim_ex.c **** 
  61:Drivers/STM32F0xx_HAL_Driver/Src/stm32f0xx_hal_tim_ex.c ****      (#) Activate the TIM peripheral using one of the start functions:
  62:Drivers/STM32F0xx_HAL_Driver/Src/stm32f0xx_hal_tim_ex.c ****            (++) Complementary Output Compare : HAL_TIMEx_OCN_Start(), HAL_TIMEx_OCN_Start_DMA(), HA
  63:Drivers/STM32F0xx_HAL_Driver/Src/stm32f0xx_hal_tim_ex.c ****            (++) Complementary PWM generation : HAL_TIMEx_PWMN_Start(), HAL_TIMEx_PWMN_Start_DMA(), 
  64:Drivers/STM32F0xx_HAL_Driver/Src/stm32f0xx_hal_tim_ex.c ****            (++) Complementary One-pulse mode output : HAL_TIMEx_OnePulseN_Start(), HAL_TIMEx_OnePul
  65:Drivers/STM32F0xx_HAL_Driver/Src/stm32f0xx_hal_tim_ex.c ****            (++) Hall Sensor output : HAL_TIMEx_HallSensor_Start(), HAL_TIMEx_HallSensor_Start_DMA()
  66:Drivers/STM32F0xx_HAL_Driver/Src/stm32f0xx_hal_tim_ex.c **** 
  67:Drivers/STM32F0xx_HAL_Driver/Src/stm32f0xx_hal_tim_ex.c **** 
  68:Drivers/STM32F0xx_HAL_Driver/Src/stm32f0xx_hal_tim_ex.c ****   @endverbatim
  69:Drivers/STM32F0xx_HAL_Driver/Src/stm32f0xx_hal_tim_ex.c ****   ******************************************************************************
  70:Drivers/STM32F0xx_HAL_Driver/Src/stm32f0xx_hal_tim_ex.c ****   * @attention
  71:Drivers/STM32F0xx_HAL_Driver/Src/stm32f0xx_hal_tim_ex.c ****   *
  72:Drivers/STM32F0xx_HAL_Driver/Src/stm32f0xx_hal_tim_ex.c ****   * <h2><center>&copy; COPYRIGHT(c) 2016 STMicroelectronics</center></h2>
  73:Drivers/STM32F0xx_HAL_Driver/Src/stm32f0xx_hal_tim_ex.c ****   *
  74:Drivers/STM32F0xx_HAL_Driver/Src/stm32f0xx_hal_tim_ex.c ****   * Redistribution and use in source and binary forms, with or without modification,
  75:Drivers/STM32F0xx_HAL_Driver/Src/stm32f0xx_hal_tim_ex.c ****   * are permitted provided that the following conditions are met:
  76:Drivers/STM32F0xx_HAL_Driver/Src/stm32f0xx_hal_tim_ex.c ****   *   1. Redistributions of source code must retain the above copyright notice,
  77:Drivers/STM32F0xx_HAL_Driver/Src/stm32f0xx_hal_tim_ex.c ****   *      this list of conditions and the following disclaimer.
  78:Drivers/STM32F0xx_HAL_Driver/Src/stm32f0xx_hal_tim_ex.c ****   *   2. Redistributions in binary form must reproduce the above copyright notice,
  79:Drivers/STM32F0xx_HAL_Driver/Src/stm32f0xx_hal_tim_ex.c ****   *      this list of conditions and the following disclaimer in the documentation
  80:Drivers/STM32F0xx_HAL_Driver/Src/stm32f0xx_hal_tim_ex.c ****   *      and/or other materials provided with the distribution.
  81:Drivers/STM32F0xx_HAL_Driver/Src/stm32f0xx_hal_tim_ex.c ****   *   3. Neither the name of STMicroelectronics nor the names of its contributors
  82:Drivers/STM32F0xx_HAL_Driver/Src/stm32f0xx_hal_tim_ex.c ****   *      may be used to endorse or promote products derived from this software
  83:Drivers/STM32F0xx_HAL_Driver/Src/stm32f0xx_hal_tim_ex.c ****   *      without specific prior written permission.
  84:Drivers/STM32F0xx_HAL_Driver/Src/stm32f0xx_hal_tim_ex.c ****   *
  85:Drivers/STM32F0xx_HAL_Driver/Src/stm32f0xx_hal_tim_ex.c ****   * THIS SOFTWARE IS PROVIDED BY THE COPYRIGHT HOLDERS AND CONTRIBUTORS "AS IS"
  86:Drivers/STM32F0xx_HAL_Driver/Src/stm32f0xx_hal_tim_ex.c ****   * AND ANY EXPRESS OR IMPLIED WARRANTIES, INCLUDING, BUT NOT LIMITED TO, THE
  87:Drivers/STM32F0xx_HAL_Driver/Src/stm32f0xx_hal_tim_ex.c ****   * IMPLIED WARRANTIES OF MERCHANTABILITY AND FITNESS FOR A PARTICULAR PURPOSE ARE
  88:Drivers/STM32F0xx_HAL_Driver/Src/stm32f0xx_hal_tim_ex.c ****   * DISCLAIMED. IN NO EVENT SHALL THE COPYRIGHT HOLDER OR CONTRIBUTORS BE LIABLE
  89:Drivers/STM32F0xx_HAL_Driver/Src/stm32f0xx_hal_tim_ex.c ****   * FOR ANY DIRECT, INDIRECT, INCIDENTAL, SPECIAL, EXEMPLARY, OR CONSEQUENTIAL
  90:Drivers/STM32F0xx_HAL_Driver/Src/stm32f0xx_hal_tim_ex.c ****   * DAMAGES (INCLUDING, BUT NOT LIMITED TO, PROCUREMENT OF SUBSTITUTE GOODS OR
ARM GAS  /tmp/cct1Lg5Q.s 			page 3


  91:Drivers/STM32F0xx_HAL_Driver/Src/stm32f0xx_hal_tim_ex.c ****   * SERVICES; LOSS OF USE, DATA, OR PROFITS; OR BUSINESS INTERRUPTION) HOWEVER
  92:Drivers/STM32F0xx_HAL_Driver/Src/stm32f0xx_hal_tim_ex.c ****   * CAUSED AND ON ANY THEORY OF LIABILITY, WHETHER IN CONTRACT, STRICT LIABILITY,
  93:Drivers/STM32F0xx_HAL_Driver/Src/stm32f0xx_hal_tim_ex.c ****   * OR TORT (INCLUDING NEGLIGENCE OR OTHERWISE) ARISING IN ANY WAY OUT OF THE USE
  94:Drivers/STM32F0xx_HAL_Driver/Src/stm32f0xx_hal_tim_ex.c ****   * OF THIS SOFTWARE, EVEN IF ADVISED OF THE POSSIBILITY OF SUCH DAMAGE.
  95:Drivers/STM32F0xx_HAL_Driver/Src/stm32f0xx_hal_tim_ex.c ****   *
  96:Drivers/STM32F0xx_HAL_Driver/Src/stm32f0xx_hal_tim_ex.c ****   ******************************************************************************
  97:Drivers/STM32F0xx_HAL_Driver/Src/stm32f0xx_hal_tim_ex.c **** */
  98:Drivers/STM32F0xx_HAL_Driver/Src/stm32f0xx_hal_tim_ex.c **** 
  99:Drivers/STM32F0xx_HAL_Driver/Src/stm32f0xx_hal_tim_ex.c **** /* Includes ------------------------------------------------------------------*/
 100:Drivers/STM32F0xx_HAL_Driver/Src/stm32f0xx_hal_tim_ex.c **** #include "stm32f0xx_hal.h"
 101:Drivers/STM32F0xx_HAL_Driver/Src/stm32f0xx_hal_tim_ex.c **** 
 102:Drivers/STM32F0xx_HAL_Driver/Src/stm32f0xx_hal_tim_ex.c **** /** @addtogroup STM32F0xx_HAL_Driver
 103:Drivers/STM32F0xx_HAL_Driver/Src/stm32f0xx_hal_tim_ex.c ****   * @{
 104:Drivers/STM32F0xx_HAL_Driver/Src/stm32f0xx_hal_tim_ex.c ****   */
 105:Drivers/STM32F0xx_HAL_Driver/Src/stm32f0xx_hal_tim_ex.c **** 
 106:Drivers/STM32F0xx_HAL_Driver/Src/stm32f0xx_hal_tim_ex.c **** /** @defgroup TIMEx TIMEx
 107:Drivers/STM32F0xx_HAL_Driver/Src/stm32f0xx_hal_tim_ex.c ****   * @brief TIM Extended HAL module driver
 108:Drivers/STM32F0xx_HAL_Driver/Src/stm32f0xx_hal_tim_ex.c ****   * @{
 109:Drivers/STM32F0xx_HAL_Driver/Src/stm32f0xx_hal_tim_ex.c ****   */
 110:Drivers/STM32F0xx_HAL_Driver/Src/stm32f0xx_hal_tim_ex.c **** 
 111:Drivers/STM32F0xx_HAL_Driver/Src/stm32f0xx_hal_tim_ex.c **** #ifdef HAL_TIM_MODULE_ENABLED
 112:Drivers/STM32F0xx_HAL_Driver/Src/stm32f0xx_hal_tim_ex.c **** 
 113:Drivers/STM32F0xx_HAL_Driver/Src/stm32f0xx_hal_tim_ex.c **** /* Private typedef -----------------------------------------------------------*/
 114:Drivers/STM32F0xx_HAL_Driver/Src/stm32f0xx_hal_tim_ex.c **** /* Private define ------------------------------------------------------------*/
 115:Drivers/STM32F0xx_HAL_Driver/Src/stm32f0xx_hal_tim_ex.c **** /* Private macro -------------------------------------------------------------*/
 116:Drivers/STM32F0xx_HAL_Driver/Src/stm32f0xx_hal_tim_ex.c **** /* Private variables ---------------------------------------------------------*/
 117:Drivers/STM32F0xx_HAL_Driver/Src/stm32f0xx_hal_tim_ex.c **** /* Private function prototypes -----------------------------------------------*/
 118:Drivers/STM32F0xx_HAL_Driver/Src/stm32f0xx_hal_tim_ex.c **** 
 119:Drivers/STM32F0xx_HAL_Driver/Src/stm32f0xx_hal_tim_ex.c **** /** @defgroup TIMEx_Private_Functions TIMEx Private Functions
 120:Drivers/STM32F0xx_HAL_Driver/Src/stm32f0xx_hal_tim_ex.c ****   * @{
 121:Drivers/STM32F0xx_HAL_Driver/Src/stm32f0xx_hal_tim_ex.c ****   */
 122:Drivers/STM32F0xx_HAL_Driver/Src/stm32f0xx_hal_tim_ex.c **** static void TIM_CCxNChannelCmd(TIM_TypeDef* TIMx, uint32_t Channel, uint32_t ChannelNState);
 123:Drivers/STM32F0xx_HAL_Driver/Src/stm32f0xx_hal_tim_ex.c **** /**
 124:Drivers/STM32F0xx_HAL_Driver/Src/stm32f0xx_hal_tim_ex.c ****   * @}
 125:Drivers/STM32F0xx_HAL_Driver/Src/stm32f0xx_hal_tim_ex.c ****   */
 126:Drivers/STM32F0xx_HAL_Driver/Src/stm32f0xx_hal_tim_ex.c **** 
 127:Drivers/STM32F0xx_HAL_Driver/Src/stm32f0xx_hal_tim_ex.c **** /* Exported functions ---------------------------------------------------------*/
 128:Drivers/STM32F0xx_HAL_Driver/Src/stm32f0xx_hal_tim_ex.c **** 
 129:Drivers/STM32F0xx_HAL_Driver/Src/stm32f0xx_hal_tim_ex.c **** /** @defgroup TIMEx_Exported_Functions TIMEx Exported Functions
 130:Drivers/STM32F0xx_HAL_Driver/Src/stm32f0xx_hal_tim_ex.c ****   * @{
 131:Drivers/STM32F0xx_HAL_Driver/Src/stm32f0xx_hal_tim_ex.c ****   */
 132:Drivers/STM32F0xx_HAL_Driver/Src/stm32f0xx_hal_tim_ex.c **** 
 133:Drivers/STM32F0xx_HAL_Driver/Src/stm32f0xx_hal_tim_ex.c **** /** @defgroup TIMEx_Exported_Functions_Group1 Timer Hall Sensor functions 
 134:Drivers/STM32F0xx_HAL_Driver/Src/stm32f0xx_hal_tim_ex.c ****  *  @brief    Timer Hall Sensor functions 
 135:Drivers/STM32F0xx_HAL_Driver/Src/stm32f0xx_hal_tim_ex.c ****  *
 136:Drivers/STM32F0xx_HAL_Driver/Src/stm32f0xx_hal_tim_ex.c **** @verbatim 
 137:Drivers/STM32F0xx_HAL_Driver/Src/stm32f0xx_hal_tim_ex.c ****   ==============================================================================
 138:Drivers/STM32F0xx_HAL_Driver/Src/stm32f0xx_hal_tim_ex.c ****                       ##### Timer Hall Sensor functions #####
 139:Drivers/STM32F0xx_HAL_Driver/Src/stm32f0xx_hal_tim_ex.c ****   ==============================================================================
 140:Drivers/STM32F0xx_HAL_Driver/Src/stm32f0xx_hal_tim_ex.c ****   [..]
 141:Drivers/STM32F0xx_HAL_Driver/Src/stm32f0xx_hal_tim_ex.c ****     This section provides functions allowing to:
 142:Drivers/STM32F0xx_HAL_Driver/Src/stm32f0xx_hal_tim_ex.c ****     (+) Initialize and configure TIM HAL Sensor.
 143:Drivers/STM32F0xx_HAL_Driver/Src/stm32f0xx_hal_tim_ex.c ****     (+) De-initialize TIM HAL Sensor.
 144:Drivers/STM32F0xx_HAL_Driver/Src/stm32f0xx_hal_tim_ex.c ****     (+) Start the Hall Sensor Interface.
 145:Drivers/STM32F0xx_HAL_Driver/Src/stm32f0xx_hal_tim_ex.c ****     (+) Stop the Hall Sensor Interface.
 146:Drivers/STM32F0xx_HAL_Driver/Src/stm32f0xx_hal_tim_ex.c ****     (+) Start the Hall Sensor Interface and enable interrupts.
 147:Drivers/STM32F0xx_HAL_Driver/Src/stm32f0xx_hal_tim_ex.c ****     (+) Stop the Hall Sensor Interface and disable interrupts.
ARM GAS  /tmp/cct1Lg5Q.s 			page 4


 148:Drivers/STM32F0xx_HAL_Driver/Src/stm32f0xx_hal_tim_ex.c ****     (+) Start the Hall Sensor Interface and enable DMA transfers.
 149:Drivers/STM32F0xx_HAL_Driver/Src/stm32f0xx_hal_tim_ex.c ****     (+) Stop the Hall Sensor Interface and disable DMA transfers.
 150:Drivers/STM32F0xx_HAL_Driver/Src/stm32f0xx_hal_tim_ex.c **** 
 151:Drivers/STM32F0xx_HAL_Driver/Src/stm32f0xx_hal_tim_ex.c **** @endverbatim
 152:Drivers/STM32F0xx_HAL_Driver/Src/stm32f0xx_hal_tim_ex.c ****   * @{
 153:Drivers/STM32F0xx_HAL_Driver/Src/stm32f0xx_hal_tim_ex.c ****   */
 154:Drivers/STM32F0xx_HAL_Driver/Src/stm32f0xx_hal_tim_ex.c **** /**
 155:Drivers/STM32F0xx_HAL_Driver/Src/stm32f0xx_hal_tim_ex.c ****   * @brief  Initializes the TIM Hall Sensor Interface and create the associated handle.
 156:Drivers/STM32F0xx_HAL_Driver/Src/stm32f0xx_hal_tim_ex.c ****   * @param  htim : TIM Encoder Interface handle
 157:Drivers/STM32F0xx_HAL_Driver/Src/stm32f0xx_hal_tim_ex.c ****   * @param  sConfig : TIM Hall Sensor configuration structure
 158:Drivers/STM32F0xx_HAL_Driver/Src/stm32f0xx_hal_tim_ex.c ****   * @retval HAL status
 159:Drivers/STM32F0xx_HAL_Driver/Src/stm32f0xx_hal_tim_ex.c ****   */
 160:Drivers/STM32F0xx_HAL_Driver/Src/stm32f0xx_hal_tim_ex.c **** HAL_StatusTypeDef HAL_TIMEx_HallSensor_Init(TIM_HandleTypeDef *htim, TIM_HallSensor_InitTypeDef* sC
 161:Drivers/STM32F0xx_HAL_Driver/Src/stm32f0xx_hal_tim_ex.c **** {
  26              		.loc 1 161 0
  27              		.cfi_startproc
  28 0000 80B5     		push	{r7, lr}
  29              	.LCFI0:
  30              		.cfi_def_cfa_offset 8
  31              		.cfi_offset 7, -8
  32              		.cfi_offset 14, -4
  33 0002 8AB0     		sub	sp, sp, #40
  34              	.LCFI1:
  35              		.cfi_def_cfa_offset 48
  36 0004 00AF     		add	r7, sp, #0
  37              	.LCFI2:
  38              		.cfi_def_cfa_register 7
  39 0006 7860     		str	r0, [r7, #4]
  40 0008 3960     		str	r1, [r7]
 162:Drivers/STM32F0xx_HAL_Driver/Src/stm32f0xx_hal_tim_ex.c ****   TIM_OC_InitTypeDef OC_Config;
 163:Drivers/STM32F0xx_HAL_Driver/Src/stm32f0xx_hal_tim_ex.c **** 
 164:Drivers/STM32F0xx_HAL_Driver/Src/stm32f0xx_hal_tim_ex.c ****   /* Check the TIM handle allocation */
 165:Drivers/STM32F0xx_HAL_Driver/Src/stm32f0xx_hal_tim_ex.c ****   if(htim == NULL)
  41              		.loc 1 165 0
  42 000a 7B68     		ldr	r3, [r7, #4]
  43 000c 002B     		cmp	r3, #0
  44 000e 01D1     		bne	.L2
 166:Drivers/STM32F0xx_HAL_Driver/Src/stm32f0xx_hal_tim_ex.c ****   {
 167:Drivers/STM32F0xx_HAL_Driver/Src/stm32f0xx_hal_tim_ex.c ****     return HAL_ERROR;
  45              		.loc 1 167 0
  46 0010 0123     		movs	r3, #1
  47 0012 95E0     		b	.L5
  48              	.L2:
 168:Drivers/STM32F0xx_HAL_Driver/Src/stm32f0xx_hal_tim_ex.c ****   }
 169:Drivers/STM32F0xx_HAL_Driver/Src/stm32f0xx_hal_tim_ex.c **** 
 170:Drivers/STM32F0xx_HAL_Driver/Src/stm32f0xx_hal_tim_ex.c ****   assert_param(IS_TIM_HALL_INTERFACE_INSTANCE(htim->Instance));
 171:Drivers/STM32F0xx_HAL_Driver/Src/stm32f0xx_hal_tim_ex.c ****   assert_param(IS_TIM_COUNTER_MODE(htim->Init.CounterMode));
 172:Drivers/STM32F0xx_HAL_Driver/Src/stm32f0xx_hal_tim_ex.c ****   assert_param(IS_TIM_CLOCKDIVISION_DIV(htim->Init.ClockDivision));
 173:Drivers/STM32F0xx_HAL_Driver/Src/stm32f0xx_hal_tim_ex.c ****   assert_param(IS_TIM_IC_POLARITY(sConfig->IC1Polarity));
 174:Drivers/STM32F0xx_HAL_Driver/Src/stm32f0xx_hal_tim_ex.c ****   assert_param(IS_TIM_IC_PRESCALER(sConfig->IC1Prescaler));
 175:Drivers/STM32F0xx_HAL_Driver/Src/stm32f0xx_hal_tim_ex.c ****   assert_param(IS_TIM_IC_FILTER(sConfig->IC1Filter));
 176:Drivers/STM32F0xx_HAL_Driver/Src/stm32f0xx_hal_tim_ex.c **** 
 177:Drivers/STM32F0xx_HAL_Driver/Src/stm32f0xx_hal_tim_ex.c ****   if(htim->State == HAL_TIM_STATE_RESET)
  49              		.loc 1 177 0
  50 0014 7B68     		ldr	r3, [r7, #4]
  51 0016 3922     		movs	r2, #57
  52 0018 9B5C     		ldrb	r3, [r3, r2]
ARM GAS  /tmp/cct1Lg5Q.s 			page 5


  53 001a DBB2     		uxtb	r3, r3
  54 001c 002B     		cmp	r3, #0
  55 001e 07D1     		bne	.L4
 178:Drivers/STM32F0xx_HAL_Driver/Src/stm32f0xx_hal_tim_ex.c ****   {
 179:Drivers/STM32F0xx_HAL_Driver/Src/stm32f0xx_hal_tim_ex.c ****     /* Allocate lock resource and initialize it */
 180:Drivers/STM32F0xx_HAL_Driver/Src/stm32f0xx_hal_tim_ex.c ****     htim->Lock = HAL_UNLOCKED;
  56              		.loc 1 180 0
  57 0020 7B68     		ldr	r3, [r7, #4]
  58 0022 3822     		movs	r2, #56
  59 0024 0021     		movs	r1, #0
  60 0026 9954     		strb	r1, [r3, r2]
 181:Drivers/STM32F0xx_HAL_Driver/Src/stm32f0xx_hal_tim_ex.c **** 
 182:Drivers/STM32F0xx_HAL_Driver/Src/stm32f0xx_hal_tim_ex.c ****     /* Init the low level hardware : GPIO, CLOCK, NVIC and DMA */
 183:Drivers/STM32F0xx_HAL_Driver/Src/stm32f0xx_hal_tim_ex.c ****     HAL_TIMEx_HallSensor_MspInit(htim);
  61              		.loc 1 183 0
  62 0028 7B68     		ldr	r3, [r7, #4]
  63 002a 1800     		movs	r0, r3
  64 002c FFF7FEFF 		bl	HAL_TIMEx_HallSensor_MspInit
  65              	.L4:
 184:Drivers/STM32F0xx_HAL_Driver/Src/stm32f0xx_hal_tim_ex.c ****   }
 185:Drivers/STM32F0xx_HAL_Driver/Src/stm32f0xx_hal_tim_ex.c **** 
 186:Drivers/STM32F0xx_HAL_Driver/Src/stm32f0xx_hal_tim_ex.c ****   /* Set the TIM state */
 187:Drivers/STM32F0xx_HAL_Driver/Src/stm32f0xx_hal_tim_ex.c ****   htim->State= HAL_TIM_STATE_BUSY;
  66              		.loc 1 187 0
  67 0030 7B68     		ldr	r3, [r7, #4]
  68 0032 3922     		movs	r2, #57
  69 0034 0221     		movs	r1, #2
  70 0036 9954     		strb	r1, [r3, r2]
 188:Drivers/STM32F0xx_HAL_Driver/Src/stm32f0xx_hal_tim_ex.c **** 
 189:Drivers/STM32F0xx_HAL_Driver/Src/stm32f0xx_hal_tim_ex.c ****   /* Configure the Time base in the Encoder Mode */
 190:Drivers/STM32F0xx_HAL_Driver/Src/stm32f0xx_hal_tim_ex.c ****   TIM_Base_SetConfig(htim->Instance, &htim->Init);
  71              		.loc 1 190 0
  72 0038 7B68     		ldr	r3, [r7, #4]
  73 003a 1A68     		ldr	r2, [r3]
  74 003c 7B68     		ldr	r3, [r7, #4]
  75 003e 0433     		adds	r3, r3, #4
  76 0040 1900     		movs	r1, r3
  77 0042 1000     		movs	r0, r2
  78 0044 FFF7FEFF 		bl	TIM_Base_SetConfig
 191:Drivers/STM32F0xx_HAL_Driver/Src/stm32f0xx_hal_tim_ex.c **** 
 192:Drivers/STM32F0xx_HAL_Driver/Src/stm32f0xx_hal_tim_ex.c ****   /* Configure the Channel 1 as Input Channel to interface with the three Outputs of the  Hall sens
 193:Drivers/STM32F0xx_HAL_Driver/Src/stm32f0xx_hal_tim_ex.c ****   TIM_TI1_SetConfig(htim->Instance, sConfig->IC1Polarity, TIM_ICSELECTION_TRC, sConfig->IC1Filter);
  79              		.loc 1 193 0
  80 0048 7B68     		ldr	r3, [r7, #4]
  81 004a 1868     		ldr	r0, [r3]
  82 004c 3B68     		ldr	r3, [r7]
  83 004e 1968     		ldr	r1, [r3]
  84 0050 3B68     		ldr	r3, [r7]
  85 0052 9B68     		ldr	r3, [r3, #8]
  86 0054 0322     		movs	r2, #3
  87 0056 FFF7FEFF 		bl	TIM_TI1_SetConfig
 194:Drivers/STM32F0xx_HAL_Driver/Src/stm32f0xx_hal_tim_ex.c **** 
 195:Drivers/STM32F0xx_HAL_Driver/Src/stm32f0xx_hal_tim_ex.c ****   /* Reset the IC1PSC Bits */
 196:Drivers/STM32F0xx_HAL_Driver/Src/stm32f0xx_hal_tim_ex.c ****   htim->Instance->CCMR1 &= ~TIM_CCMR1_IC1PSC;
  88              		.loc 1 196 0
  89 005a 7B68     		ldr	r3, [r7, #4]
  90 005c 1B68     		ldr	r3, [r3]
ARM GAS  /tmp/cct1Lg5Q.s 			page 6


  91 005e 7A68     		ldr	r2, [r7, #4]
  92 0060 1268     		ldr	r2, [r2]
  93 0062 9269     		ldr	r2, [r2, #24]
  94 0064 0C21     		movs	r1, #12
  95 0066 8A43     		bics	r2, r1
  96 0068 9A61     		str	r2, [r3, #24]
 197:Drivers/STM32F0xx_HAL_Driver/Src/stm32f0xx_hal_tim_ex.c ****   /* Set the IC1PSC value */
 198:Drivers/STM32F0xx_HAL_Driver/Src/stm32f0xx_hal_tim_ex.c ****   htim->Instance->CCMR1 |= sConfig->IC1Prescaler;
  97              		.loc 1 198 0
  98 006a 7B68     		ldr	r3, [r7, #4]
  99 006c 1B68     		ldr	r3, [r3]
 100 006e 7A68     		ldr	r2, [r7, #4]
 101 0070 1268     		ldr	r2, [r2]
 102 0072 9169     		ldr	r1, [r2, #24]
 103 0074 3A68     		ldr	r2, [r7]
 104 0076 5268     		ldr	r2, [r2, #4]
 105 0078 0A43     		orrs	r2, r1
 106 007a 9A61     		str	r2, [r3, #24]
 199:Drivers/STM32F0xx_HAL_Driver/Src/stm32f0xx_hal_tim_ex.c **** 
 200:Drivers/STM32F0xx_HAL_Driver/Src/stm32f0xx_hal_tim_ex.c ****   /* Enable the Hall sensor interface (XOR function of the three inputs) */
 201:Drivers/STM32F0xx_HAL_Driver/Src/stm32f0xx_hal_tim_ex.c ****   htim->Instance->CR2 |= TIM_CR2_TI1S;
 107              		.loc 1 201 0
 108 007c 7B68     		ldr	r3, [r7, #4]
 109 007e 1B68     		ldr	r3, [r3]
 110 0080 7A68     		ldr	r2, [r7, #4]
 111 0082 1268     		ldr	r2, [r2]
 112 0084 5268     		ldr	r2, [r2, #4]
 113 0086 8021     		movs	r1, #128
 114 0088 0A43     		orrs	r2, r1
 115 008a 5A60     		str	r2, [r3, #4]
 202:Drivers/STM32F0xx_HAL_Driver/Src/stm32f0xx_hal_tim_ex.c **** 
 203:Drivers/STM32F0xx_HAL_Driver/Src/stm32f0xx_hal_tim_ex.c ****   /* Select the TIM_TS_TI1F_ED signal as Input trigger for the TIM */
 204:Drivers/STM32F0xx_HAL_Driver/Src/stm32f0xx_hal_tim_ex.c ****   htim->Instance->SMCR &= ~TIM_SMCR_TS;
 116              		.loc 1 204 0
 117 008c 7B68     		ldr	r3, [r7, #4]
 118 008e 1B68     		ldr	r3, [r3]
 119 0090 7A68     		ldr	r2, [r7, #4]
 120 0092 1268     		ldr	r2, [r2]
 121 0094 9268     		ldr	r2, [r2, #8]
 122 0096 7021     		movs	r1, #112
 123 0098 8A43     		bics	r2, r1
 124 009a 9A60     		str	r2, [r3, #8]
 205:Drivers/STM32F0xx_HAL_Driver/Src/stm32f0xx_hal_tim_ex.c ****   htim->Instance->SMCR |= TIM_TS_TI1F_ED;
 125              		.loc 1 205 0
 126 009c 7B68     		ldr	r3, [r7, #4]
 127 009e 1B68     		ldr	r3, [r3]
 128 00a0 7A68     		ldr	r2, [r7, #4]
 129 00a2 1268     		ldr	r2, [r2]
 130 00a4 9268     		ldr	r2, [r2, #8]
 131 00a6 4021     		movs	r1, #64
 132 00a8 0A43     		orrs	r2, r1
 133 00aa 9A60     		str	r2, [r3, #8]
 206:Drivers/STM32F0xx_HAL_Driver/Src/stm32f0xx_hal_tim_ex.c **** 
 207:Drivers/STM32F0xx_HAL_Driver/Src/stm32f0xx_hal_tim_ex.c ****   /* Use the TIM_TS_TI1F_ED signal to reset the TIM counter each edge detection */
 208:Drivers/STM32F0xx_HAL_Driver/Src/stm32f0xx_hal_tim_ex.c ****   htim->Instance->SMCR &= ~TIM_SMCR_SMS;
 134              		.loc 1 208 0
 135 00ac 7B68     		ldr	r3, [r7, #4]
ARM GAS  /tmp/cct1Lg5Q.s 			page 7


 136 00ae 1B68     		ldr	r3, [r3]
 137 00b0 7A68     		ldr	r2, [r7, #4]
 138 00b2 1268     		ldr	r2, [r2]
 139 00b4 9268     		ldr	r2, [r2, #8]
 140 00b6 0721     		movs	r1, #7
 141 00b8 8A43     		bics	r2, r1
 142 00ba 9A60     		str	r2, [r3, #8]
 209:Drivers/STM32F0xx_HAL_Driver/Src/stm32f0xx_hal_tim_ex.c ****   htim->Instance->SMCR |= TIM_SLAVEMODE_RESET;
 143              		.loc 1 209 0
 144 00bc 7B68     		ldr	r3, [r7, #4]
 145 00be 1B68     		ldr	r3, [r3]
 146 00c0 7A68     		ldr	r2, [r7, #4]
 147 00c2 1268     		ldr	r2, [r2]
 148 00c4 9268     		ldr	r2, [r2, #8]
 149 00c6 0421     		movs	r1, #4
 150 00c8 0A43     		orrs	r2, r1
 151 00ca 9A60     		str	r2, [r3, #8]
 210:Drivers/STM32F0xx_HAL_Driver/Src/stm32f0xx_hal_tim_ex.c **** 
 211:Drivers/STM32F0xx_HAL_Driver/Src/stm32f0xx_hal_tim_ex.c ****   /* Program channel 2 in PWM 2 mode with the desired Commutation_Delay*/
 212:Drivers/STM32F0xx_HAL_Driver/Src/stm32f0xx_hal_tim_ex.c ****   OC_Config.OCFastMode = TIM_OCFAST_DISABLE;
 152              		.loc 1 212 0
 153 00cc 0C23     		movs	r3, #12
 154 00ce FB18     		adds	r3, r7, r3
 155 00d0 0022     		movs	r2, #0
 156 00d2 1A61     		str	r2, [r3, #16]
 213:Drivers/STM32F0xx_HAL_Driver/Src/stm32f0xx_hal_tim_ex.c ****   OC_Config.OCIdleState = TIM_OCIDLESTATE_RESET;
 157              		.loc 1 213 0
 158 00d4 0C23     		movs	r3, #12
 159 00d6 FB18     		adds	r3, r7, r3
 160 00d8 0022     		movs	r2, #0
 161 00da 5A61     		str	r2, [r3, #20]
 214:Drivers/STM32F0xx_HAL_Driver/Src/stm32f0xx_hal_tim_ex.c ****   OC_Config.OCMode = TIM_OCMODE_PWM2;
 162              		.loc 1 214 0
 163 00dc 0C23     		movs	r3, #12
 164 00de FB18     		adds	r3, r7, r3
 165 00e0 7022     		movs	r2, #112
 166 00e2 1A60     		str	r2, [r3]
 215:Drivers/STM32F0xx_HAL_Driver/Src/stm32f0xx_hal_tim_ex.c ****   OC_Config.OCNIdleState = TIM_OCNIDLESTATE_RESET;
 167              		.loc 1 215 0
 168 00e4 0C23     		movs	r3, #12
 169 00e6 FB18     		adds	r3, r7, r3
 170 00e8 0022     		movs	r2, #0
 171 00ea 9A61     		str	r2, [r3, #24]
 216:Drivers/STM32F0xx_HAL_Driver/Src/stm32f0xx_hal_tim_ex.c ****   OC_Config.OCNPolarity = TIM_OCNPOLARITY_HIGH;
 172              		.loc 1 216 0
 173 00ec 0C23     		movs	r3, #12
 174 00ee FB18     		adds	r3, r7, r3
 175 00f0 0022     		movs	r2, #0
 176 00f2 DA60     		str	r2, [r3, #12]
 217:Drivers/STM32F0xx_HAL_Driver/Src/stm32f0xx_hal_tim_ex.c ****   OC_Config.OCPolarity = TIM_OCPOLARITY_HIGH;
 177              		.loc 1 217 0
 178 00f4 0C23     		movs	r3, #12
 179 00f6 FB18     		adds	r3, r7, r3
 180 00f8 0022     		movs	r2, #0
 181 00fa 9A60     		str	r2, [r3, #8]
 218:Drivers/STM32F0xx_HAL_Driver/Src/stm32f0xx_hal_tim_ex.c ****   OC_Config.Pulse = sConfig->Commutation_Delay;
 182              		.loc 1 218 0
ARM GAS  /tmp/cct1Lg5Q.s 			page 8


 183 00fc 3B68     		ldr	r3, [r7]
 184 00fe DA68     		ldr	r2, [r3, #12]
 185 0100 0C23     		movs	r3, #12
 186 0102 FB18     		adds	r3, r7, r3
 187 0104 5A60     		str	r2, [r3, #4]
 219:Drivers/STM32F0xx_HAL_Driver/Src/stm32f0xx_hal_tim_ex.c **** 
 220:Drivers/STM32F0xx_HAL_Driver/Src/stm32f0xx_hal_tim_ex.c ****   TIM_OC2_SetConfig(htim->Instance, &OC_Config);
 188              		.loc 1 220 0
 189 0106 7B68     		ldr	r3, [r7, #4]
 190 0108 1B68     		ldr	r3, [r3]
 191 010a 0C22     		movs	r2, #12
 192 010c BA18     		adds	r2, r7, r2
 193 010e 1100     		movs	r1, r2
 194 0110 1800     		movs	r0, r3
 195 0112 FFF7FEFF 		bl	TIM_OC2_SetConfig
 221:Drivers/STM32F0xx_HAL_Driver/Src/stm32f0xx_hal_tim_ex.c **** 
 222:Drivers/STM32F0xx_HAL_Driver/Src/stm32f0xx_hal_tim_ex.c ****   /* Select OC2REF as trigger output on TRGO: write the MMS bits in the TIMx_CR2
 223:Drivers/STM32F0xx_HAL_Driver/Src/stm32f0xx_hal_tim_ex.c ****     register to 101 */
 224:Drivers/STM32F0xx_HAL_Driver/Src/stm32f0xx_hal_tim_ex.c ****   htim->Instance->CR2 &= ~TIM_CR2_MMS;
 196              		.loc 1 224 0
 197 0116 7B68     		ldr	r3, [r7, #4]
 198 0118 1B68     		ldr	r3, [r3]
 199 011a 7A68     		ldr	r2, [r7, #4]
 200 011c 1268     		ldr	r2, [r2]
 201 011e 5268     		ldr	r2, [r2, #4]
 202 0120 7021     		movs	r1, #112
 203 0122 8A43     		bics	r2, r1
 204 0124 5A60     		str	r2, [r3, #4]
 225:Drivers/STM32F0xx_HAL_Driver/Src/stm32f0xx_hal_tim_ex.c ****   htim->Instance->CR2 |= TIM_TRGO_OC2REF;
 205              		.loc 1 225 0
 206 0126 7B68     		ldr	r3, [r7, #4]
 207 0128 1B68     		ldr	r3, [r3]
 208 012a 7A68     		ldr	r2, [r7, #4]
 209 012c 1268     		ldr	r2, [r2]
 210 012e 5268     		ldr	r2, [r2, #4]
 211 0130 5021     		movs	r1, #80
 212 0132 0A43     		orrs	r2, r1
 213 0134 5A60     		str	r2, [r3, #4]
 226:Drivers/STM32F0xx_HAL_Driver/Src/stm32f0xx_hal_tim_ex.c **** 
 227:Drivers/STM32F0xx_HAL_Driver/Src/stm32f0xx_hal_tim_ex.c ****   /* Initialize the TIM state*/
 228:Drivers/STM32F0xx_HAL_Driver/Src/stm32f0xx_hal_tim_ex.c ****   htim->State= HAL_TIM_STATE_READY;
 214              		.loc 1 228 0
 215 0136 7B68     		ldr	r3, [r7, #4]
 216 0138 3922     		movs	r2, #57
 217 013a 0121     		movs	r1, #1
 218 013c 9954     		strb	r1, [r3, r2]
 229:Drivers/STM32F0xx_HAL_Driver/Src/stm32f0xx_hal_tim_ex.c **** 
 230:Drivers/STM32F0xx_HAL_Driver/Src/stm32f0xx_hal_tim_ex.c ****   return HAL_OK;
 219              		.loc 1 230 0
 220 013e 0023     		movs	r3, #0
 221              	.L5:
 231:Drivers/STM32F0xx_HAL_Driver/Src/stm32f0xx_hal_tim_ex.c **** }
 222              		.loc 1 231 0 discriminator 1
 223 0140 1800     		movs	r0, r3
 224 0142 BD46     		mov	sp, r7
 225 0144 0AB0     		add	sp, sp, #40
 226              		@ sp needed
ARM GAS  /tmp/cct1Lg5Q.s 			page 9


 227 0146 80BD     		pop	{r7, pc}
 228              		.cfi_endproc
 229              	.LFE35:
 231              		.section	.text.HAL_TIMEx_HallSensor_DeInit,"ax",%progbits
 232              		.align	1
 233              		.global	HAL_TIMEx_HallSensor_DeInit
 234              		.syntax unified
 235              		.code	16
 236              		.thumb_func
 237              		.fpu softvfp
 239              	HAL_TIMEx_HallSensor_DeInit:
 240              	.LFB36:
 232:Drivers/STM32F0xx_HAL_Driver/Src/stm32f0xx_hal_tim_ex.c **** 
 233:Drivers/STM32F0xx_HAL_Driver/Src/stm32f0xx_hal_tim_ex.c **** /**
 234:Drivers/STM32F0xx_HAL_Driver/Src/stm32f0xx_hal_tim_ex.c ****   * @brief  DeInitializes the TIM Hall Sensor interface 
 235:Drivers/STM32F0xx_HAL_Driver/Src/stm32f0xx_hal_tim_ex.c ****   * @param  htim : TIM Hall Sensor handle
 236:Drivers/STM32F0xx_HAL_Driver/Src/stm32f0xx_hal_tim_ex.c ****   * @retval HAL status
 237:Drivers/STM32F0xx_HAL_Driver/Src/stm32f0xx_hal_tim_ex.c ****   */
 238:Drivers/STM32F0xx_HAL_Driver/Src/stm32f0xx_hal_tim_ex.c **** HAL_StatusTypeDef HAL_TIMEx_HallSensor_DeInit(TIM_HandleTypeDef *htim)
 239:Drivers/STM32F0xx_HAL_Driver/Src/stm32f0xx_hal_tim_ex.c **** {
 241              		.loc 1 239 0
 242              		.cfi_startproc
 243 0000 80B5     		push	{r7, lr}
 244              	.LCFI3:
 245              		.cfi_def_cfa_offset 8
 246              		.cfi_offset 7, -8
 247              		.cfi_offset 14, -4
 248 0002 82B0     		sub	sp, sp, #8
 249              	.LCFI4:
 250              		.cfi_def_cfa_offset 16
 251 0004 00AF     		add	r7, sp, #0
 252              	.LCFI5:
 253              		.cfi_def_cfa_register 7
 254 0006 7860     		str	r0, [r7, #4]
 240:Drivers/STM32F0xx_HAL_Driver/Src/stm32f0xx_hal_tim_ex.c ****   /* Check the parameters */
 241:Drivers/STM32F0xx_HAL_Driver/Src/stm32f0xx_hal_tim_ex.c ****   assert_param(IS_TIM_INSTANCE(htim->Instance));
 242:Drivers/STM32F0xx_HAL_Driver/Src/stm32f0xx_hal_tim_ex.c **** 
 243:Drivers/STM32F0xx_HAL_Driver/Src/stm32f0xx_hal_tim_ex.c ****   htim->State = HAL_TIM_STATE_BUSY;
 255              		.loc 1 243 0
 256 0008 7B68     		ldr	r3, [r7, #4]
 257 000a 3922     		movs	r2, #57
 258 000c 0221     		movs	r1, #2
 259 000e 9954     		strb	r1, [r3, r2]
 244:Drivers/STM32F0xx_HAL_Driver/Src/stm32f0xx_hal_tim_ex.c **** 
 245:Drivers/STM32F0xx_HAL_Driver/Src/stm32f0xx_hal_tim_ex.c ****   /* Disable the TIM Peripheral Clock */
 246:Drivers/STM32F0xx_HAL_Driver/Src/stm32f0xx_hal_tim_ex.c ****   __HAL_TIM_DISABLE(htim);
 260              		.loc 1 246 0
 261 0010 7B68     		ldr	r3, [r7, #4]
 262 0012 1B68     		ldr	r3, [r3]
 263 0014 1B6A     		ldr	r3, [r3, #32]
 264 0016 114A     		ldr	r2, .L9
 265 0018 1340     		ands	r3, r2
 266 001a 0DD1     		bne	.L7
 267              		.loc 1 246 0 is_stmt 0 discriminator 1
 268 001c 7B68     		ldr	r3, [r7, #4]
 269 001e 1B68     		ldr	r3, [r3]
 270 0020 1B6A     		ldr	r3, [r3, #32]
ARM GAS  /tmp/cct1Lg5Q.s 			page 10


 271 0022 0F4A     		ldr	r2, .L9+4
 272 0024 1340     		ands	r3, r2
 273 0026 07D1     		bne	.L7
 274              		.loc 1 246 0 discriminator 2
 275 0028 7B68     		ldr	r3, [r7, #4]
 276 002a 1B68     		ldr	r3, [r3]
 277 002c 7A68     		ldr	r2, [r7, #4]
 278 002e 1268     		ldr	r2, [r2]
 279 0030 1268     		ldr	r2, [r2]
 280 0032 0121     		movs	r1, #1
 281 0034 8A43     		bics	r2, r1
 282 0036 1A60     		str	r2, [r3]
 283              	.L7:
 247:Drivers/STM32F0xx_HAL_Driver/Src/stm32f0xx_hal_tim_ex.c **** 
 248:Drivers/STM32F0xx_HAL_Driver/Src/stm32f0xx_hal_tim_ex.c ****   /* DeInit the low level hardware: GPIO, CLOCK, NVIC */
 249:Drivers/STM32F0xx_HAL_Driver/Src/stm32f0xx_hal_tim_ex.c ****   HAL_TIMEx_HallSensor_MspDeInit(htim);
 284              		.loc 1 249 0 is_stmt 1
 285 0038 7B68     		ldr	r3, [r7, #4]
 286 003a 1800     		movs	r0, r3
 287 003c FFF7FEFF 		bl	HAL_TIMEx_HallSensor_MspDeInit
 250:Drivers/STM32F0xx_HAL_Driver/Src/stm32f0xx_hal_tim_ex.c **** 
 251:Drivers/STM32F0xx_HAL_Driver/Src/stm32f0xx_hal_tim_ex.c ****   /* Change TIM state */
 252:Drivers/STM32F0xx_HAL_Driver/Src/stm32f0xx_hal_tim_ex.c ****   htim->State = HAL_TIM_STATE_RESET;
 288              		.loc 1 252 0
 289 0040 7B68     		ldr	r3, [r7, #4]
 290 0042 3922     		movs	r2, #57
 291 0044 0021     		movs	r1, #0
 292 0046 9954     		strb	r1, [r3, r2]
 253:Drivers/STM32F0xx_HAL_Driver/Src/stm32f0xx_hal_tim_ex.c **** 
 254:Drivers/STM32F0xx_HAL_Driver/Src/stm32f0xx_hal_tim_ex.c ****   /* Release Lock */
 255:Drivers/STM32F0xx_HAL_Driver/Src/stm32f0xx_hal_tim_ex.c ****   __HAL_UNLOCK(htim);
 293              		.loc 1 255 0
 294 0048 7B68     		ldr	r3, [r7, #4]
 295 004a 3822     		movs	r2, #56
 296 004c 0021     		movs	r1, #0
 297 004e 9954     		strb	r1, [r3, r2]
 256:Drivers/STM32F0xx_HAL_Driver/Src/stm32f0xx_hal_tim_ex.c **** 
 257:Drivers/STM32F0xx_HAL_Driver/Src/stm32f0xx_hal_tim_ex.c ****   return HAL_OK;
 298              		.loc 1 257 0
 299 0050 0023     		movs	r3, #0
 258:Drivers/STM32F0xx_HAL_Driver/Src/stm32f0xx_hal_tim_ex.c **** }
 300              		.loc 1 258 0
 301 0052 1800     		movs	r0, r3
 302 0054 BD46     		mov	sp, r7
 303 0056 02B0     		add	sp, sp, #8
 304              		@ sp needed
 305 0058 80BD     		pop	{r7, pc}
 306              	.L10:
 307 005a C046     		.align	2
 308              	.L9:
 309 005c 11110000 		.word	4369
 310 0060 44040000 		.word	1092
 311              		.cfi_endproc
 312              	.LFE36:
 314              		.section	.text.HAL_TIMEx_HallSensor_MspInit,"ax",%progbits
 315              		.align	1
 316              		.weak	HAL_TIMEx_HallSensor_MspInit
ARM GAS  /tmp/cct1Lg5Q.s 			page 11


 317              		.syntax unified
 318              		.code	16
 319              		.thumb_func
 320              		.fpu softvfp
 322              	HAL_TIMEx_HallSensor_MspInit:
 323              	.LFB37:
 259:Drivers/STM32F0xx_HAL_Driver/Src/stm32f0xx_hal_tim_ex.c **** 
 260:Drivers/STM32F0xx_HAL_Driver/Src/stm32f0xx_hal_tim_ex.c **** /**
 261:Drivers/STM32F0xx_HAL_Driver/Src/stm32f0xx_hal_tim_ex.c ****   * @brief  Initializes the TIM Hall Sensor MSP.
 262:Drivers/STM32F0xx_HAL_Driver/Src/stm32f0xx_hal_tim_ex.c ****   * @param  htim : TIM handle
 263:Drivers/STM32F0xx_HAL_Driver/Src/stm32f0xx_hal_tim_ex.c ****   * @retval None
 264:Drivers/STM32F0xx_HAL_Driver/Src/stm32f0xx_hal_tim_ex.c ****   */
 265:Drivers/STM32F0xx_HAL_Driver/Src/stm32f0xx_hal_tim_ex.c **** __weak void HAL_TIMEx_HallSensor_MspInit(TIM_HandleTypeDef *htim)
 266:Drivers/STM32F0xx_HAL_Driver/Src/stm32f0xx_hal_tim_ex.c **** {
 324              		.loc 1 266 0
 325              		.cfi_startproc
 326 0000 80B5     		push	{r7, lr}
 327              	.LCFI6:
 328              		.cfi_def_cfa_offset 8
 329              		.cfi_offset 7, -8
 330              		.cfi_offset 14, -4
 331 0002 82B0     		sub	sp, sp, #8
 332              	.LCFI7:
 333              		.cfi_def_cfa_offset 16
 334 0004 00AF     		add	r7, sp, #0
 335              	.LCFI8:
 336              		.cfi_def_cfa_register 7
 337 0006 7860     		str	r0, [r7, #4]
 267:Drivers/STM32F0xx_HAL_Driver/Src/stm32f0xx_hal_tim_ex.c ****   /* Prevent unused argument(s) compilation warning */
 268:Drivers/STM32F0xx_HAL_Driver/Src/stm32f0xx_hal_tim_ex.c ****   UNUSED(htim);
 269:Drivers/STM32F0xx_HAL_Driver/Src/stm32f0xx_hal_tim_ex.c **** 
 270:Drivers/STM32F0xx_HAL_Driver/Src/stm32f0xx_hal_tim_ex.c ****   /* NOTE : This function Should not be modified, when the callback is needed,
 271:Drivers/STM32F0xx_HAL_Driver/Src/stm32f0xx_hal_tim_ex.c ****             the HAL_TIMEx_HallSensor_MspInit could be implemented in the user file
 272:Drivers/STM32F0xx_HAL_Driver/Src/stm32f0xx_hal_tim_ex.c ****    */
 273:Drivers/STM32F0xx_HAL_Driver/Src/stm32f0xx_hal_tim_ex.c **** }
 338              		.loc 1 273 0
 339 0008 C046     		nop
 340 000a BD46     		mov	sp, r7
 341 000c 02B0     		add	sp, sp, #8
 342              		@ sp needed
 343 000e 80BD     		pop	{r7, pc}
 344              		.cfi_endproc
 345              	.LFE37:
 347              		.section	.text.HAL_TIMEx_HallSensor_MspDeInit,"ax",%progbits
 348              		.align	1
 349              		.weak	HAL_TIMEx_HallSensor_MspDeInit
 350              		.syntax unified
 351              		.code	16
 352              		.thumb_func
 353              		.fpu softvfp
 355              	HAL_TIMEx_HallSensor_MspDeInit:
 356              	.LFB38:
 274:Drivers/STM32F0xx_HAL_Driver/Src/stm32f0xx_hal_tim_ex.c **** 
 275:Drivers/STM32F0xx_HAL_Driver/Src/stm32f0xx_hal_tim_ex.c **** /**
 276:Drivers/STM32F0xx_HAL_Driver/Src/stm32f0xx_hal_tim_ex.c ****   * @brief  DeInitializes TIM Hall Sensor MSP.
 277:Drivers/STM32F0xx_HAL_Driver/Src/stm32f0xx_hal_tim_ex.c ****   * @param  htim : TIM handle
 278:Drivers/STM32F0xx_HAL_Driver/Src/stm32f0xx_hal_tim_ex.c ****   * @retval None
ARM GAS  /tmp/cct1Lg5Q.s 			page 12


 279:Drivers/STM32F0xx_HAL_Driver/Src/stm32f0xx_hal_tim_ex.c ****   */
 280:Drivers/STM32F0xx_HAL_Driver/Src/stm32f0xx_hal_tim_ex.c **** __weak void HAL_TIMEx_HallSensor_MspDeInit(TIM_HandleTypeDef *htim)
 281:Drivers/STM32F0xx_HAL_Driver/Src/stm32f0xx_hal_tim_ex.c **** {
 357              		.loc 1 281 0
 358              		.cfi_startproc
 359 0000 80B5     		push	{r7, lr}
 360              	.LCFI9:
 361              		.cfi_def_cfa_offset 8
 362              		.cfi_offset 7, -8
 363              		.cfi_offset 14, -4
 364 0002 82B0     		sub	sp, sp, #8
 365              	.LCFI10:
 366              		.cfi_def_cfa_offset 16
 367 0004 00AF     		add	r7, sp, #0
 368              	.LCFI11:
 369              		.cfi_def_cfa_register 7
 370 0006 7860     		str	r0, [r7, #4]
 282:Drivers/STM32F0xx_HAL_Driver/Src/stm32f0xx_hal_tim_ex.c ****   /* Prevent unused argument(s) compilation warning */
 283:Drivers/STM32F0xx_HAL_Driver/Src/stm32f0xx_hal_tim_ex.c ****   UNUSED(htim);
 284:Drivers/STM32F0xx_HAL_Driver/Src/stm32f0xx_hal_tim_ex.c **** 
 285:Drivers/STM32F0xx_HAL_Driver/Src/stm32f0xx_hal_tim_ex.c ****   /* NOTE : This function Should not be modified, when the callback is needed,
 286:Drivers/STM32F0xx_HAL_Driver/Src/stm32f0xx_hal_tim_ex.c ****             the HAL_TIMEx_HallSensor_MspDeInit could be implemented in the user file
 287:Drivers/STM32F0xx_HAL_Driver/Src/stm32f0xx_hal_tim_ex.c ****    */
 288:Drivers/STM32F0xx_HAL_Driver/Src/stm32f0xx_hal_tim_ex.c **** }
 371              		.loc 1 288 0
 372 0008 C046     		nop
 373 000a BD46     		mov	sp, r7
 374 000c 02B0     		add	sp, sp, #8
 375              		@ sp needed
 376 000e 80BD     		pop	{r7, pc}
 377              		.cfi_endproc
 378              	.LFE38:
 380              		.section	.text.HAL_TIMEx_HallSensor_Start,"ax",%progbits
 381              		.align	1
 382              		.global	HAL_TIMEx_HallSensor_Start
 383              		.syntax unified
 384              		.code	16
 385              		.thumb_func
 386              		.fpu softvfp
 388              	HAL_TIMEx_HallSensor_Start:
 389              	.LFB39:
 289:Drivers/STM32F0xx_HAL_Driver/Src/stm32f0xx_hal_tim_ex.c **** 
 290:Drivers/STM32F0xx_HAL_Driver/Src/stm32f0xx_hal_tim_ex.c **** /**
 291:Drivers/STM32F0xx_HAL_Driver/Src/stm32f0xx_hal_tim_ex.c ****   * @brief  Starts the TIM Hall Sensor Interface.
 292:Drivers/STM32F0xx_HAL_Driver/Src/stm32f0xx_hal_tim_ex.c ****   * @param  htim : TIM Hall Sensor handle
 293:Drivers/STM32F0xx_HAL_Driver/Src/stm32f0xx_hal_tim_ex.c ****   * @retval HAL status
 294:Drivers/STM32F0xx_HAL_Driver/Src/stm32f0xx_hal_tim_ex.c ****   */
 295:Drivers/STM32F0xx_HAL_Driver/Src/stm32f0xx_hal_tim_ex.c **** HAL_StatusTypeDef HAL_TIMEx_HallSensor_Start(TIM_HandleTypeDef *htim)
 296:Drivers/STM32F0xx_HAL_Driver/Src/stm32f0xx_hal_tim_ex.c **** {
 390              		.loc 1 296 0
 391              		.cfi_startproc
 392 0000 80B5     		push	{r7, lr}
 393              	.LCFI12:
 394              		.cfi_def_cfa_offset 8
 395              		.cfi_offset 7, -8
 396              		.cfi_offset 14, -4
 397 0002 82B0     		sub	sp, sp, #8
ARM GAS  /tmp/cct1Lg5Q.s 			page 13


 398              	.LCFI13:
 399              		.cfi_def_cfa_offset 16
 400 0004 00AF     		add	r7, sp, #0
 401              	.LCFI14:
 402              		.cfi_def_cfa_register 7
 403 0006 7860     		str	r0, [r7, #4]
 297:Drivers/STM32F0xx_HAL_Driver/Src/stm32f0xx_hal_tim_ex.c ****   /* Check the parameters */
 298:Drivers/STM32F0xx_HAL_Driver/Src/stm32f0xx_hal_tim_ex.c ****   assert_param(IS_TIM_HALL_INTERFACE_INSTANCE(htim->Instance));
 299:Drivers/STM32F0xx_HAL_Driver/Src/stm32f0xx_hal_tim_ex.c **** 
 300:Drivers/STM32F0xx_HAL_Driver/Src/stm32f0xx_hal_tim_ex.c ****   /* Enable the Input Capture channel 1
 301:Drivers/STM32F0xx_HAL_Driver/Src/stm32f0xx_hal_tim_ex.c ****     (in the Hall Sensor Interface the three possible channels that can be used are TIM_CHANNEL_1, T
 302:Drivers/STM32F0xx_HAL_Driver/Src/stm32f0xx_hal_tim_ex.c ****   TIM_CCxChannelCmd(htim->Instance, TIM_CHANNEL_1, TIM_CCx_ENABLE);
 404              		.loc 1 302 0
 405 0008 7B68     		ldr	r3, [r7, #4]
 406 000a 1B68     		ldr	r3, [r3]
 407 000c 0122     		movs	r2, #1
 408 000e 0021     		movs	r1, #0
 409 0010 1800     		movs	r0, r3
 410 0012 FFF7FEFF 		bl	TIM_CCxChannelCmd
 303:Drivers/STM32F0xx_HAL_Driver/Src/stm32f0xx_hal_tim_ex.c **** 
 304:Drivers/STM32F0xx_HAL_Driver/Src/stm32f0xx_hal_tim_ex.c ****   /* Enable the Peripheral */
 305:Drivers/STM32F0xx_HAL_Driver/Src/stm32f0xx_hal_tim_ex.c ****   __HAL_TIM_ENABLE(htim);
 411              		.loc 1 305 0
 412 0016 7B68     		ldr	r3, [r7, #4]
 413 0018 1B68     		ldr	r3, [r3]
 414 001a 7A68     		ldr	r2, [r7, #4]
 415 001c 1268     		ldr	r2, [r2]
 416 001e 1268     		ldr	r2, [r2]
 417 0020 0121     		movs	r1, #1
 418 0022 0A43     		orrs	r2, r1
 419 0024 1A60     		str	r2, [r3]
 306:Drivers/STM32F0xx_HAL_Driver/Src/stm32f0xx_hal_tim_ex.c **** 
 307:Drivers/STM32F0xx_HAL_Driver/Src/stm32f0xx_hal_tim_ex.c ****   /* Return function status */
 308:Drivers/STM32F0xx_HAL_Driver/Src/stm32f0xx_hal_tim_ex.c ****   return HAL_OK;
 420              		.loc 1 308 0
 421 0026 0023     		movs	r3, #0
 309:Drivers/STM32F0xx_HAL_Driver/Src/stm32f0xx_hal_tim_ex.c **** }
 422              		.loc 1 309 0
 423 0028 1800     		movs	r0, r3
 424 002a BD46     		mov	sp, r7
 425 002c 02B0     		add	sp, sp, #8
 426              		@ sp needed
 427 002e 80BD     		pop	{r7, pc}
 428              		.cfi_endproc
 429              	.LFE39:
 431              		.section	.text.HAL_TIMEx_HallSensor_Stop,"ax",%progbits
 432              		.align	1
 433              		.global	HAL_TIMEx_HallSensor_Stop
 434              		.syntax unified
 435              		.code	16
 436              		.thumb_func
 437              		.fpu softvfp
 439              	HAL_TIMEx_HallSensor_Stop:
 440              	.LFB40:
 310:Drivers/STM32F0xx_HAL_Driver/Src/stm32f0xx_hal_tim_ex.c **** 
 311:Drivers/STM32F0xx_HAL_Driver/Src/stm32f0xx_hal_tim_ex.c **** /**
 312:Drivers/STM32F0xx_HAL_Driver/Src/stm32f0xx_hal_tim_ex.c ****   * @brief  Stops the TIM Hall sensor Interface.
ARM GAS  /tmp/cct1Lg5Q.s 			page 14


 313:Drivers/STM32F0xx_HAL_Driver/Src/stm32f0xx_hal_tim_ex.c ****   * @param  htim : TIM Hall Sensor handle
 314:Drivers/STM32F0xx_HAL_Driver/Src/stm32f0xx_hal_tim_ex.c ****   * @retval HAL status
 315:Drivers/STM32F0xx_HAL_Driver/Src/stm32f0xx_hal_tim_ex.c ****   */
 316:Drivers/STM32F0xx_HAL_Driver/Src/stm32f0xx_hal_tim_ex.c **** HAL_StatusTypeDef HAL_TIMEx_HallSensor_Stop(TIM_HandleTypeDef *htim)
 317:Drivers/STM32F0xx_HAL_Driver/Src/stm32f0xx_hal_tim_ex.c **** {
 441              		.loc 1 317 0
 442              		.cfi_startproc
 443 0000 80B5     		push	{r7, lr}
 444              	.LCFI15:
 445              		.cfi_def_cfa_offset 8
 446              		.cfi_offset 7, -8
 447              		.cfi_offset 14, -4
 448 0002 82B0     		sub	sp, sp, #8
 449              	.LCFI16:
 450              		.cfi_def_cfa_offset 16
 451 0004 00AF     		add	r7, sp, #0
 452              	.LCFI17:
 453              		.cfi_def_cfa_register 7
 454 0006 7860     		str	r0, [r7, #4]
 318:Drivers/STM32F0xx_HAL_Driver/Src/stm32f0xx_hal_tim_ex.c ****   /* Check the parameters */
 319:Drivers/STM32F0xx_HAL_Driver/Src/stm32f0xx_hal_tim_ex.c ****   assert_param(IS_TIM_HALL_INTERFACE_INSTANCE(htim->Instance));
 320:Drivers/STM32F0xx_HAL_Driver/Src/stm32f0xx_hal_tim_ex.c **** 
 321:Drivers/STM32F0xx_HAL_Driver/Src/stm32f0xx_hal_tim_ex.c ****   /* Disable the Input Capture channels 1, 2 and 3
 322:Drivers/STM32F0xx_HAL_Driver/Src/stm32f0xx_hal_tim_ex.c ****     (in the Hall Sensor Interface the three possible channels that can be used are TIM_CHANNEL_1, T
 323:Drivers/STM32F0xx_HAL_Driver/Src/stm32f0xx_hal_tim_ex.c ****   TIM_CCxChannelCmd(htim->Instance, TIM_CHANNEL_1, TIM_CCx_DISABLE);
 455              		.loc 1 323 0
 456 0008 7B68     		ldr	r3, [r7, #4]
 457 000a 1B68     		ldr	r3, [r3]
 458 000c 0022     		movs	r2, #0
 459 000e 0021     		movs	r1, #0
 460 0010 1800     		movs	r0, r3
 461 0012 FFF7FEFF 		bl	TIM_CCxChannelCmd
 324:Drivers/STM32F0xx_HAL_Driver/Src/stm32f0xx_hal_tim_ex.c **** 
 325:Drivers/STM32F0xx_HAL_Driver/Src/stm32f0xx_hal_tim_ex.c ****   /* Disable the Peripheral */
 326:Drivers/STM32F0xx_HAL_Driver/Src/stm32f0xx_hal_tim_ex.c ****   __HAL_TIM_DISABLE(htim);
 462              		.loc 1 326 0
 463 0016 7B68     		ldr	r3, [r7, #4]
 464 0018 1B68     		ldr	r3, [r3]
 465 001a 1B6A     		ldr	r3, [r3, #32]
 466 001c 0A4A     		ldr	r2, .L18
 467 001e 1340     		ands	r3, r2
 468 0020 0DD1     		bne	.L16
 469              		.loc 1 326 0 is_stmt 0 discriminator 1
 470 0022 7B68     		ldr	r3, [r7, #4]
 471 0024 1B68     		ldr	r3, [r3]
 472 0026 1B6A     		ldr	r3, [r3, #32]
 473 0028 084A     		ldr	r2, .L18+4
 474 002a 1340     		ands	r3, r2
 475 002c 07D1     		bne	.L16
 476              		.loc 1 326 0 discriminator 2
 477 002e 7B68     		ldr	r3, [r7, #4]
 478 0030 1B68     		ldr	r3, [r3]
 479 0032 7A68     		ldr	r2, [r7, #4]
 480 0034 1268     		ldr	r2, [r2]
 481 0036 1268     		ldr	r2, [r2]
 482 0038 0121     		movs	r1, #1
 483 003a 8A43     		bics	r2, r1
ARM GAS  /tmp/cct1Lg5Q.s 			page 15


 484 003c 1A60     		str	r2, [r3]
 485              	.L16:
 327:Drivers/STM32F0xx_HAL_Driver/Src/stm32f0xx_hal_tim_ex.c **** 
 328:Drivers/STM32F0xx_HAL_Driver/Src/stm32f0xx_hal_tim_ex.c ****   /* Return function status */
 329:Drivers/STM32F0xx_HAL_Driver/Src/stm32f0xx_hal_tim_ex.c ****   return HAL_OK;
 486              		.loc 1 329 0 is_stmt 1
 487 003e 0023     		movs	r3, #0
 330:Drivers/STM32F0xx_HAL_Driver/Src/stm32f0xx_hal_tim_ex.c **** }
 488              		.loc 1 330 0
 489 0040 1800     		movs	r0, r3
 490 0042 BD46     		mov	sp, r7
 491 0044 02B0     		add	sp, sp, #8
 492              		@ sp needed
 493 0046 80BD     		pop	{r7, pc}
 494              	.L19:
 495              		.align	2
 496              	.L18:
 497 0048 11110000 		.word	4369
 498 004c 44040000 		.word	1092
 499              		.cfi_endproc
 500              	.LFE40:
 502              		.section	.text.HAL_TIMEx_HallSensor_Start_IT,"ax",%progbits
 503              		.align	1
 504              		.global	HAL_TIMEx_HallSensor_Start_IT
 505              		.syntax unified
 506              		.code	16
 507              		.thumb_func
 508              		.fpu softvfp
 510              	HAL_TIMEx_HallSensor_Start_IT:
 511              	.LFB41:
 331:Drivers/STM32F0xx_HAL_Driver/Src/stm32f0xx_hal_tim_ex.c **** 
 332:Drivers/STM32F0xx_HAL_Driver/Src/stm32f0xx_hal_tim_ex.c **** /**
 333:Drivers/STM32F0xx_HAL_Driver/Src/stm32f0xx_hal_tim_ex.c ****   * @brief  Starts the TIM Hall Sensor Interface in interrupt mode.
 334:Drivers/STM32F0xx_HAL_Driver/Src/stm32f0xx_hal_tim_ex.c ****   * @param  htim : TIM Hall Sensor handle
 335:Drivers/STM32F0xx_HAL_Driver/Src/stm32f0xx_hal_tim_ex.c ****   * @retval HAL status
 336:Drivers/STM32F0xx_HAL_Driver/Src/stm32f0xx_hal_tim_ex.c ****   */
 337:Drivers/STM32F0xx_HAL_Driver/Src/stm32f0xx_hal_tim_ex.c **** HAL_StatusTypeDef HAL_TIMEx_HallSensor_Start_IT(TIM_HandleTypeDef *htim)
 338:Drivers/STM32F0xx_HAL_Driver/Src/stm32f0xx_hal_tim_ex.c **** {
 512              		.loc 1 338 0
 513              		.cfi_startproc
 514 0000 80B5     		push	{r7, lr}
 515              	.LCFI18:
 516              		.cfi_def_cfa_offset 8
 517              		.cfi_offset 7, -8
 518              		.cfi_offset 14, -4
 519 0002 82B0     		sub	sp, sp, #8
 520              	.LCFI19:
 521              		.cfi_def_cfa_offset 16
 522 0004 00AF     		add	r7, sp, #0
 523              	.LCFI20:
 524              		.cfi_def_cfa_register 7
 525 0006 7860     		str	r0, [r7, #4]
 339:Drivers/STM32F0xx_HAL_Driver/Src/stm32f0xx_hal_tim_ex.c ****   /* Check the parameters */
 340:Drivers/STM32F0xx_HAL_Driver/Src/stm32f0xx_hal_tim_ex.c ****   assert_param(IS_TIM_HALL_INTERFACE_INSTANCE(htim->Instance));
 341:Drivers/STM32F0xx_HAL_Driver/Src/stm32f0xx_hal_tim_ex.c **** 
 342:Drivers/STM32F0xx_HAL_Driver/Src/stm32f0xx_hal_tim_ex.c ****   /* Enable the capture compare Interrupts 1 event */
 343:Drivers/STM32F0xx_HAL_Driver/Src/stm32f0xx_hal_tim_ex.c ****   __HAL_TIM_ENABLE_IT(htim, TIM_IT_CC1);
ARM GAS  /tmp/cct1Lg5Q.s 			page 16


 526              		.loc 1 343 0
 527 0008 7B68     		ldr	r3, [r7, #4]
 528 000a 1B68     		ldr	r3, [r3]
 529 000c 7A68     		ldr	r2, [r7, #4]
 530 000e 1268     		ldr	r2, [r2]
 531 0010 D268     		ldr	r2, [r2, #12]
 532 0012 0221     		movs	r1, #2
 533 0014 0A43     		orrs	r2, r1
 534 0016 DA60     		str	r2, [r3, #12]
 344:Drivers/STM32F0xx_HAL_Driver/Src/stm32f0xx_hal_tim_ex.c **** 
 345:Drivers/STM32F0xx_HAL_Driver/Src/stm32f0xx_hal_tim_ex.c ****   /* Enable the Input Capture channel 1
 346:Drivers/STM32F0xx_HAL_Driver/Src/stm32f0xx_hal_tim_ex.c ****     (in the Hall Sensor Interface the three possible channels that can be used are TIM_CHANNEL_1, T
 347:Drivers/STM32F0xx_HAL_Driver/Src/stm32f0xx_hal_tim_ex.c ****   TIM_CCxChannelCmd(htim->Instance, TIM_CHANNEL_1, TIM_CCx_ENABLE);
 535              		.loc 1 347 0
 536 0018 7B68     		ldr	r3, [r7, #4]
 537 001a 1B68     		ldr	r3, [r3]
 538 001c 0122     		movs	r2, #1
 539 001e 0021     		movs	r1, #0
 540 0020 1800     		movs	r0, r3
 541 0022 FFF7FEFF 		bl	TIM_CCxChannelCmd
 348:Drivers/STM32F0xx_HAL_Driver/Src/stm32f0xx_hal_tim_ex.c **** 
 349:Drivers/STM32F0xx_HAL_Driver/Src/stm32f0xx_hal_tim_ex.c ****   /* Enable the Peripheral */
 350:Drivers/STM32F0xx_HAL_Driver/Src/stm32f0xx_hal_tim_ex.c ****   __HAL_TIM_ENABLE(htim);
 542              		.loc 1 350 0
 543 0026 7B68     		ldr	r3, [r7, #4]
 544 0028 1B68     		ldr	r3, [r3]
 545 002a 7A68     		ldr	r2, [r7, #4]
 546 002c 1268     		ldr	r2, [r2]
 547 002e 1268     		ldr	r2, [r2]
 548 0030 0121     		movs	r1, #1
 549 0032 0A43     		orrs	r2, r1
 550 0034 1A60     		str	r2, [r3]
 351:Drivers/STM32F0xx_HAL_Driver/Src/stm32f0xx_hal_tim_ex.c **** 
 352:Drivers/STM32F0xx_HAL_Driver/Src/stm32f0xx_hal_tim_ex.c ****   /* Return function status */
 353:Drivers/STM32F0xx_HAL_Driver/Src/stm32f0xx_hal_tim_ex.c ****   return HAL_OK;
 551              		.loc 1 353 0
 552 0036 0023     		movs	r3, #0
 354:Drivers/STM32F0xx_HAL_Driver/Src/stm32f0xx_hal_tim_ex.c **** }
 553              		.loc 1 354 0
 554 0038 1800     		movs	r0, r3
 555 003a BD46     		mov	sp, r7
 556 003c 02B0     		add	sp, sp, #8
 557              		@ sp needed
 558 003e 80BD     		pop	{r7, pc}
 559              		.cfi_endproc
 560              	.LFE41:
 562              		.section	.text.HAL_TIMEx_HallSensor_Stop_IT,"ax",%progbits
 563              		.align	1
 564              		.global	HAL_TIMEx_HallSensor_Stop_IT
 565              		.syntax unified
 566              		.code	16
 567              		.thumb_func
 568              		.fpu softvfp
 570              	HAL_TIMEx_HallSensor_Stop_IT:
 571              	.LFB42:
 355:Drivers/STM32F0xx_HAL_Driver/Src/stm32f0xx_hal_tim_ex.c **** 
 356:Drivers/STM32F0xx_HAL_Driver/Src/stm32f0xx_hal_tim_ex.c **** /**
ARM GAS  /tmp/cct1Lg5Q.s 			page 17


 357:Drivers/STM32F0xx_HAL_Driver/Src/stm32f0xx_hal_tim_ex.c ****   * @brief  Stops the TIM Hall Sensor Interface in interrupt mode.
 358:Drivers/STM32F0xx_HAL_Driver/Src/stm32f0xx_hal_tim_ex.c ****   * @param  htim : TIM handle
 359:Drivers/STM32F0xx_HAL_Driver/Src/stm32f0xx_hal_tim_ex.c ****   * @retval HAL status
 360:Drivers/STM32F0xx_HAL_Driver/Src/stm32f0xx_hal_tim_ex.c ****   */
 361:Drivers/STM32F0xx_HAL_Driver/Src/stm32f0xx_hal_tim_ex.c **** HAL_StatusTypeDef HAL_TIMEx_HallSensor_Stop_IT(TIM_HandleTypeDef *htim)
 362:Drivers/STM32F0xx_HAL_Driver/Src/stm32f0xx_hal_tim_ex.c **** {
 572              		.loc 1 362 0
 573              		.cfi_startproc
 574 0000 80B5     		push	{r7, lr}
 575              	.LCFI21:
 576              		.cfi_def_cfa_offset 8
 577              		.cfi_offset 7, -8
 578              		.cfi_offset 14, -4
 579 0002 82B0     		sub	sp, sp, #8
 580              	.LCFI22:
 581              		.cfi_def_cfa_offset 16
 582 0004 00AF     		add	r7, sp, #0
 583              	.LCFI23:
 584              		.cfi_def_cfa_register 7
 585 0006 7860     		str	r0, [r7, #4]
 363:Drivers/STM32F0xx_HAL_Driver/Src/stm32f0xx_hal_tim_ex.c ****   /* Check the parameters */
 364:Drivers/STM32F0xx_HAL_Driver/Src/stm32f0xx_hal_tim_ex.c ****   assert_param(IS_TIM_HALL_INTERFACE_INSTANCE(htim->Instance));
 365:Drivers/STM32F0xx_HAL_Driver/Src/stm32f0xx_hal_tim_ex.c **** 
 366:Drivers/STM32F0xx_HAL_Driver/Src/stm32f0xx_hal_tim_ex.c ****   /* Disable the Input Capture channel 1
 367:Drivers/STM32F0xx_HAL_Driver/Src/stm32f0xx_hal_tim_ex.c ****     (in the Hall Sensor Interface the three possible channels that can be used are TIM_CHANNEL_1, T
 368:Drivers/STM32F0xx_HAL_Driver/Src/stm32f0xx_hal_tim_ex.c ****   TIM_CCxChannelCmd(htim->Instance, TIM_CHANNEL_1, TIM_CCx_DISABLE);
 586              		.loc 1 368 0
 587 0008 7B68     		ldr	r3, [r7, #4]
 588 000a 1B68     		ldr	r3, [r3]
 589 000c 0022     		movs	r2, #0
 590 000e 0021     		movs	r1, #0
 591 0010 1800     		movs	r0, r3
 592 0012 FFF7FEFF 		bl	TIM_CCxChannelCmd
 369:Drivers/STM32F0xx_HAL_Driver/Src/stm32f0xx_hal_tim_ex.c **** 
 370:Drivers/STM32F0xx_HAL_Driver/Src/stm32f0xx_hal_tim_ex.c ****   /* Disable the capture compare Interrupts event */
 371:Drivers/STM32F0xx_HAL_Driver/Src/stm32f0xx_hal_tim_ex.c ****   __HAL_TIM_DISABLE_IT(htim, TIM_IT_CC1);
 593              		.loc 1 371 0
 594 0016 7B68     		ldr	r3, [r7, #4]
 595 0018 1B68     		ldr	r3, [r3]
 596 001a 7A68     		ldr	r2, [r7, #4]
 597 001c 1268     		ldr	r2, [r2]
 598 001e D268     		ldr	r2, [r2, #12]
 599 0020 0221     		movs	r1, #2
 600 0022 8A43     		bics	r2, r1
 601 0024 DA60     		str	r2, [r3, #12]
 372:Drivers/STM32F0xx_HAL_Driver/Src/stm32f0xx_hal_tim_ex.c **** 
 373:Drivers/STM32F0xx_HAL_Driver/Src/stm32f0xx_hal_tim_ex.c ****   /* Disable the Peripheral */
 374:Drivers/STM32F0xx_HAL_Driver/Src/stm32f0xx_hal_tim_ex.c ****   __HAL_TIM_DISABLE(htim);
 602              		.loc 1 374 0
 603 0026 7B68     		ldr	r3, [r7, #4]
 604 0028 1B68     		ldr	r3, [r3]
 605 002a 1B6A     		ldr	r3, [r3, #32]
 606 002c 0A4A     		ldr	r2, .L25
 607 002e 1340     		ands	r3, r2
 608 0030 0DD1     		bne	.L23
 609              		.loc 1 374 0 is_stmt 0 discriminator 1
 610 0032 7B68     		ldr	r3, [r7, #4]
ARM GAS  /tmp/cct1Lg5Q.s 			page 18


 611 0034 1B68     		ldr	r3, [r3]
 612 0036 1B6A     		ldr	r3, [r3, #32]
 613 0038 084A     		ldr	r2, .L25+4
 614 003a 1340     		ands	r3, r2
 615 003c 07D1     		bne	.L23
 616              		.loc 1 374 0 discriminator 2
 617 003e 7B68     		ldr	r3, [r7, #4]
 618 0040 1B68     		ldr	r3, [r3]
 619 0042 7A68     		ldr	r2, [r7, #4]
 620 0044 1268     		ldr	r2, [r2]
 621 0046 1268     		ldr	r2, [r2]
 622 0048 0121     		movs	r1, #1
 623 004a 8A43     		bics	r2, r1
 624 004c 1A60     		str	r2, [r3]
 625              	.L23:
 375:Drivers/STM32F0xx_HAL_Driver/Src/stm32f0xx_hal_tim_ex.c **** 
 376:Drivers/STM32F0xx_HAL_Driver/Src/stm32f0xx_hal_tim_ex.c ****   /* Return function status */
 377:Drivers/STM32F0xx_HAL_Driver/Src/stm32f0xx_hal_tim_ex.c ****   return HAL_OK;
 626              		.loc 1 377 0 is_stmt 1
 627 004e 0023     		movs	r3, #0
 378:Drivers/STM32F0xx_HAL_Driver/Src/stm32f0xx_hal_tim_ex.c **** }
 628              		.loc 1 378 0
 629 0050 1800     		movs	r0, r3
 630 0052 BD46     		mov	sp, r7
 631 0054 02B0     		add	sp, sp, #8
 632              		@ sp needed
 633 0056 80BD     		pop	{r7, pc}
 634              	.L26:
 635              		.align	2
 636              	.L25:
 637 0058 11110000 		.word	4369
 638 005c 44040000 		.word	1092
 639              		.cfi_endproc
 640              	.LFE42:
 642              		.section	.text.HAL_TIMEx_HallSensor_Start_DMA,"ax",%progbits
 643              		.align	1
 644              		.global	HAL_TIMEx_HallSensor_Start_DMA
 645              		.syntax unified
 646              		.code	16
 647              		.thumb_func
 648              		.fpu softvfp
 650              	HAL_TIMEx_HallSensor_Start_DMA:
 651              	.LFB43:
 379:Drivers/STM32F0xx_HAL_Driver/Src/stm32f0xx_hal_tim_ex.c **** 
 380:Drivers/STM32F0xx_HAL_Driver/Src/stm32f0xx_hal_tim_ex.c **** /**
 381:Drivers/STM32F0xx_HAL_Driver/Src/stm32f0xx_hal_tim_ex.c ****   * @brief  Starts the TIM Hall Sensor Interface in DMA mode.
 382:Drivers/STM32F0xx_HAL_Driver/Src/stm32f0xx_hal_tim_ex.c ****   * @param  htim : TIM Hall Sensor handle
 383:Drivers/STM32F0xx_HAL_Driver/Src/stm32f0xx_hal_tim_ex.c ****   * @param  pData : The destination Buffer address.
 384:Drivers/STM32F0xx_HAL_Driver/Src/stm32f0xx_hal_tim_ex.c ****   * @param  Length : The length of data to be transferred from TIM peripheral to memory.
 385:Drivers/STM32F0xx_HAL_Driver/Src/stm32f0xx_hal_tim_ex.c ****   * @retval HAL status
 386:Drivers/STM32F0xx_HAL_Driver/Src/stm32f0xx_hal_tim_ex.c ****   */
 387:Drivers/STM32F0xx_HAL_Driver/Src/stm32f0xx_hal_tim_ex.c **** HAL_StatusTypeDef HAL_TIMEx_HallSensor_Start_DMA(TIM_HandleTypeDef *htim, uint32_t *pData, uint16_t
 388:Drivers/STM32F0xx_HAL_Driver/Src/stm32f0xx_hal_tim_ex.c **** {
 652              		.loc 1 388 0
 653              		.cfi_startproc
 654 0000 80B5     		push	{r7, lr}
 655              	.LCFI24:
ARM GAS  /tmp/cct1Lg5Q.s 			page 19


 656              		.cfi_def_cfa_offset 8
 657              		.cfi_offset 7, -8
 658              		.cfi_offset 14, -4
 659 0002 84B0     		sub	sp, sp, #16
 660              	.LCFI25:
 661              		.cfi_def_cfa_offset 24
 662 0004 00AF     		add	r7, sp, #0
 663              	.LCFI26:
 664              		.cfi_def_cfa_register 7
 665 0006 F860     		str	r0, [r7, #12]
 666 0008 B960     		str	r1, [r7, #8]
 667 000a BB1D     		adds	r3, r7, #6
 668 000c 1A80     		strh	r2, [r3]
 389:Drivers/STM32F0xx_HAL_Driver/Src/stm32f0xx_hal_tim_ex.c ****   /* Check the parameters */
 390:Drivers/STM32F0xx_HAL_Driver/Src/stm32f0xx_hal_tim_ex.c ****   assert_param(IS_TIM_HALL_INTERFACE_INSTANCE(htim->Instance));
 391:Drivers/STM32F0xx_HAL_Driver/Src/stm32f0xx_hal_tim_ex.c **** 
 392:Drivers/STM32F0xx_HAL_Driver/Src/stm32f0xx_hal_tim_ex.c ****    if((htim->State == HAL_TIM_STATE_BUSY))
 669              		.loc 1 392 0
 670 000e FB68     		ldr	r3, [r7, #12]
 671 0010 3922     		movs	r2, #57
 672 0012 9B5C     		ldrb	r3, [r3, r2]
 673 0014 DBB2     		uxtb	r3, r3
 674 0016 022B     		cmp	r3, #2
 675 0018 01D1     		bne	.L28
 393:Drivers/STM32F0xx_HAL_Driver/Src/stm32f0xx_hal_tim_ex.c ****   {
 394:Drivers/STM32F0xx_HAL_Driver/Src/stm32f0xx_hal_tim_ex.c ****      return HAL_BUSY;
 676              		.loc 1 394 0
 677 001a 0223     		movs	r3, #2
 678 001c 3EE0     		b	.L29
 679              	.L28:
 395:Drivers/STM32F0xx_HAL_Driver/Src/stm32f0xx_hal_tim_ex.c ****   }
 396:Drivers/STM32F0xx_HAL_Driver/Src/stm32f0xx_hal_tim_ex.c ****   else if((htim->State == HAL_TIM_STATE_READY))
 680              		.loc 1 396 0
 681 001e FB68     		ldr	r3, [r7, #12]
 682 0020 3922     		movs	r2, #57
 683 0022 9B5C     		ldrb	r3, [r3, r2]
 684 0024 DBB2     		uxtb	r3, r3
 685 0026 012B     		cmp	r3, #1
 686 0028 0CD1     		bne	.L30
 397:Drivers/STM32F0xx_HAL_Driver/Src/stm32f0xx_hal_tim_ex.c ****   {
 398:Drivers/STM32F0xx_HAL_Driver/Src/stm32f0xx_hal_tim_ex.c ****     if(((uint32_t)pData == 0 ) && (Length > 0))
 687              		.loc 1 398 0
 688 002a BB68     		ldr	r3, [r7, #8]
 689 002c 002B     		cmp	r3, #0
 690 002e 05D1     		bne	.L31
 691              		.loc 1 398 0 is_stmt 0 discriminator 1
 692 0030 BB1D     		adds	r3, r7, #6
 693 0032 1B88     		ldrh	r3, [r3]
 694 0034 002B     		cmp	r3, #0
 695 0036 01D0     		beq	.L31
 399:Drivers/STM32F0xx_HAL_Driver/Src/stm32f0xx_hal_tim_ex.c ****     {
 400:Drivers/STM32F0xx_HAL_Driver/Src/stm32f0xx_hal_tim_ex.c ****       return HAL_ERROR;
 696              		.loc 1 400 0 is_stmt 1
 697 0038 0123     		movs	r3, #1
 698 003a 2FE0     		b	.L29
 699              	.L31:
 401:Drivers/STM32F0xx_HAL_Driver/Src/stm32f0xx_hal_tim_ex.c ****     }
ARM GAS  /tmp/cct1Lg5Q.s 			page 20


 402:Drivers/STM32F0xx_HAL_Driver/Src/stm32f0xx_hal_tim_ex.c ****     else
 403:Drivers/STM32F0xx_HAL_Driver/Src/stm32f0xx_hal_tim_ex.c ****     {
 404:Drivers/STM32F0xx_HAL_Driver/Src/stm32f0xx_hal_tim_ex.c ****       htim->State = HAL_TIM_STATE_BUSY;
 700              		.loc 1 404 0
 701 003c FB68     		ldr	r3, [r7, #12]
 702 003e 3922     		movs	r2, #57
 703 0040 0221     		movs	r1, #2
 704 0042 9954     		strb	r1, [r3, r2]
 705              	.L30:
 405:Drivers/STM32F0xx_HAL_Driver/Src/stm32f0xx_hal_tim_ex.c ****     }
 406:Drivers/STM32F0xx_HAL_Driver/Src/stm32f0xx_hal_tim_ex.c ****   }
 407:Drivers/STM32F0xx_HAL_Driver/Src/stm32f0xx_hal_tim_ex.c ****   /* Enable the Input Capture channel 1
 408:Drivers/STM32F0xx_HAL_Driver/Src/stm32f0xx_hal_tim_ex.c ****     (in the Hall Sensor Interface the three possible channels that can be used are TIM_CHANNEL_1, T
 409:Drivers/STM32F0xx_HAL_Driver/Src/stm32f0xx_hal_tim_ex.c ****   TIM_CCxChannelCmd(htim->Instance, TIM_CHANNEL_1, TIM_CCx_ENABLE);
 706              		.loc 1 409 0
 707 0044 FB68     		ldr	r3, [r7, #12]
 708 0046 1B68     		ldr	r3, [r3]
 709 0048 0122     		movs	r2, #1
 710 004a 0021     		movs	r1, #0
 711 004c 1800     		movs	r0, r3
 712 004e FFF7FEFF 		bl	TIM_CCxChannelCmd
 410:Drivers/STM32F0xx_HAL_Driver/Src/stm32f0xx_hal_tim_ex.c **** 
 411:Drivers/STM32F0xx_HAL_Driver/Src/stm32f0xx_hal_tim_ex.c ****   /* Set the DMA Input Capture 1 Callback */
 412:Drivers/STM32F0xx_HAL_Driver/Src/stm32f0xx_hal_tim_ex.c ****   htim->hdma[TIM_DMA_ID_CC1]->XferCpltCallback = TIM_DMACaptureCplt;
 713              		.loc 1 412 0
 714 0052 FB68     		ldr	r3, [r7, #12]
 715 0054 1B6A     		ldr	r3, [r3, #32]
 716 0056 134A     		ldr	r2, .L32
 717 0058 9A62     		str	r2, [r3, #40]
 413:Drivers/STM32F0xx_HAL_Driver/Src/stm32f0xx_hal_tim_ex.c ****   /* Set the DMA error callback */
 414:Drivers/STM32F0xx_HAL_Driver/Src/stm32f0xx_hal_tim_ex.c ****   htim->hdma[TIM_DMA_ID_CC1]->XferErrorCallback = TIM_DMAError ;
 718              		.loc 1 414 0
 719 005a FB68     		ldr	r3, [r7, #12]
 720 005c 1B6A     		ldr	r3, [r3, #32]
 721 005e 124A     		ldr	r2, .L32+4
 722 0060 1A63     		str	r2, [r3, #48]
 415:Drivers/STM32F0xx_HAL_Driver/Src/stm32f0xx_hal_tim_ex.c **** 
 416:Drivers/STM32F0xx_HAL_Driver/Src/stm32f0xx_hal_tim_ex.c ****   /* Enable the DMA channel for Capture 1*/
 417:Drivers/STM32F0xx_HAL_Driver/Src/stm32f0xx_hal_tim_ex.c ****   HAL_DMA_Start_IT(htim->hdma[TIM_DMA_ID_CC1], (uint32_t)&htim->Instance->CCR1, (uint32_t)pData, Le
 723              		.loc 1 417 0
 724 0062 FB68     		ldr	r3, [r7, #12]
 725 0064 186A     		ldr	r0, [r3, #32]
 726 0066 FB68     		ldr	r3, [r7, #12]
 727 0068 1B68     		ldr	r3, [r3]
 728 006a 3433     		adds	r3, r3, #52
 729 006c 1900     		movs	r1, r3
 730 006e BA68     		ldr	r2, [r7, #8]
 731 0070 BB1D     		adds	r3, r7, #6
 732 0072 1B88     		ldrh	r3, [r3]
 733 0074 FFF7FEFF 		bl	HAL_DMA_Start_IT
 418:Drivers/STM32F0xx_HAL_Driver/Src/stm32f0xx_hal_tim_ex.c **** 
 419:Drivers/STM32F0xx_HAL_Driver/Src/stm32f0xx_hal_tim_ex.c ****   /* Enable the capture compare 1 Interrupt */
 420:Drivers/STM32F0xx_HAL_Driver/Src/stm32f0xx_hal_tim_ex.c ****   __HAL_TIM_ENABLE_DMA(htim, TIM_DMA_CC1);
 734              		.loc 1 420 0
 735 0078 FB68     		ldr	r3, [r7, #12]
 736 007a 1B68     		ldr	r3, [r3]
 737 007c FA68     		ldr	r2, [r7, #12]
ARM GAS  /tmp/cct1Lg5Q.s 			page 21


 738 007e 1268     		ldr	r2, [r2]
 739 0080 D268     		ldr	r2, [r2, #12]
 740 0082 8021     		movs	r1, #128
 741 0084 8900     		lsls	r1, r1, #2
 742 0086 0A43     		orrs	r2, r1
 743 0088 DA60     		str	r2, [r3, #12]
 421:Drivers/STM32F0xx_HAL_Driver/Src/stm32f0xx_hal_tim_ex.c **** 
 422:Drivers/STM32F0xx_HAL_Driver/Src/stm32f0xx_hal_tim_ex.c ****   /* Enable the Peripheral */
 423:Drivers/STM32F0xx_HAL_Driver/Src/stm32f0xx_hal_tim_ex.c ****   __HAL_TIM_ENABLE(htim);
 744              		.loc 1 423 0
 745 008a FB68     		ldr	r3, [r7, #12]
 746 008c 1B68     		ldr	r3, [r3]
 747 008e FA68     		ldr	r2, [r7, #12]
 748 0090 1268     		ldr	r2, [r2]
 749 0092 1268     		ldr	r2, [r2]
 750 0094 0121     		movs	r1, #1
 751 0096 0A43     		orrs	r2, r1
 752 0098 1A60     		str	r2, [r3]
 424:Drivers/STM32F0xx_HAL_Driver/Src/stm32f0xx_hal_tim_ex.c **** 
 425:Drivers/STM32F0xx_HAL_Driver/Src/stm32f0xx_hal_tim_ex.c ****   /* Return function status */
 426:Drivers/STM32F0xx_HAL_Driver/Src/stm32f0xx_hal_tim_ex.c ****   return HAL_OK;
 753              		.loc 1 426 0
 754 009a 0023     		movs	r3, #0
 755              	.L29:
 427:Drivers/STM32F0xx_HAL_Driver/Src/stm32f0xx_hal_tim_ex.c **** }
 756              		.loc 1 427 0
 757 009c 1800     		movs	r0, r3
 758 009e BD46     		mov	sp, r7
 759 00a0 04B0     		add	sp, sp, #16
 760              		@ sp needed
 761 00a2 80BD     		pop	{r7, pc}
 762              	.L33:
 763              		.align	2
 764              	.L32:
 765 00a4 00000000 		.word	TIM_DMACaptureCplt
 766 00a8 00000000 		.word	TIM_DMAError
 767              		.cfi_endproc
 768              	.LFE43:
 770              		.section	.text.HAL_TIMEx_HallSensor_Stop_DMA,"ax",%progbits
 771              		.align	1
 772              		.global	HAL_TIMEx_HallSensor_Stop_DMA
 773              		.syntax unified
 774              		.code	16
 775              		.thumb_func
 776              		.fpu softvfp
 778              	HAL_TIMEx_HallSensor_Stop_DMA:
 779              	.LFB44:
 428:Drivers/STM32F0xx_HAL_Driver/Src/stm32f0xx_hal_tim_ex.c **** 
 429:Drivers/STM32F0xx_HAL_Driver/Src/stm32f0xx_hal_tim_ex.c **** /**
 430:Drivers/STM32F0xx_HAL_Driver/Src/stm32f0xx_hal_tim_ex.c ****   * @brief  Stops the TIM Hall Sensor Interface in DMA mode.
 431:Drivers/STM32F0xx_HAL_Driver/Src/stm32f0xx_hal_tim_ex.c ****   * @param  htim : TIM handle
 432:Drivers/STM32F0xx_HAL_Driver/Src/stm32f0xx_hal_tim_ex.c ****   * @retval HAL status
 433:Drivers/STM32F0xx_HAL_Driver/Src/stm32f0xx_hal_tim_ex.c ****   */
 434:Drivers/STM32F0xx_HAL_Driver/Src/stm32f0xx_hal_tim_ex.c **** HAL_StatusTypeDef HAL_TIMEx_HallSensor_Stop_DMA(TIM_HandleTypeDef *htim)
 435:Drivers/STM32F0xx_HAL_Driver/Src/stm32f0xx_hal_tim_ex.c **** {
 780              		.loc 1 435 0
 781              		.cfi_startproc
ARM GAS  /tmp/cct1Lg5Q.s 			page 22


 782 0000 80B5     		push	{r7, lr}
 783              	.LCFI27:
 784              		.cfi_def_cfa_offset 8
 785              		.cfi_offset 7, -8
 786              		.cfi_offset 14, -4
 787 0002 82B0     		sub	sp, sp, #8
 788              	.LCFI28:
 789              		.cfi_def_cfa_offset 16
 790 0004 00AF     		add	r7, sp, #0
 791              	.LCFI29:
 792              		.cfi_def_cfa_register 7
 793 0006 7860     		str	r0, [r7, #4]
 436:Drivers/STM32F0xx_HAL_Driver/Src/stm32f0xx_hal_tim_ex.c ****   /* Check the parameters */
 437:Drivers/STM32F0xx_HAL_Driver/Src/stm32f0xx_hal_tim_ex.c ****   assert_param(IS_TIM_HALL_INTERFACE_INSTANCE(htim->Instance));
 438:Drivers/STM32F0xx_HAL_Driver/Src/stm32f0xx_hal_tim_ex.c **** 
 439:Drivers/STM32F0xx_HAL_Driver/Src/stm32f0xx_hal_tim_ex.c ****   /* Disable the Input Capture channel 1
 440:Drivers/STM32F0xx_HAL_Driver/Src/stm32f0xx_hal_tim_ex.c ****     (in the Hall Sensor Interface the three possible channels that can be used are TIM_CHANNEL_1, T
 441:Drivers/STM32F0xx_HAL_Driver/Src/stm32f0xx_hal_tim_ex.c ****   TIM_CCxChannelCmd(htim->Instance, TIM_CHANNEL_1, TIM_CCx_DISABLE);
 794              		.loc 1 441 0
 795 0008 7B68     		ldr	r3, [r7, #4]
 796 000a 1B68     		ldr	r3, [r3]
 797 000c 0022     		movs	r2, #0
 798 000e 0021     		movs	r1, #0
 799 0010 1800     		movs	r0, r3
 800 0012 FFF7FEFF 		bl	TIM_CCxChannelCmd
 442:Drivers/STM32F0xx_HAL_Driver/Src/stm32f0xx_hal_tim_ex.c **** 
 443:Drivers/STM32F0xx_HAL_Driver/Src/stm32f0xx_hal_tim_ex.c **** 
 444:Drivers/STM32F0xx_HAL_Driver/Src/stm32f0xx_hal_tim_ex.c ****   /* Disable the capture compare Interrupts 1 event */
 445:Drivers/STM32F0xx_HAL_Driver/Src/stm32f0xx_hal_tim_ex.c ****   __HAL_TIM_DISABLE_DMA(htim, TIM_DMA_CC1);
 801              		.loc 1 445 0
 802 0016 7B68     		ldr	r3, [r7, #4]
 803 0018 1B68     		ldr	r3, [r3]
 804 001a 7A68     		ldr	r2, [r7, #4]
 805 001c 1268     		ldr	r2, [r2]
 806 001e D268     		ldr	r2, [r2, #12]
 807 0020 0D49     		ldr	r1, .L37
 808 0022 0A40     		ands	r2, r1
 809 0024 DA60     		str	r2, [r3, #12]
 446:Drivers/STM32F0xx_HAL_Driver/Src/stm32f0xx_hal_tim_ex.c **** 
 447:Drivers/STM32F0xx_HAL_Driver/Src/stm32f0xx_hal_tim_ex.c ****   /* Disable the Peripheral */
 448:Drivers/STM32F0xx_HAL_Driver/Src/stm32f0xx_hal_tim_ex.c ****   __HAL_TIM_DISABLE(htim);
 810              		.loc 1 448 0
 811 0026 7B68     		ldr	r3, [r7, #4]
 812 0028 1B68     		ldr	r3, [r3]
 813 002a 1B6A     		ldr	r3, [r3, #32]
 814 002c 0B4A     		ldr	r2, .L37+4
 815 002e 1340     		ands	r3, r2
 816 0030 0DD1     		bne	.L35
 817              		.loc 1 448 0 is_stmt 0 discriminator 1
 818 0032 7B68     		ldr	r3, [r7, #4]
 819 0034 1B68     		ldr	r3, [r3]
 820 0036 1B6A     		ldr	r3, [r3, #32]
 821 0038 094A     		ldr	r2, .L37+8
 822 003a 1340     		ands	r3, r2
 823 003c 07D1     		bne	.L35
 824              		.loc 1 448 0 discriminator 2
 825 003e 7B68     		ldr	r3, [r7, #4]
ARM GAS  /tmp/cct1Lg5Q.s 			page 23


 826 0040 1B68     		ldr	r3, [r3]
 827 0042 7A68     		ldr	r2, [r7, #4]
 828 0044 1268     		ldr	r2, [r2]
 829 0046 1268     		ldr	r2, [r2]
 830 0048 0121     		movs	r1, #1
 831 004a 8A43     		bics	r2, r1
 832 004c 1A60     		str	r2, [r3]
 833              	.L35:
 449:Drivers/STM32F0xx_HAL_Driver/Src/stm32f0xx_hal_tim_ex.c **** 
 450:Drivers/STM32F0xx_HAL_Driver/Src/stm32f0xx_hal_tim_ex.c ****   /* Return function status */
 451:Drivers/STM32F0xx_HAL_Driver/Src/stm32f0xx_hal_tim_ex.c ****   return HAL_OK;
 834              		.loc 1 451 0 is_stmt 1
 835 004e 0023     		movs	r3, #0
 452:Drivers/STM32F0xx_HAL_Driver/Src/stm32f0xx_hal_tim_ex.c **** }
 836              		.loc 1 452 0
 837 0050 1800     		movs	r0, r3
 838 0052 BD46     		mov	sp, r7
 839 0054 02B0     		add	sp, sp, #8
 840              		@ sp needed
 841 0056 80BD     		pop	{r7, pc}
 842              	.L38:
 843              		.align	2
 844              	.L37:
 845 0058 FFFDFFFF 		.word	-513
 846 005c 11110000 		.word	4369
 847 0060 44040000 		.word	1092
 848              		.cfi_endproc
 849              	.LFE44:
 851              		.section	.text.HAL_TIMEx_OCN_Start,"ax",%progbits
 852              		.align	1
 853              		.global	HAL_TIMEx_OCN_Start
 854              		.syntax unified
 855              		.code	16
 856              		.thumb_func
 857              		.fpu softvfp
 859              	HAL_TIMEx_OCN_Start:
 860              	.LFB45:
 453:Drivers/STM32F0xx_HAL_Driver/Src/stm32f0xx_hal_tim_ex.c **** 
 454:Drivers/STM32F0xx_HAL_Driver/Src/stm32f0xx_hal_tim_ex.c **** /**
 455:Drivers/STM32F0xx_HAL_Driver/Src/stm32f0xx_hal_tim_ex.c ****   * @}
 456:Drivers/STM32F0xx_HAL_Driver/Src/stm32f0xx_hal_tim_ex.c ****   */
 457:Drivers/STM32F0xx_HAL_Driver/Src/stm32f0xx_hal_tim_ex.c **** 
 458:Drivers/STM32F0xx_HAL_Driver/Src/stm32f0xx_hal_tim_ex.c **** /** @defgroup TIMEx_Exported_Functions_Group2 Timer Complementary Output Compare functions
 459:Drivers/STM32F0xx_HAL_Driver/Src/stm32f0xx_hal_tim_ex.c ****  *  @brief    Timer Complementary Output Compare functions 
 460:Drivers/STM32F0xx_HAL_Driver/Src/stm32f0xx_hal_tim_ex.c ****  *
 461:Drivers/STM32F0xx_HAL_Driver/Src/stm32f0xx_hal_tim_ex.c **** @verbatim 
 462:Drivers/STM32F0xx_HAL_Driver/Src/stm32f0xx_hal_tim_ex.c ****   ==============================================================================
 463:Drivers/STM32F0xx_HAL_Driver/Src/stm32f0xx_hal_tim_ex.c ****               ##### Timer Complementary Output Compare functions #####
 464:Drivers/STM32F0xx_HAL_Driver/Src/stm32f0xx_hal_tim_ex.c ****   ==============================================================================
 465:Drivers/STM32F0xx_HAL_Driver/Src/stm32f0xx_hal_tim_ex.c ****   [..]
 466:Drivers/STM32F0xx_HAL_Driver/Src/stm32f0xx_hal_tim_ex.c ****     This section provides functions allowing to:
 467:Drivers/STM32F0xx_HAL_Driver/Src/stm32f0xx_hal_tim_ex.c ****     (+) Start the Complementary Output Compare/PWM.
 468:Drivers/STM32F0xx_HAL_Driver/Src/stm32f0xx_hal_tim_ex.c ****     (+) Stop the Complementary Output Compare/PWM.
 469:Drivers/STM32F0xx_HAL_Driver/Src/stm32f0xx_hal_tim_ex.c ****     (+) Start the Complementary Output Compare/PWM and enable interrupts.
 470:Drivers/STM32F0xx_HAL_Driver/Src/stm32f0xx_hal_tim_ex.c ****     (+) Stop the Complementary Output Compare/PWM and disable interrupts.
 471:Drivers/STM32F0xx_HAL_Driver/Src/stm32f0xx_hal_tim_ex.c ****     (+) Start the Complementary Output Compare/PWM and enable DMA transfers.
 472:Drivers/STM32F0xx_HAL_Driver/Src/stm32f0xx_hal_tim_ex.c ****     (+) Stop the Complementary Output Compare/PWM and disable DMA transfers.
ARM GAS  /tmp/cct1Lg5Q.s 			page 24


 473:Drivers/STM32F0xx_HAL_Driver/Src/stm32f0xx_hal_tim_ex.c **** 
 474:Drivers/STM32F0xx_HAL_Driver/Src/stm32f0xx_hal_tim_ex.c **** @endverbatim
 475:Drivers/STM32F0xx_HAL_Driver/Src/stm32f0xx_hal_tim_ex.c ****   * @{
 476:Drivers/STM32F0xx_HAL_Driver/Src/stm32f0xx_hal_tim_ex.c ****   */
 477:Drivers/STM32F0xx_HAL_Driver/Src/stm32f0xx_hal_tim_ex.c **** 
 478:Drivers/STM32F0xx_HAL_Driver/Src/stm32f0xx_hal_tim_ex.c **** /**
 479:Drivers/STM32F0xx_HAL_Driver/Src/stm32f0xx_hal_tim_ex.c ****   * @brief  Starts the TIM Output Compare signal generation on the complementary
 480:Drivers/STM32F0xx_HAL_Driver/Src/stm32f0xx_hal_tim_ex.c ****   *         output.
 481:Drivers/STM32F0xx_HAL_Driver/Src/stm32f0xx_hal_tim_ex.c ****   * @param  htim : TIM Output Compare handle 
 482:Drivers/STM32F0xx_HAL_Driver/Src/stm32f0xx_hal_tim_ex.c ****   * @param  Channel : TIM Channel to be enabled
 483:Drivers/STM32F0xx_HAL_Driver/Src/stm32f0xx_hal_tim_ex.c ****   *          This parameter can be one of the following values:
 484:Drivers/STM32F0xx_HAL_Driver/Src/stm32f0xx_hal_tim_ex.c ****   *            @arg TIM_CHANNEL_1: TIM Channel 1 selected
 485:Drivers/STM32F0xx_HAL_Driver/Src/stm32f0xx_hal_tim_ex.c ****   *            @arg TIM_CHANNEL_2: TIM Channel 2 selected
 486:Drivers/STM32F0xx_HAL_Driver/Src/stm32f0xx_hal_tim_ex.c ****   *            @arg TIM_CHANNEL_3: TIM Channel 3 selected
 487:Drivers/STM32F0xx_HAL_Driver/Src/stm32f0xx_hal_tim_ex.c ****   *            @arg TIM_CHANNEL_4: TIM Channel 4 selected
 488:Drivers/STM32F0xx_HAL_Driver/Src/stm32f0xx_hal_tim_ex.c ****   * @retval HAL status
 489:Drivers/STM32F0xx_HAL_Driver/Src/stm32f0xx_hal_tim_ex.c ****   */
 490:Drivers/STM32F0xx_HAL_Driver/Src/stm32f0xx_hal_tim_ex.c **** HAL_StatusTypeDef HAL_TIMEx_OCN_Start(TIM_HandleTypeDef *htim, uint32_t Channel)
 491:Drivers/STM32F0xx_HAL_Driver/Src/stm32f0xx_hal_tim_ex.c **** {
 861              		.loc 1 491 0
 862              		.cfi_startproc
 863 0000 80B5     		push	{r7, lr}
 864              	.LCFI30:
 865              		.cfi_def_cfa_offset 8
 866              		.cfi_offset 7, -8
 867              		.cfi_offset 14, -4
 868 0002 82B0     		sub	sp, sp, #8
 869              	.LCFI31:
 870              		.cfi_def_cfa_offset 16
 871 0004 00AF     		add	r7, sp, #0
 872              	.LCFI32:
 873              		.cfi_def_cfa_register 7
 874 0006 7860     		str	r0, [r7, #4]
 875 0008 3960     		str	r1, [r7]
 492:Drivers/STM32F0xx_HAL_Driver/Src/stm32f0xx_hal_tim_ex.c ****   /* Check the parameters */
 493:Drivers/STM32F0xx_HAL_Driver/Src/stm32f0xx_hal_tim_ex.c ****   assert_param(IS_TIM_CCXN_INSTANCE(htim->Instance, Channel));
 494:Drivers/STM32F0xx_HAL_Driver/Src/stm32f0xx_hal_tim_ex.c **** 
 495:Drivers/STM32F0xx_HAL_Driver/Src/stm32f0xx_hal_tim_ex.c ****      /* Enable the Capture compare channel N */
 496:Drivers/STM32F0xx_HAL_Driver/Src/stm32f0xx_hal_tim_ex.c ****      TIM_CCxNChannelCmd(htim->Instance, Channel, TIM_CCxN_ENABLE);
 876              		.loc 1 496 0
 877 000a 7B68     		ldr	r3, [r7, #4]
 878 000c 1B68     		ldr	r3, [r3]
 879 000e 3968     		ldr	r1, [r7]
 880 0010 0422     		movs	r2, #4
 881 0012 1800     		movs	r0, r3
 882 0014 FFF7FEFF 		bl	TIM_CCxNChannelCmd
 497:Drivers/STM32F0xx_HAL_Driver/Src/stm32f0xx_hal_tim_ex.c **** 
 498:Drivers/STM32F0xx_HAL_Driver/Src/stm32f0xx_hal_tim_ex.c ****   /* Enable the Main Ouput */
 499:Drivers/STM32F0xx_HAL_Driver/Src/stm32f0xx_hal_tim_ex.c ****     __HAL_TIM_MOE_ENABLE(htim);
 883              		.loc 1 499 0
 884 0018 7B68     		ldr	r3, [r7, #4]
 885 001a 1B68     		ldr	r3, [r3]
 886 001c 7A68     		ldr	r2, [r7, #4]
 887 001e 1268     		ldr	r2, [r2]
 888 0020 526C     		ldr	r2, [r2, #68]
 889 0022 8021     		movs	r1, #128
 890 0024 0902     		lsls	r1, r1, #8
ARM GAS  /tmp/cct1Lg5Q.s 			page 25


 891 0026 0A43     		orrs	r2, r1
 892 0028 5A64     		str	r2, [r3, #68]
 500:Drivers/STM32F0xx_HAL_Driver/Src/stm32f0xx_hal_tim_ex.c **** 
 501:Drivers/STM32F0xx_HAL_Driver/Src/stm32f0xx_hal_tim_ex.c ****   /* Enable the Peripheral */
 502:Drivers/STM32F0xx_HAL_Driver/Src/stm32f0xx_hal_tim_ex.c ****   __HAL_TIM_ENABLE(htim);
 893              		.loc 1 502 0
 894 002a 7B68     		ldr	r3, [r7, #4]
 895 002c 1B68     		ldr	r3, [r3]
 896 002e 7A68     		ldr	r2, [r7, #4]
 897 0030 1268     		ldr	r2, [r2]
 898 0032 1268     		ldr	r2, [r2]
 899 0034 0121     		movs	r1, #1
 900 0036 0A43     		orrs	r2, r1
 901 0038 1A60     		str	r2, [r3]
 503:Drivers/STM32F0xx_HAL_Driver/Src/stm32f0xx_hal_tim_ex.c **** 
 504:Drivers/STM32F0xx_HAL_Driver/Src/stm32f0xx_hal_tim_ex.c ****   /* Return function status */
 505:Drivers/STM32F0xx_HAL_Driver/Src/stm32f0xx_hal_tim_ex.c ****   return HAL_OK;
 902              		.loc 1 505 0
 903 003a 0023     		movs	r3, #0
 506:Drivers/STM32F0xx_HAL_Driver/Src/stm32f0xx_hal_tim_ex.c **** }
 904              		.loc 1 506 0
 905 003c 1800     		movs	r0, r3
 906 003e BD46     		mov	sp, r7
 907 0040 02B0     		add	sp, sp, #8
 908              		@ sp needed
 909 0042 80BD     		pop	{r7, pc}
 910              		.cfi_endproc
 911              	.LFE45:
 913              		.section	.text.HAL_TIMEx_OCN_Stop,"ax",%progbits
 914              		.align	1
 915              		.global	HAL_TIMEx_OCN_Stop
 916              		.syntax unified
 917              		.code	16
 918              		.thumb_func
 919              		.fpu softvfp
 921              	HAL_TIMEx_OCN_Stop:
 922              	.LFB46:
 507:Drivers/STM32F0xx_HAL_Driver/Src/stm32f0xx_hal_tim_ex.c **** 
 508:Drivers/STM32F0xx_HAL_Driver/Src/stm32f0xx_hal_tim_ex.c **** /**
 509:Drivers/STM32F0xx_HAL_Driver/Src/stm32f0xx_hal_tim_ex.c ****   * @brief  Stops the TIM Output Compare signal generation on the complementary
 510:Drivers/STM32F0xx_HAL_Driver/Src/stm32f0xx_hal_tim_ex.c ****   *         output.
 511:Drivers/STM32F0xx_HAL_Driver/Src/stm32f0xx_hal_tim_ex.c ****   * @param  htim : TIM handle
 512:Drivers/STM32F0xx_HAL_Driver/Src/stm32f0xx_hal_tim_ex.c ****   * @param  Channel : TIM Channel to be disabled
 513:Drivers/STM32F0xx_HAL_Driver/Src/stm32f0xx_hal_tim_ex.c ****   *          This parameter can be one of the following values:
 514:Drivers/STM32F0xx_HAL_Driver/Src/stm32f0xx_hal_tim_ex.c ****   *            @arg TIM_CHANNEL_1: TIM Channel 1 selected
 515:Drivers/STM32F0xx_HAL_Driver/Src/stm32f0xx_hal_tim_ex.c ****   *            @arg TIM_CHANNEL_2: TIM Channel 2 selected
 516:Drivers/STM32F0xx_HAL_Driver/Src/stm32f0xx_hal_tim_ex.c ****   *            @arg TIM_CHANNEL_3: TIM Channel 3 selected
 517:Drivers/STM32F0xx_HAL_Driver/Src/stm32f0xx_hal_tim_ex.c ****   *            @arg TIM_CHANNEL_4: TIM Channel 4 selected
 518:Drivers/STM32F0xx_HAL_Driver/Src/stm32f0xx_hal_tim_ex.c ****   * @retval HAL status
 519:Drivers/STM32F0xx_HAL_Driver/Src/stm32f0xx_hal_tim_ex.c ****   */
 520:Drivers/STM32F0xx_HAL_Driver/Src/stm32f0xx_hal_tim_ex.c **** HAL_StatusTypeDef HAL_TIMEx_OCN_Stop(TIM_HandleTypeDef *htim, uint32_t Channel)
 521:Drivers/STM32F0xx_HAL_Driver/Src/stm32f0xx_hal_tim_ex.c **** {
 923              		.loc 1 521 0
 924              		.cfi_startproc
 925 0000 80B5     		push	{r7, lr}
 926              	.LCFI33:
 927              		.cfi_def_cfa_offset 8
ARM GAS  /tmp/cct1Lg5Q.s 			page 26


 928              		.cfi_offset 7, -8
 929              		.cfi_offset 14, -4
 930 0002 82B0     		sub	sp, sp, #8
 931              	.LCFI34:
 932              		.cfi_def_cfa_offset 16
 933 0004 00AF     		add	r7, sp, #0
 934              	.LCFI35:
 935              		.cfi_def_cfa_register 7
 936 0006 7860     		str	r0, [r7, #4]
 937 0008 3960     		str	r1, [r7]
 522:Drivers/STM32F0xx_HAL_Driver/Src/stm32f0xx_hal_tim_ex.c ****   /* Check the parameters */
 523:Drivers/STM32F0xx_HAL_Driver/Src/stm32f0xx_hal_tim_ex.c ****   assert_param(IS_TIM_CCXN_INSTANCE(htim->Instance, Channel));
 524:Drivers/STM32F0xx_HAL_Driver/Src/stm32f0xx_hal_tim_ex.c **** 
 525:Drivers/STM32F0xx_HAL_Driver/Src/stm32f0xx_hal_tim_ex.c ****     /* Disable the Capture compare channel N */
 526:Drivers/STM32F0xx_HAL_Driver/Src/stm32f0xx_hal_tim_ex.c ****   TIM_CCxNChannelCmd(htim->Instance, Channel, TIM_CCxN_DISABLE);
 938              		.loc 1 526 0
 939 000a 7B68     		ldr	r3, [r7, #4]
 940 000c 1B68     		ldr	r3, [r3]
 941 000e 3968     		ldr	r1, [r7]
 942 0010 0022     		movs	r2, #0
 943 0012 1800     		movs	r0, r3
 944 0014 FFF7FEFF 		bl	TIM_CCxNChannelCmd
 527:Drivers/STM32F0xx_HAL_Driver/Src/stm32f0xx_hal_tim_ex.c **** 
 528:Drivers/STM32F0xx_HAL_Driver/Src/stm32f0xx_hal_tim_ex.c ****   /* Disable the Main Ouput */
 529:Drivers/STM32F0xx_HAL_Driver/Src/stm32f0xx_hal_tim_ex.c ****     __HAL_TIM_MOE_DISABLE(htim);
 945              		.loc 1 529 0
 946 0018 7B68     		ldr	r3, [r7, #4]
 947 001a 1B68     		ldr	r3, [r3]
 948 001c 1B6A     		ldr	r3, [r3, #32]
 949 001e 154A     		ldr	r2, .L45
 950 0020 1340     		ands	r3, r2
 951 0022 0DD1     		bne	.L42
 952              		.loc 1 529 0 is_stmt 0 discriminator 1
 953 0024 7B68     		ldr	r3, [r7, #4]
 954 0026 1B68     		ldr	r3, [r3]
 955 0028 1B6A     		ldr	r3, [r3, #32]
 956 002a 134A     		ldr	r2, .L45+4
 957 002c 1340     		ands	r3, r2
 958 002e 07D1     		bne	.L42
 959              		.loc 1 529 0 discriminator 2
 960 0030 7B68     		ldr	r3, [r7, #4]
 961 0032 1B68     		ldr	r3, [r3]
 962 0034 7A68     		ldr	r2, [r7, #4]
 963 0036 1268     		ldr	r2, [r2]
 964 0038 526C     		ldr	r2, [r2, #68]
 965 003a 1049     		ldr	r1, .L45+8
 966 003c 0A40     		ands	r2, r1
 967 003e 5A64     		str	r2, [r3, #68]
 968              	.L42:
 530:Drivers/STM32F0xx_HAL_Driver/Src/stm32f0xx_hal_tim_ex.c **** 
 531:Drivers/STM32F0xx_HAL_Driver/Src/stm32f0xx_hal_tim_ex.c ****   /* Disable the Peripheral */
 532:Drivers/STM32F0xx_HAL_Driver/Src/stm32f0xx_hal_tim_ex.c ****   __HAL_TIM_DISABLE(htim);
 969              		.loc 1 532 0 is_stmt 1
 970 0040 7B68     		ldr	r3, [r7, #4]
 971 0042 1B68     		ldr	r3, [r3]
 972 0044 1B6A     		ldr	r3, [r3, #32]
 973 0046 0B4A     		ldr	r2, .L45
ARM GAS  /tmp/cct1Lg5Q.s 			page 27


 974 0048 1340     		ands	r3, r2
 975 004a 0DD1     		bne	.L43
 976              		.loc 1 532 0 is_stmt 0 discriminator 1
 977 004c 7B68     		ldr	r3, [r7, #4]
 978 004e 1B68     		ldr	r3, [r3]
 979 0050 1B6A     		ldr	r3, [r3, #32]
 980 0052 094A     		ldr	r2, .L45+4
 981 0054 1340     		ands	r3, r2
 982 0056 07D1     		bne	.L43
 983              		.loc 1 532 0 discriminator 2
 984 0058 7B68     		ldr	r3, [r7, #4]
 985 005a 1B68     		ldr	r3, [r3]
 986 005c 7A68     		ldr	r2, [r7, #4]
 987 005e 1268     		ldr	r2, [r2]
 988 0060 1268     		ldr	r2, [r2]
 989 0062 0121     		movs	r1, #1
 990 0064 8A43     		bics	r2, r1
 991 0066 1A60     		str	r2, [r3]
 992              	.L43:
 533:Drivers/STM32F0xx_HAL_Driver/Src/stm32f0xx_hal_tim_ex.c **** 
 534:Drivers/STM32F0xx_HAL_Driver/Src/stm32f0xx_hal_tim_ex.c ****   /* Return function status */
 535:Drivers/STM32F0xx_HAL_Driver/Src/stm32f0xx_hal_tim_ex.c ****   return HAL_OK;
 993              		.loc 1 535 0 is_stmt 1
 994 0068 0023     		movs	r3, #0
 536:Drivers/STM32F0xx_HAL_Driver/Src/stm32f0xx_hal_tim_ex.c **** }
 995              		.loc 1 536 0
 996 006a 1800     		movs	r0, r3
 997 006c BD46     		mov	sp, r7
 998 006e 02B0     		add	sp, sp, #8
 999              		@ sp needed
 1000 0070 80BD     		pop	{r7, pc}
 1001              	.L46:
 1002 0072 C046     		.align	2
 1003              	.L45:
 1004 0074 11110000 		.word	4369
 1005 0078 44040000 		.word	1092
 1006 007c FF7FFFFF 		.word	-32769
 1007              		.cfi_endproc
 1008              	.LFE46:
 1010              		.section	.text.HAL_TIMEx_OCN_Start_IT,"ax",%progbits
 1011              		.align	1
 1012              		.global	HAL_TIMEx_OCN_Start_IT
 1013              		.syntax unified
 1014              		.code	16
 1015              		.thumb_func
 1016              		.fpu softvfp
 1018              	HAL_TIMEx_OCN_Start_IT:
 1019              	.LFB47:
 537:Drivers/STM32F0xx_HAL_Driver/Src/stm32f0xx_hal_tim_ex.c **** 
 538:Drivers/STM32F0xx_HAL_Driver/Src/stm32f0xx_hal_tim_ex.c **** /**
 539:Drivers/STM32F0xx_HAL_Driver/Src/stm32f0xx_hal_tim_ex.c ****   * @brief  Starts the TIM Output Compare signal generation in interrupt mode 
 540:Drivers/STM32F0xx_HAL_Driver/Src/stm32f0xx_hal_tim_ex.c ****   *         on the complementary output.
 541:Drivers/STM32F0xx_HAL_Driver/Src/stm32f0xx_hal_tim_ex.c ****   * @param  htim : TIM OC handle
 542:Drivers/STM32F0xx_HAL_Driver/Src/stm32f0xx_hal_tim_ex.c ****   * @param  Channel : TIM Channel to be enabled
 543:Drivers/STM32F0xx_HAL_Driver/Src/stm32f0xx_hal_tim_ex.c ****   *          This parameter can be one of the following values:
 544:Drivers/STM32F0xx_HAL_Driver/Src/stm32f0xx_hal_tim_ex.c ****   *            @arg TIM_CHANNEL_1: TIM Channel 1 selected
 545:Drivers/STM32F0xx_HAL_Driver/Src/stm32f0xx_hal_tim_ex.c ****   *            @arg TIM_CHANNEL_2: TIM Channel 2 selected
ARM GAS  /tmp/cct1Lg5Q.s 			page 28


 546:Drivers/STM32F0xx_HAL_Driver/Src/stm32f0xx_hal_tim_ex.c ****   *            @arg TIM_CHANNEL_3: TIM Channel 3 selected
 547:Drivers/STM32F0xx_HAL_Driver/Src/stm32f0xx_hal_tim_ex.c ****   *            @arg TIM_CHANNEL_4: TIM Channel 4 selected
 548:Drivers/STM32F0xx_HAL_Driver/Src/stm32f0xx_hal_tim_ex.c ****   * @retval HAL status
 549:Drivers/STM32F0xx_HAL_Driver/Src/stm32f0xx_hal_tim_ex.c ****   */
 550:Drivers/STM32F0xx_HAL_Driver/Src/stm32f0xx_hal_tim_ex.c **** HAL_StatusTypeDef HAL_TIMEx_OCN_Start_IT(TIM_HandleTypeDef *htim, uint32_t Channel)
 551:Drivers/STM32F0xx_HAL_Driver/Src/stm32f0xx_hal_tim_ex.c **** {
 1020              		.loc 1 551 0
 1021              		.cfi_startproc
 1022 0000 80B5     		push	{r7, lr}
 1023              	.LCFI36:
 1024              		.cfi_def_cfa_offset 8
 1025              		.cfi_offset 7, -8
 1026              		.cfi_offset 14, -4
 1027 0002 82B0     		sub	sp, sp, #8
 1028              	.LCFI37:
 1029              		.cfi_def_cfa_offset 16
 1030 0004 00AF     		add	r7, sp, #0
 1031              	.LCFI38:
 1032              		.cfi_def_cfa_register 7
 1033 0006 7860     		str	r0, [r7, #4]
 1034 0008 3960     		str	r1, [r7]
 552:Drivers/STM32F0xx_HAL_Driver/Src/stm32f0xx_hal_tim_ex.c ****   /* Check the parameters */
 553:Drivers/STM32F0xx_HAL_Driver/Src/stm32f0xx_hal_tim_ex.c ****   assert_param(IS_TIM_CCXN_INSTANCE(htim->Instance, Channel));
 554:Drivers/STM32F0xx_HAL_Driver/Src/stm32f0xx_hal_tim_ex.c **** 
 555:Drivers/STM32F0xx_HAL_Driver/Src/stm32f0xx_hal_tim_ex.c ****   switch (Channel)
 1035              		.loc 1 555 0
 1036 000a 3B68     		ldr	r3, [r7]
 1037 000c 042B     		cmp	r3, #4
 1038 000e 11D0     		beq	.L49
 1039 0010 02D8     		bhi	.L50
 1040 0012 002B     		cmp	r3, #0
 1041 0014 05D0     		beq	.L51
 556:Drivers/STM32F0xx_HAL_Driver/Src/stm32f0xx_hal_tim_ex.c ****   {
 557:Drivers/STM32F0xx_HAL_Driver/Src/stm32f0xx_hal_tim_ex.c ****     case TIM_CHANNEL_1:
 558:Drivers/STM32F0xx_HAL_Driver/Src/stm32f0xx_hal_tim_ex.c ****     {
 559:Drivers/STM32F0xx_HAL_Driver/Src/stm32f0xx_hal_tim_ex.c ****       /* Enable the TIM Output Compare interrupt */
 560:Drivers/STM32F0xx_HAL_Driver/Src/stm32f0xx_hal_tim_ex.c ****       __HAL_TIM_ENABLE_IT(htim, TIM_IT_CC1);
 561:Drivers/STM32F0xx_HAL_Driver/Src/stm32f0xx_hal_tim_ex.c ****     }
 562:Drivers/STM32F0xx_HAL_Driver/Src/stm32f0xx_hal_tim_ex.c ****     break;
 563:Drivers/STM32F0xx_HAL_Driver/Src/stm32f0xx_hal_tim_ex.c **** 
 564:Drivers/STM32F0xx_HAL_Driver/Src/stm32f0xx_hal_tim_ex.c ****     case TIM_CHANNEL_2:
 565:Drivers/STM32F0xx_HAL_Driver/Src/stm32f0xx_hal_tim_ex.c ****     {
 566:Drivers/STM32F0xx_HAL_Driver/Src/stm32f0xx_hal_tim_ex.c ****       /* Enable the TIM Output Compare interrupt */
 567:Drivers/STM32F0xx_HAL_Driver/Src/stm32f0xx_hal_tim_ex.c ****       __HAL_TIM_ENABLE_IT(htim, TIM_IT_CC2);
 568:Drivers/STM32F0xx_HAL_Driver/Src/stm32f0xx_hal_tim_ex.c ****     }
 569:Drivers/STM32F0xx_HAL_Driver/Src/stm32f0xx_hal_tim_ex.c ****     break;
 570:Drivers/STM32F0xx_HAL_Driver/Src/stm32f0xx_hal_tim_ex.c **** 
 571:Drivers/STM32F0xx_HAL_Driver/Src/stm32f0xx_hal_tim_ex.c ****     case TIM_CHANNEL_3:
 572:Drivers/STM32F0xx_HAL_Driver/Src/stm32f0xx_hal_tim_ex.c ****     {
 573:Drivers/STM32F0xx_HAL_Driver/Src/stm32f0xx_hal_tim_ex.c ****       /* Enable the TIM Output Compare interrupt */
 574:Drivers/STM32F0xx_HAL_Driver/Src/stm32f0xx_hal_tim_ex.c ****       __HAL_TIM_ENABLE_IT(htim, TIM_IT_CC3);
 575:Drivers/STM32F0xx_HAL_Driver/Src/stm32f0xx_hal_tim_ex.c ****     }
 576:Drivers/STM32F0xx_HAL_Driver/Src/stm32f0xx_hal_tim_ex.c ****     break;
 577:Drivers/STM32F0xx_HAL_Driver/Src/stm32f0xx_hal_tim_ex.c **** 
 578:Drivers/STM32F0xx_HAL_Driver/Src/stm32f0xx_hal_tim_ex.c ****     case TIM_CHANNEL_4:
 579:Drivers/STM32F0xx_HAL_Driver/Src/stm32f0xx_hal_tim_ex.c ****     {
 580:Drivers/STM32F0xx_HAL_Driver/Src/stm32f0xx_hal_tim_ex.c ****       /* Enable the TIM Output Compare interrupt */
ARM GAS  /tmp/cct1Lg5Q.s 			page 29


 581:Drivers/STM32F0xx_HAL_Driver/Src/stm32f0xx_hal_tim_ex.c ****       __HAL_TIM_ENABLE_IT(htim, TIM_IT_CC4);
 582:Drivers/STM32F0xx_HAL_Driver/Src/stm32f0xx_hal_tim_ex.c ****     }
 583:Drivers/STM32F0xx_HAL_Driver/Src/stm32f0xx_hal_tim_ex.c ****     break;
 584:Drivers/STM32F0xx_HAL_Driver/Src/stm32f0xx_hal_tim_ex.c **** 
 585:Drivers/STM32F0xx_HAL_Driver/Src/stm32f0xx_hal_tim_ex.c ****     default:
 586:Drivers/STM32F0xx_HAL_Driver/Src/stm32f0xx_hal_tim_ex.c ****     break;
 1042              		.loc 1 586 0
 1043 0016 28E0     		b	.L54
 1044              	.L50:
 555:Drivers/STM32F0xx_HAL_Driver/Src/stm32f0xx_hal_tim_ex.c ****   {
 1045              		.loc 1 555 0
 1046 0018 082B     		cmp	r3, #8
 1047 001a 14D0     		beq	.L52
 1048 001c 0C2B     		cmp	r3, #12
 1049 001e 1BD0     		beq	.L53
 1050              		.loc 1 586 0
 1051 0020 23E0     		b	.L54
 1052              	.L51:
 560:Drivers/STM32F0xx_HAL_Driver/Src/stm32f0xx_hal_tim_ex.c ****     }
 1053              		.loc 1 560 0
 1054 0022 7B68     		ldr	r3, [r7, #4]
 1055 0024 1B68     		ldr	r3, [r3]
 1056 0026 7A68     		ldr	r2, [r7, #4]
 1057 0028 1268     		ldr	r2, [r2]
 1058 002a D268     		ldr	r2, [r2, #12]
 1059 002c 0221     		movs	r1, #2
 1060 002e 0A43     		orrs	r2, r1
 1061 0030 DA60     		str	r2, [r3, #12]
 562:Drivers/STM32F0xx_HAL_Driver/Src/stm32f0xx_hal_tim_ex.c **** 
 1062              		.loc 1 562 0
 1063 0032 1AE0     		b	.L54
 1064              	.L49:
 567:Drivers/STM32F0xx_HAL_Driver/Src/stm32f0xx_hal_tim_ex.c ****     }
 1065              		.loc 1 567 0
 1066 0034 7B68     		ldr	r3, [r7, #4]
 1067 0036 1B68     		ldr	r3, [r3]
 1068 0038 7A68     		ldr	r2, [r7, #4]
 1069 003a 1268     		ldr	r2, [r2]
 1070 003c D268     		ldr	r2, [r2, #12]
 1071 003e 0421     		movs	r1, #4
 1072 0040 0A43     		orrs	r2, r1
 1073 0042 DA60     		str	r2, [r3, #12]
 569:Drivers/STM32F0xx_HAL_Driver/Src/stm32f0xx_hal_tim_ex.c **** 
 1074              		.loc 1 569 0
 1075 0044 11E0     		b	.L54
 1076              	.L52:
 574:Drivers/STM32F0xx_HAL_Driver/Src/stm32f0xx_hal_tim_ex.c ****     }
 1077              		.loc 1 574 0
 1078 0046 7B68     		ldr	r3, [r7, #4]
 1079 0048 1B68     		ldr	r3, [r3]
 1080 004a 7A68     		ldr	r2, [r7, #4]
 1081 004c 1268     		ldr	r2, [r2]
 1082 004e D268     		ldr	r2, [r2, #12]
 1083 0050 0821     		movs	r1, #8
 1084 0052 0A43     		orrs	r2, r1
 1085 0054 DA60     		str	r2, [r3, #12]
 576:Drivers/STM32F0xx_HAL_Driver/Src/stm32f0xx_hal_tim_ex.c **** 
ARM GAS  /tmp/cct1Lg5Q.s 			page 30


 1086              		.loc 1 576 0
 1087 0056 08E0     		b	.L54
 1088              	.L53:
 581:Drivers/STM32F0xx_HAL_Driver/Src/stm32f0xx_hal_tim_ex.c ****     }
 1089              		.loc 1 581 0
 1090 0058 7B68     		ldr	r3, [r7, #4]
 1091 005a 1B68     		ldr	r3, [r3]
 1092 005c 7A68     		ldr	r2, [r7, #4]
 1093 005e 1268     		ldr	r2, [r2]
 1094 0060 D268     		ldr	r2, [r2, #12]
 1095 0062 1021     		movs	r1, #16
 1096 0064 0A43     		orrs	r2, r1
 1097 0066 DA60     		str	r2, [r3, #12]
 583:Drivers/STM32F0xx_HAL_Driver/Src/stm32f0xx_hal_tim_ex.c **** 
 1098              		.loc 1 583 0
 1099 0068 C046     		nop
 1100              	.L54:
 587:Drivers/STM32F0xx_HAL_Driver/Src/stm32f0xx_hal_tim_ex.c ****   }
 588:Drivers/STM32F0xx_HAL_Driver/Src/stm32f0xx_hal_tim_ex.c **** 
 589:Drivers/STM32F0xx_HAL_Driver/Src/stm32f0xx_hal_tim_ex.c ****   /* Enable the TIM Break interrupt */
 590:Drivers/STM32F0xx_HAL_Driver/Src/stm32f0xx_hal_tim_ex.c ****   __HAL_TIM_ENABLE_IT(htim, TIM_IT_BREAK);
 1101              		.loc 1 590 0
 1102 006a 7B68     		ldr	r3, [r7, #4]
 1103 006c 1B68     		ldr	r3, [r3]
 1104 006e 7A68     		ldr	r2, [r7, #4]
 1105 0070 1268     		ldr	r2, [r2]
 1106 0072 D268     		ldr	r2, [r2, #12]
 1107 0074 8021     		movs	r1, #128
 1108 0076 0A43     		orrs	r2, r1
 1109 0078 DA60     		str	r2, [r3, #12]
 591:Drivers/STM32F0xx_HAL_Driver/Src/stm32f0xx_hal_tim_ex.c **** 
 592:Drivers/STM32F0xx_HAL_Driver/Src/stm32f0xx_hal_tim_ex.c ****      /* Enable the Capture compare channel N */
 593:Drivers/STM32F0xx_HAL_Driver/Src/stm32f0xx_hal_tim_ex.c ****      TIM_CCxNChannelCmd(htim->Instance, Channel, TIM_CCxN_ENABLE);
 1110              		.loc 1 593 0
 1111 007a 7B68     		ldr	r3, [r7, #4]
 1112 007c 1B68     		ldr	r3, [r3]
 1113 007e 3968     		ldr	r1, [r7]
 1114 0080 0422     		movs	r2, #4
 1115 0082 1800     		movs	r0, r3
 1116 0084 FFF7FEFF 		bl	TIM_CCxNChannelCmd
 594:Drivers/STM32F0xx_HAL_Driver/Src/stm32f0xx_hal_tim_ex.c **** 
 595:Drivers/STM32F0xx_HAL_Driver/Src/stm32f0xx_hal_tim_ex.c ****   /* Enable the Main Ouput */
 596:Drivers/STM32F0xx_HAL_Driver/Src/stm32f0xx_hal_tim_ex.c ****     __HAL_TIM_MOE_ENABLE(htim);
 1117              		.loc 1 596 0
 1118 0088 7B68     		ldr	r3, [r7, #4]
 1119 008a 1B68     		ldr	r3, [r3]
 1120 008c 7A68     		ldr	r2, [r7, #4]
 1121 008e 1268     		ldr	r2, [r2]
 1122 0090 526C     		ldr	r2, [r2, #68]
 1123 0092 8021     		movs	r1, #128
 1124 0094 0902     		lsls	r1, r1, #8
 1125 0096 0A43     		orrs	r2, r1
 1126 0098 5A64     		str	r2, [r3, #68]
 597:Drivers/STM32F0xx_HAL_Driver/Src/stm32f0xx_hal_tim_ex.c **** 
 598:Drivers/STM32F0xx_HAL_Driver/Src/stm32f0xx_hal_tim_ex.c ****   /* Enable the Peripheral */
 599:Drivers/STM32F0xx_HAL_Driver/Src/stm32f0xx_hal_tim_ex.c ****   __HAL_TIM_ENABLE(htim);
 1127              		.loc 1 599 0
ARM GAS  /tmp/cct1Lg5Q.s 			page 31


 1128 009a 7B68     		ldr	r3, [r7, #4]
 1129 009c 1B68     		ldr	r3, [r3]
 1130 009e 7A68     		ldr	r2, [r7, #4]
 1131 00a0 1268     		ldr	r2, [r2]
 1132 00a2 1268     		ldr	r2, [r2]
 1133 00a4 0121     		movs	r1, #1
 1134 00a6 0A43     		orrs	r2, r1
 1135 00a8 1A60     		str	r2, [r3]
 600:Drivers/STM32F0xx_HAL_Driver/Src/stm32f0xx_hal_tim_ex.c **** 
 601:Drivers/STM32F0xx_HAL_Driver/Src/stm32f0xx_hal_tim_ex.c ****   /* Return function status */
 602:Drivers/STM32F0xx_HAL_Driver/Src/stm32f0xx_hal_tim_ex.c ****   return HAL_OK;
 1136              		.loc 1 602 0
 1137 00aa 0023     		movs	r3, #0
 603:Drivers/STM32F0xx_HAL_Driver/Src/stm32f0xx_hal_tim_ex.c **** }
 1138              		.loc 1 603 0
 1139 00ac 1800     		movs	r0, r3
 1140 00ae BD46     		mov	sp, r7
 1141 00b0 02B0     		add	sp, sp, #8
 1142              		@ sp needed
 1143 00b2 80BD     		pop	{r7, pc}
 1144              		.cfi_endproc
 1145              	.LFE47:
 1147              		.section	.text.HAL_TIMEx_OCN_Stop_IT,"ax",%progbits
 1148              		.align	1
 1149              		.global	HAL_TIMEx_OCN_Stop_IT
 1150              		.syntax unified
 1151              		.code	16
 1152              		.thumb_func
 1153              		.fpu softvfp
 1155              	HAL_TIMEx_OCN_Stop_IT:
 1156              	.LFB48:
 604:Drivers/STM32F0xx_HAL_Driver/Src/stm32f0xx_hal_tim_ex.c **** 
 605:Drivers/STM32F0xx_HAL_Driver/Src/stm32f0xx_hal_tim_ex.c **** /**
 606:Drivers/STM32F0xx_HAL_Driver/Src/stm32f0xx_hal_tim_ex.c ****   * @brief  Stops the TIM Output Compare signal generation in interrupt mode 
 607:Drivers/STM32F0xx_HAL_Driver/Src/stm32f0xx_hal_tim_ex.c ****   *         on the complementary output.
 608:Drivers/STM32F0xx_HAL_Driver/Src/stm32f0xx_hal_tim_ex.c ****   * @param  htim : TIM Output Compare handle
 609:Drivers/STM32F0xx_HAL_Driver/Src/stm32f0xx_hal_tim_ex.c ****   * @param  Channel : TIM Channel to be disabled
 610:Drivers/STM32F0xx_HAL_Driver/Src/stm32f0xx_hal_tim_ex.c ****   *          This parameter can be one of the following values:
 611:Drivers/STM32F0xx_HAL_Driver/Src/stm32f0xx_hal_tim_ex.c ****   *            @arg TIM_CHANNEL_1: TIM Channel 1 selected
 612:Drivers/STM32F0xx_HAL_Driver/Src/stm32f0xx_hal_tim_ex.c ****   *            @arg TIM_CHANNEL_2: TIM Channel 2 selected
 613:Drivers/STM32F0xx_HAL_Driver/Src/stm32f0xx_hal_tim_ex.c ****   *            @arg TIM_CHANNEL_3: TIM Channel 3 selected
 614:Drivers/STM32F0xx_HAL_Driver/Src/stm32f0xx_hal_tim_ex.c ****   *            @arg TIM_CHANNEL_4: TIM Channel 4 selected
 615:Drivers/STM32F0xx_HAL_Driver/Src/stm32f0xx_hal_tim_ex.c ****   * @retval HAL status
 616:Drivers/STM32F0xx_HAL_Driver/Src/stm32f0xx_hal_tim_ex.c ****   */
 617:Drivers/STM32F0xx_HAL_Driver/Src/stm32f0xx_hal_tim_ex.c **** HAL_StatusTypeDef HAL_TIMEx_OCN_Stop_IT(TIM_HandleTypeDef *htim, uint32_t Channel)
 618:Drivers/STM32F0xx_HAL_Driver/Src/stm32f0xx_hal_tim_ex.c **** {
 1157              		.loc 1 618 0
 1158              		.cfi_startproc
 1159 0000 80B5     		push	{r7, lr}
 1160              	.LCFI39:
 1161              		.cfi_def_cfa_offset 8
 1162              		.cfi_offset 7, -8
 1163              		.cfi_offset 14, -4
 1164 0002 84B0     		sub	sp, sp, #16
 1165              	.LCFI40:
 1166              		.cfi_def_cfa_offset 24
 1167 0004 00AF     		add	r7, sp, #0
ARM GAS  /tmp/cct1Lg5Q.s 			page 32


 1168              	.LCFI41:
 1169              		.cfi_def_cfa_register 7
 1170 0006 7860     		str	r0, [r7, #4]
 1171 0008 3960     		str	r1, [r7]
 619:Drivers/STM32F0xx_HAL_Driver/Src/stm32f0xx_hal_tim_ex.c ****   uint32_t tmpccer = 0;
 1172              		.loc 1 619 0
 1173 000a 0023     		movs	r3, #0
 1174 000c FB60     		str	r3, [r7, #12]
 620:Drivers/STM32F0xx_HAL_Driver/Src/stm32f0xx_hal_tim_ex.c **** 
 621:Drivers/STM32F0xx_HAL_Driver/Src/stm32f0xx_hal_tim_ex.c ****   /* Check the parameters */
 622:Drivers/STM32F0xx_HAL_Driver/Src/stm32f0xx_hal_tim_ex.c ****   assert_param(IS_TIM_CCXN_INSTANCE(htim->Instance, Channel));
 623:Drivers/STM32F0xx_HAL_Driver/Src/stm32f0xx_hal_tim_ex.c **** 
 624:Drivers/STM32F0xx_HAL_Driver/Src/stm32f0xx_hal_tim_ex.c ****   switch (Channel)
 1175              		.loc 1 624 0
 1176 000e 3B68     		ldr	r3, [r7]
 1177 0010 042B     		cmp	r3, #4
 1178 0012 11D0     		beq	.L58
 1179 0014 02D8     		bhi	.L59
 1180 0016 002B     		cmp	r3, #0
 1181 0018 05D0     		beq	.L60
 625:Drivers/STM32F0xx_HAL_Driver/Src/stm32f0xx_hal_tim_ex.c ****   {
 626:Drivers/STM32F0xx_HAL_Driver/Src/stm32f0xx_hal_tim_ex.c ****     case TIM_CHANNEL_1:
 627:Drivers/STM32F0xx_HAL_Driver/Src/stm32f0xx_hal_tim_ex.c ****     {
 628:Drivers/STM32F0xx_HAL_Driver/Src/stm32f0xx_hal_tim_ex.c ****       /* Disable the TIM Output Compare interrupt */
 629:Drivers/STM32F0xx_HAL_Driver/Src/stm32f0xx_hal_tim_ex.c ****       __HAL_TIM_DISABLE_IT(htim, TIM_IT_CC1);
 630:Drivers/STM32F0xx_HAL_Driver/Src/stm32f0xx_hal_tim_ex.c ****     }
 631:Drivers/STM32F0xx_HAL_Driver/Src/stm32f0xx_hal_tim_ex.c ****     break;
 632:Drivers/STM32F0xx_HAL_Driver/Src/stm32f0xx_hal_tim_ex.c **** 
 633:Drivers/STM32F0xx_HAL_Driver/Src/stm32f0xx_hal_tim_ex.c ****     case TIM_CHANNEL_2:
 634:Drivers/STM32F0xx_HAL_Driver/Src/stm32f0xx_hal_tim_ex.c ****     {
 635:Drivers/STM32F0xx_HAL_Driver/Src/stm32f0xx_hal_tim_ex.c ****       /* Disable the TIM Output Compare interrupt */
 636:Drivers/STM32F0xx_HAL_Driver/Src/stm32f0xx_hal_tim_ex.c ****       __HAL_TIM_DISABLE_IT(htim, TIM_IT_CC2);
 637:Drivers/STM32F0xx_HAL_Driver/Src/stm32f0xx_hal_tim_ex.c ****     }
 638:Drivers/STM32F0xx_HAL_Driver/Src/stm32f0xx_hal_tim_ex.c ****     break;
 639:Drivers/STM32F0xx_HAL_Driver/Src/stm32f0xx_hal_tim_ex.c **** 
 640:Drivers/STM32F0xx_HAL_Driver/Src/stm32f0xx_hal_tim_ex.c ****     case TIM_CHANNEL_3:
 641:Drivers/STM32F0xx_HAL_Driver/Src/stm32f0xx_hal_tim_ex.c ****     {
 642:Drivers/STM32F0xx_HAL_Driver/Src/stm32f0xx_hal_tim_ex.c ****       /* Disable the TIM Output Compare interrupt */
 643:Drivers/STM32F0xx_HAL_Driver/Src/stm32f0xx_hal_tim_ex.c ****       __HAL_TIM_DISABLE_IT(htim, TIM_IT_CC3);
 644:Drivers/STM32F0xx_HAL_Driver/Src/stm32f0xx_hal_tim_ex.c ****     }
 645:Drivers/STM32F0xx_HAL_Driver/Src/stm32f0xx_hal_tim_ex.c ****     break;
 646:Drivers/STM32F0xx_HAL_Driver/Src/stm32f0xx_hal_tim_ex.c **** 
 647:Drivers/STM32F0xx_HAL_Driver/Src/stm32f0xx_hal_tim_ex.c ****     case TIM_CHANNEL_4:
 648:Drivers/STM32F0xx_HAL_Driver/Src/stm32f0xx_hal_tim_ex.c ****     {
 649:Drivers/STM32F0xx_HAL_Driver/Src/stm32f0xx_hal_tim_ex.c ****       /* Disable the TIM Output Compare interrupt */
 650:Drivers/STM32F0xx_HAL_Driver/Src/stm32f0xx_hal_tim_ex.c ****       __HAL_TIM_DISABLE_IT(htim, TIM_IT_CC4);
 651:Drivers/STM32F0xx_HAL_Driver/Src/stm32f0xx_hal_tim_ex.c ****     }
 652:Drivers/STM32F0xx_HAL_Driver/Src/stm32f0xx_hal_tim_ex.c ****     break;
 653:Drivers/STM32F0xx_HAL_Driver/Src/stm32f0xx_hal_tim_ex.c **** 
 654:Drivers/STM32F0xx_HAL_Driver/Src/stm32f0xx_hal_tim_ex.c ****     default:
 655:Drivers/STM32F0xx_HAL_Driver/Src/stm32f0xx_hal_tim_ex.c ****     break;
 1182              		.loc 1 655 0
 1183 001a 28E0     		b	.L63
 1184              	.L59:
 624:Drivers/STM32F0xx_HAL_Driver/Src/stm32f0xx_hal_tim_ex.c ****   {
 1185              		.loc 1 624 0
 1186 001c 082B     		cmp	r3, #8
ARM GAS  /tmp/cct1Lg5Q.s 			page 33


 1187 001e 14D0     		beq	.L61
 1188 0020 0C2B     		cmp	r3, #12
 1189 0022 1BD0     		beq	.L62
 1190              		.loc 1 655 0
 1191 0024 23E0     		b	.L63
 1192              	.L60:
 629:Drivers/STM32F0xx_HAL_Driver/Src/stm32f0xx_hal_tim_ex.c ****     }
 1193              		.loc 1 629 0
 1194 0026 7B68     		ldr	r3, [r7, #4]
 1195 0028 1B68     		ldr	r3, [r3]
 1196 002a 7A68     		ldr	r2, [r7, #4]
 1197 002c 1268     		ldr	r2, [r2]
 1198 002e D268     		ldr	r2, [r2, #12]
 1199 0030 0221     		movs	r1, #2
 1200 0032 8A43     		bics	r2, r1
 1201 0034 DA60     		str	r2, [r3, #12]
 631:Drivers/STM32F0xx_HAL_Driver/Src/stm32f0xx_hal_tim_ex.c **** 
 1202              		.loc 1 631 0
 1203 0036 1AE0     		b	.L63
 1204              	.L58:
 636:Drivers/STM32F0xx_HAL_Driver/Src/stm32f0xx_hal_tim_ex.c ****     }
 1205              		.loc 1 636 0
 1206 0038 7B68     		ldr	r3, [r7, #4]
 1207 003a 1B68     		ldr	r3, [r3]
 1208 003c 7A68     		ldr	r2, [r7, #4]
 1209 003e 1268     		ldr	r2, [r2]
 1210 0040 D268     		ldr	r2, [r2, #12]
 1211 0042 0421     		movs	r1, #4
 1212 0044 8A43     		bics	r2, r1
 1213 0046 DA60     		str	r2, [r3, #12]
 638:Drivers/STM32F0xx_HAL_Driver/Src/stm32f0xx_hal_tim_ex.c **** 
 1214              		.loc 1 638 0
 1215 0048 11E0     		b	.L63
 1216              	.L61:
 643:Drivers/STM32F0xx_HAL_Driver/Src/stm32f0xx_hal_tim_ex.c ****     }
 1217              		.loc 1 643 0
 1218 004a 7B68     		ldr	r3, [r7, #4]
 1219 004c 1B68     		ldr	r3, [r3]
 1220 004e 7A68     		ldr	r2, [r7, #4]
 1221 0050 1268     		ldr	r2, [r2]
 1222 0052 D268     		ldr	r2, [r2, #12]
 1223 0054 0821     		movs	r1, #8
 1224 0056 8A43     		bics	r2, r1
 1225 0058 DA60     		str	r2, [r3, #12]
 645:Drivers/STM32F0xx_HAL_Driver/Src/stm32f0xx_hal_tim_ex.c **** 
 1226              		.loc 1 645 0
 1227 005a 08E0     		b	.L63
 1228              	.L62:
 650:Drivers/STM32F0xx_HAL_Driver/Src/stm32f0xx_hal_tim_ex.c ****     }
 1229              		.loc 1 650 0
 1230 005c 7B68     		ldr	r3, [r7, #4]
 1231 005e 1B68     		ldr	r3, [r3]
 1232 0060 7A68     		ldr	r2, [r7, #4]
 1233 0062 1268     		ldr	r2, [r2]
 1234 0064 D268     		ldr	r2, [r2, #12]
 1235 0066 1021     		movs	r1, #16
 1236 0068 8A43     		bics	r2, r1
ARM GAS  /tmp/cct1Lg5Q.s 			page 34


 1237 006a DA60     		str	r2, [r3, #12]
 652:Drivers/STM32F0xx_HAL_Driver/Src/stm32f0xx_hal_tim_ex.c **** 
 1238              		.loc 1 652 0
 1239 006c C046     		nop
 1240              	.L63:
 656:Drivers/STM32F0xx_HAL_Driver/Src/stm32f0xx_hal_tim_ex.c ****   }
 657:Drivers/STM32F0xx_HAL_Driver/Src/stm32f0xx_hal_tim_ex.c **** 
 658:Drivers/STM32F0xx_HAL_Driver/Src/stm32f0xx_hal_tim_ex.c ****      /* Disable the Capture compare channel N */
 659:Drivers/STM32F0xx_HAL_Driver/Src/stm32f0xx_hal_tim_ex.c ****      TIM_CCxNChannelCmd(htim->Instance, Channel, TIM_CCxN_DISABLE);
 1241              		.loc 1 659 0
 1242 006e 7B68     		ldr	r3, [r7, #4]
 1243 0070 1B68     		ldr	r3, [r3]
 1244 0072 3968     		ldr	r1, [r7]
 1245 0074 0022     		movs	r2, #0
 1246 0076 1800     		movs	r0, r3
 1247 0078 FFF7FEFF 		bl	TIM_CCxNChannelCmd
 660:Drivers/STM32F0xx_HAL_Driver/Src/stm32f0xx_hal_tim_ex.c **** 
 661:Drivers/STM32F0xx_HAL_Driver/Src/stm32f0xx_hal_tim_ex.c ****   /* Disable the TIM Break interrupt (only if no more channel is active) */
 662:Drivers/STM32F0xx_HAL_Driver/Src/stm32f0xx_hal_tim_ex.c ****   tmpccer = htim->Instance->CCER;
 1248              		.loc 1 662 0
 1249 007c 7B68     		ldr	r3, [r7, #4]
 1250 007e 1B68     		ldr	r3, [r3]
 1251 0080 1B6A     		ldr	r3, [r3, #32]
 1252 0082 FB60     		str	r3, [r7, #12]
 663:Drivers/STM32F0xx_HAL_Driver/Src/stm32f0xx_hal_tim_ex.c ****   if ((tmpccer & (TIM_CCER_CC1NE | TIM_CCER_CC2NE | TIM_CCER_CC3NE)) == RESET)
 1253              		.loc 1 663 0
 1254 0084 FB68     		ldr	r3, [r7, #12]
 1255 0086 1C4A     		ldr	r2, .L68
 1256 0088 1340     		ands	r3, r2
 1257 008a 07D1     		bne	.L64
 664:Drivers/STM32F0xx_HAL_Driver/Src/stm32f0xx_hal_tim_ex.c ****   {
 665:Drivers/STM32F0xx_HAL_Driver/Src/stm32f0xx_hal_tim_ex.c ****     __HAL_TIM_DISABLE_IT(htim, TIM_IT_BREAK);
 1258              		.loc 1 665 0
 1259 008c 7B68     		ldr	r3, [r7, #4]
 1260 008e 1B68     		ldr	r3, [r3]
 1261 0090 7A68     		ldr	r2, [r7, #4]
 1262 0092 1268     		ldr	r2, [r2]
 1263 0094 D268     		ldr	r2, [r2, #12]
 1264 0096 8021     		movs	r1, #128
 1265 0098 8A43     		bics	r2, r1
 1266 009a DA60     		str	r2, [r3, #12]
 1267              	.L64:
 666:Drivers/STM32F0xx_HAL_Driver/Src/stm32f0xx_hal_tim_ex.c ****   }
 667:Drivers/STM32F0xx_HAL_Driver/Src/stm32f0xx_hal_tim_ex.c **** 
 668:Drivers/STM32F0xx_HAL_Driver/Src/stm32f0xx_hal_tim_ex.c ****   /* Disable the Main Ouput */
 669:Drivers/STM32F0xx_HAL_Driver/Src/stm32f0xx_hal_tim_ex.c ****     __HAL_TIM_MOE_DISABLE(htim);
 1268              		.loc 1 669 0
 1269 009c 7B68     		ldr	r3, [r7, #4]
 1270 009e 1B68     		ldr	r3, [r3]
 1271 00a0 1B6A     		ldr	r3, [r3, #32]
 1272 00a2 164A     		ldr	r2, .L68+4
 1273 00a4 1340     		ands	r3, r2
 1274 00a6 0DD1     		bne	.L65
 1275              		.loc 1 669 0 is_stmt 0 discriminator 1
 1276 00a8 7B68     		ldr	r3, [r7, #4]
 1277 00aa 1B68     		ldr	r3, [r3]
 1278 00ac 1B6A     		ldr	r3, [r3, #32]
ARM GAS  /tmp/cct1Lg5Q.s 			page 35


 1279 00ae 124A     		ldr	r2, .L68
 1280 00b0 1340     		ands	r3, r2
 1281 00b2 07D1     		bne	.L65
 1282              		.loc 1 669 0 discriminator 2
 1283 00b4 7B68     		ldr	r3, [r7, #4]
 1284 00b6 1B68     		ldr	r3, [r3]
 1285 00b8 7A68     		ldr	r2, [r7, #4]
 1286 00ba 1268     		ldr	r2, [r2]
 1287 00bc 526C     		ldr	r2, [r2, #68]
 1288 00be 1049     		ldr	r1, .L68+8
 1289 00c0 0A40     		ands	r2, r1
 1290 00c2 5A64     		str	r2, [r3, #68]
 1291              	.L65:
 670:Drivers/STM32F0xx_HAL_Driver/Src/stm32f0xx_hal_tim_ex.c **** 
 671:Drivers/STM32F0xx_HAL_Driver/Src/stm32f0xx_hal_tim_ex.c ****   /* Disable the Peripheral */
 672:Drivers/STM32F0xx_HAL_Driver/Src/stm32f0xx_hal_tim_ex.c ****   __HAL_TIM_DISABLE(htim);
 1292              		.loc 1 672 0 is_stmt 1
 1293 00c4 7B68     		ldr	r3, [r7, #4]
 1294 00c6 1B68     		ldr	r3, [r3]
 1295 00c8 1B6A     		ldr	r3, [r3, #32]
 1296 00ca 0C4A     		ldr	r2, .L68+4
 1297 00cc 1340     		ands	r3, r2
 1298 00ce 0DD1     		bne	.L66
 1299              		.loc 1 672 0 is_stmt 0 discriminator 1
 1300 00d0 7B68     		ldr	r3, [r7, #4]
 1301 00d2 1B68     		ldr	r3, [r3]
 1302 00d4 1B6A     		ldr	r3, [r3, #32]
 1303 00d6 084A     		ldr	r2, .L68
 1304 00d8 1340     		ands	r3, r2
 1305 00da 07D1     		bne	.L66
 1306              		.loc 1 672 0 discriminator 2
 1307 00dc 7B68     		ldr	r3, [r7, #4]
 1308 00de 1B68     		ldr	r3, [r3]
 1309 00e0 7A68     		ldr	r2, [r7, #4]
 1310 00e2 1268     		ldr	r2, [r2]
 1311 00e4 1268     		ldr	r2, [r2]
 1312 00e6 0121     		movs	r1, #1
 1313 00e8 8A43     		bics	r2, r1
 1314 00ea 1A60     		str	r2, [r3]
 1315              	.L66:
 673:Drivers/STM32F0xx_HAL_Driver/Src/stm32f0xx_hal_tim_ex.c **** 
 674:Drivers/STM32F0xx_HAL_Driver/Src/stm32f0xx_hal_tim_ex.c ****   /* Return function status */
 675:Drivers/STM32F0xx_HAL_Driver/Src/stm32f0xx_hal_tim_ex.c ****   return HAL_OK;
 1316              		.loc 1 675 0 is_stmt 1
 1317 00ec 0023     		movs	r3, #0
 676:Drivers/STM32F0xx_HAL_Driver/Src/stm32f0xx_hal_tim_ex.c **** }
 1318              		.loc 1 676 0
 1319 00ee 1800     		movs	r0, r3
 1320 00f0 BD46     		mov	sp, r7
 1321 00f2 04B0     		add	sp, sp, #16
 1322              		@ sp needed
 1323 00f4 80BD     		pop	{r7, pc}
 1324              	.L69:
 1325 00f6 C046     		.align	2
 1326              	.L68:
 1327 00f8 44040000 		.word	1092
 1328 00fc 11110000 		.word	4369
ARM GAS  /tmp/cct1Lg5Q.s 			page 36


 1329 0100 FF7FFFFF 		.word	-32769
 1330              		.cfi_endproc
 1331              	.LFE48:
 1333              		.section	.text.HAL_TIMEx_OCN_Start_DMA,"ax",%progbits
 1334              		.align	1
 1335              		.global	HAL_TIMEx_OCN_Start_DMA
 1336              		.syntax unified
 1337              		.code	16
 1338              		.thumb_func
 1339              		.fpu softvfp
 1341              	HAL_TIMEx_OCN_Start_DMA:
 1342              	.LFB49:
 677:Drivers/STM32F0xx_HAL_Driver/Src/stm32f0xx_hal_tim_ex.c **** 
 678:Drivers/STM32F0xx_HAL_Driver/Src/stm32f0xx_hal_tim_ex.c **** /**
 679:Drivers/STM32F0xx_HAL_Driver/Src/stm32f0xx_hal_tim_ex.c ****   * @brief  Starts the TIM Output Compare signal generation in DMA mode 
 680:Drivers/STM32F0xx_HAL_Driver/Src/stm32f0xx_hal_tim_ex.c ****   *         on the complementary output.
 681:Drivers/STM32F0xx_HAL_Driver/Src/stm32f0xx_hal_tim_ex.c ****   * @param  htim : TIM Output Compare handle
 682:Drivers/STM32F0xx_HAL_Driver/Src/stm32f0xx_hal_tim_ex.c ****   * @param  Channel : TIM Channel to be enabled
 683:Drivers/STM32F0xx_HAL_Driver/Src/stm32f0xx_hal_tim_ex.c ****   *          This parameter can be one of the following values:
 684:Drivers/STM32F0xx_HAL_Driver/Src/stm32f0xx_hal_tim_ex.c ****   *            @arg TIM_CHANNEL_1: TIM Channel 1 selected
 685:Drivers/STM32F0xx_HAL_Driver/Src/stm32f0xx_hal_tim_ex.c ****   *            @arg TIM_CHANNEL_2: TIM Channel 2 selected
 686:Drivers/STM32F0xx_HAL_Driver/Src/stm32f0xx_hal_tim_ex.c ****   *            @arg TIM_CHANNEL_3: TIM Channel 3 selected
 687:Drivers/STM32F0xx_HAL_Driver/Src/stm32f0xx_hal_tim_ex.c ****   *            @arg TIM_CHANNEL_4: TIM Channel 4 selected
 688:Drivers/STM32F0xx_HAL_Driver/Src/stm32f0xx_hal_tim_ex.c ****   * @param  pData : The source Buffer address.
 689:Drivers/STM32F0xx_HAL_Driver/Src/stm32f0xx_hal_tim_ex.c ****   * @param  Length : The length of data to be transferred from memory to TIM peripheral
 690:Drivers/STM32F0xx_HAL_Driver/Src/stm32f0xx_hal_tim_ex.c ****   * @retval HAL status
 691:Drivers/STM32F0xx_HAL_Driver/Src/stm32f0xx_hal_tim_ex.c ****   */
 692:Drivers/STM32F0xx_HAL_Driver/Src/stm32f0xx_hal_tim_ex.c **** HAL_StatusTypeDef HAL_TIMEx_OCN_Start_DMA(TIM_HandleTypeDef *htim, uint32_t Channel, uint32_t *pDat
 693:Drivers/STM32F0xx_HAL_Driver/Src/stm32f0xx_hal_tim_ex.c **** {
 1343              		.loc 1 693 0
 1344              		.cfi_startproc
 1345 0000 80B5     		push	{r7, lr}
 1346              	.LCFI42:
 1347              		.cfi_def_cfa_offset 8
 1348              		.cfi_offset 7, -8
 1349              		.cfi_offset 14, -4
 1350 0002 84B0     		sub	sp, sp, #16
 1351              	.LCFI43:
 1352              		.cfi_def_cfa_offset 24
 1353 0004 00AF     		add	r7, sp, #0
 1354              	.LCFI44:
 1355              		.cfi_def_cfa_register 7
 1356 0006 F860     		str	r0, [r7, #12]
 1357 0008 B960     		str	r1, [r7, #8]
 1358 000a 7A60     		str	r2, [r7, #4]
 1359 000c 1A00     		movs	r2, r3
 1360 000e BB1C     		adds	r3, r7, #2
 1361 0010 1A80     		strh	r2, [r3]
 694:Drivers/STM32F0xx_HAL_Driver/Src/stm32f0xx_hal_tim_ex.c ****   /* Check the parameters */
 695:Drivers/STM32F0xx_HAL_Driver/Src/stm32f0xx_hal_tim_ex.c ****   assert_param(IS_TIM_CCXN_INSTANCE(htim->Instance, Channel));
 696:Drivers/STM32F0xx_HAL_Driver/Src/stm32f0xx_hal_tim_ex.c **** 
 697:Drivers/STM32F0xx_HAL_Driver/Src/stm32f0xx_hal_tim_ex.c ****   if((htim->State == HAL_TIM_STATE_BUSY))
 1362              		.loc 1 697 0
 1363 0012 FB68     		ldr	r3, [r7, #12]
 1364 0014 3922     		movs	r2, #57
 1365 0016 9B5C     		ldrb	r3, [r3, r2]
 1366 0018 DBB2     		uxtb	r3, r3
ARM GAS  /tmp/cct1Lg5Q.s 			page 37


 1367 001a 022B     		cmp	r3, #2
 1368 001c 01D1     		bne	.L71
 698:Drivers/STM32F0xx_HAL_Driver/Src/stm32f0xx_hal_tim_ex.c ****   {
 699:Drivers/STM32F0xx_HAL_Driver/Src/stm32f0xx_hal_tim_ex.c ****      return HAL_BUSY;
 1369              		.loc 1 699 0
 1370 001e 0223     		movs	r3, #2
 1371 0020 ABE0     		b	.L72
 1372              	.L71:
 700:Drivers/STM32F0xx_HAL_Driver/Src/stm32f0xx_hal_tim_ex.c ****   }
 701:Drivers/STM32F0xx_HAL_Driver/Src/stm32f0xx_hal_tim_ex.c ****   else if((htim->State == HAL_TIM_STATE_READY))
 1373              		.loc 1 701 0
 1374 0022 FB68     		ldr	r3, [r7, #12]
 1375 0024 3922     		movs	r2, #57
 1376 0026 9B5C     		ldrb	r3, [r3, r2]
 1377 0028 DBB2     		uxtb	r3, r3
 1378 002a 012B     		cmp	r3, #1
 1379 002c 0CD1     		bne	.L73
 702:Drivers/STM32F0xx_HAL_Driver/Src/stm32f0xx_hal_tim_ex.c ****   {
 703:Drivers/STM32F0xx_HAL_Driver/Src/stm32f0xx_hal_tim_ex.c ****     if(((uint32_t)pData == 0 ) && (Length > 0))
 1380              		.loc 1 703 0
 1381 002e 7B68     		ldr	r3, [r7, #4]
 1382 0030 002B     		cmp	r3, #0
 1383 0032 05D1     		bne	.L74
 1384              		.loc 1 703 0 is_stmt 0 discriminator 1
 1385 0034 BB1C     		adds	r3, r7, #2
 1386 0036 1B88     		ldrh	r3, [r3]
 1387 0038 002B     		cmp	r3, #0
 1388 003a 01D0     		beq	.L74
 704:Drivers/STM32F0xx_HAL_Driver/Src/stm32f0xx_hal_tim_ex.c ****     {
 705:Drivers/STM32F0xx_HAL_Driver/Src/stm32f0xx_hal_tim_ex.c ****       return HAL_ERROR;
 1389              		.loc 1 705 0 is_stmt 1
 1390 003c 0123     		movs	r3, #1
 1391 003e 9CE0     		b	.L72
 1392              	.L74:
 706:Drivers/STM32F0xx_HAL_Driver/Src/stm32f0xx_hal_tim_ex.c ****     }
 707:Drivers/STM32F0xx_HAL_Driver/Src/stm32f0xx_hal_tim_ex.c ****     else
 708:Drivers/STM32F0xx_HAL_Driver/Src/stm32f0xx_hal_tim_ex.c ****     {
 709:Drivers/STM32F0xx_HAL_Driver/Src/stm32f0xx_hal_tim_ex.c ****       htim->State = HAL_TIM_STATE_BUSY;
 1393              		.loc 1 709 0
 1394 0040 FB68     		ldr	r3, [r7, #12]
 1395 0042 3922     		movs	r2, #57
 1396 0044 0221     		movs	r1, #2
 1397 0046 9954     		strb	r1, [r3, r2]
 1398              	.L73:
 710:Drivers/STM32F0xx_HAL_Driver/Src/stm32f0xx_hal_tim_ex.c ****     }
 711:Drivers/STM32F0xx_HAL_Driver/Src/stm32f0xx_hal_tim_ex.c ****   }
 712:Drivers/STM32F0xx_HAL_Driver/Src/stm32f0xx_hal_tim_ex.c ****   switch (Channel)
 1399              		.loc 1 712 0
 1400 0048 BB68     		ldr	r3, [r7, #8]
 1401 004a 042B     		cmp	r3, #4
 1402 004c 25D0     		beq	.L76
 1403 004e 02D8     		bhi	.L77
 1404 0050 002B     		cmp	r3, #0
 1405 0052 05D0     		beq	.L78
 713:Drivers/STM32F0xx_HAL_Driver/Src/stm32f0xx_hal_tim_ex.c ****   {
 714:Drivers/STM32F0xx_HAL_Driver/Src/stm32f0xx_hal_tim_ex.c ****     case TIM_CHANNEL_1:
 715:Drivers/STM32F0xx_HAL_Driver/Src/stm32f0xx_hal_tim_ex.c ****     {
ARM GAS  /tmp/cct1Lg5Q.s 			page 38


 716:Drivers/STM32F0xx_HAL_Driver/Src/stm32f0xx_hal_tim_ex.c ****       /* Set the DMA Period elapsed callback */
 717:Drivers/STM32F0xx_HAL_Driver/Src/stm32f0xx_hal_tim_ex.c ****       htim->hdma[TIM_DMA_ID_CC1]->XferCpltCallback = TIM_DMADelayPulseCplt;
 718:Drivers/STM32F0xx_HAL_Driver/Src/stm32f0xx_hal_tim_ex.c **** 
 719:Drivers/STM32F0xx_HAL_Driver/Src/stm32f0xx_hal_tim_ex.c ****       /* Set the DMA error callback */
 720:Drivers/STM32F0xx_HAL_Driver/Src/stm32f0xx_hal_tim_ex.c ****       htim->hdma[TIM_DMA_ID_CC1]->XferErrorCallback = TIM_DMAError ;
 721:Drivers/STM32F0xx_HAL_Driver/Src/stm32f0xx_hal_tim_ex.c **** 
 722:Drivers/STM32F0xx_HAL_Driver/Src/stm32f0xx_hal_tim_ex.c ****       /* Enable the DMA channel */
 723:Drivers/STM32F0xx_HAL_Driver/Src/stm32f0xx_hal_tim_ex.c ****       HAL_DMA_Start_IT(htim->hdma[TIM_DMA_ID_CC1], (uint32_t)pData, (uint32_t)&htim->Instance->CCR1
 724:Drivers/STM32F0xx_HAL_Driver/Src/stm32f0xx_hal_tim_ex.c **** 
 725:Drivers/STM32F0xx_HAL_Driver/Src/stm32f0xx_hal_tim_ex.c ****       /* Enable the TIM Output Compare DMA request */
 726:Drivers/STM32F0xx_HAL_Driver/Src/stm32f0xx_hal_tim_ex.c ****       __HAL_TIM_ENABLE_DMA(htim, TIM_DMA_CC1);
 727:Drivers/STM32F0xx_HAL_Driver/Src/stm32f0xx_hal_tim_ex.c ****     }
 728:Drivers/STM32F0xx_HAL_Driver/Src/stm32f0xx_hal_tim_ex.c ****     break;
 729:Drivers/STM32F0xx_HAL_Driver/Src/stm32f0xx_hal_tim_ex.c **** 
 730:Drivers/STM32F0xx_HAL_Driver/Src/stm32f0xx_hal_tim_ex.c ****     case TIM_CHANNEL_2:
 731:Drivers/STM32F0xx_HAL_Driver/Src/stm32f0xx_hal_tim_ex.c ****     {
 732:Drivers/STM32F0xx_HAL_Driver/Src/stm32f0xx_hal_tim_ex.c ****       /* Set the DMA Period elapsed callback */
 733:Drivers/STM32F0xx_HAL_Driver/Src/stm32f0xx_hal_tim_ex.c ****       htim->hdma[TIM_DMA_ID_CC2]->XferCpltCallback = TIM_DMADelayPulseCplt;
 734:Drivers/STM32F0xx_HAL_Driver/Src/stm32f0xx_hal_tim_ex.c **** 
 735:Drivers/STM32F0xx_HAL_Driver/Src/stm32f0xx_hal_tim_ex.c ****       /* Set the DMA error callback */
 736:Drivers/STM32F0xx_HAL_Driver/Src/stm32f0xx_hal_tim_ex.c ****       htim->hdma[TIM_DMA_ID_CC2]->XferErrorCallback = TIM_DMAError ;
 737:Drivers/STM32F0xx_HAL_Driver/Src/stm32f0xx_hal_tim_ex.c **** 
 738:Drivers/STM32F0xx_HAL_Driver/Src/stm32f0xx_hal_tim_ex.c ****       /* Enable the DMA channel */
 739:Drivers/STM32F0xx_HAL_Driver/Src/stm32f0xx_hal_tim_ex.c ****       HAL_DMA_Start_IT(htim->hdma[TIM_DMA_ID_CC2], (uint32_t)pData, (uint32_t)&htim->Instance->CCR2
 740:Drivers/STM32F0xx_HAL_Driver/Src/stm32f0xx_hal_tim_ex.c **** 
 741:Drivers/STM32F0xx_HAL_Driver/Src/stm32f0xx_hal_tim_ex.c ****       /* Enable the TIM Output Compare DMA request */
 742:Drivers/STM32F0xx_HAL_Driver/Src/stm32f0xx_hal_tim_ex.c ****       __HAL_TIM_ENABLE_DMA(htim, TIM_DMA_CC2);
 743:Drivers/STM32F0xx_HAL_Driver/Src/stm32f0xx_hal_tim_ex.c ****     }
 744:Drivers/STM32F0xx_HAL_Driver/Src/stm32f0xx_hal_tim_ex.c ****     break;
 745:Drivers/STM32F0xx_HAL_Driver/Src/stm32f0xx_hal_tim_ex.c **** 
 746:Drivers/STM32F0xx_HAL_Driver/Src/stm32f0xx_hal_tim_ex.c ****     case TIM_CHANNEL_3:
 747:Drivers/STM32F0xx_HAL_Driver/Src/stm32f0xx_hal_tim_ex.c **** {
 748:Drivers/STM32F0xx_HAL_Driver/Src/stm32f0xx_hal_tim_ex.c ****       /* Set the DMA Period elapsed callback */
 749:Drivers/STM32F0xx_HAL_Driver/Src/stm32f0xx_hal_tim_ex.c ****       htim->hdma[TIM_DMA_ID_CC3]->XferCpltCallback = TIM_DMADelayPulseCplt;
 750:Drivers/STM32F0xx_HAL_Driver/Src/stm32f0xx_hal_tim_ex.c **** 
 751:Drivers/STM32F0xx_HAL_Driver/Src/stm32f0xx_hal_tim_ex.c ****       /* Set the DMA error callback */
 752:Drivers/STM32F0xx_HAL_Driver/Src/stm32f0xx_hal_tim_ex.c ****       htim->hdma[TIM_DMA_ID_CC3]->XferErrorCallback = TIM_DMAError ;
 753:Drivers/STM32F0xx_HAL_Driver/Src/stm32f0xx_hal_tim_ex.c **** 
 754:Drivers/STM32F0xx_HAL_Driver/Src/stm32f0xx_hal_tim_ex.c ****       /* Enable the DMA channel */
 755:Drivers/STM32F0xx_HAL_Driver/Src/stm32f0xx_hal_tim_ex.c ****       HAL_DMA_Start_IT(htim->hdma[TIM_DMA_ID_CC3], (uint32_t)pData, (uint32_t)&htim->Instance->CCR3
 756:Drivers/STM32F0xx_HAL_Driver/Src/stm32f0xx_hal_tim_ex.c **** 
 757:Drivers/STM32F0xx_HAL_Driver/Src/stm32f0xx_hal_tim_ex.c ****       /* Enable the TIM Output Compare DMA request */
 758:Drivers/STM32F0xx_HAL_Driver/Src/stm32f0xx_hal_tim_ex.c ****       __HAL_TIM_ENABLE_DMA(htim, TIM_DMA_CC3);
 759:Drivers/STM32F0xx_HAL_Driver/Src/stm32f0xx_hal_tim_ex.c ****     }
 760:Drivers/STM32F0xx_HAL_Driver/Src/stm32f0xx_hal_tim_ex.c ****     break;
 761:Drivers/STM32F0xx_HAL_Driver/Src/stm32f0xx_hal_tim_ex.c **** 
 762:Drivers/STM32F0xx_HAL_Driver/Src/stm32f0xx_hal_tim_ex.c ****     case TIM_CHANNEL_4:
 763:Drivers/STM32F0xx_HAL_Driver/Src/stm32f0xx_hal_tim_ex.c ****     {
 764:Drivers/STM32F0xx_HAL_Driver/Src/stm32f0xx_hal_tim_ex.c ****      /* Set the DMA Period elapsed callback */
 765:Drivers/STM32F0xx_HAL_Driver/Src/stm32f0xx_hal_tim_ex.c ****       htim->hdma[TIM_DMA_ID_CC4]->XferCpltCallback = TIM_DMADelayPulseCplt;
 766:Drivers/STM32F0xx_HAL_Driver/Src/stm32f0xx_hal_tim_ex.c **** 
 767:Drivers/STM32F0xx_HAL_Driver/Src/stm32f0xx_hal_tim_ex.c ****       /* Set the DMA error callback */
 768:Drivers/STM32F0xx_HAL_Driver/Src/stm32f0xx_hal_tim_ex.c ****       htim->hdma[TIM_DMA_ID_CC4]->XferErrorCallback = TIM_DMAError ;
 769:Drivers/STM32F0xx_HAL_Driver/Src/stm32f0xx_hal_tim_ex.c **** 
 770:Drivers/STM32F0xx_HAL_Driver/Src/stm32f0xx_hal_tim_ex.c ****       /* Enable the DMA channel */
 771:Drivers/STM32F0xx_HAL_Driver/Src/stm32f0xx_hal_tim_ex.c ****       HAL_DMA_Start_IT(htim->hdma[TIM_DMA_ID_CC4], (uint32_t)pData, (uint32_t)&htim->Instance->CCR4
 772:Drivers/STM32F0xx_HAL_Driver/Src/stm32f0xx_hal_tim_ex.c **** 
ARM GAS  /tmp/cct1Lg5Q.s 			page 39


 773:Drivers/STM32F0xx_HAL_Driver/Src/stm32f0xx_hal_tim_ex.c ****       /* Enable the TIM Output Compare DMA request */
 774:Drivers/STM32F0xx_HAL_Driver/Src/stm32f0xx_hal_tim_ex.c ****       __HAL_TIM_ENABLE_DMA(htim, TIM_DMA_CC4);
 775:Drivers/STM32F0xx_HAL_Driver/Src/stm32f0xx_hal_tim_ex.c ****     }
 776:Drivers/STM32F0xx_HAL_Driver/Src/stm32f0xx_hal_tim_ex.c ****     break;
 777:Drivers/STM32F0xx_HAL_Driver/Src/stm32f0xx_hal_tim_ex.c **** 
 778:Drivers/STM32F0xx_HAL_Driver/Src/stm32f0xx_hal_tim_ex.c ****     default:
 779:Drivers/STM32F0xx_HAL_Driver/Src/stm32f0xx_hal_tim_ex.c ****     break;
 1406              		.loc 1 779 0
 1407 0054 78E0     		b	.L81
 1408              	.L77:
 712:Drivers/STM32F0xx_HAL_Driver/Src/stm32f0xx_hal_tim_ex.c ****   {
 1409              		.loc 1 712 0
 1410 0056 082B     		cmp	r3, #8
 1411 0058 3CD0     		beq	.L79
 1412 005a 0C2B     		cmp	r3, #12
 1413 005c 57D0     		beq	.L80
 1414              		.loc 1 779 0
 1415 005e 73E0     		b	.L81
 1416              	.L78:
 717:Drivers/STM32F0xx_HAL_Driver/Src/stm32f0xx_hal_tim_ex.c **** 
 1417              		.loc 1 717 0
 1418 0060 FB68     		ldr	r3, [r7, #12]
 1419 0062 1B6A     		ldr	r3, [r3, #32]
 1420 0064 474A     		ldr	r2, .L82
 1421 0066 9A62     		str	r2, [r3, #40]
 720:Drivers/STM32F0xx_HAL_Driver/Src/stm32f0xx_hal_tim_ex.c **** 
 1422              		.loc 1 720 0
 1423 0068 FB68     		ldr	r3, [r7, #12]
 1424 006a 1B6A     		ldr	r3, [r3, #32]
 1425 006c 464A     		ldr	r2, .L82+4
 1426 006e 1A63     		str	r2, [r3, #48]
 723:Drivers/STM32F0xx_HAL_Driver/Src/stm32f0xx_hal_tim_ex.c **** 
 1427              		.loc 1 723 0
 1428 0070 FB68     		ldr	r3, [r7, #12]
 1429 0072 186A     		ldr	r0, [r3, #32]
 1430 0074 7968     		ldr	r1, [r7, #4]
 1431 0076 FB68     		ldr	r3, [r7, #12]
 1432 0078 1B68     		ldr	r3, [r3]
 1433 007a 3433     		adds	r3, r3, #52
 1434 007c 1A00     		movs	r2, r3
 1435 007e BB1C     		adds	r3, r7, #2
 1436 0080 1B88     		ldrh	r3, [r3]
 1437 0082 FFF7FEFF 		bl	HAL_DMA_Start_IT
 726:Drivers/STM32F0xx_HAL_Driver/Src/stm32f0xx_hal_tim_ex.c ****     }
 1438              		.loc 1 726 0
 1439 0086 FB68     		ldr	r3, [r7, #12]
 1440 0088 1B68     		ldr	r3, [r3]
 1441 008a FA68     		ldr	r2, [r7, #12]
 1442 008c 1268     		ldr	r2, [r2]
 1443 008e D268     		ldr	r2, [r2, #12]
 1444 0090 8021     		movs	r1, #128
 1445 0092 8900     		lsls	r1, r1, #2
 1446 0094 0A43     		orrs	r2, r1
 1447 0096 DA60     		str	r2, [r3, #12]
 728:Drivers/STM32F0xx_HAL_Driver/Src/stm32f0xx_hal_tim_ex.c **** 
 1448              		.loc 1 728 0
 1449 0098 56E0     		b	.L81
ARM GAS  /tmp/cct1Lg5Q.s 			page 40


 1450              	.L76:
 733:Drivers/STM32F0xx_HAL_Driver/Src/stm32f0xx_hal_tim_ex.c **** 
 1451              		.loc 1 733 0
 1452 009a FB68     		ldr	r3, [r7, #12]
 1453 009c 5B6A     		ldr	r3, [r3, #36]
 1454 009e 394A     		ldr	r2, .L82
 1455 00a0 9A62     		str	r2, [r3, #40]
 736:Drivers/STM32F0xx_HAL_Driver/Src/stm32f0xx_hal_tim_ex.c **** 
 1456              		.loc 1 736 0
 1457 00a2 FB68     		ldr	r3, [r7, #12]
 1458 00a4 5B6A     		ldr	r3, [r3, #36]
 1459 00a6 384A     		ldr	r2, .L82+4
 1460 00a8 1A63     		str	r2, [r3, #48]
 739:Drivers/STM32F0xx_HAL_Driver/Src/stm32f0xx_hal_tim_ex.c **** 
 1461              		.loc 1 739 0
 1462 00aa FB68     		ldr	r3, [r7, #12]
 1463 00ac 586A     		ldr	r0, [r3, #36]
 1464 00ae 7968     		ldr	r1, [r7, #4]
 1465 00b0 FB68     		ldr	r3, [r7, #12]
 1466 00b2 1B68     		ldr	r3, [r3]
 1467 00b4 3833     		adds	r3, r3, #56
 1468 00b6 1A00     		movs	r2, r3
 1469 00b8 BB1C     		adds	r3, r7, #2
 1470 00ba 1B88     		ldrh	r3, [r3]
 1471 00bc FFF7FEFF 		bl	HAL_DMA_Start_IT
 742:Drivers/STM32F0xx_HAL_Driver/Src/stm32f0xx_hal_tim_ex.c ****     }
 1472              		.loc 1 742 0
 1473 00c0 FB68     		ldr	r3, [r7, #12]
 1474 00c2 1B68     		ldr	r3, [r3]
 1475 00c4 FA68     		ldr	r2, [r7, #12]
 1476 00c6 1268     		ldr	r2, [r2]
 1477 00c8 D268     		ldr	r2, [r2, #12]
 1478 00ca 8021     		movs	r1, #128
 1479 00cc C900     		lsls	r1, r1, #3
 1480 00ce 0A43     		orrs	r2, r1
 1481 00d0 DA60     		str	r2, [r3, #12]
 744:Drivers/STM32F0xx_HAL_Driver/Src/stm32f0xx_hal_tim_ex.c **** 
 1482              		.loc 1 744 0
 1483 00d2 39E0     		b	.L81
 1484              	.L79:
 749:Drivers/STM32F0xx_HAL_Driver/Src/stm32f0xx_hal_tim_ex.c **** 
 1485              		.loc 1 749 0
 1486 00d4 FB68     		ldr	r3, [r7, #12]
 1487 00d6 9B6A     		ldr	r3, [r3, #40]
 1488 00d8 2A4A     		ldr	r2, .L82
 1489 00da 9A62     		str	r2, [r3, #40]
 752:Drivers/STM32F0xx_HAL_Driver/Src/stm32f0xx_hal_tim_ex.c **** 
 1490              		.loc 1 752 0
 1491 00dc FB68     		ldr	r3, [r7, #12]
 1492 00de 9B6A     		ldr	r3, [r3, #40]
 1493 00e0 294A     		ldr	r2, .L82+4
 1494 00e2 1A63     		str	r2, [r3, #48]
 755:Drivers/STM32F0xx_HAL_Driver/Src/stm32f0xx_hal_tim_ex.c **** 
 1495              		.loc 1 755 0
 1496 00e4 FB68     		ldr	r3, [r7, #12]
 1497 00e6 986A     		ldr	r0, [r3, #40]
 1498 00e8 7968     		ldr	r1, [r7, #4]
ARM GAS  /tmp/cct1Lg5Q.s 			page 41


 1499 00ea FB68     		ldr	r3, [r7, #12]
 1500 00ec 1B68     		ldr	r3, [r3]
 1501 00ee 3C33     		adds	r3, r3, #60
 1502 00f0 1A00     		movs	r2, r3
 1503 00f2 BB1C     		adds	r3, r7, #2
 1504 00f4 1B88     		ldrh	r3, [r3]
 1505 00f6 FFF7FEFF 		bl	HAL_DMA_Start_IT
 758:Drivers/STM32F0xx_HAL_Driver/Src/stm32f0xx_hal_tim_ex.c ****     }
 1506              		.loc 1 758 0
 1507 00fa FB68     		ldr	r3, [r7, #12]
 1508 00fc 1B68     		ldr	r3, [r3]
 1509 00fe FA68     		ldr	r2, [r7, #12]
 1510 0100 1268     		ldr	r2, [r2]
 1511 0102 D268     		ldr	r2, [r2, #12]
 1512 0104 8021     		movs	r1, #128
 1513 0106 0901     		lsls	r1, r1, #4
 1514 0108 0A43     		orrs	r2, r1
 1515 010a DA60     		str	r2, [r3, #12]
 760:Drivers/STM32F0xx_HAL_Driver/Src/stm32f0xx_hal_tim_ex.c **** 
 1516              		.loc 1 760 0
 1517 010c 1CE0     		b	.L81
 1518              	.L80:
 765:Drivers/STM32F0xx_HAL_Driver/Src/stm32f0xx_hal_tim_ex.c **** 
 1519              		.loc 1 765 0
 1520 010e FB68     		ldr	r3, [r7, #12]
 1521 0110 DB6A     		ldr	r3, [r3, #44]
 1522 0112 1C4A     		ldr	r2, .L82
 1523 0114 9A62     		str	r2, [r3, #40]
 768:Drivers/STM32F0xx_HAL_Driver/Src/stm32f0xx_hal_tim_ex.c **** 
 1524              		.loc 1 768 0
 1525 0116 FB68     		ldr	r3, [r7, #12]
 1526 0118 DB6A     		ldr	r3, [r3, #44]
 1527 011a 1B4A     		ldr	r2, .L82+4
 1528 011c 1A63     		str	r2, [r3, #48]
 771:Drivers/STM32F0xx_HAL_Driver/Src/stm32f0xx_hal_tim_ex.c **** 
 1529              		.loc 1 771 0
 1530 011e FB68     		ldr	r3, [r7, #12]
 1531 0120 D86A     		ldr	r0, [r3, #44]
 1532 0122 7968     		ldr	r1, [r7, #4]
 1533 0124 FB68     		ldr	r3, [r7, #12]
 1534 0126 1B68     		ldr	r3, [r3]
 1535 0128 4033     		adds	r3, r3, #64
 1536 012a 1A00     		movs	r2, r3
 1537 012c BB1C     		adds	r3, r7, #2
 1538 012e 1B88     		ldrh	r3, [r3]
 1539 0130 FFF7FEFF 		bl	HAL_DMA_Start_IT
 774:Drivers/STM32F0xx_HAL_Driver/Src/stm32f0xx_hal_tim_ex.c ****     }
 1540              		.loc 1 774 0
 1541 0134 FB68     		ldr	r3, [r7, #12]
 1542 0136 1B68     		ldr	r3, [r3]
 1543 0138 FA68     		ldr	r2, [r7, #12]
 1544 013a 1268     		ldr	r2, [r2]
 1545 013c D268     		ldr	r2, [r2, #12]
 1546 013e 8021     		movs	r1, #128
 1547 0140 4901     		lsls	r1, r1, #5
 1548 0142 0A43     		orrs	r2, r1
 1549 0144 DA60     		str	r2, [r3, #12]
ARM GAS  /tmp/cct1Lg5Q.s 			page 42


 776:Drivers/STM32F0xx_HAL_Driver/Src/stm32f0xx_hal_tim_ex.c **** 
 1550              		.loc 1 776 0
 1551 0146 C046     		nop
 1552              	.L81:
 780:Drivers/STM32F0xx_HAL_Driver/Src/stm32f0xx_hal_tim_ex.c ****   }
 781:Drivers/STM32F0xx_HAL_Driver/Src/stm32f0xx_hal_tim_ex.c **** 
 782:Drivers/STM32F0xx_HAL_Driver/Src/stm32f0xx_hal_tim_ex.c ****   /* Enable the Capture compare channel N */
 783:Drivers/STM32F0xx_HAL_Driver/Src/stm32f0xx_hal_tim_ex.c ****   TIM_CCxNChannelCmd(htim->Instance, Channel, TIM_CCxN_ENABLE);
 1553              		.loc 1 783 0
 1554 0148 FB68     		ldr	r3, [r7, #12]
 1555 014a 1B68     		ldr	r3, [r3]
 1556 014c B968     		ldr	r1, [r7, #8]
 1557 014e 0422     		movs	r2, #4
 1558 0150 1800     		movs	r0, r3
 1559 0152 FFF7FEFF 		bl	TIM_CCxNChannelCmd
 784:Drivers/STM32F0xx_HAL_Driver/Src/stm32f0xx_hal_tim_ex.c **** 
 785:Drivers/STM32F0xx_HAL_Driver/Src/stm32f0xx_hal_tim_ex.c ****   /* Enable the Main Ouput */
 786:Drivers/STM32F0xx_HAL_Driver/Src/stm32f0xx_hal_tim_ex.c ****   __HAL_TIM_MOE_ENABLE(htim);
 1560              		.loc 1 786 0
 1561 0156 FB68     		ldr	r3, [r7, #12]
 1562 0158 1B68     		ldr	r3, [r3]
 1563 015a FA68     		ldr	r2, [r7, #12]
 1564 015c 1268     		ldr	r2, [r2]
 1565 015e 526C     		ldr	r2, [r2, #68]
 1566 0160 8021     		movs	r1, #128
 1567 0162 0902     		lsls	r1, r1, #8
 1568 0164 0A43     		orrs	r2, r1
 1569 0166 5A64     		str	r2, [r3, #68]
 787:Drivers/STM32F0xx_HAL_Driver/Src/stm32f0xx_hal_tim_ex.c **** 
 788:Drivers/STM32F0xx_HAL_Driver/Src/stm32f0xx_hal_tim_ex.c ****   /* Enable the Peripheral */
 789:Drivers/STM32F0xx_HAL_Driver/Src/stm32f0xx_hal_tim_ex.c ****   __HAL_TIM_ENABLE(htim);
 1570              		.loc 1 789 0
 1571 0168 FB68     		ldr	r3, [r7, #12]
 1572 016a 1B68     		ldr	r3, [r3]
 1573 016c FA68     		ldr	r2, [r7, #12]
 1574 016e 1268     		ldr	r2, [r2]
 1575 0170 1268     		ldr	r2, [r2]
 1576 0172 0121     		movs	r1, #1
 1577 0174 0A43     		orrs	r2, r1
 1578 0176 1A60     		str	r2, [r3]
 790:Drivers/STM32F0xx_HAL_Driver/Src/stm32f0xx_hal_tim_ex.c **** 
 791:Drivers/STM32F0xx_HAL_Driver/Src/stm32f0xx_hal_tim_ex.c ****   /* Return function status */
 792:Drivers/STM32F0xx_HAL_Driver/Src/stm32f0xx_hal_tim_ex.c ****   return HAL_OK;
 1579              		.loc 1 792 0
 1580 0178 0023     		movs	r3, #0
 1581              	.L72:
 793:Drivers/STM32F0xx_HAL_Driver/Src/stm32f0xx_hal_tim_ex.c **** }
 1582              		.loc 1 793 0
 1583 017a 1800     		movs	r0, r3
 1584 017c BD46     		mov	sp, r7
 1585 017e 04B0     		add	sp, sp, #16
 1586              		@ sp needed
 1587 0180 80BD     		pop	{r7, pc}
 1588              	.L83:
 1589 0182 C046     		.align	2
 1590              	.L82:
 1591 0184 00000000 		.word	TIM_DMADelayPulseCplt
ARM GAS  /tmp/cct1Lg5Q.s 			page 43


 1592 0188 00000000 		.word	TIM_DMAError
 1593              		.cfi_endproc
 1594              	.LFE49:
 1596              		.section	.text.HAL_TIMEx_OCN_Stop_DMA,"ax",%progbits
 1597              		.align	1
 1598              		.global	HAL_TIMEx_OCN_Stop_DMA
 1599              		.syntax unified
 1600              		.code	16
 1601              		.thumb_func
 1602              		.fpu softvfp
 1604              	HAL_TIMEx_OCN_Stop_DMA:
 1605              	.LFB50:
 794:Drivers/STM32F0xx_HAL_Driver/Src/stm32f0xx_hal_tim_ex.c **** 
 795:Drivers/STM32F0xx_HAL_Driver/Src/stm32f0xx_hal_tim_ex.c **** /**
 796:Drivers/STM32F0xx_HAL_Driver/Src/stm32f0xx_hal_tim_ex.c ****   * @brief  Stops the TIM Output Compare signal generation in DMA mode 
 797:Drivers/STM32F0xx_HAL_Driver/Src/stm32f0xx_hal_tim_ex.c ****   *         on the complementary output.
 798:Drivers/STM32F0xx_HAL_Driver/Src/stm32f0xx_hal_tim_ex.c ****   * @param  htim : TIM Output Compare handle
 799:Drivers/STM32F0xx_HAL_Driver/Src/stm32f0xx_hal_tim_ex.c ****   * @param  Channel : TIM Channel to be disabled
 800:Drivers/STM32F0xx_HAL_Driver/Src/stm32f0xx_hal_tim_ex.c ****   *          This parameter can be one of the following values:
 801:Drivers/STM32F0xx_HAL_Driver/Src/stm32f0xx_hal_tim_ex.c ****   *            @arg TIM_CHANNEL_1: TIM Channel 1 selected
 802:Drivers/STM32F0xx_HAL_Driver/Src/stm32f0xx_hal_tim_ex.c ****   *            @arg TIM_CHANNEL_2: TIM Channel 2 selected
 803:Drivers/STM32F0xx_HAL_Driver/Src/stm32f0xx_hal_tim_ex.c ****   *            @arg TIM_CHANNEL_3: TIM Channel 3 selected
 804:Drivers/STM32F0xx_HAL_Driver/Src/stm32f0xx_hal_tim_ex.c ****   *            @arg TIM_CHANNEL_4: TIM Channel 4 selected
 805:Drivers/STM32F0xx_HAL_Driver/Src/stm32f0xx_hal_tim_ex.c ****   * @retval HAL status
 806:Drivers/STM32F0xx_HAL_Driver/Src/stm32f0xx_hal_tim_ex.c ****   */
 807:Drivers/STM32F0xx_HAL_Driver/Src/stm32f0xx_hal_tim_ex.c **** HAL_StatusTypeDef HAL_TIMEx_OCN_Stop_DMA(TIM_HandleTypeDef *htim, uint32_t Channel)
 808:Drivers/STM32F0xx_HAL_Driver/Src/stm32f0xx_hal_tim_ex.c **** {
 1606              		.loc 1 808 0
 1607              		.cfi_startproc
 1608 0000 80B5     		push	{r7, lr}
 1609              	.LCFI45:
 1610              		.cfi_def_cfa_offset 8
 1611              		.cfi_offset 7, -8
 1612              		.cfi_offset 14, -4
 1613 0002 82B0     		sub	sp, sp, #8
 1614              	.LCFI46:
 1615              		.cfi_def_cfa_offset 16
 1616 0004 00AF     		add	r7, sp, #0
 1617              	.LCFI47:
 1618              		.cfi_def_cfa_register 7
 1619 0006 7860     		str	r0, [r7, #4]
 1620 0008 3960     		str	r1, [r7]
 809:Drivers/STM32F0xx_HAL_Driver/Src/stm32f0xx_hal_tim_ex.c ****   /* Check the parameters */
 810:Drivers/STM32F0xx_HAL_Driver/Src/stm32f0xx_hal_tim_ex.c ****   assert_param(IS_TIM_CCXN_INSTANCE(htim->Instance, Channel));
 811:Drivers/STM32F0xx_HAL_Driver/Src/stm32f0xx_hal_tim_ex.c **** 
 812:Drivers/STM32F0xx_HAL_Driver/Src/stm32f0xx_hal_tim_ex.c ****   switch (Channel)
 1621              		.loc 1 812 0
 1622 000a 3B68     		ldr	r3, [r7]
 1623 000c 042B     		cmp	r3, #4
 1624 000e 11D0     		beq	.L86
 1625 0010 02D8     		bhi	.L87
 1626 0012 002B     		cmp	r3, #0
 1627 0014 05D0     		beq	.L88
 813:Drivers/STM32F0xx_HAL_Driver/Src/stm32f0xx_hal_tim_ex.c ****   {
 814:Drivers/STM32F0xx_HAL_Driver/Src/stm32f0xx_hal_tim_ex.c ****     case TIM_CHANNEL_1:
 815:Drivers/STM32F0xx_HAL_Driver/Src/stm32f0xx_hal_tim_ex.c ****     {
 816:Drivers/STM32F0xx_HAL_Driver/Src/stm32f0xx_hal_tim_ex.c ****       /* Disable the TIM Output Compare DMA request */
ARM GAS  /tmp/cct1Lg5Q.s 			page 44


 817:Drivers/STM32F0xx_HAL_Driver/Src/stm32f0xx_hal_tim_ex.c ****       __HAL_TIM_DISABLE_DMA(htim, TIM_DMA_CC1);
 818:Drivers/STM32F0xx_HAL_Driver/Src/stm32f0xx_hal_tim_ex.c ****     }
 819:Drivers/STM32F0xx_HAL_Driver/Src/stm32f0xx_hal_tim_ex.c ****     break;
 820:Drivers/STM32F0xx_HAL_Driver/Src/stm32f0xx_hal_tim_ex.c **** 
 821:Drivers/STM32F0xx_HAL_Driver/Src/stm32f0xx_hal_tim_ex.c ****     case TIM_CHANNEL_2:
 822:Drivers/STM32F0xx_HAL_Driver/Src/stm32f0xx_hal_tim_ex.c ****     {
 823:Drivers/STM32F0xx_HAL_Driver/Src/stm32f0xx_hal_tim_ex.c ****       /* Disable the TIM Output Compare DMA request */
 824:Drivers/STM32F0xx_HAL_Driver/Src/stm32f0xx_hal_tim_ex.c ****       __HAL_TIM_DISABLE_DMA(htim, TIM_DMA_CC2);
 825:Drivers/STM32F0xx_HAL_Driver/Src/stm32f0xx_hal_tim_ex.c ****     }
 826:Drivers/STM32F0xx_HAL_Driver/Src/stm32f0xx_hal_tim_ex.c ****     break;
 827:Drivers/STM32F0xx_HAL_Driver/Src/stm32f0xx_hal_tim_ex.c **** 
 828:Drivers/STM32F0xx_HAL_Driver/Src/stm32f0xx_hal_tim_ex.c ****     case TIM_CHANNEL_3:
 829:Drivers/STM32F0xx_HAL_Driver/Src/stm32f0xx_hal_tim_ex.c ****     {
 830:Drivers/STM32F0xx_HAL_Driver/Src/stm32f0xx_hal_tim_ex.c ****       /* Disable the TIM Output Compare DMA request */
 831:Drivers/STM32F0xx_HAL_Driver/Src/stm32f0xx_hal_tim_ex.c ****       __HAL_TIM_DISABLE_DMA(htim, TIM_DMA_CC3);
 832:Drivers/STM32F0xx_HAL_Driver/Src/stm32f0xx_hal_tim_ex.c ****     }
 833:Drivers/STM32F0xx_HAL_Driver/Src/stm32f0xx_hal_tim_ex.c ****     break;
 834:Drivers/STM32F0xx_HAL_Driver/Src/stm32f0xx_hal_tim_ex.c **** 
 835:Drivers/STM32F0xx_HAL_Driver/Src/stm32f0xx_hal_tim_ex.c ****     case TIM_CHANNEL_4:
 836:Drivers/STM32F0xx_HAL_Driver/Src/stm32f0xx_hal_tim_ex.c ****     {
 837:Drivers/STM32F0xx_HAL_Driver/Src/stm32f0xx_hal_tim_ex.c ****       /* Disable the TIM Output Compare interrupt */
 838:Drivers/STM32F0xx_HAL_Driver/Src/stm32f0xx_hal_tim_ex.c ****       __HAL_TIM_DISABLE_DMA(htim, TIM_DMA_CC4);
 839:Drivers/STM32F0xx_HAL_Driver/Src/stm32f0xx_hal_tim_ex.c ****     }
 840:Drivers/STM32F0xx_HAL_Driver/Src/stm32f0xx_hal_tim_ex.c ****     break;
 841:Drivers/STM32F0xx_HAL_Driver/Src/stm32f0xx_hal_tim_ex.c **** 
 842:Drivers/STM32F0xx_HAL_Driver/Src/stm32f0xx_hal_tim_ex.c ****     default:
 843:Drivers/STM32F0xx_HAL_Driver/Src/stm32f0xx_hal_tim_ex.c ****     break;
 1628              		.loc 1 843 0
 1629 0016 28E0     		b	.L91
 1630              	.L87:
 812:Drivers/STM32F0xx_HAL_Driver/Src/stm32f0xx_hal_tim_ex.c ****   {
 1631              		.loc 1 812 0
 1632 0018 082B     		cmp	r3, #8
 1633 001a 14D0     		beq	.L89
 1634 001c 0C2B     		cmp	r3, #12
 1635 001e 1BD0     		beq	.L90
 1636              		.loc 1 843 0
 1637 0020 23E0     		b	.L91
 1638              	.L88:
 817:Drivers/STM32F0xx_HAL_Driver/Src/stm32f0xx_hal_tim_ex.c ****     }
 1639              		.loc 1 817 0
 1640 0022 7B68     		ldr	r3, [r7, #4]
 1641 0024 1B68     		ldr	r3, [r3]
 1642 0026 7A68     		ldr	r2, [r7, #4]
 1643 0028 1268     		ldr	r2, [r2]
 1644 002a D268     		ldr	r2, [r2, #12]
 1645 002c 2B49     		ldr	r1, .L95
 1646 002e 0A40     		ands	r2, r1
 1647 0030 DA60     		str	r2, [r3, #12]
 819:Drivers/STM32F0xx_HAL_Driver/Src/stm32f0xx_hal_tim_ex.c **** 
 1648              		.loc 1 819 0
 1649 0032 1AE0     		b	.L91
 1650              	.L86:
 824:Drivers/STM32F0xx_HAL_Driver/Src/stm32f0xx_hal_tim_ex.c ****     }
 1651              		.loc 1 824 0
 1652 0034 7B68     		ldr	r3, [r7, #4]
 1653 0036 1B68     		ldr	r3, [r3]
ARM GAS  /tmp/cct1Lg5Q.s 			page 45


 1654 0038 7A68     		ldr	r2, [r7, #4]
 1655 003a 1268     		ldr	r2, [r2]
 1656 003c D268     		ldr	r2, [r2, #12]
 1657 003e 2849     		ldr	r1, .L95+4
 1658 0040 0A40     		ands	r2, r1
 1659 0042 DA60     		str	r2, [r3, #12]
 826:Drivers/STM32F0xx_HAL_Driver/Src/stm32f0xx_hal_tim_ex.c **** 
 1660              		.loc 1 826 0
 1661 0044 11E0     		b	.L91
 1662              	.L89:
 831:Drivers/STM32F0xx_HAL_Driver/Src/stm32f0xx_hal_tim_ex.c ****     }
 1663              		.loc 1 831 0
 1664 0046 7B68     		ldr	r3, [r7, #4]
 1665 0048 1B68     		ldr	r3, [r3]
 1666 004a 7A68     		ldr	r2, [r7, #4]
 1667 004c 1268     		ldr	r2, [r2]
 1668 004e D268     		ldr	r2, [r2, #12]
 1669 0050 2449     		ldr	r1, .L95+8
 1670 0052 0A40     		ands	r2, r1
 1671 0054 DA60     		str	r2, [r3, #12]
 833:Drivers/STM32F0xx_HAL_Driver/Src/stm32f0xx_hal_tim_ex.c **** 
 1672              		.loc 1 833 0
 1673 0056 08E0     		b	.L91
 1674              	.L90:
 838:Drivers/STM32F0xx_HAL_Driver/Src/stm32f0xx_hal_tim_ex.c ****     }
 1675              		.loc 1 838 0
 1676 0058 7B68     		ldr	r3, [r7, #4]
 1677 005a 1B68     		ldr	r3, [r3]
 1678 005c 7A68     		ldr	r2, [r7, #4]
 1679 005e 1268     		ldr	r2, [r2]
 1680 0060 D268     		ldr	r2, [r2, #12]
 1681 0062 2149     		ldr	r1, .L95+12
 1682 0064 0A40     		ands	r2, r1
 1683 0066 DA60     		str	r2, [r3, #12]
 840:Drivers/STM32F0xx_HAL_Driver/Src/stm32f0xx_hal_tim_ex.c **** 
 1684              		.loc 1 840 0
 1685 0068 C046     		nop
 1686              	.L91:
 844:Drivers/STM32F0xx_HAL_Driver/Src/stm32f0xx_hal_tim_ex.c ****   }
 845:Drivers/STM32F0xx_HAL_Driver/Src/stm32f0xx_hal_tim_ex.c **** 
 846:Drivers/STM32F0xx_HAL_Driver/Src/stm32f0xx_hal_tim_ex.c ****   /* Disable the Capture compare channel N */
 847:Drivers/STM32F0xx_HAL_Driver/Src/stm32f0xx_hal_tim_ex.c ****   TIM_CCxNChannelCmd(htim->Instance, Channel, TIM_CCxN_DISABLE);
 1687              		.loc 1 847 0
 1688 006a 7B68     		ldr	r3, [r7, #4]
 1689 006c 1B68     		ldr	r3, [r3]
 1690 006e 3968     		ldr	r1, [r7]
 1691 0070 0022     		movs	r2, #0
 1692 0072 1800     		movs	r0, r3
 1693 0074 FFF7FEFF 		bl	TIM_CCxNChannelCmd
 848:Drivers/STM32F0xx_HAL_Driver/Src/stm32f0xx_hal_tim_ex.c **** 
 849:Drivers/STM32F0xx_HAL_Driver/Src/stm32f0xx_hal_tim_ex.c ****   /* Disable the Main Ouput */
 850:Drivers/STM32F0xx_HAL_Driver/Src/stm32f0xx_hal_tim_ex.c ****   __HAL_TIM_MOE_DISABLE(htim);
 1694              		.loc 1 850 0
 1695 0078 7B68     		ldr	r3, [r7, #4]
 1696 007a 1B68     		ldr	r3, [r3]
 1697 007c 1B6A     		ldr	r3, [r3, #32]
 1698 007e 1B4A     		ldr	r2, .L95+16
ARM GAS  /tmp/cct1Lg5Q.s 			page 46


 1699 0080 1340     		ands	r3, r2
 1700 0082 0DD1     		bne	.L92
 1701              		.loc 1 850 0 is_stmt 0 discriminator 1
 1702 0084 7B68     		ldr	r3, [r7, #4]
 1703 0086 1B68     		ldr	r3, [r3]
 1704 0088 1B6A     		ldr	r3, [r3, #32]
 1705 008a 194A     		ldr	r2, .L95+20
 1706 008c 1340     		ands	r3, r2
 1707 008e 07D1     		bne	.L92
 1708              		.loc 1 850 0 discriminator 2
 1709 0090 7B68     		ldr	r3, [r7, #4]
 1710 0092 1B68     		ldr	r3, [r3]
 1711 0094 7A68     		ldr	r2, [r7, #4]
 1712 0096 1268     		ldr	r2, [r2]
 1713 0098 526C     		ldr	r2, [r2, #68]
 1714 009a 1649     		ldr	r1, .L95+24
 1715 009c 0A40     		ands	r2, r1
 1716 009e 5A64     		str	r2, [r3, #68]
 1717              	.L92:
 851:Drivers/STM32F0xx_HAL_Driver/Src/stm32f0xx_hal_tim_ex.c **** 
 852:Drivers/STM32F0xx_HAL_Driver/Src/stm32f0xx_hal_tim_ex.c ****   /* Disable the Peripheral */
 853:Drivers/STM32F0xx_HAL_Driver/Src/stm32f0xx_hal_tim_ex.c ****   __HAL_TIM_DISABLE(htim);
 1718              		.loc 1 853 0 is_stmt 1
 1719 00a0 7B68     		ldr	r3, [r7, #4]
 1720 00a2 1B68     		ldr	r3, [r3]
 1721 00a4 1B6A     		ldr	r3, [r3, #32]
 1722 00a6 114A     		ldr	r2, .L95+16
 1723 00a8 1340     		ands	r3, r2
 1724 00aa 0DD1     		bne	.L93
 1725              		.loc 1 853 0 is_stmt 0 discriminator 1
 1726 00ac 7B68     		ldr	r3, [r7, #4]
 1727 00ae 1B68     		ldr	r3, [r3]
 1728 00b0 1B6A     		ldr	r3, [r3, #32]
 1729 00b2 0F4A     		ldr	r2, .L95+20
 1730 00b4 1340     		ands	r3, r2
 1731 00b6 07D1     		bne	.L93
 1732              		.loc 1 853 0 discriminator 2
 1733 00b8 7B68     		ldr	r3, [r7, #4]
 1734 00ba 1B68     		ldr	r3, [r3]
 1735 00bc 7A68     		ldr	r2, [r7, #4]
 1736 00be 1268     		ldr	r2, [r2]
 1737 00c0 1268     		ldr	r2, [r2]
 1738 00c2 0121     		movs	r1, #1
 1739 00c4 8A43     		bics	r2, r1
 1740 00c6 1A60     		str	r2, [r3]
 1741              	.L93:
 854:Drivers/STM32F0xx_HAL_Driver/Src/stm32f0xx_hal_tim_ex.c **** 
 855:Drivers/STM32F0xx_HAL_Driver/Src/stm32f0xx_hal_tim_ex.c ****   /* Change the htim state */
 856:Drivers/STM32F0xx_HAL_Driver/Src/stm32f0xx_hal_tim_ex.c ****   htim->State = HAL_TIM_STATE_READY;
 1742              		.loc 1 856 0 is_stmt 1
 1743 00c8 7B68     		ldr	r3, [r7, #4]
 1744 00ca 3922     		movs	r2, #57
 1745 00cc 0121     		movs	r1, #1
 1746 00ce 9954     		strb	r1, [r3, r2]
 857:Drivers/STM32F0xx_HAL_Driver/Src/stm32f0xx_hal_tim_ex.c **** 
 858:Drivers/STM32F0xx_HAL_Driver/Src/stm32f0xx_hal_tim_ex.c ****   /* Return function status */
 859:Drivers/STM32F0xx_HAL_Driver/Src/stm32f0xx_hal_tim_ex.c ****   return HAL_OK;
ARM GAS  /tmp/cct1Lg5Q.s 			page 47


 1747              		.loc 1 859 0
 1748 00d0 0023     		movs	r3, #0
 860:Drivers/STM32F0xx_HAL_Driver/Src/stm32f0xx_hal_tim_ex.c **** }
 1749              		.loc 1 860 0
 1750 00d2 1800     		movs	r0, r3
 1751 00d4 BD46     		mov	sp, r7
 1752 00d6 02B0     		add	sp, sp, #8
 1753              		@ sp needed
 1754 00d8 80BD     		pop	{r7, pc}
 1755              	.L96:
 1756 00da C046     		.align	2
 1757              	.L95:
 1758 00dc FFFDFFFF 		.word	-513
 1759 00e0 FFFBFFFF 		.word	-1025
 1760 00e4 FFF7FFFF 		.word	-2049
 1761 00e8 FFEFFFFF 		.word	-4097
 1762 00ec 11110000 		.word	4369
 1763 00f0 44040000 		.word	1092
 1764 00f4 FF7FFFFF 		.word	-32769
 1765              		.cfi_endproc
 1766              	.LFE50:
 1768              		.section	.text.HAL_TIMEx_PWMN_Start,"ax",%progbits
 1769              		.align	1
 1770              		.global	HAL_TIMEx_PWMN_Start
 1771              		.syntax unified
 1772              		.code	16
 1773              		.thumb_func
 1774              		.fpu softvfp
 1776              	HAL_TIMEx_PWMN_Start:
 1777              	.LFB51:
 861:Drivers/STM32F0xx_HAL_Driver/Src/stm32f0xx_hal_tim_ex.c **** 
 862:Drivers/STM32F0xx_HAL_Driver/Src/stm32f0xx_hal_tim_ex.c **** /**
 863:Drivers/STM32F0xx_HAL_Driver/Src/stm32f0xx_hal_tim_ex.c ****   * @}
 864:Drivers/STM32F0xx_HAL_Driver/Src/stm32f0xx_hal_tim_ex.c ****   */
 865:Drivers/STM32F0xx_HAL_Driver/Src/stm32f0xx_hal_tim_ex.c **** 
 866:Drivers/STM32F0xx_HAL_Driver/Src/stm32f0xx_hal_tim_ex.c **** /** @defgroup TIMEx_Exported_Functions_Group3 Timer Complementary PWM functions
 867:Drivers/STM32F0xx_HAL_Driver/Src/stm32f0xx_hal_tim_ex.c ****  *  @brief    Timer Complementary PWM functions 
 868:Drivers/STM32F0xx_HAL_Driver/Src/stm32f0xx_hal_tim_ex.c ****  *
 869:Drivers/STM32F0xx_HAL_Driver/Src/stm32f0xx_hal_tim_ex.c **** @verbatim 
 870:Drivers/STM32F0xx_HAL_Driver/Src/stm32f0xx_hal_tim_ex.c ****   ==============================================================================
 871:Drivers/STM32F0xx_HAL_Driver/Src/stm32f0xx_hal_tim_ex.c ****                  ##### Timer Complementary PWM functions #####
 872:Drivers/STM32F0xx_HAL_Driver/Src/stm32f0xx_hal_tim_ex.c ****   ==============================================================================
 873:Drivers/STM32F0xx_HAL_Driver/Src/stm32f0xx_hal_tim_ex.c ****   [..]
 874:Drivers/STM32F0xx_HAL_Driver/Src/stm32f0xx_hal_tim_ex.c ****     This section provides functions allowing to:
 875:Drivers/STM32F0xx_HAL_Driver/Src/stm32f0xx_hal_tim_ex.c ****     (+) Start the Complementary PWM.
 876:Drivers/STM32F0xx_HAL_Driver/Src/stm32f0xx_hal_tim_ex.c ****     (+) Stop the Complementary PWM.
 877:Drivers/STM32F0xx_HAL_Driver/Src/stm32f0xx_hal_tim_ex.c ****     (+) Start the Complementary PWM and enable interrupts.
 878:Drivers/STM32F0xx_HAL_Driver/Src/stm32f0xx_hal_tim_ex.c ****     (+) Stop the Complementary PWM and disable interrupts.
 879:Drivers/STM32F0xx_HAL_Driver/Src/stm32f0xx_hal_tim_ex.c ****     (+) Start the Complementary PWM and enable DMA transfers.
 880:Drivers/STM32F0xx_HAL_Driver/Src/stm32f0xx_hal_tim_ex.c ****     (+) Stop the Complementary PWM and disable DMA transfers.
 881:Drivers/STM32F0xx_HAL_Driver/Src/stm32f0xx_hal_tim_ex.c ****     (+) Start the Complementary Input Capture measurement.
 882:Drivers/STM32F0xx_HAL_Driver/Src/stm32f0xx_hal_tim_ex.c ****     (+) Stop the Complementary Input Capture.
 883:Drivers/STM32F0xx_HAL_Driver/Src/stm32f0xx_hal_tim_ex.c ****     (+) Start the Complementary Input Capture and enable interrupts.
 884:Drivers/STM32F0xx_HAL_Driver/Src/stm32f0xx_hal_tim_ex.c ****     (+) Stop the Complementary Input Capture and disable interrupts.
 885:Drivers/STM32F0xx_HAL_Driver/Src/stm32f0xx_hal_tim_ex.c ****     (+) Start the Complementary Input Capture and enable DMA transfers.
 886:Drivers/STM32F0xx_HAL_Driver/Src/stm32f0xx_hal_tim_ex.c ****     (+) Stop the Complementary Input Capture and disable DMA transfers.
 887:Drivers/STM32F0xx_HAL_Driver/Src/stm32f0xx_hal_tim_ex.c ****     (+) Start the Complementary One Pulse generation.
ARM GAS  /tmp/cct1Lg5Q.s 			page 48


 888:Drivers/STM32F0xx_HAL_Driver/Src/stm32f0xx_hal_tim_ex.c ****     (+) Stop the Complementary One Pulse.
 889:Drivers/STM32F0xx_HAL_Driver/Src/stm32f0xx_hal_tim_ex.c ****     (+) Start the Complementary One Pulse and enable interrupts.
 890:Drivers/STM32F0xx_HAL_Driver/Src/stm32f0xx_hal_tim_ex.c ****     (+) Stop the Complementary One Pulse and disable interrupts.
 891:Drivers/STM32F0xx_HAL_Driver/Src/stm32f0xx_hal_tim_ex.c **** 
 892:Drivers/STM32F0xx_HAL_Driver/Src/stm32f0xx_hal_tim_ex.c **** @endverbatim
 893:Drivers/STM32F0xx_HAL_Driver/Src/stm32f0xx_hal_tim_ex.c ****   * @{
 894:Drivers/STM32F0xx_HAL_Driver/Src/stm32f0xx_hal_tim_ex.c ****   */
 895:Drivers/STM32F0xx_HAL_Driver/Src/stm32f0xx_hal_tim_ex.c **** 
 896:Drivers/STM32F0xx_HAL_Driver/Src/stm32f0xx_hal_tim_ex.c **** /**
 897:Drivers/STM32F0xx_HAL_Driver/Src/stm32f0xx_hal_tim_ex.c ****   * @brief  Starts the PWM signal generation on the complementary output.
 898:Drivers/STM32F0xx_HAL_Driver/Src/stm32f0xx_hal_tim_ex.c ****   * @param  htim : TIM handle
 899:Drivers/STM32F0xx_HAL_Driver/Src/stm32f0xx_hal_tim_ex.c ****   * @param  Channel : TIM Channel to be enabled
 900:Drivers/STM32F0xx_HAL_Driver/Src/stm32f0xx_hal_tim_ex.c ****   *          This parameter can be one of the following values:
 901:Drivers/STM32F0xx_HAL_Driver/Src/stm32f0xx_hal_tim_ex.c ****   *            @arg TIM_CHANNEL_1: TIM Channel 1 selected
 902:Drivers/STM32F0xx_HAL_Driver/Src/stm32f0xx_hal_tim_ex.c ****   *            @arg TIM_CHANNEL_2: TIM Channel 2 selected
 903:Drivers/STM32F0xx_HAL_Driver/Src/stm32f0xx_hal_tim_ex.c ****   *            @arg TIM_CHANNEL_3: TIM Channel 3 selected
 904:Drivers/STM32F0xx_HAL_Driver/Src/stm32f0xx_hal_tim_ex.c ****   *            @arg TIM_CHANNEL_4: TIM Channel 4 selected
 905:Drivers/STM32F0xx_HAL_Driver/Src/stm32f0xx_hal_tim_ex.c ****   * @retval HAL status
 906:Drivers/STM32F0xx_HAL_Driver/Src/stm32f0xx_hal_tim_ex.c ****   */
 907:Drivers/STM32F0xx_HAL_Driver/Src/stm32f0xx_hal_tim_ex.c **** HAL_StatusTypeDef HAL_TIMEx_PWMN_Start(TIM_HandleTypeDef *htim, uint32_t Channel)
 908:Drivers/STM32F0xx_HAL_Driver/Src/stm32f0xx_hal_tim_ex.c **** {
 1778              		.loc 1 908 0
 1779              		.cfi_startproc
 1780 0000 80B5     		push	{r7, lr}
 1781              	.LCFI48:
 1782              		.cfi_def_cfa_offset 8
 1783              		.cfi_offset 7, -8
 1784              		.cfi_offset 14, -4
 1785 0002 82B0     		sub	sp, sp, #8
 1786              	.LCFI49:
 1787              		.cfi_def_cfa_offset 16
 1788 0004 00AF     		add	r7, sp, #0
 1789              	.LCFI50:
 1790              		.cfi_def_cfa_register 7
 1791 0006 7860     		str	r0, [r7, #4]
 1792 0008 3960     		str	r1, [r7]
 909:Drivers/STM32F0xx_HAL_Driver/Src/stm32f0xx_hal_tim_ex.c ****   /* Check the parameters */
 910:Drivers/STM32F0xx_HAL_Driver/Src/stm32f0xx_hal_tim_ex.c ****   assert_param(IS_TIM_CCXN_INSTANCE(htim->Instance, Channel));
 911:Drivers/STM32F0xx_HAL_Driver/Src/stm32f0xx_hal_tim_ex.c **** 
 912:Drivers/STM32F0xx_HAL_Driver/Src/stm32f0xx_hal_tim_ex.c ****   /* Enable the complementary PWM output  */
 913:Drivers/STM32F0xx_HAL_Driver/Src/stm32f0xx_hal_tim_ex.c ****   TIM_CCxNChannelCmd(htim->Instance, Channel, TIM_CCxN_ENABLE);
 1793              		.loc 1 913 0
 1794 000a 7B68     		ldr	r3, [r7, #4]
 1795 000c 1B68     		ldr	r3, [r3]
 1796 000e 3968     		ldr	r1, [r7]
 1797 0010 0422     		movs	r2, #4
 1798 0012 1800     		movs	r0, r3
 1799 0014 FFF7FEFF 		bl	TIM_CCxNChannelCmd
 914:Drivers/STM32F0xx_HAL_Driver/Src/stm32f0xx_hal_tim_ex.c **** 
 915:Drivers/STM32F0xx_HAL_Driver/Src/stm32f0xx_hal_tim_ex.c ****   /* Enable the Main Ouput */
 916:Drivers/STM32F0xx_HAL_Driver/Src/stm32f0xx_hal_tim_ex.c ****   __HAL_TIM_MOE_ENABLE(htim);
 1800              		.loc 1 916 0
 1801 0018 7B68     		ldr	r3, [r7, #4]
 1802 001a 1B68     		ldr	r3, [r3]
 1803 001c 7A68     		ldr	r2, [r7, #4]
 1804 001e 1268     		ldr	r2, [r2]
 1805 0020 526C     		ldr	r2, [r2, #68]
ARM GAS  /tmp/cct1Lg5Q.s 			page 49


 1806 0022 8021     		movs	r1, #128
 1807 0024 0902     		lsls	r1, r1, #8
 1808 0026 0A43     		orrs	r2, r1
 1809 0028 5A64     		str	r2, [r3, #68]
 917:Drivers/STM32F0xx_HAL_Driver/Src/stm32f0xx_hal_tim_ex.c **** 
 918:Drivers/STM32F0xx_HAL_Driver/Src/stm32f0xx_hal_tim_ex.c ****   /* Enable the Peripheral */
 919:Drivers/STM32F0xx_HAL_Driver/Src/stm32f0xx_hal_tim_ex.c ****   __HAL_TIM_ENABLE(htim);
 1810              		.loc 1 919 0
 1811 002a 7B68     		ldr	r3, [r7, #4]
 1812 002c 1B68     		ldr	r3, [r3]
 1813 002e 7A68     		ldr	r2, [r7, #4]
 1814 0030 1268     		ldr	r2, [r2]
 1815 0032 1268     		ldr	r2, [r2]
 1816 0034 0121     		movs	r1, #1
 1817 0036 0A43     		orrs	r2, r1
 1818 0038 1A60     		str	r2, [r3]
 920:Drivers/STM32F0xx_HAL_Driver/Src/stm32f0xx_hal_tim_ex.c **** 
 921:Drivers/STM32F0xx_HAL_Driver/Src/stm32f0xx_hal_tim_ex.c ****   /* Return function status */
 922:Drivers/STM32F0xx_HAL_Driver/Src/stm32f0xx_hal_tim_ex.c ****   return HAL_OK;
 1819              		.loc 1 922 0
 1820 003a 0023     		movs	r3, #0
 923:Drivers/STM32F0xx_HAL_Driver/Src/stm32f0xx_hal_tim_ex.c **** }
 1821              		.loc 1 923 0
 1822 003c 1800     		movs	r0, r3
 1823 003e BD46     		mov	sp, r7
 1824 0040 02B0     		add	sp, sp, #8
 1825              		@ sp needed
 1826 0042 80BD     		pop	{r7, pc}
 1827              		.cfi_endproc
 1828              	.LFE51:
 1830              		.section	.text.HAL_TIMEx_PWMN_Stop,"ax",%progbits
 1831              		.align	1
 1832              		.global	HAL_TIMEx_PWMN_Stop
 1833              		.syntax unified
 1834              		.code	16
 1835              		.thumb_func
 1836              		.fpu softvfp
 1838              	HAL_TIMEx_PWMN_Stop:
 1839              	.LFB52:
 924:Drivers/STM32F0xx_HAL_Driver/Src/stm32f0xx_hal_tim_ex.c **** 
 925:Drivers/STM32F0xx_HAL_Driver/Src/stm32f0xx_hal_tim_ex.c **** /**
 926:Drivers/STM32F0xx_HAL_Driver/Src/stm32f0xx_hal_tim_ex.c ****   * @brief  Stops the PWM signal generation on the complementary output.
 927:Drivers/STM32F0xx_HAL_Driver/Src/stm32f0xx_hal_tim_ex.c ****   * @param  htim : TIM handle
 928:Drivers/STM32F0xx_HAL_Driver/Src/stm32f0xx_hal_tim_ex.c ****   * @param  Channel : TIM Channel to be disabled
 929:Drivers/STM32F0xx_HAL_Driver/Src/stm32f0xx_hal_tim_ex.c ****   *          This parameter can be one of the following values:
 930:Drivers/STM32F0xx_HAL_Driver/Src/stm32f0xx_hal_tim_ex.c ****   *            @arg TIM_CHANNEL_1: TIM Channel 1 selected
 931:Drivers/STM32F0xx_HAL_Driver/Src/stm32f0xx_hal_tim_ex.c ****   *            @arg TIM_CHANNEL_2: TIM Channel 2 selected
 932:Drivers/STM32F0xx_HAL_Driver/Src/stm32f0xx_hal_tim_ex.c ****   *            @arg TIM_CHANNEL_3: TIM Channel 3 selected
 933:Drivers/STM32F0xx_HAL_Driver/Src/stm32f0xx_hal_tim_ex.c ****   *            @arg TIM_CHANNEL_4: TIM Channel 4 selected
 934:Drivers/STM32F0xx_HAL_Driver/Src/stm32f0xx_hal_tim_ex.c ****   * @retval HAL status
 935:Drivers/STM32F0xx_HAL_Driver/Src/stm32f0xx_hal_tim_ex.c ****   */
 936:Drivers/STM32F0xx_HAL_Driver/Src/stm32f0xx_hal_tim_ex.c **** HAL_StatusTypeDef HAL_TIMEx_PWMN_Stop(TIM_HandleTypeDef *htim, uint32_t Channel)
 937:Drivers/STM32F0xx_HAL_Driver/Src/stm32f0xx_hal_tim_ex.c **** {
 1840              		.loc 1 937 0
 1841              		.cfi_startproc
 1842 0000 80B5     		push	{r7, lr}
 1843              	.LCFI51:
ARM GAS  /tmp/cct1Lg5Q.s 			page 50


 1844              		.cfi_def_cfa_offset 8
 1845              		.cfi_offset 7, -8
 1846              		.cfi_offset 14, -4
 1847 0002 82B0     		sub	sp, sp, #8
 1848              	.LCFI52:
 1849              		.cfi_def_cfa_offset 16
 1850 0004 00AF     		add	r7, sp, #0
 1851              	.LCFI53:
 1852              		.cfi_def_cfa_register 7
 1853 0006 7860     		str	r0, [r7, #4]
 1854 0008 3960     		str	r1, [r7]
 938:Drivers/STM32F0xx_HAL_Driver/Src/stm32f0xx_hal_tim_ex.c ****   /* Check the parameters */
 939:Drivers/STM32F0xx_HAL_Driver/Src/stm32f0xx_hal_tim_ex.c ****   assert_param(IS_TIM_CCXN_INSTANCE(htim->Instance, Channel));
 940:Drivers/STM32F0xx_HAL_Driver/Src/stm32f0xx_hal_tim_ex.c **** 
 941:Drivers/STM32F0xx_HAL_Driver/Src/stm32f0xx_hal_tim_ex.c ****   /* Disable the complementary PWM output  */
 942:Drivers/STM32F0xx_HAL_Driver/Src/stm32f0xx_hal_tim_ex.c ****   TIM_CCxNChannelCmd(htim->Instance, Channel, TIM_CCxN_DISABLE);
 1855              		.loc 1 942 0
 1856 000a 7B68     		ldr	r3, [r7, #4]
 1857 000c 1B68     		ldr	r3, [r3]
 1858 000e 3968     		ldr	r1, [r7]
 1859 0010 0022     		movs	r2, #0
 1860 0012 1800     		movs	r0, r3
 1861 0014 FFF7FEFF 		bl	TIM_CCxNChannelCmd
 943:Drivers/STM32F0xx_HAL_Driver/Src/stm32f0xx_hal_tim_ex.c **** 
 944:Drivers/STM32F0xx_HAL_Driver/Src/stm32f0xx_hal_tim_ex.c ****   /* Disable the Main Ouput */
 945:Drivers/STM32F0xx_HAL_Driver/Src/stm32f0xx_hal_tim_ex.c ****   __HAL_TIM_MOE_DISABLE(htim);
 1862              		.loc 1 945 0
 1863 0018 7B68     		ldr	r3, [r7, #4]
 1864 001a 1B68     		ldr	r3, [r3]
 1865 001c 1B6A     		ldr	r3, [r3, #32]
 1866 001e 154A     		ldr	r2, .L103
 1867 0020 1340     		ands	r3, r2
 1868 0022 0DD1     		bne	.L100
 1869              		.loc 1 945 0 is_stmt 0 discriminator 1
 1870 0024 7B68     		ldr	r3, [r7, #4]
 1871 0026 1B68     		ldr	r3, [r3]
 1872 0028 1B6A     		ldr	r3, [r3, #32]
 1873 002a 134A     		ldr	r2, .L103+4
 1874 002c 1340     		ands	r3, r2
 1875 002e 07D1     		bne	.L100
 1876              		.loc 1 945 0 discriminator 2
 1877 0030 7B68     		ldr	r3, [r7, #4]
 1878 0032 1B68     		ldr	r3, [r3]
 1879 0034 7A68     		ldr	r2, [r7, #4]
 1880 0036 1268     		ldr	r2, [r2]
 1881 0038 526C     		ldr	r2, [r2, #68]
 1882 003a 1049     		ldr	r1, .L103+8
 1883 003c 0A40     		ands	r2, r1
 1884 003e 5A64     		str	r2, [r3, #68]
 1885              	.L100:
 946:Drivers/STM32F0xx_HAL_Driver/Src/stm32f0xx_hal_tim_ex.c **** 
 947:Drivers/STM32F0xx_HAL_Driver/Src/stm32f0xx_hal_tim_ex.c ****   /* Disable the Peripheral */
 948:Drivers/STM32F0xx_HAL_Driver/Src/stm32f0xx_hal_tim_ex.c ****   __HAL_TIM_DISABLE(htim);
 1886              		.loc 1 948 0 is_stmt 1
 1887 0040 7B68     		ldr	r3, [r7, #4]
 1888 0042 1B68     		ldr	r3, [r3]
 1889 0044 1B6A     		ldr	r3, [r3, #32]
ARM GAS  /tmp/cct1Lg5Q.s 			page 51


 1890 0046 0B4A     		ldr	r2, .L103
 1891 0048 1340     		ands	r3, r2
 1892 004a 0DD1     		bne	.L101
 1893              		.loc 1 948 0 is_stmt 0 discriminator 1
 1894 004c 7B68     		ldr	r3, [r7, #4]
 1895 004e 1B68     		ldr	r3, [r3]
 1896 0050 1B6A     		ldr	r3, [r3, #32]
 1897 0052 094A     		ldr	r2, .L103+4
 1898 0054 1340     		ands	r3, r2
 1899 0056 07D1     		bne	.L101
 1900              		.loc 1 948 0 discriminator 2
 1901 0058 7B68     		ldr	r3, [r7, #4]
 1902 005a 1B68     		ldr	r3, [r3]
 1903 005c 7A68     		ldr	r2, [r7, #4]
 1904 005e 1268     		ldr	r2, [r2]
 1905 0060 1268     		ldr	r2, [r2]
 1906 0062 0121     		movs	r1, #1
 1907 0064 8A43     		bics	r2, r1
 1908 0066 1A60     		str	r2, [r3]
 1909              	.L101:
 949:Drivers/STM32F0xx_HAL_Driver/Src/stm32f0xx_hal_tim_ex.c **** 
 950:Drivers/STM32F0xx_HAL_Driver/Src/stm32f0xx_hal_tim_ex.c ****   /* Return function status */
 951:Drivers/STM32F0xx_HAL_Driver/Src/stm32f0xx_hal_tim_ex.c ****   return HAL_OK;
 1910              		.loc 1 951 0 is_stmt 1
 1911 0068 0023     		movs	r3, #0
 952:Drivers/STM32F0xx_HAL_Driver/Src/stm32f0xx_hal_tim_ex.c **** }
 1912              		.loc 1 952 0
 1913 006a 1800     		movs	r0, r3
 1914 006c BD46     		mov	sp, r7
 1915 006e 02B0     		add	sp, sp, #8
 1916              		@ sp needed
 1917 0070 80BD     		pop	{r7, pc}
 1918              	.L104:
 1919 0072 C046     		.align	2
 1920              	.L103:
 1921 0074 11110000 		.word	4369
 1922 0078 44040000 		.word	1092
 1923 007c FF7FFFFF 		.word	-32769
 1924              		.cfi_endproc
 1925              	.LFE52:
 1927              		.section	.text.HAL_TIMEx_PWMN_Start_IT,"ax",%progbits
 1928              		.align	1
 1929              		.global	HAL_TIMEx_PWMN_Start_IT
 1930              		.syntax unified
 1931              		.code	16
 1932              		.thumb_func
 1933              		.fpu softvfp
 1935              	HAL_TIMEx_PWMN_Start_IT:
 1936              	.LFB53:
 953:Drivers/STM32F0xx_HAL_Driver/Src/stm32f0xx_hal_tim_ex.c **** 
 954:Drivers/STM32F0xx_HAL_Driver/Src/stm32f0xx_hal_tim_ex.c **** /**
 955:Drivers/STM32F0xx_HAL_Driver/Src/stm32f0xx_hal_tim_ex.c ****   * @brief  Starts the PWM signal generation in interrupt mode on the 
 956:Drivers/STM32F0xx_HAL_Driver/Src/stm32f0xx_hal_tim_ex.c ****   *         complementary output.
 957:Drivers/STM32F0xx_HAL_Driver/Src/stm32f0xx_hal_tim_ex.c ****   * @param  htim : TIM handle
 958:Drivers/STM32F0xx_HAL_Driver/Src/stm32f0xx_hal_tim_ex.c ****   * @param  Channel : TIM Channel to be disabled
 959:Drivers/STM32F0xx_HAL_Driver/Src/stm32f0xx_hal_tim_ex.c ****   *          This parameter can be one of the following values:
 960:Drivers/STM32F0xx_HAL_Driver/Src/stm32f0xx_hal_tim_ex.c ****   *            @arg TIM_CHANNEL_1: TIM Channel 1 selected
ARM GAS  /tmp/cct1Lg5Q.s 			page 52


 961:Drivers/STM32F0xx_HAL_Driver/Src/stm32f0xx_hal_tim_ex.c ****   *            @arg TIM_CHANNEL_2: TIM Channel 2 selected
 962:Drivers/STM32F0xx_HAL_Driver/Src/stm32f0xx_hal_tim_ex.c ****   *            @arg TIM_CHANNEL_3: TIM Channel 3 selected
 963:Drivers/STM32F0xx_HAL_Driver/Src/stm32f0xx_hal_tim_ex.c ****   *            @arg TIM_CHANNEL_4: TIM Channel 4 selected
 964:Drivers/STM32F0xx_HAL_Driver/Src/stm32f0xx_hal_tim_ex.c ****   * @retval HAL status
 965:Drivers/STM32F0xx_HAL_Driver/Src/stm32f0xx_hal_tim_ex.c ****   */
 966:Drivers/STM32F0xx_HAL_Driver/Src/stm32f0xx_hal_tim_ex.c **** HAL_StatusTypeDef HAL_TIMEx_PWMN_Start_IT(TIM_HandleTypeDef *htim, uint32_t Channel)
 967:Drivers/STM32F0xx_HAL_Driver/Src/stm32f0xx_hal_tim_ex.c **** {
 1937              		.loc 1 967 0
 1938              		.cfi_startproc
 1939 0000 80B5     		push	{r7, lr}
 1940              	.LCFI54:
 1941              		.cfi_def_cfa_offset 8
 1942              		.cfi_offset 7, -8
 1943              		.cfi_offset 14, -4
 1944 0002 82B0     		sub	sp, sp, #8
 1945              	.LCFI55:
 1946              		.cfi_def_cfa_offset 16
 1947 0004 00AF     		add	r7, sp, #0
 1948              	.LCFI56:
 1949              		.cfi_def_cfa_register 7
 1950 0006 7860     		str	r0, [r7, #4]
 1951 0008 3960     		str	r1, [r7]
 968:Drivers/STM32F0xx_HAL_Driver/Src/stm32f0xx_hal_tim_ex.c ****   /* Check the parameters */
 969:Drivers/STM32F0xx_HAL_Driver/Src/stm32f0xx_hal_tim_ex.c ****   assert_param(IS_TIM_CCXN_INSTANCE(htim->Instance, Channel));
 970:Drivers/STM32F0xx_HAL_Driver/Src/stm32f0xx_hal_tim_ex.c **** 
 971:Drivers/STM32F0xx_HAL_Driver/Src/stm32f0xx_hal_tim_ex.c ****   switch (Channel)
 1952              		.loc 1 971 0
 1953 000a 3B68     		ldr	r3, [r7]
 1954 000c 042B     		cmp	r3, #4
 1955 000e 11D0     		beq	.L107
 1956 0010 02D8     		bhi	.L108
 1957 0012 002B     		cmp	r3, #0
 1958 0014 05D0     		beq	.L109
 972:Drivers/STM32F0xx_HAL_Driver/Src/stm32f0xx_hal_tim_ex.c ****   {
 973:Drivers/STM32F0xx_HAL_Driver/Src/stm32f0xx_hal_tim_ex.c ****     case TIM_CHANNEL_1:
 974:Drivers/STM32F0xx_HAL_Driver/Src/stm32f0xx_hal_tim_ex.c ****     {
 975:Drivers/STM32F0xx_HAL_Driver/Src/stm32f0xx_hal_tim_ex.c ****       /* Enable the TIM Capture/Compare 1 interrupt */
 976:Drivers/STM32F0xx_HAL_Driver/Src/stm32f0xx_hal_tim_ex.c ****       __HAL_TIM_ENABLE_IT(htim, TIM_IT_CC1);
 977:Drivers/STM32F0xx_HAL_Driver/Src/stm32f0xx_hal_tim_ex.c ****     }
 978:Drivers/STM32F0xx_HAL_Driver/Src/stm32f0xx_hal_tim_ex.c ****     break;
 979:Drivers/STM32F0xx_HAL_Driver/Src/stm32f0xx_hal_tim_ex.c **** 
 980:Drivers/STM32F0xx_HAL_Driver/Src/stm32f0xx_hal_tim_ex.c ****     case TIM_CHANNEL_2:
 981:Drivers/STM32F0xx_HAL_Driver/Src/stm32f0xx_hal_tim_ex.c ****     {
 982:Drivers/STM32F0xx_HAL_Driver/Src/stm32f0xx_hal_tim_ex.c ****       /* Enable the TIM Capture/Compare 2 interrupt */
 983:Drivers/STM32F0xx_HAL_Driver/Src/stm32f0xx_hal_tim_ex.c ****       __HAL_TIM_ENABLE_IT(htim, TIM_IT_CC2);
 984:Drivers/STM32F0xx_HAL_Driver/Src/stm32f0xx_hal_tim_ex.c ****     }
 985:Drivers/STM32F0xx_HAL_Driver/Src/stm32f0xx_hal_tim_ex.c ****     break;
 986:Drivers/STM32F0xx_HAL_Driver/Src/stm32f0xx_hal_tim_ex.c **** 
 987:Drivers/STM32F0xx_HAL_Driver/Src/stm32f0xx_hal_tim_ex.c ****     case TIM_CHANNEL_3:
 988:Drivers/STM32F0xx_HAL_Driver/Src/stm32f0xx_hal_tim_ex.c ****     {
 989:Drivers/STM32F0xx_HAL_Driver/Src/stm32f0xx_hal_tim_ex.c ****       /* Enable the TIM Capture/Compare 3 interrupt */
 990:Drivers/STM32F0xx_HAL_Driver/Src/stm32f0xx_hal_tim_ex.c ****       __HAL_TIM_ENABLE_IT(htim, TIM_IT_CC3);
 991:Drivers/STM32F0xx_HAL_Driver/Src/stm32f0xx_hal_tim_ex.c ****     }
 992:Drivers/STM32F0xx_HAL_Driver/Src/stm32f0xx_hal_tim_ex.c ****     break;
 993:Drivers/STM32F0xx_HAL_Driver/Src/stm32f0xx_hal_tim_ex.c **** 
 994:Drivers/STM32F0xx_HAL_Driver/Src/stm32f0xx_hal_tim_ex.c ****     case TIM_CHANNEL_4:
 995:Drivers/STM32F0xx_HAL_Driver/Src/stm32f0xx_hal_tim_ex.c ****     {
ARM GAS  /tmp/cct1Lg5Q.s 			page 53


 996:Drivers/STM32F0xx_HAL_Driver/Src/stm32f0xx_hal_tim_ex.c ****       /* Enable the TIM Capture/Compare 4 interrupt */
 997:Drivers/STM32F0xx_HAL_Driver/Src/stm32f0xx_hal_tim_ex.c ****       __HAL_TIM_ENABLE_IT(htim, TIM_IT_CC4);
 998:Drivers/STM32F0xx_HAL_Driver/Src/stm32f0xx_hal_tim_ex.c ****     }
 999:Drivers/STM32F0xx_HAL_Driver/Src/stm32f0xx_hal_tim_ex.c ****     break;
1000:Drivers/STM32F0xx_HAL_Driver/Src/stm32f0xx_hal_tim_ex.c **** 
1001:Drivers/STM32F0xx_HAL_Driver/Src/stm32f0xx_hal_tim_ex.c ****     default:
1002:Drivers/STM32F0xx_HAL_Driver/Src/stm32f0xx_hal_tim_ex.c ****     break;
 1959              		.loc 1 1002 0
 1960 0016 28E0     		b	.L112
 1961              	.L108:
 971:Drivers/STM32F0xx_HAL_Driver/Src/stm32f0xx_hal_tim_ex.c ****   {
 1962              		.loc 1 971 0
 1963 0018 082B     		cmp	r3, #8
 1964 001a 14D0     		beq	.L110
 1965 001c 0C2B     		cmp	r3, #12
 1966 001e 1BD0     		beq	.L111
 1967              		.loc 1 1002 0
 1968 0020 23E0     		b	.L112
 1969              	.L109:
 976:Drivers/STM32F0xx_HAL_Driver/Src/stm32f0xx_hal_tim_ex.c ****     }
 1970              		.loc 1 976 0
 1971 0022 7B68     		ldr	r3, [r7, #4]
 1972 0024 1B68     		ldr	r3, [r3]
 1973 0026 7A68     		ldr	r2, [r7, #4]
 1974 0028 1268     		ldr	r2, [r2]
 1975 002a D268     		ldr	r2, [r2, #12]
 1976 002c 0221     		movs	r1, #2
 1977 002e 0A43     		orrs	r2, r1
 1978 0030 DA60     		str	r2, [r3, #12]
 978:Drivers/STM32F0xx_HAL_Driver/Src/stm32f0xx_hal_tim_ex.c **** 
 1979              		.loc 1 978 0
 1980 0032 1AE0     		b	.L112
 1981              	.L107:
 983:Drivers/STM32F0xx_HAL_Driver/Src/stm32f0xx_hal_tim_ex.c ****     }
 1982              		.loc 1 983 0
 1983 0034 7B68     		ldr	r3, [r7, #4]
 1984 0036 1B68     		ldr	r3, [r3]
 1985 0038 7A68     		ldr	r2, [r7, #4]
 1986 003a 1268     		ldr	r2, [r2]
 1987 003c D268     		ldr	r2, [r2, #12]
 1988 003e 0421     		movs	r1, #4
 1989 0040 0A43     		orrs	r2, r1
 1990 0042 DA60     		str	r2, [r3, #12]
 985:Drivers/STM32F0xx_HAL_Driver/Src/stm32f0xx_hal_tim_ex.c **** 
 1991              		.loc 1 985 0
 1992 0044 11E0     		b	.L112
 1993              	.L110:
 990:Drivers/STM32F0xx_HAL_Driver/Src/stm32f0xx_hal_tim_ex.c ****     }
 1994              		.loc 1 990 0
 1995 0046 7B68     		ldr	r3, [r7, #4]
 1996 0048 1B68     		ldr	r3, [r3]
 1997 004a 7A68     		ldr	r2, [r7, #4]
 1998 004c 1268     		ldr	r2, [r2]
 1999 004e D268     		ldr	r2, [r2, #12]
 2000 0050 0821     		movs	r1, #8
 2001 0052 0A43     		orrs	r2, r1
 2002 0054 DA60     		str	r2, [r3, #12]
ARM GAS  /tmp/cct1Lg5Q.s 			page 54


 992:Drivers/STM32F0xx_HAL_Driver/Src/stm32f0xx_hal_tim_ex.c **** 
 2003              		.loc 1 992 0
 2004 0056 08E0     		b	.L112
 2005              	.L111:
 997:Drivers/STM32F0xx_HAL_Driver/Src/stm32f0xx_hal_tim_ex.c ****     }
 2006              		.loc 1 997 0
 2007 0058 7B68     		ldr	r3, [r7, #4]
 2008 005a 1B68     		ldr	r3, [r3]
 2009 005c 7A68     		ldr	r2, [r7, #4]
 2010 005e 1268     		ldr	r2, [r2]
 2011 0060 D268     		ldr	r2, [r2, #12]
 2012 0062 1021     		movs	r1, #16
 2013 0064 0A43     		orrs	r2, r1
 2014 0066 DA60     		str	r2, [r3, #12]
 999:Drivers/STM32F0xx_HAL_Driver/Src/stm32f0xx_hal_tim_ex.c **** 
 2015              		.loc 1 999 0
 2016 0068 C046     		nop
 2017              	.L112:
1003:Drivers/STM32F0xx_HAL_Driver/Src/stm32f0xx_hal_tim_ex.c ****   }
1004:Drivers/STM32F0xx_HAL_Driver/Src/stm32f0xx_hal_tim_ex.c **** 
1005:Drivers/STM32F0xx_HAL_Driver/Src/stm32f0xx_hal_tim_ex.c ****   /* Enable the TIM Break interrupt */
1006:Drivers/STM32F0xx_HAL_Driver/Src/stm32f0xx_hal_tim_ex.c ****   __HAL_TIM_ENABLE_IT(htim, TIM_IT_BREAK);
 2018              		.loc 1 1006 0
 2019 006a 7B68     		ldr	r3, [r7, #4]
 2020 006c 1B68     		ldr	r3, [r3]
 2021 006e 7A68     		ldr	r2, [r7, #4]
 2022 0070 1268     		ldr	r2, [r2]
 2023 0072 D268     		ldr	r2, [r2, #12]
 2024 0074 8021     		movs	r1, #128
 2025 0076 0A43     		orrs	r2, r1
 2026 0078 DA60     		str	r2, [r3, #12]
1007:Drivers/STM32F0xx_HAL_Driver/Src/stm32f0xx_hal_tim_ex.c **** 
1008:Drivers/STM32F0xx_HAL_Driver/Src/stm32f0xx_hal_tim_ex.c ****   /* Enable the complementary PWM output  */
1009:Drivers/STM32F0xx_HAL_Driver/Src/stm32f0xx_hal_tim_ex.c ****   TIM_CCxNChannelCmd(htim->Instance, Channel, TIM_CCxN_ENABLE);
 2027              		.loc 1 1009 0
 2028 007a 7B68     		ldr	r3, [r7, #4]
 2029 007c 1B68     		ldr	r3, [r3]
 2030 007e 3968     		ldr	r1, [r7]
 2031 0080 0422     		movs	r2, #4
 2032 0082 1800     		movs	r0, r3
 2033 0084 FFF7FEFF 		bl	TIM_CCxNChannelCmd
1010:Drivers/STM32F0xx_HAL_Driver/Src/stm32f0xx_hal_tim_ex.c **** 
1011:Drivers/STM32F0xx_HAL_Driver/Src/stm32f0xx_hal_tim_ex.c ****   /* Enable the Main Ouput */
1012:Drivers/STM32F0xx_HAL_Driver/Src/stm32f0xx_hal_tim_ex.c ****   __HAL_TIM_MOE_ENABLE(htim);
 2034              		.loc 1 1012 0
 2035 0088 7B68     		ldr	r3, [r7, #4]
 2036 008a 1B68     		ldr	r3, [r3]
 2037 008c 7A68     		ldr	r2, [r7, #4]
 2038 008e 1268     		ldr	r2, [r2]
 2039 0090 526C     		ldr	r2, [r2, #68]
 2040 0092 8021     		movs	r1, #128
 2041 0094 0902     		lsls	r1, r1, #8
 2042 0096 0A43     		orrs	r2, r1
 2043 0098 5A64     		str	r2, [r3, #68]
1013:Drivers/STM32F0xx_HAL_Driver/Src/stm32f0xx_hal_tim_ex.c **** 
1014:Drivers/STM32F0xx_HAL_Driver/Src/stm32f0xx_hal_tim_ex.c ****   /* Enable the Peripheral */
1015:Drivers/STM32F0xx_HAL_Driver/Src/stm32f0xx_hal_tim_ex.c ****   __HAL_TIM_ENABLE(htim);
ARM GAS  /tmp/cct1Lg5Q.s 			page 55


 2044              		.loc 1 1015 0
 2045 009a 7B68     		ldr	r3, [r7, #4]
 2046 009c 1B68     		ldr	r3, [r3]
 2047 009e 7A68     		ldr	r2, [r7, #4]
 2048 00a0 1268     		ldr	r2, [r2]
 2049 00a2 1268     		ldr	r2, [r2]
 2050 00a4 0121     		movs	r1, #1
 2051 00a6 0A43     		orrs	r2, r1
 2052 00a8 1A60     		str	r2, [r3]
1016:Drivers/STM32F0xx_HAL_Driver/Src/stm32f0xx_hal_tim_ex.c **** 
1017:Drivers/STM32F0xx_HAL_Driver/Src/stm32f0xx_hal_tim_ex.c ****   /* Return function status */
1018:Drivers/STM32F0xx_HAL_Driver/Src/stm32f0xx_hal_tim_ex.c ****   return HAL_OK;
 2053              		.loc 1 1018 0
 2054 00aa 0023     		movs	r3, #0
1019:Drivers/STM32F0xx_HAL_Driver/Src/stm32f0xx_hal_tim_ex.c **** }
 2055              		.loc 1 1019 0
 2056 00ac 1800     		movs	r0, r3
 2057 00ae BD46     		mov	sp, r7
 2058 00b0 02B0     		add	sp, sp, #8
 2059              		@ sp needed
 2060 00b2 80BD     		pop	{r7, pc}
 2061              		.cfi_endproc
 2062              	.LFE53:
 2064              		.section	.text.HAL_TIMEx_PWMN_Stop_IT,"ax",%progbits
 2065              		.align	1
 2066              		.global	HAL_TIMEx_PWMN_Stop_IT
 2067              		.syntax unified
 2068              		.code	16
 2069              		.thumb_func
 2070              		.fpu softvfp
 2072              	HAL_TIMEx_PWMN_Stop_IT:
 2073              	.LFB54:
1020:Drivers/STM32F0xx_HAL_Driver/Src/stm32f0xx_hal_tim_ex.c **** 
1021:Drivers/STM32F0xx_HAL_Driver/Src/stm32f0xx_hal_tim_ex.c **** /**
1022:Drivers/STM32F0xx_HAL_Driver/Src/stm32f0xx_hal_tim_ex.c ****   * @brief  Stops the PWM signal generation in interrupt mode on the 
1023:Drivers/STM32F0xx_HAL_Driver/Src/stm32f0xx_hal_tim_ex.c ****   *         complementary output.
1024:Drivers/STM32F0xx_HAL_Driver/Src/stm32f0xx_hal_tim_ex.c ****   * @param  htim : TIM handle
1025:Drivers/STM32F0xx_HAL_Driver/Src/stm32f0xx_hal_tim_ex.c ****   * @param  Channel : TIM Channel to be disabled
1026:Drivers/STM32F0xx_HAL_Driver/Src/stm32f0xx_hal_tim_ex.c ****   *          This parameter can be one of the following values:
1027:Drivers/STM32F0xx_HAL_Driver/Src/stm32f0xx_hal_tim_ex.c ****   *            @arg TIM_CHANNEL_1: TIM Channel 1 selected
1028:Drivers/STM32F0xx_HAL_Driver/Src/stm32f0xx_hal_tim_ex.c ****   *            @arg TIM_CHANNEL_2: TIM Channel 2 selected
1029:Drivers/STM32F0xx_HAL_Driver/Src/stm32f0xx_hal_tim_ex.c ****   *            @arg TIM_CHANNEL_3: TIM Channel 3 selected
1030:Drivers/STM32F0xx_HAL_Driver/Src/stm32f0xx_hal_tim_ex.c ****   *            @arg TIM_CHANNEL_4: TIM Channel 4 selected
1031:Drivers/STM32F0xx_HAL_Driver/Src/stm32f0xx_hal_tim_ex.c ****   * @retval HAL status
1032:Drivers/STM32F0xx_HAL_Driver/Src/stm32f0xx_hal_tim_ex.c ****   */
1033:Drivers/STM32F0xx_HAL_Driver/Src/stm32f0xx_hal_tim_ex.c **** HAL_StatusTypeDef HAL_TIMEx_PWMN_Stop_IT (TIM_HandleTypeDef *htim, uint32_t Channel)
1034:Drivers/STM32F0xx_HAL_Driver/Src/stm32f0xx_hal_tim_ex.c **** {
 2074              		.loc 1 1034 0
 2075              		.cfi_startproc
 2076 0000 80B5     		push	{r7, lr}
 2077              	.LCFI57:
 2078              		.cfi_def_cfa_offset 8
 2079              		.cfi_offset 7, -8
 2080              		.cfi_offset 14, -4
 2081 0002 84B0     		sub	sp, sp, #16
 2082              	.LCFI58:
 2083              		.cfi_def_cfa_offset 24
ARM GAS  /tmp/cct1Lg5Q.s 			page 56


 2084 0004 00AF     		add	r7, sp, #0
 2085              	.LCFI59:
 2086              		.cfi_def_cfa_register 7
 2087 0006 7860     		str	r0, [r7, #4]
 2088 0008 3960     		str	r1, [r7]
1035:Drivers/STM32F0xx_HAL_Driver/Src/stm32f0xx_hal_tim_ex.c ****   uint32_t tmpccer = 0;
 2089              		.loc 1 1035 0
 2090 000a 0023     		movs	r3, #0
 2091 000c FB60     		str	r3, [r7, #12]
1036:Drivers/STM32F0xx_HAL_Driver/Src/stm32f0xx_hal_tim_ex.c **** 
1037:Drivers/STM32F0xx_HAL_Driver/Src/stm32f0xx_hal_tim_ex.c ****   /* Check the parameters */
1038:Drivers/STM32F0xx_HAL_Driver/Src/stm32f0xx_hal_tim_ex.c ****   assert_param(IS_TIM_CCXN_INSTANCE(htim->Instance, Channel));
1039:Drivers/STM32F0xx_HAL_Driver/Src/stm32f0xx_hal_tim_ex.c **** 
1040:Drivers/STM32F0xx_HAL_Driver/Src/stm32f0xx_hal_tim_ex.c ****   switch (Channel)
 2092              		.loc 1 1040 0
 2093 000e 3B68     		ldr	r3, [r7]
 2094 0010 042B     		cmp	r3, #4
 2095 0012 11D0     		beq	.L116
 2096 0014 02D8     		bhi	.L117
 2097 0016 002B     		cmp	r3, #0
 2098 0018 05D0     		beq	.L118
1041:Drivers/STM32F0xx_HAL_Driver/Src/stm32f0xx_hal_tim_ex.c ****   {
1042:Drivers/STM32F0xx_HAL_Driver/Src/stm32f0xx_hal_tim_ex.c ****     case TIM_CHANNEL_1:
1043:Drivers/STM32F0xx_HAL_Driver/Src/stm32f0xx_hal_tim_ex.c ****     {
1044:Drivers/STM32F0xx_HAL_Driver/Src/stm32f0xx_hal_tim_ex.c ****       /* Disable the TIM Capture/Compare 1 interrupt */
1045:Drivers/STM32F0xx_HAL_Driver/Src/stm32f0xx_hal_tim_ex.c ****       __HAL_TIM_DISABLE_IT(htim, TIM_IT_CC1);
1046:Drivers/STM32F0xx_HAL_Driver/Src/stm32f0xx_hal_tim_ex.c ****     }
1047:Drivers/STM32F0xx_HAL_Driver/Src/stm32f0xx_hal_tim_ex.c ****     break;
1048:Drivers/STM32F0xx_HAL_Driver/Src/stm32f0xx_hal_tim_ex.c **** 
1049:Drivers/STM32F0xx_HAL_Driver/Src/stm32f0xx_hal_tim_ex.c ****     case TIM_CHANNEL_2:
1050:Drivers/STM32F0xx_HAL_Driver/Src/stm32f0xx_hal_tim_ex.c ****     {
1051:Drivers/STM32F0xx_HAL_Driver/Src/stm32f0xx_hal_tim_ex.c ****       /* Disable the TIM Capture/Compare 2 interrupt */
1052:Drivers/STM32F0xx_HAL_Driver/Src/stm32f0xx_hal_tim_ex.c ****       __HAL_TIM_DISABLE_IT(htim, TIM_IT_CC2);
1053:Drivers/STM32F0xx_HAL_Driver/Src/stm32f0xx_hal_tim_ex.c ****     }
1054:Drivers/STM32F0xx_HAL_Driver/Src/stm32f0xx_hal_tim_ex.c ****     break;
1055:Drivers/STM32F0xx_HAL_Driver/Src/stm32f0xx_hal_tim_ex.c **** 
1056:Drivers/STM32F0xx_HAL_Driver/Src/stm32f0xx_hal_tim_ex.c ****     case TIM_CHANNEL_3:
1057:Drivers/STM32F0xx_HAL_Driver/Src/stm32f0xx_hal_tim_ex.c ****     {
1058:Drivers/STM32F0xx_HAL_Driver/Src/stm32f0xx_hal_tim_ex.c ****       /* Disable the TIM Capture/Compare 3 interrupt */
1059:Drivers/STM32F0xx_HAL_Driver/Src/stm32f0xx_hal_tim_ex.c ****       __HAL_TIM_DISABLE_IT(htim, TIM_IT_CC3);
1060:Drivers/STM32F0xx_HAL_Driver/Src/stm32f0xx_hal_tim_ex.c ****     }
1061:Drivers/STM32F0xx_HAL_Driver/Src/stm32f0xx_hal_tim_ex.c ****     break;
1062:Drivers/STM32F0xx_HAL_Driver/Src/stm32f0xx_hal_tim_ex.c **** 
1063:Drivers/STM32F0xx_HAL_Driver/Src/stm32f0xx_hal_tim_ex.c ****     case TIM_CHANNEL_4:
1064:Drivers/STM32F0xx_HAL_Driver/Src/stm32f0xx_hal_tim_ex.c ****     {
1065:Drivers/STM32F0xx_HAL_Driver/Src/stm32f0xx_hal_tim_ex.c ****       /* Disable the TIM Capture/Compare 3 interrupt */
1066:Drivers/STM32F0xx_HAL_Driver/Src/stm32f0xx_hal_tim_ex.c ****       __HAL_TIM_DISABLE_IT(htim, TIM_IT_CC4);
1067:Drivers/STM32F0xx_HAL_Driver/Src/stm32f0xx_hal_tim_ex.c ****     }
1068:Drivers/STM32F0xx_HAL_Driver/Src/stm32f0xx_hal_tim_ex.c ****     break;
1069:Drivers/STM32F0xx_HAL_Driver/Src/stm32f0xx_hal_tim_ex.c **** 
1070:Drivers/STM32F0xx_HAL_Driver/Src/stm32f0xx_hal_tim_ex.c ****     default:
1071:Drivers/STM32F0xx_HAL_Driver/Src/stm32f0xx_hal_tim_ex.c ****     break;
 2099              		.loc 1 1071 0
 2100 001a 28E0     		b	.L121
 2101              	.L117:
1040:Drivers/STM32F0xx_HAL_Driver/Src/stm32f0xx_hal_tim_ex.c ****   {
 2102              		.loc 1 1040 0
ARM GAS  /tmp/cct1Lg5Q.s 			page 57


 2103 001c 082B     		cmp	r3, #8
 2104 001e 14D0     		beq	.L119
 2105 0020 0C2B     		cmp	r3, #12
 2106 0022 1BD0     		beq	.L120
 2107              		.loc 1 1071 0
 2108 0024 23E0     		b	.L121
 2109              	.L118:
1045:Drivers/STM32F0xx_HAL_Driver/Src/stm32f0xx_hal_tim_ex.c ****     }
 2110              		.loc 1 1045 0
 2111 0026 7B68     		ldr	r3, [r7, #4]
 2112 0028 1B68     		ldr	r3, [r3]
 2113 002a 7A68     		ldr	r2, [r7, #4]
 2114 002c 1268     		ldr	r2, [r2]
 2115 002e D268     		ldr	r2, [r2, #12]
 2116 0030 0221     		movs	r1, #2
 2117 0032 8A43     		bics	r2, r1
 2118 0034 DA60     		str	r2, [r3, #12]
1047:Drivers/STM32F0xx_HAL_Driver/Src/stm32f0xx_hal_tim_ex.c **** 
 2119              		.loc 1 1047 0
 2120 0036 1AE0     		b	.L121
 2121              	.L116:
1052:Drivers/STM32F0xx_HAL_Driver/Src/stm32f0xx_hal_tim_ex.c ****     }
 2122              		.loc 1 1052 0
 2123 0038 7B68     		ldr	r3, [r7, #4]
 2124 003a 1B68     		ldr	r3, [r3]
 2125 003c 7A68     		ldr	r2, [r7, #4]
 2126 003e 1268     		ldr	r2, [r2]
 2127 0040 D268     		ldr	r2, [r2, #12]
 2128 0042 0421     		movs	r1, #4
 2129 0044 8A43     		bics	r2, r1
 2130 0046 DA60     		str	r2, [r3, #12]
1054:Drivers/STM32F0xx_HAL_Driver/Src/stm32f0xx_hal_tim_ex.c **** 
 2131              		.loc 1 1054 0
 2132 0048 11E0     		b	.L121
 2133              	.L119:
1059:Drivers/STM32F0xx_HAL_Driver/Src/stm32f0xx_hal_tim_ex.c ****     }
 2134              		.loc 1 1059 0
 2135 004a 7B68     		ldr	r3, [r7, #4]
 2136 004c 1B68     		ldr	r3, [r3]
 2137 004e 7A68     		ldr	r2, [r7, #4]
 2138 0050 1268     		ldr	r2, [r2]
 2139 0052 D268     		ldr	r2, [r2, #12]
 2140 0054 0821     		movs	r1, #8
 2141 0056 8A43     		bics	r2, r1
 2142 0058 DA60     		str	r2, [r3, #12]
1061:Drivers/STM32F0xx_HAL_Driver/Src/stm32f0xx_hal_tim_ex.c **** 
 2143              		.loc 1 1061 0
 2144 005a 08E0     		b	.L121
 2145              	.L120:
1066:Drivers/STM32F0xx_HAL_Driver/Src/stm32f0xx_hal_tim_ex.c ****     }
 2146              		.loc 1 1066 0
 2147 005c 7B68     		ldr	r3, [r7, #4]
 2148 005e 1B68     		ldr	r3, [r3]
 2149 0060 7A68     		ldr	r2, [r7, #4]
 2150 0062 1268     		ldr	r2, [r2]
 2151 0064 D268     		ldr	r2, [r2, #12]
 2152 0066 1021     		movs	r1, #16
ARM GAS  /tmp/cct1Lg5Q.s 			page 58


 2153 0068 8A43     		bics	r2, r1
 2154 006a DA60     		str	r2, [r3, #12]
1068:Drivers/STM32F0xx_HAL_Driver/Src/stm32f0xx_hal_tim_ex.c **** 
 2155              		.loc 1 1068 0
 2156 006c C046     		nop
 2157              	.L121:
1072:Drivers/STM32F0xx_HAL_Driver/Src/stm32f0xx_hal_tim_ex.c ****   }
1073:Drivers/STM32F0xx_HAL_Driver/Src/stm32f0xx_hal_tim_ex.c **** 
1074:Drivers/STM32F0xx_HAL_Driver/Src/stm32f0xx_hal_tim_ex.c ****   /* Disable the complementary PWM output  */
1075:Drivers/STM32F0xx_HAL_Driver/Src/stm32f0xx_hal_tim_ex.c ****   TIM_CCxNChannelCmd(htim->Instance, Channel, TIM_CCxN_DISABLE);
 2158              		.loc 1 1075 0
 2159 006e 7B68     		ldr	r3, [r7, #4]
 2160 0070 1B68     		ldr	r3, [r3]
 2161 0072 3968     		ldr	r1, [r7]
 2162 0074 0022     		movs	r2, #0
 2163 0076 1800     		movs	r0, r3
 2164 0078 FFF7FEFF 		bl	TIM_CCxNChannelCmd
1076:Drivers/STM32F0xx_HAL_Driver/Src/stm32f0xx_hal_tim_ex.c **** 
1077:Drivers/STM32F0xx_HAL_Driver/Src/stm32f0xx_hal_tim_ex.c ****   /* Disable the TIM Break interrupt (only if no more channel is active) */
1078:Drivers/STM32F0xx_HAL_Driver/Src/stm32f0xx_hal_tim_ex.c ****   tmpccer = htim->Instance->CCER;
 2165              		.loc 1 1078 0
 2166 007c 7B68     		ldr	r3, [r7, #4]
 2167 007e 1B68     		ldr	r3, [r3]
 2168 0080 1B6A     		ldr	r3, [r3, #32]
 2169 0082 FB60     		str	r3, [r7, #12]
1079:Drivers/STM32F0xx_HAL_Driver/Src/stm32f0xx_hal_tim_ex.c ****   if ((tmpccer & (TIM_CCER_CC1NE | TIM_CCER_CC2NE | TIM_CCER_CC3NE)) == RESET)
 2170              		.loc 1 1079 0
 2171 0084 FB68     		ldr	r3, [r7, #12]
 2172 0086 1C4A     		ldr	r2, .L126
 2173 0088 1340     		ands	r3, r2
 2174 008a 07D1     		bne	.L122
1080:Drivers/STM32F0xx_HAL_Driver/Src/stm32f0xx_hal_tim_ex.c ****   {
1081:Drivers/STM32F0xx_HAL_Driver/Src/stm32f0xx_hal_tim_ex.c ****     __HAL_TIM_DISABLE_IT(htim, TIM_IT_BREAK);
 2175              		.loc 1 1081 0
 2176 008c 7B68     		ldr	r3, [r7, #4]
 2177 008e 1B68     		ldr	r3, [r3]
 2178 0090 7A68     		ldr	r2, [r7, #4]
 2179 0092 1268     		ldr	r2, [r2]
 2180 0094 D268     		ldr	r2, [r2, #12]
 2181 0096 8021     		movs	r1, #128
 2182 0098 8A43     		bics	r2, r1
 2183 009a DA60     		str	r2, [r3, #12]
 2184              	.L122:
1082:Drivers/STM32F0xx_HAL_Driver/Src/stm32f0xx_hal_tim_ex.c ****   }
1083:Drivers/STM32F0xx_HAL_Driver/Src/stm32f0xx_hal_tim_ex.c **** 
1084:Drivers/STM32F0xx_HAL_Driver/Src/stm32f0xx_hal_tim_ex.c ****   /* Disable the Main Ouput */
1085:Drivers/STM32F0xx_HAL_Driver/Src/stm32f0xx_hal_tim_ex.c ****   __HAL_TIM_MOE_DISABLE(htim);
 2185              		.loc 1 1085 0
 2186 009c 7B68     		ldr	r3, [r7, #4]
 2187 009e 1B68     		ldr	r3, [r3]
 2188 00a0 1B6A     		ldr	r3, [r3, #32]
 2189 00a2 164A     		ldr	r2, .L126+4
 2190 00a4 1340     		ands	r3, r2
 2191 00a6 0DD1     		bne	.L123
 2192              		.loc 1 1085 0 is_stmt 0 discriminator 1
 2193 00a8 7B68     		ldr	r3, [r7, #4]
 2194 00aa 1B68     		ldr	r3, [r3]
ARM GAS  /tmp/cct1Lg5Q.s 			page 59


 2195 00ac 1B6A     		ldr	r3, [r3, #32]
 2196 00ae 124A     		ldr	r2, .L126
 2197 00b0 1340     		ands	r3, r2
 2198 00b2 07D1     		bne	.L123
 2199              		.loc 1 1085 0 discriminator 2
 2200 00b4 7B68     		ldr	r3, [r7, #4]
 2201 00b6 1B68     		ldr	r3, [r3]
 2202 00b8 7A68     		ldr	r2, [r7, #4]
 2203 00ba 1268     		ldr	r2, [r2]
 2204 00bc 526C     		ldr	r2, [r2, #68]
 2205 00be 1049     		ldr	r1, .L126+8
 2206 00c0 0A40     		ands	r2, r1
 2207 00c2 5A64     		str	r2, [r3, #68]
 2208              	.L123:
1086:Drivers/STM32F0xx_HAL_Driver/Src/stm32f0xx_hal_tim_ex.c **** 
1087:Drivers/STM32F0xx_HAL_Driver/Src/stm32f0xx_hal_tim_ex.c ****   /* Disable the Peripheral */
1088:Drivers/STM32F0xx_HAL_Driver/Src/stm32f0xx_hal_tim_ex.c ****   __HAL_TIM_DISABLE(htim);
 2209              		.loc 1 1088 0 is_stmt 1
 2210 00c4 7B68     		ldr	r3, [r7, #4]
 2211 00c6 1B68     		ldr	r3, [r3]
 2212 00c8 1B6A     		ldr	r3, [r3, #32]
 2213 00ca 0C4A     		ldr	r2, .L126+4
 2214 00cc 1340     		ands	r3, r2
 2215 00ce 0DD1     		bne	.L124
 2216              		.loc 1 1088 0 is_stmt 0 discriminator 1
 2217 00d0 7B68     		ldr	r3, [r7, #4]
 2218 00d2 1B68     		ldr	r3, [r3]
 2219 00d4 1B6A     		ldr	r3, [r3, #32]
 2220 00d6 084A     		ldr	r2, .L126
 2221 00d8 1340     		ands	r3, r2
 2222 00da 07D1     		bne	.L124
 2223              		.loc 1 1088 0 discriminator 2
 2224 00dc 7B68     		ldr	r3, [r7, #4]
 2225 00de 1B68     		ldr	r3, [r3]
 2226 00e0 7A68     		ldr	r2, [r7, #4]
 2227 00e2 1268     		ldr	r2, [r2]
 2228 00e4 1268     		ldr	r2, [r2]
 2229 00e6 0121     		movs	r1, #1
 2230 00e8 8A43     		bics	r2, r1
 2231 00ea 1A60     		str	r2, [r3]
 2232              	.L124:
1089:Drivers/STM32F0xx_HAL_Driver/Src/stm32f0xx_hal_tim_ex.c **** 
1090:Drivers/STM32F0xx_HAL_Driver/Src/stm32f0xx_hal_tim_ex.c ****   /* Return function status */
1091:Drivers/STM32F0xx_HAL_Driver/Src/stm32f0xx_hal_tim_ex.c ****   return HAL_OK;
 2233              		.loc 1 1091 0 is_stmt 1
 2234 00ec 0023     		movs	r3, #0
1092:Drivers/STM32F0xx_HAL_Driver/Src/stm32f0xx_hal_tim_ex.c **** }
 2235              		.loc 1 1092 0
 2236 00ee 1800     		movs	r0, r3
 2237 00f0 BD46     		mov	sp, r7
 2238 00f2 04B0     		add	sp, sp, #16
 2239              		@ sp needed
 2240 00f4 80BD     		pop	{r7, pc}
 2241              	.L127:
 2242 00f6 C046     		.align	2
 2243              	.L126:
 2244 00f8 44040000 		.word	1092
ARM GAS  /tmp/cct1Lg5Q.s 			page 60


 2245 00fc 11110000 		.word	4369
 2246 0100 FF7FFFFF 		.word	-32769
 2247              		.cfi_endproc
 2248              	.LFE54:
 2250              		.section	.text.HAL_TIMEx_PWMN_Start_DMA,"ax",%progbits
 2251              		.align	1
 2252              		.global	HAL_TIMEx_PWMN_Start_DMA
 2253              		.syntax unified
 2254              		.code	16
 2255              		.thumb_func
 2256              		.fpu softvfp
 2258              	HAL_TIMEx_PWMN_Start_DMA:
 2259              	.LFB55:
1093:Drivers/STM32F0xx_HAL_Driver/Src/stm32f0xx_hal_tim_ex.c **** 
1094:Drivers/STM32F0xx_HAL_Driver/Src/stm32f0xx_hal_tim_ex.c **** /**
1095:Drivers/STM32F0xx_HAL_Driver/Src/stm32f0xx_hal_tim_ex.c ****   * @brief  Starts the TIM PWM signal generation in DMA mode on the 
1096:Drivers/STM32F0xx_HAL_Driver/Src/stm32f0xx_hal_tim_ex.c ****   *         complementary output
1097:Drivers/STM32F0xx_HAL_Driver/Src/stm32f0xx_hal_tim_ex.c ****   * @param  htim : TIM handle
1098:Drivers/STM32F0xx_HAL_Driver/Src/stm32f0xx_hal_tim_ex.c ****   * @param  Channel : TIM Channel to be enabled
1099:Drivers/STM32F0xx_HAL_Driver/Src/stm32f0xx_hal_tim_ex.c ****   *          This parameter can be one of the following values:
1100:Drivers/STM32F0xx_HAL_Driver/Src/stm32f0xx_hal_tim_ex.c ****   *            @arg TIM_CHANNEL_1: TIM Channel 1 selected
1101:Drivers/STM32F0xx_HAL_Driver/Src/stm32f0xx_hal_tim_ex.c ****   *            @arg TIM_CHANNEL_2: TIM Channel 2 selected
1102:Drivers/STM32F0xx_HAL_Driver/Src/stm32f0xx_hal_tim_ex.c ****   *            @arg TIM_CHANNEL_3: TIM Channel 3 selected
1103:Drivers/STM32F0xx_HAL_Driver/Src/stm32f0xx_hal_tim_ex.c ****   *            @arg TIM_CHANNEL_4: TIM Channel 4 selected
1104:Drivers/STM32F0xx_HAL_Driver/Src/stm32f0xx_hal_tim_ex.c ****   * @param  pData : The source Buffer address.
1105:Drivers/STM32F0xx_HAL_Driver/Src/stm32f0xx_hal_tim_ex.c ****   * @param  Length : The length of data to be transferred from memory to TIM peripheral
1106:Drivers/STM32F0xx_HAL_Driver/Src/stm32f0xx_hal_tim_ex.c ****   * @retval HAL status
1107:Drivers/STM32F0xx_HAL_Driver/Src/stm32f0xx_hal_tim_ex.c ****   */
1108:Drivers/STM32F0xx_HAL_Driver/Src/stm32f0xx_hal_tim_ex.c **** HAL_StatusTypeDef HAL_TIMEx_PWMN_Start_DMA(TIM_HandleTypeDef *htim, uint32_t Channel, uint32_t *pDa
1109:Drivers/STM32F0xx_HAL_Driver/Src/stm32f0xx_hal_tim_ex.c **** {
 2260              		.loc 1 1109 0
 2261              		.cfi_startproc
 2262 0000 80B5     		push	{r7, lr}
 2263              	.LCFI60:
 2264              		.cfi_def_cfa_offset 8
 2265              		.cfi_offset 7, -8
 2266              		.cfi_offset 14, -4
 2267 0002 84B0     		sub	sp, sp, #16
 2268              	.LCFI61:
 2269              		.cfi_def_cfa_offset 24
 2270 0004 00AF     		add	r7, sp, #0
 2271              	.LCFI62:
 2272              		.cfi_def_cfa_register 7
 2273 0006 F860     		str	r0, [r7, #12]
 2274 0008 B960     		str	r1, [r7, #8]
 2275 000a 7A60     		str	r2, [r7, #4]
 2276 000c 1A00     		movs	r2, r3
 2277 000e BB1C     		adds	r3, r7, #2
 2278 0010 1A80     		strh	r2, [r3]
1110:Drivers/STM32F0xx_HAL_Driver/Src/stm32f0xx_hal_tim_ex.c ****   /* Check the parameters */
1111:Drivers/STM32F0xx_HAL_Driver/Src/stm32f0xx_hal_tim_ex.c ****   assert_param(IS_TIM_CCXN_INSTANCE(htim->Instance, Channel));
1112:Drivers/STM32F0xx_HAL_Driver/Src/stm32f0xx_hal_tim_ex.c **** 
1113:Drivers/STM32F0xx_HAL_Driver/Src/stm32f0xx_hal_tim_ex.c ****   if((htim->State == HAL_TIM_STATE_BUSY))
 2279              		.loc 1 1113 0
 2280 0012 FB68     		ldr	r3, [r7, #12]
 2281 0014 3922     		movs	r2, #57
 2282 0016 9B5C     		ldrb	r3, [r3, r2]
ARM GAS  /tmp/cct1Lg5Q.s 			page 61


 2283 0018 DBB2     		uxtb	r3, r3
 2284 001a 022B     		cmp	r3, #2
 2285 001c 01D1     		bne	.L129
1114:Drivers/STM32F0xx_HAL_Driver/Src/stm32f0xx_hal_tim_ex.c ****   {
1115:Drivers/STM32F0xx_HAL_Driver/Src/stm32f0xx_hal_tim_ex.c ****      return HAL_BUSY;
 2286              		.loc 1 1115 0
 2287 001e 0223     		movs	r3, #2
 2288 0020 ABE0     		b	.L130
 2289              	.L129:
1116:Drivers/STM32F0xx_HAL_Driver/Src/stm32f0xx_hal_tim_ex.c ****   }
1117:Drivers/STM32F0xx_HAL_Driver/Src/stm32f0xx_hal_tim_ex.c ****   else if((htim->State == HAL_TIM_STATE_READY))
 2290              		.loc 1 1117 0
 2291 0022 FB68     		ldr	r3, [r7, #12]
 2292 0024 3922     		movs	r2, #57
 2293 0026 9B5C     		ldrb	r3, [r3, r2]
 2294 0028 DBB2     		uxtb	r3, r3
 2295 002a 012B     		cmp	r3, #1
 2296 002c 0CD1     		bne	.L131
1118:Drivers/STM32F0xx_HAL_Driver/Src/stm32f0xx_hal_tim_ex.c ****   {
1119:Drivers/STM32F0xx_HAL_Driver/Src/stm32f0xx_hal_tim_ex.c ****     if(((uint32_t)pData == 0 ) && (Length > 0))
 2297              		.loc 1 1119 0
 2298 002e 7B68     		ldr	r3, [r7, #4]
 2299 0030 002B     		cmp	r3, #0
 2300 0032 05D1     		bne	.L132
 2301              		.loc 1 1119 0 is_stmt 0 discriminator 1
 2302 0034 BB1C     		adds	r3, r7, #2
 2303 0036 1B88     		ldrh	r3, [r3]
 2304 0038 002B     		cmp	r3, #0
 2305 003a 01D0     		beq	.L132
1120:Drivers/STM32F0xx_HAL_Driver/Src/stm32f0xx_hal_tim_ex.c ****     {
1121:Drivers/STM32F0xx_HAL_Driver/Src/stm32f0xx_hal_tim_ex.c ****       return HAL_ERROR;
 2306              		.loc 1 1121 0 is_stmt 1
 2307 003c 0123     		movs	r3, #1
 2308 003e 9CE0     		b	.L130
 2309              	.L132:
1122:Drivers/STM32F0xx_HAL_Driver/Src/stm32f0xx_hal_tim_ex.c ****     }
1123:Drivers/STM32F0xx_HAL_Driver/Src/stm32f0xx_hal_tim_ex.c ****     else
1124:Drivers/STM32F0xx_HAL_Driver/Src/stm32f0xx_hal_tim_ex.c ****     {
1125:Drivers/STM32F0xx_HAL_Driver/Src/stm32f0xx_hal_tim_ex.c ****       htim->State = HAL_TIM_STATE_BUSY;
 2310              		.loc 1 1125 0
 2311 0040 FB68     		ldr	r3, [r7, #12]
 2312 0042 3922     		movs	r2, #57
 2313 0044 0221     		movs	r1, #2
 2314 0046 9954     		strb	r1, [r3, r2]
 2315              	.L131:
1126:Drivers/STM32F0xx_HAL_Driver/Src/stm32f0xx_hal_tim_ex.c ****     }
1127:Drivers/STM32F0xx_HAL_Driver/Src/stm32f0xx_hal_tim_ex.c ****   }
1128:Drivers/STM32F0xx_HAL_Driver/Src/stm32f0xx_hal_tim_ex.c ****   switch (Channel)
 2316              		.loc 1 1128 0
 2317 0048 BB68     		ldr	r3, [r7, #8]
 2318 004a 042B     		cmp	r3, #4
 2319 004c 25D0     		beq	.L134
 2320 004e 02D8     		bhi	.L135
 2321 0050 002B     		cmp	r3, #0
 2322 0052 05D0     		beq	.L136
1129:Drivers/STM32F0xx_HAL_Driver/Src/stm32f0xx_hal_tim_ex.c ****   {
1130:Drivers/STM32F0xx_HAL_Driver/Src/stm32f0xx_hal_tim_ex.c ****     case TIM_CHANNEL_1:
ARM GAS  /tmp/cct1Lg5Q.s 			page 62


1131:Drivers/STM32F0xx_HAL_Driver/Src/stm32f0xx_hal_tim_ex.c ****     {
1132:Drivers/STM32F0xx_HAL_Driver/Src/stm32f0xx_hal_tim_ex.c ****       /* Set the DMA Period elapsed callback */
1133:Drivers/STM32F0xx_HAL_Driver/Src/stm32f0xx_hal_tim_ex.c ****       htim->hdma[TIM_DMA_ID_CC1]->XferCpltCallback = TIM_DMADelayPulseCplt;
1134:Drivers/STM32F0xx_HAL_Driver/Src/stm32f0xx_hal_tim_ex.c **** 
1135:Drivers/STM32F0xx_HAL_Driver/Src/stm32f0xx_hal_tim_ex.c ****       /* Set the DMA error callback */
1136:Drivers/STM32F0xx_HAL_Driver/Src/stm32f0xx_hal_tim_ex.c ****       htim->hdma[TIM_DMA_ID_CC1]->XferErrorCallback = TIM_DMAError ;
1137:Drivers/STM32F0xx_HAL_Driver/Src/stm32f0xx_hal_tim_ex.c **** 
1138:Drivers/STM32F0xx_HAL_Driver/Src/stm32f0xx_hal_tim_ex.c ****       /* Enable the DMA channel */
1139:Drivers/STM32F0xx_HAL_Driver/Src/stm32f0xx_hal_tim_ex.c ****       HAL_DMA_Start_IT(htim->hdma[TIM_DMA_ID_CC1], (uint32_t)pData, (uint32_t)&htim->Instance->CCR1
1140:Drivers/STM32F0xx_HAL_Driver/Src/stm32f0xx_hal_tim_ex.c **** 
1141:Drivers/STM32F0xx_HAL_Driver/Src/stm32f0xx_hal_tim_ex.c ****       /* Enable the TIM Capture/Compare 1 DMA request */
1142:Drivers/STM32F0xx_HAL_Driver/Src/stm32f0xx_hal_tim_ex.c ****       __HAL_TIM_ENABLE_DMA(htim, TIM_DMA_CC1);
1143:Drivers/STM32F0xx_HAL_Driver/Src/stm32f0xx_hal_tim_ex.c ****     }
1144:Drivers/STM32F0xx_HAL_Driver/Src/stm32f0xx_hal_tim_ex.c ****     break;
1145:Drivers/STM32F0xx_HAL_Driver/Src/stm32f0xx_hal_tim_ex.c **** 
1146:Drivers/STM32F0xx_HAL_Driver/Src/stm32f0xx_hal_tim_ex.c ****     case TIM_CHANNEL_2:
1147:Drivers/STM32F0xx_HAL_Driver/Src/stm32f0xx_hal_tim_ex.c ****     {
1148:Drivers/STM32F0xx_HAL_Driver/Src/stm32f0xx_hal_tim_ex.c ****       /* Set the DMA Period elapsed callback */
1149:Drivers/STM32F0xx_HAL_Driver/Src/stm32f0xx_hal_tim_ex.c ****       htim->hdma[TIM_DMA_ID_CC2]->XferCpltCallback = TIM_DMADelayPulseCplt;
1150:Drivers/STM32F0xx_HAL_Driver/Src/stm32f0xx_hal_tim_ex.c **** 
1151:Drivers/STM32F0xx_HAL_Driver/Src/stm32f0xx_hal_tim_ex.c ****       /* Set the DMA error callback */
1152:Drivers/STM32F0xx_HAL_Driver/Src/stm32f0xx_hal_tim_ex.c ****       htim->hdma[TIM_DMA_ID_CC2]->XferErrorCallback = TIM_DMAError ;
1153:Drivers/STM32F0xx_HAL_Driver/Src/stm32f0xx_hal_tim_ex.c **** 
1154:Drivers/STM32F0xx_HAL_Driver/Src/stm32f0xx_hal_tim_ex.c ****       /* Enable the DMA channel */
1155:Drivers/STM32F0xx_HAL_Driver/Src/stm32f0xx_hal_tim_ex.c ****       HAL_DMA_Start_IT(htim->hdma[TIM_DMA_ID_CC2], (uint32_t)pData, (uint32_t)&htim->Instance->CCR2
1156:Drivers/STM32F0xx_HAL_Driver/Src/stm32f0xx_hal_tim_ex.c **** 
1157:Drivers/STM32F0xx_HAL_Driver/Src/stm32f0xx_hal_tim_ex.c ****       /* Enable the TIM Capture/Compare 2 DMA request */
1158:Drivers/STM32F0xx_HAL_Driver/Src/stm32f0xx_hal_tim_ex.c ****       __HAL_TIM_ENABLE_DMA(htim, TIM_DMA_CC2);
1159:Drivers/STM32F0xx_HAL_Driver/Src/stm32f0xx_hal_tim_ex.c ****     }
1160:Drivers/STM32F0xx_HAL_Driver/Src/stm32f0xx_hal_tim_ex.c ****     break;
1161:Drivers/STM32F0xx_HAL_Driver/Src/stm32f0xx_hal_tim_ex.c **** 
1162:Drivers/STM32F0xx_HAL_Driver/Src/stm32f0xx_hal_tim_ex.c ****     case TIM_CHANNEL_3:
1163:Drivers/STM32F0xx_HAL_Driver/Src/stm32f0xx_hal_tim_ex.c ****     {
1164:Drivers/STM32F0xx_HAL_Driver/Src/stm32f0xx_hal_tim_ex.c ****       /* Set the DMA Period elapsed callback */
1165:Drivers/STM32F0xx_HAL_Driver/Src/stm32f0xx_hal_tim_ex.c ****       htim->hdma[TIM_DMA_ID_CC3]->XferCpltCallback = TIM_DMADelayPulseCplt;
1166:Drivers/STM32F0xx_HAL_Driver/Src/stm32f0xx_hal_tim_ex.c **** 
1167:Drivers/STM32F0xx_HAL_Driver/Src/stm32f0xx_hal_tim_ex.c ****       /* Set the DMA error callback */
1168:Drivers/STM32F0xx_HAL_Driver/Src/stm32f0xx_hal_tim_ex.c ****       htim->hdma[TIM_DMA_ID_CC3]->XferErrorCallback = TIM_DMAError ;
1169:Drivers/STM32F0xx_HAL_Driver/Src/stm32f0xx_hal_tim_ex.c **** 
1170:Drivers/STM32F0xx_HAL_Driver/Src/stm32f0xx_hal_tim_ex.c ****       /* Enable the DMA channel */
1171:Drivers/STM32F0xx_HAL_Driver/Src/stm32f0xx_hal_tim_ex.c ****       HAL_DMA_Start_IT(htim->hdma[TIM_DMA_ID_CC3], (uint32_t)pData, (uint32_t)&htim->Instance->CCR3
1172:Drivers/STM32F0xx_HAL_Driver/Src/stm32f0xx_hal_tim_ex.c **** 
1173:Drivers/STM32F0xx_HAL_Driver/Src/stm32f0xx_hal_tim_ex.c ****       /* Enable the TIM Capture/Compare 3 DMA request */
1174:Drivers/STM32F0xx_HAL_Driver/Src/stm32f0xx_hal_tim_ex.c ****       __HAL_TIM_ENABLE_DMA(htim, TIM_DMA_CC3);
1175:Drivers/STM32F0xx_HAL_Driver/Src/stm32f0xx_hal_tim_ex.c ****     }
1176:Drivers/STM32F0xx_HAL_Driver/Src/stm32f0xx_hal_tim_ex.c ****     break;
1177:Drivers/STM32F0xx_HAL_Driver/Src/stm32f0xx_hal_tim_ex.c **** 
1178:Drivers/STM32F0xx_HAL_Driver/Src/stm32f0xx_hal_tim_ex.c ****     case TIM_CHANNEL_4:
1179:Drivers/STM32F0xx_HAL_Driver/Src/stm32f0xx_hal_tim_ex.c ****     {
1180:Drivers/STM32F0xx_HAL_Driver/Src/stm32f0xx_hal_tim_ex.c ****      /* Set the DMA Period elapsed callback */
1181:Drivers/STM32F0xx_HAL_Driver/Src/stm32f0xx_hal_tim_ex.c ****       htim->hdma[TIM_DMA_ID_CC4]->XferCpltCallback = TIM_DMADelayPulseCplt;
1182:Drivers/STM32F0xx_HAL_Driver/Src/stm32f0xx_hal_tim_ex.c **** 
1183:Drivers/STM32F0xx_HAL_Driver/Src/stm32f0xx_hal_tim_ex.c ****       /* Set the DMA error callback */
1184:Drivers/STM32F0xx_HAL_Driver/Src/stm32f0xx_hal_tim_ex.c ****       htim->hdma[TIM_DMA_ID_CC4]->XferErrorCallback = TIM_DMAError ;
1185:Drivers/STM32F0xx_HAL_Driver/Src/stm32f0xx_hal_tim_ex.c **** 
1186:Drivers/STM32F0xx_HAL_Driver/Src/stm32f0xx_hal_tim_ex.c ****       /* Enable the DMA channel */
1187:Drivers/STM32F0xx_HAL_Driver/Src/stm32f0xx_hal_tim_ex.c ****       HAL_DMA_Start_IT(htim->hdma[TIM_DMA_ID_CC4], (uint32_t)pData, (uint32_t)&htim->Instance->CCR4
ARM GAS  /tmp/cct1Lg5Q.s 			page 63


1188:Drivers/STM32F0xx_HAL_Driver/Src/stm32f0xx_hal_tim_ex.c **** 
1189:Drivers/STM32F0xx_HAL_Driver/Src/stm32f0xx_hal_tim_ex.c ****       /* Enable the TIM Capture/Compare 4 DMA request */
1190:Drivers/STM32F0xx_HAL_Driver/Src/stm32f0xx_hal_tim_ex.c ****       __HAL_TIM_ENABLE_DMA(htim, TIM_DMA_CC4);
1191:Drivers/STM32F0xx_HAL_Driver/Src/stm32f0xx_hal_tim_ex.c ****     }
1192:Drivers/STM32F0xx_HAL_Driver/Src/stm32f0xx_hal_tim_ex.c ****     break;
1193:Drivers/STM32F0xx_HAL_Driver/Src/stm32f0xx_hal_tim_ex.c **** 
1194:Drivers/STM32F0xx_HAL_Driver/Src/stm32f0xx_hal_tim_ex.c ****     default:
1195:Drivers/STM32F0xx_HAL_Driver/Src/stm32f0xx_hal_tim_ex.c ****     break;
 2323              		.loc 1 1195 0
 2324 0054 78E0     		b	.L139
 2325              	.L135:
1128:Drivers/STM32F0xx_HAL_Driver/Src/stm32f0xx_hal_tim_ex.c ****   {
 2326              		.loc 1 1128 0
 2327 0056 082B     		cmp	r3, #8
 2328 0058 3CD0     		beq	.L137
 2329 005a 0C2B     		cmp	r3, #12
 2330 005c 57D0     		beq	.L138
 2331              		.loc 1 1195 0
 2332 005e 73E0     		b	.L139
 2333              	.L136:
1133:Drivers/STM32F0xx_HAL_Driver/Src/stm32f0xx_hal_tim_ex.c **** 
 2334              		.loc 1 1133 0
 2335 0060 FB68     		ldr	r3, [r7, #12]
 2336 0062 1B6A     		ldr	r3, [r3, #32]
 2337 0064 474A     		ldr	r2, .L140
 2338 0066 9A62     		str	r2, [r3, #40]
1136:Drivers/STM32F0xx_HAL_Driver/Src/stm32f0xx_hal_tim_ex.c **** 
 2339              		.loc 1 1136 0
 2340 0068 FB68     		ldr	r3, [r7, #12]
 2341 006a 1B6A     		ldr	r3, [r3, #32]
 2342 006c 464A     		ldr	r2, .L140+4
 2343 006e 1A63     		str	r2, [r3, #48]
1139:Drivers/STM32F0xx_HAL_Driver/Src/stm32f0xx_hal_tim_ex.c **** 
 2344              		.loc 1 1139 0
 2345 0070 FB68     		ldr	r3, [r7, #12]
 2346 0072 186A     		ldr	r0, [r3, #32]
 2347 0074 7968     		ldr	r1, [r7, #4]
 2348 0076 FB68     		ldr	r3, [r7, #12]
 2349 0078 1B68     		ldr	r3, [r3]
 2350 007a 3433     		adds	r3, r3, #52
 2351 007c 1A00     		movs	r2, r3
 2352 007e BB1C     		adds	r3, r7, #2
 2353 0080 1B88     		ldrh	r3, [r3]
 2354 0082 FFF7FEFF 		bl	HAL_DMA_Start_IT
1142:Drivers/STM32F0xx_HAL_Driver/Src/stm32f0xx_hal_tim_ex.c ****     }
 2355              		.loc 1 1142 0
 2356 0086 FB68     		ldr	r3, [r7, #12]
 2357 0088 1B68     		ldr	r3, [r3]
 2358 008a FA68     		ldr	r2, [r7, #12]
 2359 008c 1268     		ldr	r2, [r2]
 2360 008e D268     		ldr	r2, [r2, #12]
 2361 0090 8021     		movs	r1, #128
 2362 0092 8900     		lsls	r1, r1, #2
 2363 0094 0A43     		orrs	r2, r1
 2364 0096 DA60     		str	r2, [r3, #12]
1144:Drivers/STM32F0xx_HAL_Driver/Src/stm32f0xx_hal_tim_ex.c **** 
 2365              		.loc 1 1144 0
ARM GAS  /tmp/cct1Lg5Q.s 			page 64


 2366 0098 56E0     		b	.L139
 2367              	.L134:
1149:Drivers/STM32F0xx_HAL_Driver/Src/stm32f0xx_hal_tim_ex.c **** 
 2368              		.loc 1 1149 0
 2369 009a FB68     		ldr	r3, [r7, #12]
 2370 009c 5B6A     		ldr	r3, [r3, #36]
 2371 009e 394A     		ldr	r2, .L140
 2372 00a0 9A62     		str	r2, [r3, #40]
1152:Drivers/STM32F0xx_HAL_Driver/Src/stm32f0xx_hal_tim_ex.c **** 
 2373              		.loc 1 1152 0
 2374 00a2 FB68     		ldr	r3, [r7, #12]
 2375 00a4 5B6A     		ldr	r3, [r3, #36]
 2376 00a6 384A     		ldr	r2, .L140+4
 2377 00a8 1A63     		str	r2, [r3, #48]
1155:Drivers/STM32F0xx_HAL_Driver/Src/stm32f0xx_hal_tim_ex.c **** 
 2378              		.loc 1 1155 0
 2379 00aa FB68     		ldr	r3, [r7, #12]
 2380 00ac 586A     		ldr	r0, [r3, #36]
 2381 00ae 7968     		ldr	r1, [r7, #4]
 2382 00b0 FB68     		ldr	r3, [r7, #12]
 2383 00b2 1B68     		ldr	r3, [r3]
 2384 00b4 3833     		adds	r3, r3, #56
 2385 00b6 1A00     		movs	r2, r3
 2386 00b8 BB1C     		adds	r3, r7, #2
 2387 00ba 1B88     		ldrh	r3, [r3]
 2388 00bc FFF7FEFF 		bl	HAL_DMA_Start_IT
1158:Drivers/STM32F0xx_HAL_Driver/Src/stm32f0xx_hal_tim_ex.c ****     }
 2389              		.loc 1 1158 0
 2390 00c0 FB68     		ldr	r3, [r7, #12]
 2391 00c2 1B68     		ldr	r3, [r3]
 2392 00c4 FA68     		ldr	r2, [r7, #12]
 2393 00c6 1268     		ldr	r2, [r2]
 2394 00c8 D268     		ldr	r2, [r2, #12]
 2395 00ca 8021     		movs	r1, #128
 2396 00cc C900     		lsls	r1, r1, #3
 2397 00ce 0A43     		orrs	r2, r1
 2398 00d0 DA60     		str	r2, [r3, #12]
1160:Drivers/STM32F0xx_HAL_Driver/Src/stm32f0xx_hal_tim_ex.c **** 
 2399              		.loc 1 1160 0
 2400 00d2 39E0     		b	.L139
 2401              	.L137:
1165:Drivers/STM32F0xx_HAL_Driver/Src/stm32f0xx_hal_tim_ex.c **** 
 2402              		.loc 1 1165 0
 2403 00d4 FB68     		ldr	r3, [r7, #12]
 2404 00d6 9B6A     		ldr	r3, [r3, #40]
 2405 00d8 2A4A     		ldr	r2, .L140
 2406 00da 9A62     		str	r2, [r3, #40]
1168:Drivers/STM32F0xx_HAL_Driver/Src/stm32f0xx_hal_tim_ex.c **** 
 2407              		.loc 1 1168 0
 2408 00dc FB68     		ldr	r3, [r7, #12]
 2409 00de 9B6A     		ldr	r3, [r3, #40]
 2410 00e0 294A     		ldr	r2, .L140+4
 2411 00e2 1A63     		str	r2, [r3, #48]
1171:Drivers/STM32F0xx_HAL_Driver/Src/stm32f0xx_hal_tim_ex.c **** 
 2412              		.loc 1 1171 0
 2413 00e4 FB68     		ldr	r3, [r7, #12]
 2414 00e6 986A     		ldr	r0, [r3, #40]
ARM GAS  /tmp/cct1Lg5Q.s 			page 65


 2415 00e8 7968     		ldr	r1, [r7, #4]
 2416 00ea FB68     		ldr	r3, [r7, #12]
 2417 00ec 1B68     		ldr	r3, [r3]
 2418 00ee 3C33     		adds	r3, r3, #60
 2419 00f0 1A00     		movs	r2, r3
 2420 00f2 BB1C     		adds	r3, r7, #2
 2421 00f4 1B88     		ldrh	r3, [r3]
 2422 00f6 FFF7FEFF 		bl	HAL_DMA_Start_IT
1174:Drivers/STM32F0xx_HAL_Driver/Src/stm32f0xx_hal_tim_ex.c ****     }
 2423              		.loc 1 1174 0
 2424 00fa FB68     		ldr	r3, [r7, #12]
 2425 00fc 1B68     		ldr	r3, [r3]
 2426 00fe FA68     		ldr	r2, [r7, #12]
 2427 0100 1268     		ldr	r2, [r2]
 2428 0102 D268     		ldr	r2, [r2, #12]
 2429 0104 8021     		movs	r1, #128
 2430 0106 0901     		lsls	r1, r1, #4
 2431 0108 0A43     		orrs	r2, r1
 2432 010a DA60     		str	r2, [r3, #12]
1176:Drivers/STM32F0xx_HAL_Driver/Src/stm32f0xx_hal_tim_ex.c **** 
 2433              		.loc 1 1176 0
 2434 010c 1CE0     		b	.L139
 2435              	.L138:
1181:Drivers/STM32F0xx_HAL_Driver/Src/stm32f0xx_hal_tim_ex.c **** 
 2436              		.loc 1 1181 0
 2437 010e FB68     		ldr	r3, [r7, #12]
 2438 0110 DB6A     		ldr	r3, [r3, #44]
 2439 0112 1C4A     		ldr	r2, .L140
 2440 0114 9A62     		str	r2, [r3, #40]
1184:Drivers/STM32F0xx_HAL_Driver/Src/stm32f0xx_hal_tim_ex.c **** 
 2441              		.loc 1 1184 0
 2442 0116 FB68     		ldr	r3, [r7, #12]
 2443 0118 DB6A     		ldr	r3, [r3, #44]
 2444 011a 1B4A     		ldr	r2, .L140+4
 2445 011c 1A63     		str	r2, [r3, #48]
1187:Drivers/STM32F0xx_HAL_Driver/Src/stm32f0xx_hal_tim_ex.c **** 
 2446              		.loc 1 1187 0
 2447 011e FB68     		ldr	r3, [r7, #12]
 2448 0120 D86A     		ldr	r0, [r3, #44]
 2449 0122 7968     		ldr	r1, [r7, #4]
 2450 0124 FB68     		ldr	r3, [r7, #12]
 2451 0126 1B68     		ldr	r3, [r3]
 2452 0128 4033     		adds	r3, r3, #64
 2453 012a 1A00     		movs	r2, r3
 2454 012c BB1C     		adds	r3, r7, #2
 2455 012e 1B88     		ldrh	r3, [r3]
 2456 0130 FFF7FEFF 		bl	HAL_DMA_Start_IT
1190:Drivers/STM32F0xx_HAL_Driver/Src/stm32f0xx_hal_tim_ex.c ****     }
 2457              		.loc 1 1190 0
 2458 0134 FB68     		ldr	r3, [r7, #12]
 2459 0136 1B68     		ldr	r3, [r3]
 2460 0138 FA68     		ldr	r2, [r7, #12]
 2461 013a 1268     		ldr	r2, [r2]
 2462 013c D268     		ldr	r2, [r2, #12]
 2463 013e 8021     		movs	r1, #128
 2464 0140 4901     		lsls	r1, r1, #5
 2465 0142 0A43     		orrs	r2, r1
ARM GAS  /tmp/cct1Lg5Q.s 			page 66


 2466 0144 DA60     		str	r2, [r3, #12]
1192:Drivers/STM32F0xx_HAL_Driver/Src/stm32f0xx_hal_tim_ex.c **** 
 2467              		.loc 1 1192 0
 2468 0146 C046     		nop
 2469              	.L139:
1196:Drivers/STM32F0xx_HAL_Driver/Src/stm32f0xx_hal_tim_ex.c ****   }
1197:Drivers/STM32F0xx_HAL_Driver/Src/stm32f0xx_hal_tim_ex.c **** 
1198:Drivers/STM32F0xx_HAL_Driver/Src/stm32f0xx_hal_tim_ex.c ****   /* Enable the complementary PWM output  */
1199:Drivers/STM32F0xx_HAL_Driver/Src/stm32f0xx_hal_tim_ex.c ****      TIM_CCxNChannelCmd(htim->Instance, Channel, TIM_CCxN_ENABLE);
 2470              		.loc 1 1199 0
 2471 0148 FB68     		ldr	r3, [r7, #12]
 2472 014a 1B68     		ldr	r3, [r3]
 2473 014c B968     		ldr	r1, [r7, #8]
 2474 014e 0422     		movs	r2, #4
 2475 0150 1800     		movs	r0, r3
 2476 0152 FFF7FEFF 		bl	TIM_CCxNChannelCmd
1200:Drivers/STM32F0xx_HAL_Driver/Src/stm32f0xx_hal_tim_ex.c **** 
1201:Drivers/STM32F0xx_HAL_Driver/Src/stm32f0xx_hal_tim_ex.c ****   /* Enable the Main Ouput */
1202:Drivers/STM32F0xx_HAL_Driver/Src/stm32f0xx_hal_tim_ex.c ****     __HAL_TIM_MOE_ENABLE(htim);
 2477              		.loc 1 1202 0
 2478 0156 FB68     		ldr	r3, [r7, #12]
 2479 0158 1B68     		ldr	r3, [r3]
 2480 015a FA68     		ldr	r2, [r7, #12]
 2481 015c 1268     		ldr	r2, [r2]
 2482 015e 526C     		ldr	r2, [r2, #68]
 2483 0160 8021     		movs	r1, #128
 2484 0162 0902     		lsls	r1, r1, #8
 2485 0164 0A43     		orrs	r2, r1
 2486 0166 5A64     		str	r2, [r3, #68]
1203:Drivers/STM32F0xx_HAL_Driver/Src/stm32f0xx_hal_tim_ex.c **** 
1204:Drivers/STM32F0xx_HAL_Driver/Src/stm32f0xx_hal_tim_ex.c ****   /* Enable the Peripheral */
1205:Drivers/STM32F0xx_HAL_Driver/Src/stm32f0xx_hal_tim_ex.c ****   __HAL_TIM_ENABLE(htim);
 2487              		.loc 1 1205 0
 2488 0168 FB68     		ldr	r3, [r7, #12]
 2489 016a 1B68     		ldr	r3, [r3]
 2490 016c FA68     		ldr	r2, [r7, #12]
 2491 016e 1268     		ldr	r2, [r2]
 2492 0170 1268     		ldr	r2, [r2]
 2493 0172 0121     		movs	r1, #1
 2494 0174 0A43     		orrs	r2, r1
 2495 0176 1A60     		str	r2, [r3]
1206:Drivers/STM32F0xx_HAL_Driver/Src/stm32f0xx_hal_tim_ex.c **** 
1207:Drivers/STM32F0xx_HAL_Driver/Src/stm32f0xx_hal_tim_ex.c ****   /* Return function status */
1208:Drivers/STM32F0xx_HAL_Driver/Src/stm32f0xx_hal_tim_ex.c ****   return HAL_OK;
 2496              		.loc 1 1208 0
 2497 0178 0023     		movs	r3, #0
 2498              	.L130:
1209:Drivers/STM32F0xx_HAL_Driver/Src/stm32f0xx_hal_tim_ex.c **** }
 2499              		.loc 1 1209 0
 2500 017a 1800     		movs	r0, r3
 2501 017c BD46     		mov	sp, r7
 2502 017e 04B0     		add	sp, sp, #16
 2503              		@ sp needed
 2504 0180 80BD     		pop	{r7, pc}
 2505              	.L141:
 2506 0182 C046     		.align	2
 2507              	.L140:
ARM GAS  /tmp/cct1Lg5Q.s 			page 67


 2508 0184 00000000 		.word	TIM_DMADelayPulseCplt
 2509 0188 00000000 		.word	TIM_DMAError
 2510              		.cfi_endproc
 2511              	.LFE55:
 2513              		.section	.text.HAL_TIMEx_PWMN_Stop_DMA,"ax",%progbits
 2514              		.align	1
 2515              		.global	HAL_TIMEx_PWMN_Stop_DMA
 2516              		.syntax unified
 2517              		.code	16
 2518              		.thumb_func
 2519              		.fpu softvfp
 2521              	HAL_TIMEx_PWMN_Stop_DMA:
 2522              	.LFB56:
1210:Drivers/STM32F0xx_HAL_Driver/Src/stm32f0xx_hal_tim_ex.c **** 
1211:Drivers/STM32F0xx_HAL_Driver/Src/stm32f0xx_hal_tim_ex.c **** /**
1212:Drivers/STM32F0xx_HAL_Driver/Src/stm32f0xx_hal_tim_ex.c ****   * @brief  Stops the TIM PWM signal generation in DMA mode on the complementary
1213:Drivers/STM32F0xx_HAL_Driver/Src/stm32f0xx_hal_tim_ex.c ****   *         output
1214:Drivers/STM32F0xx_HAL_Driver/Src/stm32f0xx_hal_tim_ex.c ****   * @param  htim : TIM handle
1215:Drivers/STM32F0xx_HAL_Driver/Src/stm32f0xx_hal_tim_ex.c ****   * @param  Channel : TIM Channel to be disabled
1216:Drivers/STM32F0xx_HAL_Driver/Src/stm32f0xx_hal_tim_ex.c ****   *          This parameter can be one of the following values:
1217:Drivers/STM32F0xx_HAL_Driver/Src/stm32f0xx_hal_tim_ex.c ****   *            @arg TIM_CHANNEL_1: TIM Channel 1 selected
1218:Drivers/STM32F0xx_HAL_Driver/Src/stm32f0xx_hal_tim_ex.c ****   *            @arg TIM_CHANNEL_2: TIM Channel 2 selected
1219:Drivers/STM32F0xx_HAL_Driver/Src/stm32f0xx_hal_tim_ex.c ****   *            @arg TIM_CHANNEL_3: TIM Channel 3 selected
1220:Drivers/STM32F0xx_HAL_Driver/Src/stm32f0xx_hal_tim_ex.c ****   *            @arg TIM_CHANNEL_4: TIM Channel 4 selected
1221:Drivers/STM32F0xx_HAL_Driver/Src/stm32f0xx_hal_tim_ex.c ****   * @retval HAL status
1222:Drivers/STM32F0xx_HAL_Driver/Src/stm32f0xx_hal_tim_ex.c ****   */
1223:Drivers/STM32F0xx_HAL_Driver/Src/stm32f0xx_hal_tim_ex.c **** HAL_StatusTypeDef HAL_TIMEx_PWMN_Stop_DMA(TIM_HandleTypeDef *htim, uint32_t Channel)
1224:Drivers/STM32F0xx_HAL_Driver/Src/stm32f0xx_hal_tim_ex.c **** {
 2523              		.loc 1 1224 0
 2524              		.cfi_startproc
 2525 0000 80B5     		push	{r7, lr}
 2526              	.LCFI63:
 2527              		.cfi_def_cfa_offset 8
 2528              		.cfi_offset 7, -8
 2529              		.cfi_offset 14, -4
 2530 0002 82B0     		sub	sp, sp, #8
 2531              	.LCFI64:
 2532              		.cfi_def_cfa_offset 16
 2533 0004 00AF     		add	r7, sp, #0
 2534              	.LCFI65:
 2535              		.cfi_def_cfa_register 7
 2536 0006 7860     		str	r0, [r7, #4]
 2537 0008 3960     		str	r1, [r7]
1225:Drivers/STM32F0xx_HAL_Driver/Src/stm32f0xx_hal_tim_ex.c ****   /* Check the parameters */
1226:Drivers/STM32F0xx_HAL_Driver/Src/stm32f0xx_hal_tim_ex.c ****   assert_param(IS_TIM_CCXN_INSTANCE(htim->Instance, Channel));
1227:Drivers/STM32F0xx_HAL_Driver/Src/stm32f0xx_hal_tim_ex.c **** 
1228:Drivers/STM32F0xx_HAL_Driver/Src/stm32f0xx_hal_tim_ex.c ****   switch (Channel)
 2538              		.loc 1 1228 0
 2539 000a 3B68     		ldr	r3, [r7]
 2540 000c 042B     		cmp	r3, #4
 2541 000e 11D0     		beq	.L144
 2542 0010 02D8     		bhi	.L145
 2543 0012 002B     		cmp	r3, #0
 2544 0014 05D0     		beq	.L146
1229:Drivers/STM32F0xx_HAL_Driver/Src/stm32f0xx_hal_tim_ex.c ****   {
1230:Drivers/STM32F0xx_HAL_Driver/Src/stm32f0xx_hal_tim_ex.c ****     case TIM_CHANNEL_1:
1231:Drivers/STM32F0xx_HAL_Driver/Src/stm32f0xx_hal_tim_ex.c ****     {
ARM GAS  /tmp/cct1Lg5Q.s 			page 68


1232:Drivers/STM32F0xx_HAL_Driver/Src/stm32f0xx_hal_tim_ex.c ****       /* Disable the TIM Capture/Compare 1 DMA request */
1233:Drivers/STM32F0xx_HAL_Driver/Src/stm32f0xx_hal_tim_ex.c ****       __HAL_TIM_DISABLE_DMA(htim, TIM_DMA_CC1);
1234:Drivers/STM32F0xx_HAL_Driver/Src/stm32f0xx_hal_tim_ex.c ****     }
1235:Drivers/STM32F0xx_HAL_Driver/Src/stm32f0xx_hal_tim_ex.c ****     break;
1236:Drivers/STM32F0xx_HAL_Driver/Src/stm32f0xx_hal_tim_ex.c **** 
1237:Drivers/STM32F0xx_HAL_Driver/Src/stm32f0xx_hal_tim_ex.c ****     case TIM_CHANNEL_2:
1238:Drivers/STM32F0xx_HAL_Driver/Src/stm32f0xx_hal_tim_ex.c ****     {
1239:Drivers/STM32F0xx_HAL_Driver/Src/stm32f0xx_hal_tim_ex.c ****       /* Disable the TIM Capture/Compare 2 DMA request */
1240:Drivers/STM32F0xx_HAL_Driver/Src/stm32f0xx_hal_tim_ex.c ****       __HAL_TIM_DISABLE_DMA(htim, TIM_DMA_CC2);
1241:Drivers/STM32F0xx_HAL_Driver/Src/stm32f0xx_hal_tim_ex.c ****     }
1242:Drivers/STM32F0xx_HAL_Driver/Src/stm32f0xx_hal_tim_ex.c ****     break;
1243:Drivers/STM32F0xx_HAL_Driver/Src/stm32f0xx_hal_tim_ex.c **** 
1244:Drivers/STM32F0xx_HAL_Driver/Src/stm32f0xx_hal_tim_ex.c ****     case TIM_CHANNEL_3:
1245:Drivers/STM32F0xx_HAL_Driver/Src/stm32f0xx_hal_tim_ex.c ****     {
1246:Drivers/STM32F0xx_HAL_Driver/Src/stm32f0xx_hal_tim_ex.c ****       /* Disable the TIM Capture/Compare 3 DMA request */
1247:Drivers/STM32F0xx_HAL_Driver/Src/stm32f0xx_hal_tim_ex.c ****       __HAL_TIM_DISABLE_DMA(htim, TIM_DMA_CC3);
1248:Drivers/STM32F0xx_HAL_Driver/Src/stm32f0xx_hal_tim_ex.c ****     }
1249:Drivers/STM32F0xx_HAL_Driver/Src/stm32f0xx_hal_tim_ex.c ****     break;
1250:Drivers/STM32F0xx_HAL_Driver/Src/stm32f0xx_hal_tim_ex.c **** 
1251:Drivers/STM32F0xx_HAL_Driver/Src/stm32f0xx_hal_tim_ex.c ****     case TIM_CHANNEL_4:
1252:Drivers/STM32F0xx_HAL_Driver/Src/stm32f0xx_hal_tim_ex.c ****     {
1253:Drivers/STM32F0xx_HAL_Driver/Src/stm32f0xx_hal_tim_ex.c ****       /* Disable the TIM Capture/Compare 4 DMA request */
1254:Drivers/STM32F0xx_HAL_Driver/Src/stm32f0xx_hal_tim_ex.c ****       __HAL_TIM_DISABLE_DMA(htim, TIM_DMA_CC4);
1255:Drivers/STM32F0xx_HAL_Driver/Src/stm32f0xx_hal_tim_ex.c ****     }
1256:Drivers/STM32F0xx_HAL_Driver/Src/stm32f0xx_hal_tim_ex.c ****     break;
1257:Drivers/STM32F0xx_HAL_Driver/Src/stm32f0xx_hal_tim_ex.c **** 
1258:Drivers/STM32F0xx_HAL_Driver/Src/stm32f0xx_hal_tim_ex.c ****     default:
1259:Drivers/STM32F0xx_HAL_Driver/Src/stm32f0xx_hal_tim_ex.c ****     break;
 2545              		.loc 1 1259 0
 2546 0016 28E0     		b	.L149
 2547              	.L145:
1228:Drivers/STM32F0xx_HAL_Driver/Src/stm32f0xx_hal_tim_ex.c ****   {
 2548              		.loc 1 1228 0
 2549 0018 082B     		cmp	r3, #8
 2550 001a 14D0     		beq	.L147
 2551 001c 0C2B     		cmp	r3, #12
 2552 001e 1BD0     		beq	.L148
 2553              		.loc 1 1259 0
 2554 0020 23E0     		b	.L149
 2555              	.L146:
1233:Drivers/STM32F0xx_HAL_Driver/Src/stm32f0xx_hal_tim_ex.c ****     }
 2556              		.loc 1 1233 0
 2557 0022 7B68     		ldr	r3, [r7, #4]
 2558 0024 1B68     		ldr	r3, [r3]
 2559 0026 7A68     		ldr	r2, [r7, #4]
 2560 0028 1268     		ldr	r2, [r2]
 2561 002a D268     		ldr	r2, [r2, #12]
 2562 002c 2B49     		ldr	r1, .L153
 2563 002e 0A40     		ands	r2, r1
 2564 0030 DA60     		str	r2, [r3, #12]
1235:Drivers/STM32F0xx_HAL_Driver/Src/stm32f0xx_hal_tim_ex.c **** 
 2565              		.loc 1 1235 0
 2566 0032 1AE0     		b	.L149
 2567              	.L144:
1240:Drivers/STM32F0xx_HAL_Driver/Src/stm32f0xx_hal_tim_ex.c ****     }
 2568              		.loc 1 1240 0
 2569 0034 7B68     		ldr	r3, [r7, #4]
ARM GAS  /tmp/cct1Lg5Q.s 			page 69


 2570 0036 1B68     		ldr	r3, [r3]
 2571 0038 7A68     		ldr	r2, [r7, #4]
 2572 003a 1268     		ldr	r2, [r2]
 2573 003c D268     		ldr	r2, [r2, #12]
 2574 003e 2849     		ldr	r1, .L153+4
 2575 0040 0A40     		ands	r2, r1
 2576 0042 DA60     		str	r2, [r3, #12]
1242:Drivers/STM32F0xx_HAL_Driver/Src/stm32f0xx_hal_tim_ex.c **** 
 2577              		.loc 1 1242 0
 2578 0044 11E0     		b	.L149
 2579              	.L147:
1247:Drivers/STM32F0xx_HAL_Driver/Src/stm32f0xx_hal_tim_ex.c ****     }
 2580              		.loc 1 1247 0
 2581 0046 7B68     		ldr	r3, [r7, #4]
 2582 0048 1B68     		ldr	r3, [r3]
 2583 004a 7A68     		ldr	r2, [r7, #4]
 2584 004c 1268     		ldr	r2, [r2]
 2585 004e D268     		ldr	r2, [r2, #12]
 2586 0050 2449     		ldr	r1, .L153+8
 2587 0052 0A40     		ands	r2, r1
 2588 0054 DA60     		str	r2, [r3, #12]
1249:Drivers/STM32F0xx_HAL_Driver/Src/stm32f0xx_hal_tim_ex.c **** 
 2589              		.loc 1 1249 0
 2590 0056 08E0     		b	.L149
 2591              	.L148:
1254:Drivers/STM32F0xx_HAL_Driver/Src/stm32f0xx_hal_tim_ex.c ****     }
 2592              		.loc 1 1254 0
 2593 0058 7B68     		ldr	r3, [r7, #4]
 2594 005a 1B68     		ldr	r3, [r3]
 2595 005c 7A68     		ldr	r2, [r7, #4]
 2596 005e 1268     		ldr	r2, [r2]
 2597 0060 D268     		ldr	r2, [r2, #12]
 2598 0062 2149     		ldr	r1, .L153+12
 2599 0064 0A40     		ands	r2, r1
 2600 0066 DA60     		str	r2, [r3, #12]
1256:Drivers/STM32F0xx_HAL_Driver/Src/stm32f0xx_hal_tim_ex.c **** 
 2601              		.loc 1 1256 0
 2602 0068 C046     		nop
 2603              	.L149:
1260:Drivers/STM32F0xx_HAL_Driver/Src/stm32f0xx_hal_tim_ex.c ****   }
1261:Drivers/STM32F0xx_HAL_Driver/Src/stm32f0xx_hal_tim_ex.c **** 
1262:Drivers/STM32F0xx_HAL_Driver/Src/stm32f0xx_hal_tim_ex.c ****   /* Disable the complementary PWM output */
1263:Drivers/STM32F0xx_HAL_Driver/Src/stm32f0xx_hal_tim_ex.c ****     TIM_CCxNChannelCmd(htim->Instance, Channel, TIM_CCxN_DISABLE);
 2604              		.loc 1 1263 0
 2605 006a 7B68     		ldr	r3, [r7, #4]
 2606 006c 1B68     		ldr	r3, [r3]
 2607 006e 3968     		ldr	r1, [r7]
 2608 0070 0022     		movs	r2, #0
 2609 0072 1800     		movs	r0, r3
 2610 0074 FFF7FEFF 		bl	TIM_CCxNChannelCmd
1264:Drivers/STM32F0xx_HAL_Driver/Src/stm32f0xx_hal_tim_ex.c **** 
1265:Drivers/STM32F0xx_HAL_Driver/Src/stm32f0xx_hal_tim_ex.c ****   /* Disable the Main Ouput */
1266:Drivers/STM32F0xx_HAL_Driver/Src/stm32f0xx_hal_tim_ex.c ****     __HAL_TIM_MOE_DISABLE(htim);
 2611              		.loc 1 1266 0
 2612 0078 7B68     		ldr	r3, [r7, #4]
 2613 007a 1B68     		ldr	r3, [r3]
 2614 007c 1B6A     		ldr	r3, [r3, #32]
ARM GAS  /tmp/cct1Lg5Q.s 			page 70


 2615 007e 1B4A     		ldr	r2, .L153+16
 2616 0080 1340     		ands	r3, r2
 2617 0082 0DD1     		bne	.L150
 2618              		.loc 1 1266 0 is_stmt 0 discriminator 1
 2619 0084 7B68     		ldr	r3, [r7, #4]
 2620 0086 1B68     		ldr	r3, [r3]
 2621 0088 1B6A     		ldr	r3, [r3, #32]
 2622 008a 194A     		ldr	r2, .L153+20
 2623 008c 1340     		ands	r3, r2
 2624 008e 07D1     		bne	.L150
 2625              		.loc 1 1266 0 discriminator 2
 2626 0090 7B68     		ldr	r3, [r7, #4]
 2627 0092 1B68     		ldr	r3, [r3]
 2628 0094 7A68     		ldr	r2, [r7, #4]
 2629 0096 1268     		ldr	r2, [r2]
 2630 0098 526C     		ldr	r2, [r2, #68]
 2631 009a 1649     		ldr	r1, .L153+24
 2632 009c 0A40     		ands	r2, r1
 2633 009e 5A64     		str	r2, [r3, #68]
 2634              	.L150:
1267:Drivers/STM32F0xx_HAL_Driver/Src/stm32f0xx_hal_tim_ex.c **** 
1268:Drivers/STM32F0xx_HAL_Driver/Src/stm32f0xx_hal_tim_ex.c ****   /* Disable the Peripheral */
1269:Drivers/STM32F0xx_HAL_Driver/Src/stm32f0xx_hal_tim_ex.c ****   __HAL_TIM_DISABLE(htim);
 2635              		.loc 1 1269 0 is_stmt 1
 2636 00a0 7B68     		ldr	r3, [r7, #4]
 2637 00a2 1B68     		ldr	r3, [r3]
 2638 00a4 1B6A     		ldr	r3, [r3, #32]
 2639 00a6 114A     		ldr	r2, .L153+16
 2640 00a8 1340     		ands	r3, r2
 2641 00aa 0DD1     		bne	.L151
 2642              		.loc 1 1269 0 is_stmt 0 discriminator 1
 2643 00ac 7B68     		ldr	r3, [r7, #4]
 2644 00ae 1B68     		ldr	r3, [r3]
 2645 00b0 1B6A     		ldr	r3, [r3, #32]
 2646 00b2 0F4A     		ldr	r2, .L153+20
 2647 00b4 1340     		ands	r3, r2
 2648 00b6 07D1     		bne	.L151
 2649              		.loc 1 1269 0 discriminator 2
 2650 00b8 7B68     		ldr	r3, [r7, #4]
 2651 00ba 1B68     		ldr	r3, [r3]
 2652 00bc 7A68     		ldr	r2, [r7, #4]
 2653 00be 1268     		ldr	r2, [r2]
 2654 00c0 1268     		ldr	r2, [r2]
 2655 00c2 0121     		movs	r1, #1
 2656 00c4 8A43     		bics	r2, r1
 2657 00c6 1A60     		str	r2, [r3]
 2658              	.L151:
1270:Drivers/STM32F0xx_HAL_Driver/Src/stm32f0xx_hal_tim_ex.c **** 
1271:Drivers/STM32F0xx_HAL_Driver/Src/stm32f0xx_hal_tim_ex.c ****   /* Change the htim state */
1272:Drivers/STM32F0xx_HAL_Driver/Src/stm32f0xx_hal_tim_ex.c ****   htim->State = HAL_TIM_STATE_READY;
 2659              		.loc 1 1272 0 is_stmt 1
 2660 00c8 7B68     		ldr	r3, [r7, #4]
 2661 00ca 3922     		movs	r2, #57
 2662 00cc 0121     		movs	r1, #1
 2663 00ce 9954     		strb	r1, [r3, r2]
1273:Drivers/STM32F0xx_HAL_Driver/Src/stm32f0xx_hal_tim_ex.c **** 
1274:Drivers/STM32F0xx_HAL_Driver/Src/stm32f0xx_hal_tim_ex.c ****   /* Return function status */
ARM GAS  /tmp/cct1Lg5Q.s 			page 71


1275:Drivers/STM32F0xx_HAL_Driver/Src/stm32f0xx_hal_tim_ex.c ****   return HAL_OK;
 2664              		.loc 1 1275 0
 2665 00d0 0023     		movs	r3, #0
1276:Drivers/STM32F0xx_HAL_Driver/Src/stm32f0xx_hal_tim_ex.c **** }
 2666              		.loc 1 1276 0
 2667 00d2 1800     		movs	r0, r3
 2668 00d4 BD46     		mov	sp, r7
 2669 00d6 02B0     		add	sp, sp, #8
 2670              		@ sp needed
 2671 00d8 80BD     		pop	{r7, pc}
 2672              	.L154:
 2673 00da C046     		.align	2
 2674              	.L153:
 2675 00dc FFFDFFFF 		.word	-513
 2676 00e0 FFFBFFFF 		.word	-1025
 2677 00e4 FFF7FFFF 		.word	-2049
 2678 00e8 FFEFFFFF 		.word	-4097
 2679 00ec 11110000 		.word	4369
 2680 00f0 44040000 		.word	1092
 2681 00f4 FF7FFFFF 		.word	-32769
 2682              		.cfi_endproc
 2683              	.LFE56:
 2685              		.section	.text.HAL_TIMEx_OnePulseN_Start,"ax",%progbits
 2686              		.align	1
 2687              		.global	HAL_TIMEx_OnePulseN_Start
 2688              		.syntax unified
 2689              		.code	16
 2690              		.thumb_func
 2691              		.fpu softvfp
 2693              	HAL_TIMEx_OnePulseN_Start:
 2694              	.LFB57:
1277:Drivers/STM32F0xx_HAL_Driver/Src/stm32f0xx_hal_tim_ex.c **** 
1278:Drivers/STM32F0xx_HAL_Driver/Src/stm32f0xx_hal_tim_ex.c **** /**
1279:Drivers/STM32F0xx_HAL_Driver/Src/stm32f0xx_hal_tim_ex.c ****   * @}
1280:Drivers/STM32F0xx_HAL_Driver/Src/stm32f0xx_hal_tim_ex.c ****   */
1281:Drivers/STM32F0xx_HAL_Driver/Src/stm32f0xx_hal_tim_ex.c **** 
1282:Drivers/STM32F0xx_HAL_Driver/Src/stm32f0xx_hal_tim_ex.c **** /** @defgroup TIMEx_Exported_Functions_Group4 Timer Complementary One Pulse functions
1283:Drivers/STM32F0xx_HAL_Driver/Src/stm32f0xx_hal_tim_ex.c ****  *  @brief    Timer Complementary One Pulse functions 
1284:Drivers/STM32F0xx_HAL_Driver/Src/stm32f0xx_hal_tim_ex.c ****  *
1285:Drivers/STM32F0xx_HAL_Driver/Src/stm32f0xx_hal_tim_ex.c **** @verbatim 
1286:Drivers/STM32F0xx_HAL_Driver/Src/stm32f0xx_hal_tim_ex.c ****   ==============================================================================
1287:Drivers/STM32F0xx_HAL_Driver/Src/stm32f0xx_hal_tim_ex.c ****                 ##### Timer Complementary One Pulse functions #####
1288:Drivers/STM32F0xx_HAL_Driver/Src/stm32f0xx_hal_tim_ex.c ****   ==============================================================================
1289:Drivers/STM32F0xx_HAL_Driver/Src/stm32f0xx_hal_tim_ex.c ****   [..]
1290:Drivers/STM32F0xx_HAL_Driver/Src/stm32f0xx_hal_tim_ex.c ****     This section provides functions allowing to:
1291:Drivers/STM32F0xx_HAL_Driver/Src/stm32f0xx_hal_tim_ex.c ****     (+) Start the Complementary One Pulse generation.
1292:Drivers/STM32F0xx_HAL_Driver/Src/stm32f0xx_hal_tim_ex.c ****     (+) Stop the Complementary One Pulse.
1293:Drivers/STM32F0xx_HAL_Driver/Src/stm32f0xx_hal_tim_ex.c ****     (+) Start the Complementary One Pulse and enable interrupts.
1294:Drivers/STM32F0xx_HAL_Driver/Src/stm32f0xx_hal_tim_ex.c ****     (+) Stop the Complementary One Pulse and disable interrupts.
1295:Drivers/STM32F0xx_HAL_Driver/Src/stm32f0xx_hal_tim_ex.c **** 
1296:Drivers/STM32F0xx_HAL_Driver/Src/stm32f0xx_hal_tim_ex.c **** @endverbatim
1297:Drivers/STM32F0xx_HAL_Driver/Src/stm32f0xx_hal_tim_ex.c ****   * @{
1298:Drivers/STM32F0xx_HAL_Driver/Src/stm32f0xx_hal_tim_ex.c ****   */
1299:Drivers/STM32F0xx_HAL_Driver/Src/stm32f0xx_hal_tim_ex.c **** 
1300:Drivers/STM32F0xx_HAL_Driver/Src/stm32f0xx_hal_tim_ex.c **** /**
1301:Drivers/STM32F0xx_HAL_Driver/Src/stm32f0xx_hal_tim_ex.c ****   * @brief  Starts the TIM One Pulse signal generation on the complemetary 
1302:Drivers/STM32F0xx_HAL_Driver/Src/stm32f0xx_hal_tim_ex.c ****   *         output.
ARM GAS  /tmp/cct1Lg5Q.s 			page 72


1303:Drivers/STM32F0xx_HAL_Driver/Src/stm32f0xx_hal_tim_ex.c ****   * @param  htim : TIM One Pulse handle
1304:Drivers/STM32F0xx_HAL_Driver/Src/stm32f0xx_hal_tim_ex.c ****   * @param  OutputChannel : TIM Channel to be enabled
1305:Drivers/STM32F0xx_HAL_Driver/Src/stm32f0xx_hal_tim_ex.c ****   *          This parameter can be one of the following values:
1306:Drivers/STM32F0xx_HAL_Driver/Src/stm32f0xx_hal_tim_ex.c ****   *            @arg TIM_CHANNEL_1: TIM Channel 1 selected
1307:Drivers/STM32F0xx_HAL_Driver/Src/stm32f0xx_hal_tim_ex.c ****   *            @arg TIM_CHANNEL_2: TIM Channel 2 selected
1308:Drivers/STM32F0xx_HAL_Driver/Src/stm32f0xx_hal_tim_ex.c ****   * @retval HAL status
1309:Drivers/STM32F0xx_HAL_Driver/Src/stm32f0xx_hal_tim_ex.c ****   */
1310:Drivers/STM32F0xx_HAL_Driver/Src/stm32f0xx_hal_tim_ex.c **** HAL_StatusTypeDef HAL_TIMEx_OnePulseN_Start(TIM_HandleTypeDef *htim, uint32_t OutputChannel)
1311:Drivers/STM32F0xx_HAL_Driver/Src/stm32f0xx_hal_tim_ex.c ****   {
 2695              		.loc 1 1311 0
 2696              		.cfi_startproc
 2697 0000 80B5     		push	{r7, lr}
 2698              	.LCFI66:
 2699              		.cfi_def_cfa_offset 8
 2700              		.cfi_offset 7, -8
 2701              		.cfi_offset 14, -4
 2702 0002 82B0     		sub	sp, sp, #8
 2703              	.LCFI67:
 2704              		.cfi_def_cfa_offset 16
 2705 0004 00AF     		add	r7, sp, #0
 2706              	.LCFI68:
 2707              		.cfi_def_cfa_register 7
 2708 0006 7860     		str	r0, [r7, #4]
 2709 0008 3960     		str	r1, [r7]
1312:Drivers/STM32F0xx_HAL_Driver/Src/stm32f0xx_hal_tim_ex.c ****   /* Check the parameters */
1313:Drivers/STM32F0xx_HAL_Driver/Src/stm32f0xx_hal_tim_ex.c ****   assert_param(IS_TIM_CCXN_INSTANCE(htim->Instance, OutputChannel));
1314:Drivers/STM32F0xx_HAL_Driver/Src/stm32f0xx_hal_tim_ex.c **** 
1315:Drivers/STM32F0xx_HAL_Driver/Src/stm32f0xx_hal_tim_ex.c ****   /* Enable the complementary One Pulse output */
1316:Drivers/STM32F0xx_HAL_Driver/Src/stm32f0xx_hal_tim_ex.c ****   TIM_CCxNChannelCmd(htim->Instance, OutputChannel, TIM_CCxN_ENABLE);
 2710              		.loc 1 1316 0
 2711 000a 7B68     		ldr	r3, [r7, #4]
 2712 000c 1B68     		ldr	r3, [r3]
 2713 000e 3968     		ldr	r1, [r7]
 2714 0010 0422     		movs	r2, #4
 2715 0012 1800     		movs	r0, r3
 2716 0014 FFF7FEFF 		bl	TIM_CCxNChannelCmd
1317:Drivers/STM32F0xx_HAL_Driver/Src/stm32f0xx_hal_tim_ex.c **** 
1318:Drivers/STM32F0xx_HAL_Driver/Src/stm32f0xx_hal_tim_ex.c ****   /* Enable the Main Ouput */
1319:Drivers/STM32F0xx_HAL_Driver/Src/stm32f0xx_hal_tim_ex.c ****   __HAL_TIM_MOE_ENABLE(htim);
 2717              		.loc 1 1319 0
 2718 0018 7B68     		ldr	r3, [r7, #4]
 2719 001a 1B68     		ldr	r3, [r3]
 2720 001c 7A68     		ldr	r2, [r7, #4]
 2721 001e 1268     		ldr	r2, [r2]
 2722 0020 526C     		ldr	r2, [r2, #68]
 2723 0022 8021     		movs	r1, #128
 2724 0024 0902     		lsls	r1, r1, #8
 2725 0026 0A43     		orrs	r2, r1
 2726 0028 5A64     		str	r2, [r3, #68]
1320:Drivers/STM32F0xx_HAL_Driver/Src/stm32f0xx_hal_tim_ex.c **** 
1321:Drivers/STM32F0xx_HAL_Driver/Src/stm32f0xx_hal_tim_ex.c ****   /* Return function status */
1322:Drivers/STM32F0xx_HAL_Driver/Src/stm32f0xx_hal_tim_ex.c ****   return HAL_OK;
 2727              		.loc 1 1322 0
 2728 002a 0023     		movs	r3, #0
1323:Drivers/STM32F0xx_HAL_Driver/Src/stm32f0xx_hal_tim_ex.c **** }
 2729              		.loc 1 1323 0
 2730 002c 1800     		movs	r0, r3
ARM GAS  /tmp/cct1Lg5Q.s 			page 73


 2731 002e BD46     		mov	sp, r7
 2732 0030 02B0     		add	sp, sp, #8
 2733              		@ sp needed
 2734 0032 80BD     		pop	{r7, pc}
 2735              		.cfi_endproc
 2736              	.LFE57:
 2738              		.section	.text.HAL_TIMEx_OnePulseN_Stop,"ax",%progbits
 2739              		.align	1
 2740              		.global	HAL_TIMEx_OnePulseN_Stop
 2741              		.syntax unified
 2742              		.code	16
 2743              		.thumb_func
 2744              		.fpu softvfp
 2746              	HAL_TIMEx_OnePulseN_Stop:
 2747              	.LFB58:
1324:Drivers/STM32F0xx_HAL_Driver/Src/stm32f0xx_hal_tim_ex.c **** 
1325:Drivers/STM32F0xx_HAL_Driver/Src/stm32f0xx_hal_tim_ex.c **** /**
1326:Drivers/STM32F0xx_HAL_Driver/Src/stm32f0xx_hal_tim_ex.c ****   * @brief  Stops the TIM One Pulse signal generation on the complementary 
1327:Drivers/STM32F0xx_HAL_Driver/Src/stm32f0xx_hal_tim_ex.c ****   *         output.
1328:Drivers/STM32F0xx_HAL_Driver/Src/stm32f0xx_hal_tim_ex.c ****   * @param  htim : TIM One Pulse handle
1329:Drivers/STM32F0xx_HAL_Driver/Src/stm32f0xx_hal_tim_ex.c ****   * @param  OutputChannel : TIM Channel to be disabled
1330:Drivers/STM32F0xx_HAL_Driver/Src/stm32f0xx_hal_tim_ex.c ****   *          This parameter can be one of the following values:
1331:Drivers/STM32F0xx_HAL_Driver/Src/stm32f0xx_hal_tim_ex.c ****   *            @arg TIM_CHANNEL_1: TIM Channel 1 selected
1332:Drivers/STM32F0xx_HAL_Driver/Src/stm32f0xx_hal_tim_ex.c ****   *            @arg TIM_CHANNEL_2: TIM Channel 2 selected
1333:Drivers/STM32F0xx_HAL_Driver/Src/stm32f0xx_hal_tim_ex.c ****   * @retval HAL status
1334:Drivers/STM32F0xx_HAL_Driver/Src/stm32f0xx_hal_tim_ex.c ****   */
1335:Drivers/STM32F0xx_HAL_Driver/Src/stm32f0xx_hal_tim_ex.c **** HAL_StatusTypeDef HAL_TIMEx_OnePulseN_Stop(TIM_HandleTypeDef *htim, uint32_t OutputChannel)
1336:Drivers/STM32F0xx_HAL_Driver/Src/stm32f0xx_hal_tim_ex.c **** {
 2748              		.loc 1 1336 0
 2749              		.cfi_startproc
 2750 0000 80B5     		push	{r7, lr}
 2751              	.LCFI69:
 2752              		.cfi_def_cfa_offset 8
 2753              		.cfi_offset 7, -8
 2754              		.cfi_offset 14, -4
 2755 0002 82B0     		sub	sp, sp, #8
 2756              	.LCFI70:
 2757              		.cfi_def_cfa_offset 16
 2758 0004 00AF     		add	r7, sp, #0
 2759              	.LCFI71:
 2760              		.cfi_def_cfa_register 7
 2761 0006 7860     		str	r0, [r7, #4]
 2762 0008 3960     		str	r1, [r7]
1337:Drivers/STM32F0xx_HAL_Driver/Src/stm32f0xx_hal_tim_ex.c **** 
1338:Drivers/STM32F0xx_HAL_Driver/Src/stm32f0xx_hal_tim_ex.c ****   /* Check the parameters */
1339:Drivers/STM32F0xx_HAL_Driver/Src/stm32f0xx_hal_tim_ex.c ****   assert_param(IS_TIM_CCXN_INSTANCE(htim->Instance, OutputChannel));
1340:Drivers/STM32F0xx_HAL_Driver/Src/stm32f0xx_hal_tim_ex.c **** 
1341:Drivers/STM32F0xx_HAL_Driver/Src/stm32f0xx_hal_tim_ex.c ****   /* Disable the complementary One Pulse output */
1342:Drivers/STM32F0xx_HAL_Driver/Src/stm32f0xx_hal_tim_ex.c ****     TIM_CCxNChannelCmd(htim->Instance, OutputChannel, TIM_CCxN_DISABLE);
 2763              		.loc 1 1342 0
 2764 000a 7B68     		ldr	r3, [r7, #4]
 2765 000c 1B68     		ldr	r3, [r3]
 2766 000e 3968     		ldr	r1, [r7]
 2767 0010 0022     		movs	r2, #0
 2768 0012 1800     		movs	r0, r3
 2769 0014 FFF7FEFF 		bl	TIM_CCxNChannelCmd
1343:Drivers/STM32F0xx_HAL_Driver/Src/stm32f0xx_hal_tim_ex.c **** 
ARM GAS  /tmp/cct1Lg5Q.s 			page 74


1344:Drivers/STM32F0xx_HAL_Driver/Src/stm32f0xx_hal_tim_ex.c ****   /* Disable the Main Ouput */
1345:Drivers/STM32F0xx_HAL_Driver/Src/stm32f0xx_hal_tim_ex.c ****     __HAL_TIM_MOE_DISABLE(htim);
 2770              		.loc 1 1345 0
 2771 0018 7B68     		ldr	r3, [r7, #4]
 2772 001a 1B68     		ldr	r3, [r3]
 2773 001c 1B6A     		ldr	r3, [r3, #32]
 2774 001e 154A     		ldr	r2, .L161
 2775 0020 1340     		ands	r3, r2
 2776 0022 0DD1     		bne	.L158
 2777              		.loc 1 1345 0 is_stmt 0 discriminator 1
 2778 0024 7B68     		ldr	r3, [r7, #4]
 2779 0026 1B68     		ldr	r3, [r3]
 2780 0028 1B6A     		ldr	r3, [r3, #32]
 2781 002a 134A     		ldr	r2, .L161+4
 2782 002c 1340     		ands	r3, r2
 2783 002e 07D1     		bne	.L158
 2784              		.loc 1 1345 0 discriminator 2
 2785 0030 7B68     		ldr	r3, [r7, #4]
 2786 0032 1B68     		ldr	r3, [r3]
 2787 0034 7A68     		ldr	r2, [r7, #4]
 2788 0036 1268     		ldr	r2, [r2]
 2789 0038 526C     		ldr	r2, [r2, #68]
 2790 003a 1049     		ldr	r1, .L161+8
 2791 003c 0A40     		ands	r2, r1
 2792 003e 5A64     		str	r2, [r3, #68]
 2793              	.L158:
1346:Drivers/STM32F0xx_HAL_Driver/Src/stm32f0xx_hal_tim_ex.c **** 
1347:Drivers/STM32F0xx_HAL_Driver/Src/stm32f0xx_hal_tim_ex.c ****   /* Disable the Peripheral */
1348:Drivers/STM32F0xx_HAL_Driver/Src/stm32f0xx_hal_tim_ex.c ****   __HAL_TIM_DISABLE(htim);
 2794              		.loc 1 1348 0 is_stmt 1
 2795 0040 7B68     		ldr	r3, [r7, #4]
 2796 0042 1B68     		ldr	r3, [r3]
 2797 0044 1B6A     		ldr	r3, [r3, #32]
 2798 0046 0B4A     		ldr	r2, .L161
 2799 0048 1340     		ands	r3, r2
 2800 004a 0DD1     		bne	.L159
 2801              		.loc 1 1348 0 is_stmt 0 discriminator 1
 2802 004c 7B68     		ldr	r3, [r7, #4]
 2803 004e 1B68     		ldr	r3, [r3]
 2804 0050 1B6A     		ldr	r3, [r3, #32]
 2805 0052 094A     		ldr	r2, .L161+4
 2806 0054 1340     		ands	r3, r2
 2807 0056 07D1     		bne	.L159
 2808              		.loc 1 1348 0 discriminator 2
 2809 0058 7B68     		ldr	r3, [r7, #4]
 2810 005a 1B68     		ldr	r3, [r3]
 2811 005c 7A68     		ldr	r2, [r7, #4]
 2812 005e 1268     		ldr	r2, [r2]
 2813 0060 1268     		ldr	r2, [r2]
 2814 0062 0121     		movs	r1, #1
 2815 0064 8A43     		bics	r2, r1
 2816 0066 1A60     		str	r2, [r3]
 2817              	.L159:
1349:Drivers/STM32F0xx_HAL_Driver/Src/stm32f0xx_hal_tim_ex.c **** 
1350:Drivers/STM32F0xx_HAL_Driver/Src/stm32f0xx_hal_tim_ex.c ****   /* Return function status */
1351:Drivers/STM32F0xx_HAL_Driver/Src/stm32f0xx_hal_tim_ex.c ****   return HAL_OK;
 2818              		.loc 1 1351 0 is_stmt 1
ARM GAS  /tmp/cct1Lg5Q.s 			page 75


 2819 0068 0023     		movs	r3, #0
1352:Drivers/STM32F0xx_HAL_Driver/Src/stm32f0xx_hal_tim_ex.c **** }
 2820              		.loc 1 1352 0
 2821 006a 1800     		movs	r0, r3
 2822 006c BD46     		mov	sp, r7
 2823 006e 02B0     		add	sp, sp, #8
 2824              		@ sp needed
 2825 0070 80BD     		pop	{r7, pc}
 2826              	.L162:
 2827 0072 C046     		.align	2
 2828              	.L161:
 2829 0074 11110000 		.word	4369
 2830 0078 44040000 		.word	1092
 2831 007c FF7FFFFF 		.word	-32769
 2832              		.cfi_endproc
 2833              	.LFE58:
 2835              		.section	.text.HAL_TIMEx_OnePulseN_Start_IT,"ax",%progbits
 2836              		.align	1
 2837              		.global	HAL_TIMEx_OnePulseN_Start_IT
 2838              		.syntax unified
 2839              		.code	16
 2840              		.thumb_func
 2841              		.fpu softvfp
 2843              	HAL_TIMEx_OnePulseN_Start_IT:
 2844              	.LFB59:
1353:Drivers/STM32F0xx_HAL_Driver/Src/stm32f0xx_hal_tim_ex.c **** 
1354:Drivers/STM32F0xx_HAL_Driver/Src/stm32f0xx_hal_tim_ex.c **** /**
1355:Drivers/STM32F0xx_HAL_Driver/Src/stm32f0xx_hal_tim_ex.c ****   * @brief  Starts the TIM One Pulse signal generation in interrupt mode on the
1356:Drivers/STM32F0xx_HAL_Driver/Src/stm32f0xx_hal_tim_ex.c ****   *         complementary channel.
1357:Drivers/STM32F0xx_HAL_Driver/Src/stm32f0xx_hal_tim_ex.c ****   * @param  htim : TIM One Pulse handle
1358:Drivers/STM32F0xx_HAL_Driver/Src/stm32f0xx_hal_tim_ex.c ****   * @param  OutputChannel : TIM Channel to be enabled
1359:Drivers/STM32F0xx_HAL_Driver/Src/stm32f0xx_hal_tim_ex.c ****   *          This parameter can be one of the following values:
1360:Drivers/STM32F0xx_HAL_Driver/Src/stm32f0xx_hal_tim_ex.c ****   *            @arg TIM_CHANNEL_1: TIM Channel 1 selected
1361:Drivers/STM32F0xx_HAL_Driver/Src/stm32f0xx_hal_tim_ex.c ****   *            @arg TIM_CHANNEL_2: TIM Channel 2 selected
1362:Drivers/STM32F0xx_HAL_Driver/Src/stm32f0xx_hal_tim_ex.c ****   * @retval HAL status
1363:Drivers/STM32F0xx_HAL_Driver/Src/stm32f0xx_hal_tim_ex.c ****   */
1364:Drivers/STM32F0xx_HAL_Driver/Src/stm32f0xx_hal_tim_ex.c **** HAL_StatusTypeDef HAL_TIMEx_OnePulseN_Start_IT(TIM_HandleTypeDef *htim, uint32_t OutputChannel)
1365:Drivers/STM32F0xx_HAL_Driver/Src/stm32f0xx_hal_tim_ex.c **** {
 2845              		.loc 1 1365 0
 2846              		.cfi_startproc
 2847 0000 80B5     		push	{r7, lr}
 2848              	.LCFI72:
 2849              		.cfi_def_cfa_offset 8
 2850              		.cfi_offset 7, -8
 2851              		.cfi_offset 14, -4
 2852 0002 82B0     		sub	sp, sp, #8
 2853              	.LCFI73:
 2854              		.cfi_def_cfa_offset 16
 2855 0004 00AF     		add	r7, sp, #0
 2856              	.LCFI74:
 2857              		.cfi_def_cfa_register 7
 2858 0006 7860     		str	r0, [r7, #4]
 2859 0008 3960     		str	r1, [r7]
1366:Drivers/STM32F0xx_HAL_Driver/Src/stm32f0xx_hal_tim_ex.c ****   /* Check the parameters */
1367:Drivers/STM32F0xx_HAL_Driver/Src/stm32f0xx_hal_tim_ex.c ****   assert_param(IS_TIM_CCXN_INSTANCE(htim->Instance, OutputChannel));
1368:Drivers/STM32F0xx_HAL_Driver/Src/stm32f0xx_hal_tim_ex.c **** 
1369:Drivers/STM32F0xx_HAL_Driver/Src/stm32f0xx_hal_tim_ex.c ****   /* Enable the TIM Capture/Compare 1 interrupt */
ARM GAS  /tmp/cct1Lg5Q.s 			page 76


1370:Drivers/STM32F0xx_HAL_Driver/Src/stm32f0xx_hal_tim_ex.c ****   __HAL_TIM_ENABLE_IT(htim, TIM_IT_CC1);
 2860              		.loc 1 1370 0
 2861 000a 7B68     		ldr	r3, [r7, #4]
 2862 000c 1B68     		ldr	r3, [r3]
 2863 000e 7A68     		ldr	r2, [r7, #4]
 2864 0010 1268     		ldr	r2, [r2]
 2865 0012 D268     		ldr	r2, [r2, #12]
 2866 0014 0221     		movs	r1, #2
 2867 0016 0A43     		orrs	r2, r1
 2868 0018 DA60     		str	r2, [r3, #12]
1371:Drivers/STM32F0xx_HAL_Driver/Src/stm32f0xx_hal_tim_ex.c **** 
1372:Drivers/STM32F0xx_HAL_Driver/Src/stm32f0xx_hal_tim_ex.c ****   /* Enable the TIM Capture/Compare 2 interrupt */
1373:Drivers/STM32F0xx_HAL_Driver/Src/stm32f0xx_hal_tim_ex.c ****   __HAL_TIM_ENABLE_IT(htim, TIM_IT_CC2);
 2869              		.loc 1 1373 0
 2870 001a 7B68     		ldr	r3, [r7, #4]
 2871 001c 1B68     		ldr	r3, [r3]
 2872 001e 7A68     		ldr	r2, [r7, #4]
 2873 0020 1268     		ldr	r2, [r2]
 2874 0022 D268     		ldr	r2, [r2, #12]
 2875 0024 0421     		movs	r1, #4
 2876 0026 0A43     		orrs	r2, r1
 2877 0028 DA60     		str	r2, [r3, #12]
1374:Drivers/STM32F0xx_HAL_Driver/Src/stm32f0xx_hal_tim_ex.c **** 
1375:Drivers/STM32F0xx_HAL_Driver/Src/stm32f0xx_hal_tim_ex.c ****   /* Enable the complementary One Pulse output */
1376:Drivers/STM32F0xx_HAL_Driver/Src/stm32f0xx_hal_tim_ex.c ****   TIM_CCxNChannelCmd(htim->Instance, OutputChannel, TIM_CCxN_ENABLE);
 2878              		.loc 1 1376 0
 2879 002a 7B68     		ldr	r3, [r7, #4]
 2880 002c 1B68     		ldr	r3, [r3]
 2881 002e 3968     		ldr	r1, [r7]
 2882 0030 0422     		movs	r2, #4
 2883 0032 1800     		movs	r0, r3
 2884 0034 FFF7FEFF 		bl	TIM_CCxNChannelCmd
1377:Drivers/STM32F0xx_HAL_Driver/Src/stm32f0xx_hal_tim_ex.c **** 
1378:Drivers/STM32F0xx_HAL_Driver/Src/stm32f0xx_hal_tim_ex.c ****   /* Enable the Main Ouput */
1379:Drivers/STM32F0xx_HAL_Driver/Src/stm32f0xx_hal_tim_ex.c ****   __HAL_TIM_MOE_ENABLE(htim);
 2885              		.loc 1 1379 0
 2886 0038 7B68     		ldr	r3, [r7, #4]
 2887 003a 1B68     		ldr	r3, [r3]
 2888 003c 7A68     		ldr	r2, [r7, #4]
 2889 003e 1268     		ldr	r2, [r2]
 2890 0040 526C     		ldr	r2, [r2, #68]
 2891 0042 8021     		movs	r1, #128
 2892 0044 0902     		lsls	r1, r1, #8
 2893 0046 0A43     		orrs	r2, r1
 2894 0048 5A64     		str	r2, [r3, #68]
1380:Drivers/STM32F0xx_HAL_Driver/Src/stm32f0xx_hal_tim_ex.c **** 
1381:Drivers/STM32F0xx_HAL_Driver/Src/stm32f0xx_hal_tim_ex.c ****   /* Return function status */
1382:Drivers/STM32F0xx_HAL_Driver/Src/stm32f0xx_hal_tim_ex.c ****   return HAL_OK;
 2895              		.loc 1 1382 0
 2896 004a 0023     		movs	r3, #0
1383:Drivers/STM32F0xx_HAL_Driver/Src/stm32f0xx_hal_tim_ex.c ****   }
 2897              		.loc 1 1383 0
 2898 004c 1800     		movs	r0, r3
 2899 004e BD46     		mov	sp, r7
 2900 0050 02B0     		add	sp, sp, #8
 2901              		@ sp needed
 2902 0052 80BD     		pop	{r7, pc}
ARM GAS  /tmp/cct1Lg5Q.s 			page 77


 2903              		.cfi_endproc
 2904              	.LFE59:
 2906              		.section	.text.HAL_TIMEx_OnePulseN_Stop_IT,"ax",%progbits
 2907              		.align	1
 2908              		.global	HAL_TIMEx_OnePulseN_Stop_IT
 2909              		.syntax unified
 2910              		.code	16
 2911              		.thumb_func
 2912              		.fpu softvfp
 2914              	HAL_TIMEx_OnePulseN_Stop_IT:
 2915              	.LFB60:
1384:Drivers/STM32F0xx_HAL_Driver/Src/stm32f0xx_hal_tim_ex.c **** 
1385:Drivers/STM32F0xx_HAL_Driver/Src/stm32f0xx_hal_tim_ex.c **** /**
1386:Drivers/STM32F0xx_HAL_Driver/Src/stm32f0xx_hal_tim_ex.c ****   * @brief  Stops the TIM One Pulse signal generation in interrupt mode on the
1387:Drivers/STM32F0xx_HAL_Driver/Src/stm32f0xx_hal_tim_ex.c ****   *         complementary channel.
1388:Drivers/STM32F0xx_HAL_Driver/Src/stm32f0xx_hal_tim_ex.c ****   * @param  htim : TIM One Pulse handle
1389:Drivers/STM32F0xx_HAL_Driver/Src/stm32f0xx_hal_tim_ex.c ****   * @param  OutputChannel : TIM Channel to be disabled
1390:Drivers/STM32F0xx_HAL_Driver/Src/stm32f0xx_hal_tim_ex.c ****   *          This parameter can be one of the following values:
1391:Drivers/STM32F0xx_HAL_Driver/Src/stm32f0xx_hal_tim_ex.c ****   *            @arg TIM_CHANNEL_1: TIM Channel 1 selected
1392:Drivers/STM32F0xx_HAL_Driver/Src/stm32f0xx_hal_tim_ex.c ****   *            @arg TIM_CHANNEL_2: TIM Channel 2 selected
1393:Drivers/STM32F0xx_HAL_Driver/Src/stm32f0xx_hal_tim_ex.c ****   * @retval HAL status
1394:Drivers/STM32F0xx_HAL_Driver/Src/stm32f0xx_hal_tim_ex.c ****   */
1395:Drivers/STM32F0xx_HAL_Driver/Src/stm32f0xx_hal_tim_ex.c **** HAL_StatusTypeDef HAL_TIMEx_OnePulseN_Stop_IT(TIM_HandleTypeDef *htim, uint32_t OutputChannel)
1396:Drivers/STM32F0xx_HAL_Driver/Src/stm32f0xx_hal_tim_ex.c **** {
 2916              		.loc 1 1396 0
 2917              		.cfi_startproc
 2918 0000 80B5     		push	{r7, lr}
 2919              	.LCFI75:
 2920              		.cfi_def_cfa_offset 8
 2921              		.cfi_offset 7, -8
 2922              		.cfi_offset 14, -4
 2923 0002 82B0     		sub	sp, sp, #8
 2924              	.LCFI76:
 2925              		.cfi_def_cfa_offset 16
 2926 0004 00AF     		add	r7, sp, #0
 2927              	.LCFI77:
 2928              		.cfi_def_cfa_register 7
 2929 0006 7860     		str	r0, [r7, #4]
 2930 0008 3960     		str	r1, [r7]
1397:Drivers/STM32F0xx_HAL_Driver/Src/stm32f0xx_hal_tim_ex.c ****   /* Check the parameters */
1398:Drivers/STM32F0xx_HAL_Driver/Src/stm32f0xx_hal_tim_ex.c ****   assert_param(IS_TIM_CCXN_INSTANCE(htim->Instance, OutputChannel));
1399:Drivers/STM32F0xx_HAL_Driver/Src/stm32f0xx_hal_tim_ex.c **** 
1400:Drivers/STM32F0xx_HAL_Driver/Src/stm32f0xx_hal_tim_ex.c ****   /* Disable the TIM Capture/Compare 1 interrupt */
1401:Drivers/STM32F0xx_HAL_Driver/Src/stm32f0xx_hal_tim_ex.c ****   __HAL_TIM_DISABLE_IT(htim, TIM_IT_CC1);
 2931              		.loc 1 1401 0
 2932 000a 7B68     		ldr	r3, [r7, #4]
 2933 000c 1B68     		ldr	r3, [r3]
 2934 000e 7A68     		ldr	r2, [r7, #4]
 2935 0010 1268     		ldr	r2, [r2]
 2936 0012 D268     		ldr	r2, [r2, #12]
 2937 0014 0221     		movs	r1, #2
 2938 0016 8A43     		bics	r2, r1
 2939 0018 DA60     		str	r2, [r3, #12]
1402:Drivers/STM32F0xx_HAL_Driver/Src/stm32f0xx_hal_tim_ex.c **** 
1403:Drivers/STM32F0xx_HAL_Driver/Src/stm32f0xx_hal_tim_ex.c ****   /* Disable the TIM Capture/Compare 2 interrupt */
1404:Drivers/STM32F0xx_HAL_Driver/Src/stm32f0xx_hal_tim_ex.c ****   __HAL_TIM_DISABLE_IT(htim, TIM_IT_CC2);
 2940              		.loc 1 1404 0
ARM GAS  /tmp/cct1Lg5Q.s 			page 78


 2941 001a 7B68     		ldr	r3, [r7, #4]
 2942 001c 1B68     		ldr	r3, [r3]
 2943 001e 7A68     		ldr	r2, [r7, #4]
 2944 0020 1268     		ldr	r2, [r2]
 2945 0022 D268     		ldr	r2, [r2, #12]
 2946 0024 0421     		movs	r1, #4
 2947 0026 8A43     		bics	r2, r1
 2948 0028 DA60     		str	r2, [r3, #12]
1405:Drivers/STM32F0xx_HAL_Driver/Src/stm32f0xx_hal_tim_ex.c **** 
1406:Drivers/STM32F0xx_HAL_Driver/Src/stm32f0xx_hal_tim_ex.c ****   /* Disable the complementary One Pulse output */
1407:Drivers/STM32F0xx_HAL_Driver/Src/stm32f0xx_hal_tim_ex.c ****   TIM_CCxNChannelCmd(htim->Instance, OutputChannel, TIM_CCxN_DISABLE);
 2949              		.loc 1 1407 0
 2950 002a 7B68     		ldr	r3, [r7, #4]
 2951 002c 1B68     		ldr	r3, [r3]
 2952 002e 3968     		ldr	r1, [r7]
 2953 0030 0022     		movs	r2, #0
 2954 0032 1800     		movs	r0, r3
 2955 0034 FFF7FEFF 		bl	TIM_CCxNChannelCmd
1408:Drivers/STM32F0xx_HAL_Driver/Src/stm32f0xx_hal_tim_ex.c **** 
1409:Drivers/STM32F0xx_HAL_Driver/Src/stm32f0xx_hal_tim_ex.c ****   /* Disable the Main Ouput */
1410:Drivers/STM32F0xx_HAL_Driver/Src/stm32f0xx_hal_tim_ex.c ****   __HAL_TIM_MOE_DISABLE(htim);
 2956              		.loc 1 1410 0
 2957 0038 7B68     		ldr	r3, [r7, #4]
 2958 003a 1B68     		ldr	r3, [r3]
 2959 003c 1B6A     		ldr	r3, [r3, #32]
 2960 003e 154A     		ldr	r2, .L169
 2961 0040 1340     		ands	r3, r2
 2962 0042 0DD1     		bne	.L166
 2963              		.loc 1 1410 0 is_stmt 0 discriminator 1
 2964 0044 7B68     		ldr	r3, [r7, #4]
 2965 0046 1B68     		ldr	r3, [r3]
 2966 0048 1B6A     		ldr	r3, [r3, #32]
 2967 004a 134A     		ldr	r2, .L169+4
 2968 004c 1340     		ands	r3, r2
 2969 004e 07D1     		bne	.L166
 2970              		.loc 1 1410 0 discriminator 2
 2971 0050 7B68     		ldr	r3, [r7, #4]
 2972 0052 1B68     		ldr	r3, [r3]
 2973 0054 7A68     		ldr	r2, [r7, #4]
 2974 0056 1268     		ldr	r2, [r2]
 2975 0058 526C     		ldr	r2, [r2, #68]
 2976 005a 1049     		ldr	r1, .L169+8
 2977 005c 0A40     		ands	r2, r1
 2978 005e 5A64     		str	r2, [r3, #68]
 2979              	.L166:
1411:Drivers/STM32F0xx_HAL_Driver/Src/stm32f0xx_hal_tim_ex.c **** 
1412:Drivers/STM32F0xx_HAL_Driver/Src/stm32f0xx_hal_tim_ex.c ****   /* Disable the Peripheral */
1413:Drivers/STM32F0xx_HAL_Driver/Src/stm32f0xx_hal_tim_ex.c ****    __HAL_TIM_DISABLE(htim);
 2980              		.loc 1 1413 0 is_stmt 1
 2981 0060 7B68     		ldr	r3, [r7, #4]
 2982 0062 1B68     		ldr	r3, [r3]
 2983 0064 1B6A     		ldr	r3, [r3, #32]
 2984 0066 0B4A     		ldr	r2, .L169
 2985 0068 1340     		ands	r3, r2
 2986 006a 0DD1     		bne	.L167
 2987              		.loc 1 1413 0 is_stmt 0 discriminator 1
 2988 006c 7B68     		ldr	r3, [r7, #4]
ARM GAS  /tmp/cct1Lg5Q.s 			page 79


 2989 006e 1B68     		ldr	r3, [r3]
 2990 0070 1B6A     		ldr	r3, [r3, #32]
 2991 0072 094A     		ldr	r2, .L169+4
 2992 0074 1340     		ands	r3, r2
 2993 0076 07D1     		bne	.L167
 2994              		.loc 1 1413 0 discriminator 2
 2995 0078 7B68     		ldr	r3, [r7, #4]
 2996 007a 1B68     		ldr	r3, [r3]
 2997 007c 7A68     		ldr	r2, [r7, #4]
 2998 007e 1268     		ldr	r2, [r2]
 2999 0080 1268     		ldr	r2, [r2]
 3000 0082 0121     		movs	r1, #1
 3001 0084 8A43     		bics	r2, r1
 3002 0086 1A60     		str	r2, [r3]
 3003              	.L167:
1414:Drivers/STM32F0xx_HAL_Driver/Src/stm32f0xx_hal_tim_ex.c **** 
1415:Drivers/STM32F0xx_HAL_Driver/Src/stm32f0xx_hal_tim_ex.c ****   /* Return function status */
1416:Drivers/STM32F0xx_HAL_Driver/Src/stm32f0xx_hal_tim_ex.c ****   return HAL_OK;
 3004              		.loc 1 1416 0 is_stmt 1
 3005 0088 0023     		movs	r3, #0
1417:Drivers/STM32F0xx_HAL_Driver/Src/stm32f0xx_hal_tim_ex.c **** }
 3006              		.loc 1 1417 0
 3007 008a 1800     		movs	r0, r3
 3008 008c BD46     		mov	sp, r7
 3009 008e 02B0     		add	sp, sp, #8
 3010              		@ sp needed
 3011 0090 80BD     		pop	{r7, pc}
 3012              	.L170:
 3013 0092 C046     		.align	2
 3014              	.L169:
 3015 0094 11110000 		.word	4369
 3016 0098 44040000 		.word	1092
 3017 009c FF7FFFFF 		.word	-32769
 3018              		.cfi_endproc
 3019              	.LFE60:
 3021              		.section	.text.HAL_TIMEx_ConfigCommutationEvent,"ax",%progbits
 3022              		.align	1
 3023              		.global	HAL_TIMEx_ConfigCommutationEvent
 3024              		.syntax unified
 3025              		.code	16
 3026              		.thumb_func
 3027              		.fpu softvfp
 3029              	HAL_TIMEx_ConfigCommutationEvent:
 3030              	.LFB61:
1418:Drivers/STM32F0xx_HAL_Driver/Src/stm32f0xx_hal_tim_ex.c **** 
1419:Drivers/STM32F0xx_HAL_Driver/Src/stm32f0xx_hal_tim_ex.c **** /**
1420:Drivers/STM32F0xx_HAL_Driver/Src/stm32f0xx_hal_tim_ex.c ****   * @}
1421:Drivers/STM32F0xx_HAL_Driver/Src/stm32f0xx_hal_tim_ex.c ****   */
1422:Drivers/STM32F0xx_HAL_Driver/Src/stm32f0xx_hal_tim_ex.c **** /** @defgroup TIMEx_Exported_Functions_Group5 Peripheral Control functions
1423:Drivers/STM32F0xx_HAL_Driver/Src/stm32f0xx_hal_tim_ex.c ****  *  @brief   	Peripheral Control functions 
1424:Drivers/STM32F0xx_HAL_Driver/Src/stm32f0xx_hal_tim_ex.c ****  *
1425:Drivers/STM32F0xx_HAL_Driver/Src/stm32f0xx_hal_tim_ex.c **** @verbatim 
1426:Drivers/STM32F0xx_HAL_Driver/Src/stm32f0xx_hal_tim_ex.c ****   ==============================================================================
1427:Drivers/STM32F0xx_HAL_Driver/Src/stm32f0xx_hal_tim_ex.c ****                     ##### Peripheral Control functions #####
1428:Drivers/STM32F0xx_HAL_Driver/Src/stm32f0xx_hal_tim_ex.c ****   ==============================================================================
1429:Drivers/STM32F0xx_HAL_Driver/Src/stm32f0xx_hal_tim_ex.c ****   [..]
1430:Drivers/STM32F0xx_HAL_Driver/Src/stm32f0xx_hal_tim_ex.c ****     This section provides functions allowing to:
ARM GAS  /tmp/cct1Lg5Q.s 			page 80


1431:Drivers/STM32F0xx_HAL_Driver/Src/stm32f0xx_hal_tim_ex.c ****     (+) Configure the commutation event in case of use of the Hall sensor interface.
1432:Drivers/STM32F0xx_HAL_Driver/Src/stm32f0xx_hal_tim_ex.c ****       (+) Configure Complementary channels, break features and dead time.
1433:Drivers/STM32F0xx_HAL_Driver/Src/stm32f0xx_hal_tim_ex.c ****       (+) Configure Master synchronization.
1434:Drivers/STM32F0xx_HAL_Driver/Src/stm32f0xx_hal_tim_ex.c ****       (+) Configure timer remapping capabilities.
1435:Drivers/STM32F0xx_HAL_Driver/Src/stm32f0xx_hal_tim_ex.c **** 
1436:Drivers/STM32F0xx_HAL_Driver/Src/stm32f0xx_hal_tim_ex.c **** @endverbatim
1437:Drivers/STM32F0xx_HAL_Driver/Src/stm32f0xx_hal_tim_ex.c ****   * @{
1438:Drivers/STM32F0xx_HAL_Driver/Src/stm32f0xx_hal_tim_ex.c ****   */
1439:Drivers/STM32F0xx_HAL_Driver/Src/stm32f0xx_hal_tim_ex.c **** /**
1440:Drivers/STM32F0xx_HAL_Driver/Src/stm32f0xx_hal_tim_ex.c ****   * @brief  Configure the TIM commutation event sequence.
1441:Drivers/STM32F0xx_HAL_Driver/Src/stm32f0xx_hal_tim_ex.c ****   * @note: this function is mandatory to use the commutation event in order to 
1442:Drivers/STM32F0xx_HAL_Driver/Src/stm32f0xx_hal_tim_ex.c ****   *        update the configuration at each commutation detection on the TRGI input of the Timer,
1443:Drivers/STM32F0xx_HAL_Driver/Src/stm32f0xx_hal_tim_ex.c ****   *        the typical use of this feature is with the use of another Timer(interface Timer)
1444:Drivers/STM32F0xx_HAL_Driver/Src/stm32f0xx_hal_tim_ex.c ****   *        configured in Hall sensor interface, this interface Timer will generate the 
1445:Drivers/STM32F0xx_HAL_Driver/Src/stm32f0xx_hal_tim_ex.c ****   *        commutation at its TRGO output (connected to Timer used in this function) each time 
1446:Drivers/STM32F0xx_HAL_Driver/Src/stm32f0xx_hal_tim_ex.c ****   *        the TI1 of the Interface Timer detect a commutation at its input TI1.
1447:Drivers/STM32F0xx_HAL_Driver/Src/stm32f0xx_hal_tim_ex.c ****   * @param  htim : TIM handle
1448:Drivers/STM32F0xx_HAL_Driver/Src/stm32f0xx_hal_tim_ex.c ****   * @param  InputTrigger : the Internal trigger corresponding to the Timer Interfacing with the Hal
1449:Drivers/STM32F0xx_HAL_Driver/Src/stm32f0xx_hal_tim_ex.c ****   *          This parameter can be one of the following values:
1450:Drivers/STM32F0xx_HAL_Driver/Src/stm32f0xx_hal_tim_ex.c ****   *            @arg TIM_TS_ITR0: Internal trigger 0 selected
1451:Drivers/STM32F0xx_HAL_Driver/Src/stm32f0xx_hal_tim_ex.c ****   *            @arg TIM_TS_ITR1: Internal trigger 1 selected
1452:Drivers/STM32F0xx_HAL_Driver/Src/stm32f0xx_hal_tim_ex.c ****   *            @arg TIM_TS_ITR2: Internal trigger 2 selected
1453:Drivers/STM32F0xx_HAL_Driver/Src/stm32f0xx_hal_tim_ex.c ****   *            @arg TIM_TS_ITR3: Internal trigger 3 selected
1454:Drivers/STM32F0xx_HAL_Driver/Src/stm32f0xx_hal_tim_ex.c ****   *            @arg TIM_TS_NONE: No trigger is needed 
1455:Drivers/STM32F0xx_HAL_Driver/Src/stm32f0xx_hal_tim_ex.c ****   * @param  CommutationSource : the Commutation Event source
1456:Drivers/STM32F0xx_HAL_Driver/Src/stm32f0xx_hal_tim_ex.c ****   *          This parameter can be one of the following values:
1457:Drivers/STM32F0xx_HAL_Driver/Src/stm32f0xx_hal_tim_ex.c ****   *            @arg TIM_COMMUTATION_TRGI: Commutation source is the TRGI of the Interface Timer
1458:Drivers/STM32F0xx_HAL_Driver/Src/stm32f0xx_hal_tim_ex.c ****   *            @arg TIM_COMMUTATION_SOFTWARE:  Commutation source is set by software using the COMG
1459:Drivers/STM32F0xx_HAL_Driver/Src/stm32f0xx_hal_tim_ex.c ****   * @retval HAL status
1460:Drivers/STM32F0xx_HAL_Driver/Src/stm32f0xx_hal_tim_ex.c ****   */
1461:Drivers/STM32F0xx_HAL_Driver/Src/stm32f0xx_hal_tim_ex.c **** HAL_StatusTypeDef HAL_TIMEx_ConfigCommutationEvent(TIM_HandleTypeDef *htim, uint32_t  InputTrigger,
1462:Drivers/STM32F0xx_HAL_Driver/Src/stm32f0xx_hal_tim_ex.c **** {
 3031              		.loc 1 1462 0
 3032              		.cfi_startproc
 3033 0000 80B5     		push	{r7, lr}
 3034              	.LCFI78:
 3035              		.cfi_def_cfa_offset 8
 3036              		.cfi_offset 7, -8
 3037              		.cfi_offset 14, -4
 3038 0002 84B0     		sub	sp, sp, #16
 3039              	.LCFI79:
 3040              		.cfi_def_cfa_offset 24
 3041 0004 00AF     		add	r7, sp, #0
 3042              	.LCFI80:
 3043              		.cfi_def_cfa_register 7
 3044 0006 F860     		str	r0, [r7, #12]
 3045 0008 B960     		str	r1, [r7, #8]
 3046 000a 7A60     		str	r2, [r7, #4]
1463:Drivers/STM32F0xx_HAL_Driver/Src/stm32f0xx_hal_tim_ex.c ****   /* Check the parameters */
1464:Drivers/STM32F0xx_HAL_Driver/Src/stm32f0xx_hal_tim_ex.c ****   assert_param(IS_TIM_COMMUTATION_EVENT_INSTANCE(htim->Instance));
1465:Drivers/STM32F0xx_HAL_Driver/Src/stm32f0xx_hal_tim_ex.c ****   assert_param(IS_TIM_INTERNAL_TRIGGEREVENT_SELECTION(InputTrigger));
1466:Drivers/STM32F0xx_HAL_Driver/Src/stm32f0xx_hal_tim_ex.c **** 
1467:Drivers/STM32F0xx_HAL_Driver/Src/stm32f0xx_hal_tim_ex.c ****   __HAL_LOCK(htim);
 3047              		.loc 1 1467 0
 3048 000c FB68     		ldr	r3, [r7, #12]
 3049 000e 3822     		movs	r2, #56
 3050 0010 9B5C     		ldrb	r3, [r3, r2]
ARM GAS  /tmp/cct1Lg5Q.s 			page 81


 3051 0012 012B     		cmp	r3, #1
 3052 0014 01D1     		bne	.L172
 3053              		.loc 1 1467 0 is_stmt 0 discriminator 1
 3054 0016 0223     		movs	r3, #2
 3055 0018 3CE0     		b	.L173
 3056              	.L172:
 3057              		.loc 1 1467 0 discriminator 2
 3058 001a FB68     		ldr	r3, [r7, #12]
 3059 001c 3822     		movs	r2, #56
 3060 001e 0121     		movs	r1, #1
 3061 0020 9954     		strb	r1, [r3, r2]
1468:Drivers/STM32F0xx_HAL_Driver/Src/stm32f0xx_hal_tim_ex.c **** 
1469:Drivers/STM32F0xx_HAL_Driver/Src/stm32f0xx_hal_tim_ex.c ****   if ((InputTrigger == TIM_TS_ITR0) || (InputTrigger == TIM_TS_ITR1) ||
 3062              		.loc 1 1469 0 is_stmt 1 discriminator 2
 3063 0022 BB68     		ldr	r3, [r7, #8]
 3064 0024 002B     		cmp	r3, #0
 3065 0026 08D0     		beq	.L174
 3066              		.loc 1 1469 0 is_stmt 0 discriminator 1
 3067 0028 BB68     		ldr	r3, [r7, #8]
 3068 002a 102B     		cmp	r3, #16
 3069 002c 05D0     		beq	.L174
 3070              		.loc 1 1469 0 discriminator 2
 3071 002e BB68     		ldr	r3, [r7, #8]
 3072 0030 202B     		cmp	r3, #32
 3073 0032 02D0     		beq	.L174
1470:Drivers/STM32F0xx_HAL_Driver/Src/stm32f0xx_hal_tim_ex.c ****       (InputTrigger == TIM_TS_ITR2) || (InputTrigger == TIM_TS_ITR3))
 3074              		.loc 1 1470 0 is_stmt 1
 3075 0034 BB68     		ldr	r3, [r7, #8]
 3076 0036 302B     		cmp	r3, #48
 3077 0038 0FD1     		bne	.L175
 3078              	.L174:
1471:Drivers/STM32F0xx_HAL_Driver/Src/stm32f0xx_hal_tim_ex.c ****   {
1472:Drivers/STM32F0xx_HAL_Driver/Src/stm32f0xx_hal_tim_ex.c ****     /* Select the Input trigger */
1473:Drivers/STM32F0xx_HAL_Driver/Src/stm32f0xx_hal_tim_ex.c ****     htim->Instance->SMCR &= ~TIM_SMCR_TS;
 3079              		.loc 1 1473 0
 3080 003a FB68     		ldr	r3, [r7, #12]
 3081 003c 1B68     		ldr	r3, [r3]
 3082 003e FA68     		ldr	r2, [r7, #12]
 3083 0040 1268     		ldr	r2, [r2]
 3084 0042 9268     		ldr	r2, [r2, #8]
 3085 0044 7021     		movs	r1, #112
 3086 0046 8A43     		bics	r2, r1
 3087 0048 9A60     		str	r2, [r3, #8]
1474:Drivers/STM32F0xx_HAL_Driver/Src/stm32f0xx_hal_tim_ex.c ****     htim->Instance->SMCR |= InputTrigger;
 3088              		.loc 1 1474 0
 3089 004a FB68     		ldr	r3, [r7, #12]
 3090 004c 1B68     		ldr	r3, [r3]
 3091 004e FA68     		ldr	r2, [r7, #12]
 3092 0050 1268     		ldr	r2, [r2]
 3093 0052 9168     		ldr	r1, [r2, #8]
 3094 0054 BA68     		ldr	r2, [r7, #8]
 3095 0056 0A43     		orrs	r2, r1
 3096 0058 9A60     		str	r2, [r3, #8]
 3097              	.L175:
1475:Drivers/STM32F0xx_HAL_Driver/Src/stm32f0xx_hal_tim_ex.c ****   }
1476:Drivers/STM32F0xx_HAL_Driver/Src/stm32f0xx_hal_tim_ex.c **** 
1477:Drivers/STM32F0xx_HAL_Driver/Src/stm32f0xx_hal_tim_ex.c ****   /* Select the Capture Compare preload feature */
ARM GAS  /tmp/cct1Lg5Q.s 			page 82


1478:Drivers/STM32F0xx_HAL_Driver/Src/stm32f0xx_hal_tim_ex.c ****   htim->Instance->CR2 |= TIM_CR2_CCPC;
 3098              		.loc 1 1478 0
 3099 005a FB68     		ldr	r3, [r7, #12]
 3100 005c 1B68     		ldr	r3, [r3]
 3101 005e FA68     		ldr	r2, [r7, #12]
 3102 0060 1268     		ldr	r2, [r2]
 3103 0062 5268     		ldr	r2, [r2, #4]
 3104 0064 0121     		movs	r1, #1
 3105 0066 0A43     		orrs	r2, r1
 3106 0068 5A60     		str	r2, [r3, #4]
1479:Drivers/STM32F0xx_HAL_Driver/Src/stm32f0xx_hal_tim_ex.c ****   /* Select the Commutation event source */
1480:Drivers/STM32F0xx_HAL_Driver/Src/stm32f0xx_hal_tim_ex.c ****   htim->Instance->CR2 &= ~TIM_CR2_CCUS;
 3107              		.loc 1 1480 0
 3108 006a FB68     		ldr	r3, [r7, #12]
 3109 006c 1B68     		ldr	r3, [r3]
 3110 006e FA68     		ldr	r2, [r7, #12]
 3111 0070 1268     		ldr	r2, [r2]
 3112 0072 5268     		ldr	r2, [r2, #4]
 3113 0074 0421     		movs	r1, #4
 3114 0076 8A43     		bics	r2, r1
 3115 0078 5A60     		str	r2, [r3, #4]
1481:Drivers/STM32F0xx_HAL_Driver/Src/stm32f0xx_hal_tim_ex.c ****   htim->Instance->CR2 |= CommutationSource;
 3116              		.loc 1 1481 0
 3117 007a FB68     		ldr	r3, [r7, #12]
 3118 007c 1B68     		ldr	r3, [r3]
 3119 007e FA68     		ldr	r2, [r7, #12]
 3120 0080 1268     		ldr	r2, [r2]
 3121 0082 5168     		ldr	r1, [r2, #4]
 3122 0084 7A68     		ldr	r2, [r7, #4]
 3123 0086 0A43     		orrs	r2, r1
 3124 0088 5A60     		str	r2, [r3, #4]
1482:Drivers/STM32F0xx_HAL_Driver/Src/stm32f0xx_hal_tim_ex.c **** 
1483:Drivers/STM32F0xx_HAL_Driver/Src/stm32f0xx_hal_tim_ex.c ****   __HAL_UNLOCK(htim);
 3125              		.loc 1 1483 0
 3126 008a FB68     		ldr	r3, [r7, #12]
 3127 008c 3822     		movs	r2, #56
 3128 008e 0021     		movs	r1, #0
 3129 0090 9954     		strb	r1, [r3, r2]
1484:Drivers/STM32F0xx_HAL_Driver/Src/stm32f0xx_hal_tim_ex.c **** 
1485:Drivers/STM32F0xx_HAL_Driver/Src/stm32f0xx_hal_tim_ex.c ****   return HAL_OK;
 3130              		.loc 1 1485 0
 3131 0092 0023     		movs	r3, #0
 3132              	.L173:
1486:Drivers/STM32F0xx_HAL_Driver/Src/stm32f0xx_hal_tim_ex.c **** }
 3133              		.loc 1 1486 0
 3134 0094 1800     		movs	r0, r3
 3135 0096 BD46     		mov	sp, r7
 3136 0098 04B0     		add	sp, sp, #16
 3137              		@ sp needed
 3138 009a 80BD     		pop	{r7, pc}
 3139              		.cfi_endproc
 3140              	.LFE61:
 3142              		.section	.text.HAL_TIMEx_ConfigCommutationEvent_IT,"ax",%progbits
 3143              		.align	1
 3144              		.global	HAL_TIMEx_ConfigCommutationEvent_IT
 3145              		.syntax unified
 3146              		.code	16
ARM GAS  /tmp/cct1Lg5Q.s 			page 83


 3147              		.thumb_func
 3148              		.fpu softvfp
 3150              	HAL_TIMEx_ConfigCommutationEvent_IT:
 3151              	.LFB62:
1487:Drivers/STM32F0xx_HAL_Driver/Src/stm32f0xx_hal_tim_ex.c **** 
1488:Drivers/STM32F0xx_HAL_Driver/Src/stm32f0xx_hal_tim_ex.c **** /**
1489:Drivers/STM32F0xx_HAL_Driver/Src/stm32f0xx_hal_tim_ex.c ****   * @brief  Configure the TIM commutation event sequence with interrupt.
1490:Drivers/STM32F0xx_HAL_Driver/Src/stm32f0xx_hal_tim_ex.c ****   * @note: this function is mandatory to use the commutation event in order to 
1491:Drivers/STM32F0xx_HAL_Driver/Src/stm32f0xx_hal_tim_ex.c ****   *        update the configuration at each commutation detection on the TRGI input of the Timer,
1492:Drivers/STM32F0xx_HAL_Driver/Src/stm32f0xx_hal_tim_ex.c ****   *        the typical use of this feature is with the use of another Timer(interface Timer)
1493:Drivers/STM32F0xx_HAL_Driver/Src/stm32f0xx_hal_tim_ex.c ****   *        configured in Hall sensor interface, this interface Timer will generate the 
1494:Drivers/STM32F0xx_HAL_Driver/Src/stm32f0xx_hal_tim_ex.c ****   *        commutation at its TRGO output (connected to Timer used in this function) each time 
1495:Drivers/STM32F0xx_HAL_Driver/Src/stm32f0xx_hal_tim_ex.c ****   *        the TI1 of the Interface Timer detect a commutation at its input TI1.
1496:Drivers/STM32F0xx_HAL_Driver/Src/stm32f0xx_hal_tim_ex.c ****   * @param  htim : TIM handle
1497:Drivers/STM32F0xx_HAL_Driver/Src/stm32f0xx_hal_tim_ex.c ****   * @param  InputTrigger : the Internal trigger corresponding to the Timer Interfacing with the Hal
1498:Drivers/STM32F0xx_HAL_Driver/Src/stm32f0xx_hal_tim_ex.c ****   *          This parameter can be one of the following values:
1499:Drivers/STM32F0xx_HAL_Driver/Src/stm32f0xx_hal_tim_ex.c ****   *            @arg TIM_TS_ITR0: Internal trigger 0 selected
1500:Drivers/STM32F0xx_HAL_Driver/Src/stm32f0xx_hal_tim_ex.c ****   *            @arg TIM_TS_ITR1: Internal trigger 1 selected
1501:Drivers/STM32F0xx_HAL_Driver/Src/stm32f0xx_hal_tim_ex.c ****   *            @arg TIM_TS_ITR2: Internal trigger 2 selected
1502:Drivers/STM32F0xx_HAL_Driver/Src/stm32f0xx_hal_tim_ex.c ****   *            @arg TIM_TS_ITR3: Internal trigger 3 selected
1503:Drivers/STM32F0xx_HAL_Driver/Src/stm32f0xx_hal_tim_ex.c ****   *            @arg TIM_TS_NONE: No trigger is needed 
1504:Drivers/STM32F0xx_HAL_Driver/Src/stm32f0xx_hal_tim_ex.c ****   * @param  CommutationSource : the Commutation Event source
1505:Drivers/STM32F0xx_HAL_Driver/Src/stm32f0xx_hal_tim_ex.c ****   *          This parameter can be one of the following values:
1506:Drivers/STM32F0xx_HAL_Driver/Src/stm32f0xx_hal_tim_ex.c ****   *            @arg TIM_COMMUTATION_TRGI: Commutation source is the TRGI of the Interface Timer
1507:Drivers/STM32F0xx_HAL_Driver/Src/stm32f0xx_hal_tim_ex.c ****   *            @arg TIM_COMMUTATION_SOFTWARE:  Commutation source is set by software using the COMG
1508:Drivers/STM32F0xx_HAL_Driver/Src/stm32f0xx_hal_tim_ex.c ****   * @retval HAL status
1509:Drivers/STM32F0xx_HAL_Driver/Src/stm32f0xx_hal_tim_ex.c ****   */
1510:Drivers/STM32F0xx_HAL_Driver/Src/stm32f0xx_hal_tim_ex.c **** HAL_StatusTypeDef HAL_TIMEx_ConfigCommutationEvent_IT(TIM_HandleTypeDef *htim, uint32_t  InputTrigg
1511:Drivers/STM32F0xx_HAL_Driver/Src/stm32f0xx_hal_tim_ex.c **** {
 3152              		.loc 1 1511 0
 3153              		.cfi_startproc
 3154 0000 80B5     		push	{r7, lr}
 3155              	.LCFI81:
 3156              		.cfi_def_cfa_offset 8
 3157              		.cfi_offset 7, -8
 3158              		.cfi_offset 14, -4
 3159 0002 84B0     		sub	sp, sp, #16
 3160              	.LCFI82:
 3161              		.cfi_def_cfa_offset 24
 3162 0004 00AF     		add	r7, sp, #0
 3163              	.LCFI83:
 3164              		.cfi_def_cfa_register 7
 3165 0006 F860     		str	r0, [r7, #12]
 3166 0008 B960     		str	r1, [r7, #8]
 3167 000a 7A60     		str	r2, [r7, #4]
1512:Drivers/STM32F0xx_HAL_Driver/Src/stm32f0xx_hal_tim_ex.c ****   /* Check the parameters */
1513:Drivers/STM32F0xx_HAL_Driver/Src/stm32f0xx_hal_tim_ex.c ****   assert_param(IS_TIM_COMMUTATION_EVENT_INSTANCE(htim->Instance));
1514:Drivers/STM32F0xx_HAL_Driver/Src/stm32f0xx_hal_tim_ex.c ****   assert_param(IS_TIM_INTERNAL_TRIGGEREVENT_SELECTION(InputTrigger));
1515:Drivers/STM32F0xx_HAL_Driver/Src/stm32f0xx_hal_tim_ex.c **** 
1516:Drivers/STM32F0xx_HAL_Driver/Src/stm32f0xx_hal_tim_ex.c ****   __HAL_LOCK(htim);
 3168              		.loc 1 1516 0
 3169 000c FB68     		ldr	r3, [r7, #12]
 3170 000e 3822     		movs	r2, #56
 3171 0010 9B5C     		ldrb	r3, [r3, r2]
 3172 0012 012B     		cmp	r3, #1
 3173 0014 01D1     		bne	.L177
 3174              		.loc 1 1516 0 is_stmt 0 discriminator 1
ARM GAS  /tmp/cct1Lg5Q.s 			page 84


 3175 0016 0223     		movs	r3, #2
 3176 0018 44E0     		b	.L178
 3177              	.L177:
 3178              		.loc 1 1516 0 discriminator 2
 3179 001a FB68     		ldr	r3, [r7, #12]
 3180 001c 3822     		movs	r2, #56
 3181 001e 0121     		movs	r1, #1
 3182 0020 9954     		strb	r1, [r3, r2]
1517:Drivers/STM32F0xx_HAL_Driver/Src/stm32f0xx_hal_tim_ex.c **** 
1518:Drivers/STM32F0xx_HAL_Driver/Src/stm32f0xx_hal_tim_ex.c ****   if ((InputTrigger == TIM_TS_ITR0) || (InputTrigger == TIM_TS_ITR1) ||
 3183              		.loc 1 1518 0 is_stmt 1 discriminator 2
 3184 0022 BB68     		ldr	r3, [r7, #8]
 3185 0024 002B     		cmp	r3, #0
 3186 0026 08D0     		beq	.L179
 3187              		.loc 1 1518 0 is_stmt 0 discriminator 1
 3188 0028 BB68     		ldr	r3, [r7, #8]
 3189 002a 102B     		cmp	r3, #16
 3190 002c 05D0     		beq	.L179
 3191              		.loc 1 1518 0 discriminator 2
 3192 002e BB68     		ldr	r3, [r7, #8]
 3193 0030 202B     		cmp	r3, #32
 3194 0032 02D0     		beq	.L179
1519:Drivers/STM32F0xx_HAL_Driver/Src/stm32f0xx_hal_tim_ex.c ****       (InputTrigger == TIM_TS_ITR2) || (InputTrigger == TIM_TS_ITR3))
 3195              		.loc 1 1519 0 is_stmt 1
 3196 0034 BB68     		ldr	r3, [r7, #8]
 3197 0036 302B     		cmp	r3, #48
 3198 0038 0FD1     		bne	.L180
 3199              	.L179:
1520:Drivers/STM32F0xx_HAL_Driver/Src/stm32f0xx_hal_tim_ex.c ****   {
1521:Drivers/STM32F0xx_HAL_Driver/Src/stm32f0xx_hal_tim_ex.c ****     /* Select the Input trigger */
1522:Drivers/STM32F0xx_HAL_Driver/Src/stm32f0xx_hal_tim_ex.c ****     htim->Instance->SMCR &= ~TIM_SMCR_TS;
 3200              		.loc 1 1522 0
 3201 003a FB68     		ldr	r3, [r7, #12]
 3202 003c 1B68     		ldr	r3, [r3]
 3203 003e FA68     		ldr	r2, [r7, #12]
 3204 0040 1268     		ldr	r2, [r2]
 3205 0042 9268     		ldr	r2, [r2, #8]
 3206 0044 7021     		movs	r1, #112
 3207 0046 8A43     		bics	r2, r1
 3208 0048 9A60     		str	r2, [r3, #8]
1523:Drivers/STM32F0xx_HAL_Driver/Src/stm32f0xx_hal_tim_ex.c ****     htim->Instance->SMCR |= InputTrigger;
 3209              		.loc 1 1523 0
 3210 004a FB68     		ldr	r3, [r7, #12]
 3211 004c 1B68     		ldr	r3, [r3]
 3212 004e FA68     		ldr	r2, [r7, #12]
 3213 0050 1268     		ldr	r2, [r2]
 3214 0052 9168     		ldr	r1, [r2, #8]
 3215 0054 BA68     		ldr	r2, [r7, #8]
 3216 0056 0A43     		orrs	r2, r1
 3217 0058 9A60     		str	r2, [r3, #8]
 3218              	.L180:
1524:Drivers/STM32F0xx_HAL_Driver/Src/stm32f0xx_hal_tim_ex.c ****   }
1525:Drivers/STM32F0xx_HAL_Driver/Src/stm32f0xx_hal_tim_ex.c **** 
1526:Drivers/STM32F0xx_HAL_Driver/Src/stm32f0xx_hal_tim_ex.c ****   /* Select the Capture Compare preload feature */
1527:Drivers/STM32F0xx_HAL_Driver/Src/stm32f0xx_hal_tim_ex.c ****   htim->Instance->CR2 |= TIM_CR2_CCPC;
 3219              		.loc 1 1527 0
 3220 005a FB68     		ldr	r3, [r7, #12]
ARM GAS  /tmp/cct1Lg5Q.s 			page 85


 3221 005c 1B68     		ldr	r3, [r3]
 3222 005e FA68     		ldr	r2, [r7, #12]
 3223 0060 1268     		ldr	r2, [r2]
 3224 0062 5268     		ldr	r2, [r2, #4]
 3225 0064 0121     		movs	r1, #1
 3226 0066 0A43     		orrs	r2, r1
 3227 0068 5A60     		str	r2, [r3, #4]
1528:Drivers/STM32F0xx_HAL_Driver/Src/stm32f0xx_hal_tim_ex.c ****   /* Select the Commutation event source */
1529:Drivers/STM32F0xx_HAL_Driver/Src/stm32f0xx_hal_tim_ex.c ****   htim->Instance->CR2 &= ~TIM_CR2_CCUS;
 3228              		.loc 1 1529 0
 3229 006a FB68     		ldr	r3, [r7, #12]
 3230 006c 1B68     		ldr	r3, [r3]
 3231 006e FA68     		ldr	r2, [r7, #12]
 3232 0070 1268     		ldr	r2, [r2]
 3233 0072 5268     		ldr	r2, [r2, #4]
 3234 0074 0421     		movs	r1, #4
 3235 0076 8A43     		bics	r2, r1
 3236 0078 5A60     		str	r2, [r3, #4]
1530:Drivers/STM32F0xx_HAL_Driver/Src/stm32f0xx_hal_tim_ex.c ****   htim->Instance->CR2 |= CommutationSource;
 3237              		.loc 1 1530 0
 3238 007a FB68     		ldr	r3, [r7, #12]
 3239 007c 1B68     		ldr	r3, [r3]
 3240 007e FA68     		ldr	r2, [r7, #12]
 3241 0080 1268     		ldr	r2, [r2]
 3242 0082 5168     		ldr	r1, [r2, #4]
 3243 0084 7A68     		ldr	r2, [r7, #4]
 3244 0086 0A43     		orrs	r2, r1
 3245 0088 5A60     		str	r2, [r3, #4]
1531:Drivers/STM32F0xx_HAL_Driver/Src/stm32f0xx_hal_tim_ex.c **** 
1532:Drivers/STM32F0xx_HAL_Driver/Src/stm32f0xx_hal_tim_ex.c ****   /* Enable the Commutation Interrupt Request */
1533:Drivers/STM32F0xx_HAL_Driver/Src/stm32f0xx_hal_tim_ex.c ****   __HAL_TIM_ENABLE_IT(htim, TIM_IT_COM);
 3246              		.loc 1 1533 0
 3247 008a FB68     		ldr	r3, [r7, #12]
 3248 008c 1B68     		ldr	r3, [r3]
 3249 008e FA68     		ldr	r2, [r7, #12]
 3250 0090 1268     		ldr	r2, [r2]
 3251 0092 D268     		ldr	r2, [r2, #12]
 3252 0094 2021     		movs	r1, #32
 3253 0096 0A43     		orrs	r2, r1
 3254 0098 DA60     		str	r2, [r3, #12]
1534:Drivers/STM32F0xx_HAL_Driver/Src/stm32f0xx_hal_tim_ex.c **** 
1535:Drivers/STM32F0xx_HAL_Driver/Src/stm32f0xx_hal_tim_ex.c ****   __HAL_UNLOCK(htim);
 3255              		.loc 1 1535 0
 3256 009a FB68     		ldr	r3, [r7, #12]
 3257 009c 3822     		movs	r2, #56
 3258 009e 0021     		movs	r1, #0
 3259 00a0 9954     		strb	r1, [r3, r2]
1536:Drivers/STM32F0xx_HAL_Driver/Src/stm32f0xx_hal_tim_ex.c **** 
1537:Drivers/STM32F0xx_HAL_Driver/Src/stm32f0xx_hal_tim_ex.c ****   return HAL_OK;
 3260              		.loc 1 1537 0
 3261 00a2 0023     		movs	r3, #0
 3262              	.L178:
1538:Drivers/STM32F0xx_HAL_Driver/Src/stm32f0xx_hal_tim_ex.c **** }
 3263              		.loc 1 1538 0
 3264 00a4 1800     		movs	r0, r3
 3265 00a6 BD46     		mov	sp, r7
 3266 00a8 04B0     		add	sp, sp, #16
ARM GAS  /tmp/cct1Lg5Q.s 			page 86


 3267              		@ sp needed
 3268 00aa 80BD     		pop	{r7, pc}
 3269              		.cfi_endproc
 3270              	.LFE62:
 3272              		.section	.text.HAL_TIMEx_ConfigCommutationEvent_DMA,"ax",%progbits
 3273              		.align	1
 3274              		.global	HAL_TIMEx_ConfigCommutationEvent_DMA
 3275              		.syntax unified
 3276              		.code	16
 3277              		.thumb_func
 3278              		.fpu softvfp
 3280              	HAL_TIMEx_ConfigCommutationEvent_DMA:
 3281              	.LFB63:
1539:Drivers/STM32F0xx_HAL_Driver/Src/stm32f0xx_hal_tim_ex.c **** 
1540:Drivers/STM32F0xx_HAL_Driver/Src/stm32f0xx_hal_tim_ex.c **** /**
1541:Drivers/STM32F0xx_HAL_Driver/Src/stm32f0xx_hal_tim_ex.c ****   * @brief  Configure the TIM commutation event sequence with DMA.
1542:Drivers/STM32F0xx_HAL_Driver/Src/stm32f0xx_hal_tim_ex.c ****   * @note: this function is mandatory to use the commutation event in order to 
1543:Drivers/STM32F0xx_HAL_Driver/Src/stm32f0xx_hal_tim_ex.c ****   *        update the configuration at each commutation detection on the TRGI input of the Timer,
1544:Drivers/STM32F0xx_HAL_Driver/Src/stm32f0xx_hal_tim_ex.c ****   *        the typical use of this feature is with the use of another Timer(interface Timer)
1545:Drivers/STM32F0xx_HAL_Driver/Src/stm32f0xx_hal_tim_ex.c ****   *        configured in Hall sensor interface, this interface Timer will generate the 
1546:Drivers/STM32F0xx_HAL_Driver/Src/stm32f0xx_hal_tim_ex.c ****   *        commutation at its TRGO output (connected to Timer used in this function) each time 
1547:Drivers/STM32F0xx_HAL_Driver/Src/stm32f0xx_hal_tim_ex.c ****   *        the TI1 of the Interface Timer detect a commutation at its input TI1.
1548:Drivers/STM32F0xx_HAL_Driver/Src/stm32f0xx_hal_tim_ex.c ****   * @note: The user should configure the DMA in his own software, in This function only the COMDE b
1549:Drivers/STM32F0xx_HAL_Driver/Src/stm32f0xx_hal_tim_ex.c ****   * @param  htim : TIM handle
1550:Drivers/STM32F0xx_HAL_Driver/Src/stm32f0xx_hal_tim_ex.c ****   * @param  InputTrigger : the Internal trigger corresponding to the Timer Interfacing with the Hal
1551:Drivers/STM32F0xx_HAL_Driver/Src/stm32f0xx_hal_tim_ex.c ****   *          This parameter can be one of the following values:
1552:Drivers/STM32F0xx_HAL_Driver/Src/stm32f0xx_hal_tim_ex.c ****   *            @arg TIM_TS_ITR0: Internal trigger 0 selected
1553:Drivers/STM32F0xx_HAL_Driver/Src/stm32f0xx_hal_tim_ex.c ****   *            @arg TIM_TS_ITR1: Internal trigger 1 selected
1554:Drivers/STM32F0xx_HAL_Driver/Src/stm32f0xx_hal_tim_ex.c ****   *            @arg TIM_TS_ITR2: Internal trigger 2 selected
1555:Drivers/STM32F0xx_HAL_Driver/Src/stm32f0xx_hal_tim_ex.c ****   *            @arg TIM_TS_ITR3: Internal trigger 3 selected
1556:Drivers/STM32F0xx_HAL_Driver/Src/stm32f0xx_hal_tim_ex.c ****   *            @arg TIM_TS_NONE: No trigger is needed 
1557:Drivers/STM32F0xx_HAL_Driver/Src/stm32f0xx_hal_tim_ex.c ****   * @param  CommutationSource : the Commutation Event source
1558:Drivers/STM32F0xx_HAL_Driver/Src/stm32f0xx_hal_tim_ex.c ****   *          This parameter can be one of the following values:
1559:Drivers/STM32F0xx_HAL_Driver/Src/stm32f0xx_hal_tim_ex.c ****   *            @arg TIM_COMMUTATION_TRGI: Commutation source is the TRGI of the Interface Timer
1560:Drivers/STM32F0xx_HAL_Driver/Src/stm32f0xx_hal_tim_ex.c ****   *            @arg TIM_COMMUTATION_SOFTWARE:  Commutation source is set by software using the COMG
1561:Drivers/STM32F0xx_HAL_Driver/Src/stm32f0xx_hal_tim_ex.c ****   * @retval HAL status
1562:Drivers/STM32F0xx_HAL_Driver/Src/stm32f0xx_hal_tim_ex.c ****   */
1563:Drivers/STM32F0xx_HAL_Driver/Src/stm32f0xx_hal_tim_ex.c **** HAL_StatusTypeDef HAL_TIMEx_ConfigCommutationEvent_DMA(TIM_HandleTypeDef *htim, uint32_t  InputTrig
1564:Drivers/STM32F0xx_HAL_Driver/Src/stm32f0xx_hal_tim_ex.c **** {
 3282              		.loc 1 1564 0
 3283              		.cfi_startproc
 3284 0000 80B5     		push	{r7, lr}
 3285              	.LCFI84:
 3286              		.cfi_def_cfa_offset 8
 3287              		.cfi_offset 7, -8
 3288              		.cfi_offset 14, -4
 3289 0002 84B0     		sub	sp, sp, #16
 3290              	.LCFI85:
 3291              		.cfi_def_cfa_offset 24
 3292 0004 00AF     		add	r7, sp, #0
 3293              	.LCFI86:
 3294              		.cfi_def_cfa_register 7
 3295 0006 F860     		str	r0, [r7, #12]
 3296 0008 B960     		str	r1, [r7, #8]
 3297 000a 7A60     		str	r2, [r7, #4]
1565:Drivers/STM32F0xx_HAL_Driver/Src/stm32f0xx_hal_tim_ex.c ****   /* Check the parameters */
1566:Drivers/STM32F0xx_HAL_Driver/Src/stm32f0xx_hal_tim_ex.c ****   assert_param(IS_TIM_COMMUTATION_EVENT_INSTANCE(htim->Instance));
ARM GAS  /tmp/cct1Lg5Q.s 			page 87


1567:Drivers/STM32F0xx_HAL_Driver/Src/stm32f0xx_hal_tim_ex.c ****   assert_param(IS_TIM_INTERNAL_TRIGGEREVENT_SELECTION(InputTrigger));
1568:Drivers/STM32F0xx_HAL_Driver/Src/stm32f0xx_hal_tim_ex.c **** 
1569:Drivers/STM32F0xx_HAL_Driver/Src/stm32f0xx_hal_tim_ex.c ****   __HAL_LOCK(htim);
 3298              		.loc 1 1569 0
 3299 000c FB68     		ldr	r3, [r7, #12]
 3300 000e 3822     		movs	r2, #56
 3301 0010 9B5C     		ldrb	r3, [r3, r2]
 3302 0012 012B     		cmp	r3, #1
 3303 0014 01D1     		bne	.L182
 3304              		.loc 1 1569 0 is_stmt 0 discriminator 1
 3305 0016 0223     		movs	r3, #2
 3306 0018 4DE0     		b	.L183
 3307              	.L182:
 3308              		.loc 1 1569 0 discriminator 2
 3309 001a FB68     		ldr	r3, [r7, #12]
 3310 001c 3822     		movs	r2, #56
 3311 001e 0121     		movs	r1, #1
 3312 0020 9954     		strb	r1, [r3, r2]
1570:Drivers/STM32F0xx_HAL_Driver/Src/stm32f0xx_hal_tim_ex.c **** 
1571:Drivers/STM32F0xx_HAL_Driver/Src/stm32f0xx_hal_tim_ex.c ****   if ((InputTrigger == TIM_TS_ITR0) || (InputTrigger == TIM_TS_ITR1) ||
 3313              		.loc 1 1571 0 is_stmt 1 discriminator 2
 3314 0022 BB68     		ldr	r3, [r7, #8]
 3315 0024 002B     		cmp	r3, #0
 3316 0026 08D0     		beq	.L184
 3317              		.loc 1 1571 0 is_stmt 0 discriminator 1
 3318 0028 BB68     		ldr	r3, [r7, #8]
 3319 002a 102B     		cmp	r3, #16
 3320 002c 05D0     		beq	.L184
 3321              		.loc 1 1571 0 discriminator 2
 3322 002e BB68     		ldr	r3, [r7, #8]
 3323 0030 202B     		cmp	r3, #32
 3324 0032 02D0     		beq	.L184
1572:Drivers/STM32F0xx_HAL_Driver/Src/stm32f0xx_hal_tim_ex.c ****       (InputTrigger == TIM_TS_ITR2) || (InputTrigger == TIM_TS_ITR3))
 3325              		.loc 1 1572 0 is_stmt 1
 3326 0034 BB68     		ldr	r3, [r7, #8]
 3327 0036 302B     		cmp	r3, #48
 3328 0038 0FD1     		bne	.L185
 3329              	.L184:
1573:Drivers/STM32F0xx_HAL_Driver/Src/stm32f0xx_hal_tim_ex.c ****   {
1574:Drivers/STM32F0xx_HAL_Driver/Src/stm32f0xx_hal_tim_ex.c ****     /* Select the Input trigger */
1575:Drivers/STM32F0xx_HAL_Driver/Src/stm32f0xx_hal_tim_ex.c ****     htim->Instance->SMCR &= ~TIM_SMCR_TS;
 3330              		.loc 1 1575 0
 3331 003a FB68     		ldr	r3, [r7, #12]
 3332 003c 1B68     		ldr	r3, [r3]
 3333 003e FA68     		ldr	r2, [r7, #12]
 3334 0040 1268     		ldr	r2, [r2]
 3335 0042 9268     		ldr	r2, [r2, #8]
 3336 0044 7021     		movs	r1, #112
 3337 0046 8A43     		bics	r2, r1
 3338 0048 9A60     		str	r2, [r3, #8]
1576:Drivers/STM32F0xx_HAL_Driver/Src/stm32f0xx_hal_tim_ex.c ****     htim->Instance->SMCR |= InputTrigger;
 3339              		.loc 1 1576 0
 3340 004a FB68     		ldr	r3, [r7, #12]
 3341 004c 1B68     		ldr	r3, [r3]
 3342 004e FA68     		ldr	r2, [r7, #12]
 3343 0050 1268     		ldr	r2, [r2]
 3344 0052 9168     		ldr	r1, [r2, #8]
ARM GAS  /tmp/cct1Lg5Q.s 			page 88


 3345 0054 BA68     		ldr	r2, [r7, #8]
 3346 0056 0A43     		orrs	r2, r1
 3347 0058 9A60     		str	r2, [r3, #8]
 3348              	.L185:
1577:Drivers/STM32F0xx_HAL_Driver/Src/stm32f0xx_hal_tim_ex.c ****   }
1578:Drivers/STM32F0xx_HAL_Driver/Src/stm32f0xx_hal_tim_ex.c **** 
1579:Drivers/STM32F0xx_HAL_Driver/Src/stm32f0xx_hal_tim_ex.c ****   /* Select the Capture Compare preload feature */
1580:Drivers/STM32F0xx_HAL_Driver/Src/stm32f0xx_hal_tim_ex.c ****   htim->Instance->CR2 |= TIM_CR2_CCPC;
 3349              		.loc 1 1580 0
 3350 005a FB68     		ldr	r3, [r7, #12]
 3351 005c 1B68     		ldr	r3, [r3]
 3352 005e FA68     		ldr	r2, [r7, #12]
 3353 0060 1268     		ldr	r2, [r2]
 3354 0062 5268     		ldr	r2, [r2, #4]
 3355 0064 0121     		movs	r1, #1
 3356 0066 0A43     		orrs	r2, r1
 3357 0068 5A60     		str	r2, [r3, #4]
1581:Drivers/STM32F0xx_HAL_Driver/Src/stm32f0xx_hal_tim_ex.c ****   /* Select the Commutation event source */
1582:Drivers/STM32F0xx_HAL_Driver/Src/stm32f0xx_hal_tim_ex.c ****   htim->Instance->CR2 &= ~TIM_CR2_CCUS;
 3358              		.loc 1 1582 0
 3359 006a FB68     		ldr	r3, [r7, #12]
 3360 006c 1B68     		ldr	r3, [r3]
 3361 006e FA68     		ldr	r2, [r7, #12]
 3362 0070 1268     		ldr	r2, [r2]
 3363 0072 5268     		ldr	r2, [r2, #4]
 3364 0074 0421     		movs	r1, #4
 3365 0076 8A43     		bics	r2, r1
 3366 0078 5A60     		str	r2, [r3, #4]
1583:Drivers/STM32F0xx_HAL_Driver/Src/stm32f0xx_hal_tim_ex.c ****   htim->Instance->CR2 |= CommutationSource;
 3367              		.loc 1 1583 0
 3368 007a FB68     		ldr	r3, [r7, #12]
 3369 007c 1B68     		ldr	r3, [r3]
 3370 007e FA68     		ldr	r2, [r7, #12]
 3371 0080 1268     		ldr	r2, [r2]
 3372 0082 5168     		ldr	r1, [r2, #4]
 3373 0084 7A68     		ldr	r2, [r7, #4]
 3374 0086 0A43     		orrs	r2, r1
 3375 0088 5A60     		str	r2, [r3, #4]
1584:Drivers/STM32F0xx_HAL_Driver/Src/stm32f0xx_hal_tim_ex.c **** 
1585:Drivers/STM32F0xx_HAL_Driver/Src/stm32f0xx_hal_tim_ex.c ****   /* Enable the Commutation DMA Request */
1586:Drivers/STM32F0xx_HAL_Driver/Src/stm32f0xx_hal_tim_ex.c ****   /* Set the DMA Commutation Callback */
1587:Drivers/STM32F0xx_HAL_Driver/Src/stm32f0xx_hal_tim_ex.c ****   htim->hdma[TIM_DMA_ID_COMMUTATION]->XferCpltCallback = TIMEx_DMACommutationCplt;
 3376              		.loc 1 1587 0
 3377 008a FB68     		ldr	r3, [r7, #12]
 3378 008c 1B6B     		ldr	r3, [r3, #48]
 3379 008e 0C4A     		ldr	r2, .L186
 3380 0090 9A62     		str	r2, [r3, #40]
1588:Drivers/STM32F0xx_HAL_Driver/Src/stm32f0xx_hal_tim_ex.c ****   /* Set the DMA error callback */
1589:Drivers/STM32F0xx_HAL_Driver/Src/stm32f0xx_hal_tim_ex.c ****   htim->hdma[TIM_DMA_ID_COMMUTATION]->XferErrorCallback = TIM_DMAError;
 3381              		.loc 1 1589 0
 3382 0092 FB68     		ldr	r3, [r7, #12]
 3383 0094 1B6B     		ldr	r3, [r3, #48]
 3384 0096 0B4A     		ldr	r2, .L186+4
 3385 0098 1A63     		str	r2, [r3, #48]
1590:Drivers/STM32F0xx_HAL_Driver/Src/stm32f0xx_hal_tim_ex.c **** 
1591:Drivers/STM32F0xx_HAL_Driver/Src/stm32f0xx_hal_tim_ex.c ****   /* Enable the Commutation DMA Request */
1592:Drivers/STM32F0xx_HAL_Driver/Src/stm32f0xx_hal_tim_ex.c ****   __HAL_TIM_ENABLE_DMA(htim, TIM_DMA_COM);
ARM GAS  /tmp/cct1Lg5Q.s 			page 89


 3386              		.loc 1 1592 0
 3387 009a FB68     		ldr	r3, [r7, #12]
 3388 009c 1B68     		ldr	r3, [r3]
 3389 009e FA68     		ldr	r2, [r7, #12]
 3390 00a0 1268     		ldr	r2, [r2]
 3391 00a2 D268     		ldr	r2, [r2, #12]
 3392 00a4 8021     		movs	r1, #128
 3393 00a6 8901     		lsls	r1, r1, #6
 3394 00a8 0A43     		orrs	r2, r1
 3395 00aa DA60     		str	r2, [r3, #12]
1593:Drivers/STM32F0xx_HAL_Driver/Src/stm32f0xx_hal_tim_ex.c **** 
1594:Drivers/STM32F0xx_HAL_Driver/Src/stm32f0xx_hal_tim_ex.c ****   __HAL_UNLOCK(htim);
 3396              		.loc 1 1594 0
 3397 00ac FB68     		ldr	r3, [r7, #12]
 3398 00ae 3822     		movs	r2, #56
 3399 00b0 0021     		movs	r1, #0
 3400 00b2 9954     		strb	r1, [r3, r2]
1595:Drivers/STM32F0xx_HAL_Driver/Src/stm32f0xx_hal_tim_ex.c **** 
1596:Drivers/STM32F0xx_HAL_Driver/Src/stm32f0xx_hal_tim_ex.c ****   return HAL_OK;
 3401              		.loc 1 1596 0
 3402 00b4 0023     		movs	r3, #0
 3403              	.L183:
1597:Drivers/STM32F0xx_HAL_Driver/Src/stm32f0xx_hal_tim_ex.c **** }
 3404              		.loc 1 1597 0
 3405 00b6 1800     		movs	r0, r3
 3406 00b8 BD46     		mov	sp, r7
 3407 00ba 04B0     		add	sp, sp, #16
 3408              		@ sp needed
 3409 00bc 80BD     		pop	{r7, pc}
 3410              	.L187:
 3411 00be C046     		.align	2
 3412              	.L186:
 3413 00c0 00000000 		.word	TIMEx_DMACommutationCplt
 3414 00c4 00000000 		.word	TIM_DMAError
 3415              		.cfi_endproc
 3416              	.LFE63:
 3418              		.section	.text.HAL_TIMEx_MasterConfigSynchronization,"ax",%progbits
 3419              		.align	1
 3420              		.global	HAL_TIMEx_MasterConfigSynchronization
 3421              		.syntax unified
 3422              		.code	16
 3423              		.thumb_func
 3424              		.fpu softvfp
 3426              	HAL_TIMEx_MasterConfigSynchronization:
 3427              	.LFB64:
1598:Drivers/STM32F0xx_HAL_Driver/Src/stm32f0xx_hal_tim_ex.c **** 
1599:Drivers/STM32F0xx_HAL_Driver/Src/stm32f0xx_hal_tim_ex.c **** /**
1600:Drivers/STM32F0xx_HAL_Driver/Src/stm32f0xx_hal_tim_ex.c ****   * @brief  Configures the TIM in master mode.
1601:Drivers/STM32F0xx_HAL_Driver/Src/stm32f0xx_hal_tim_ex.c ****   * @param  htim : TIM handle.
1602:Drivers/STM32F0xx_HAL_Driver/Src/stm32f0xx_hal_tim_ex.c ****   * @param  sMasterConfig : pointer to a TIM_MasterConfigTypeDef structure that
1603:Drivers/STM32F0xx_HAL_Driver/Src/stm32f0xx_hal_tim_ex.c ****   *         contains the selected trigger output (TRGO) and the Master/Slave 
1604:Drivers/STM32F0xx_HAL_Driver/Src/stm32f0xx_hal_tim_ex.c ****   *         mode.
1605:Drivers/STM32F0xx_HAL_Driver/Src/stm32f0xx_hal_tim_ex.c ****   * @retval HAL status
1606:Drivers/STM32F0xx_HAL_Driver/Src/stm32f0xx_hal_tim_ex.c ****   */
1607:Drivers/STM32F0xx_HAL_Driver/Src/stm32f0xx_hal_tim_ex.c **** HAL_StatusTypeDef HAL_TIMEx_MasterConfigSynchronization(TIM_HandleTypeDef *htim, TIM_MasterConfigTy
1608:Drivers/STM32F0xx_HAL_Driver/Src/stm32f0xx_hal_tim_ex.c **** {
 3428              		.loc 1 1608 0
ARM GAS  /tmp/cct1Lg5Q.s 			page 90


 3429              		.cfi_startproc
 3430 0000 80B5     		push	{r7, lr}
 3431              	.LCFI87:
 3432              		.cfi_def_cfa_offset 8
 3433              		.cfi_offset 7, -8
 3434              		.cfi_offset 14, -4
 3435 0002 82B0     		sub	sp, sp, #8
 3436              	.LCFI88:
 3437              		.cfi_def_cfa_offset 16
 3438 0004 00AF     		add	r7, sp, #0
 3439              	.LCFI89:
 3440              		.cfi_def_cfa_register 7
 3441 0006 7860     		str	r0, [r7, #4]
 3442 0008 3960     		str	r1, [r7]
1609:Drivers/STM32F0xx_HAL_Driver/Src/stm32f0xx_hal_tim_ex.c ****   /* Check the parameters */
1610:Drivers/STM32F0xx_HAL_Driver/Src/stm32f0xx_hal_tim_ex.c ****   assert_param(IS_TIM_MASTER_INSTANCE(htim->Instance));
1611:Drivers/STM32F0xx_HAL_Driver/Src/stm32f0xx_hal_tim_ex.c ****   assert_param(IS_TIM_TRGO_SOURCE(sMasterConfig->MasterOutputTrigger));
1612:Drivers/STM32F0xx_HAL_Driver/Src/stm32f0xx_hal_tim_ex.c ****   assert_param(IS_TIM_MSM_STATE(sMasterConfig->MasterSlaveMode));
1613:Drivers/STM32F0xx_HAL_Driver/Src/stm32f0xx_hal_tim_ex.c **** 
1614:Drivers/STM32F0xx_HAL_Driver/Src/stm32f0xx_hal_tim_ex.c ****   __HAL_LOCK(htim);
 3443              		.loc 1 1614 0
 3444 000a 7B68     		ldr	r3, [r7, #4]
 3445 000c 3822     		movs	r2, #56
 3446 000e 9B5C     		ldrb	r3, [r3, r2]
 3447 0010 012B     		cmp	r3, #1
 3448 0012 01D1     		bne	.L189
 3449              		.loc 1 1614 0 is_stmt 0 discriminator 1
 3450 0014 0223     		movs	r3, #2
 3451 0016 32E0     		b	.L190
 3452              	.L189:
 3453              		.loc 1 1614 0 discriminator 2
 3454 0018 7B68     		ldr	r3, [r7, #4]
 3455 001a 3822     		movs	r2, #56
 3456 001c 0121     		movs	r1, #1
 3457 001e 9954     		strb	r1, [r3, r2]
1615:Drivers/STM32F0xx_HAL_Driver/Src/stm32f0xx_hal_tim_ex.c **** 
1616:Drivers/STM32F0xx_HAL_Driver/Src/stm32f0xx_hal_tim_ex.c ****   htim->State = HAL_TIM_STATE_BUSY;
 3458              		.loc 1 1616 0 is_stmt 1 discriminator 2
 3459 0020 7B68     		ldr	r3, [r7, #4]
 3460 0022 3922     		movs	r2, #57
 3461 0024 0221     		movs	r1, #2
 3462 0026 9954     		strb	r1, [r3, r2]
1617:Drivers/STM32F0xx_HAL_Driver/Src/stm32f0xx_hal_tim_ex.c **** 
1618:Drivers/STM32F0xx_HAL_Driver/Src/stm32f0xx_hal_tim_ex.c ****   /* Reset the MMS Bits */
1619:Drivers/STM32F0xx_HAL_Driver/Src/stm32f0xx_hal_tim_ex.c ****   htim->Instance->CR2 &= ~TIM_CR2_MMS;
 3463              		.loc 1 1619 0 discriminator 2
 3464 0028 7B68     		ldr	r3, [r7, #4]
 3465 002a 1B68     		ldr	r3, [r3]
 3466 002c 7A68     		ldr	r2, [r7, #4]
 3467 002e 1268     		ldr	r2, [r2]
 3468 0030 5268     		ldr	r2, [r2, #4]
 3469 0032 7021     		movs	r1, #112
 3470 0034 8A43     		bics	r2, r1
 3471 0036 5A60     		str	r2, [r3, #4]
1620:Drivers/STM32F0xx_HAL_Driver/Src/stm32f0xx_hal_tim_ex.c ****   /* Select the TRGO source */
1621:Drivers/STM32F0xx_HAL_Driver/Src/stm32f0xx_hal_tim_ex.c ****   htim->Instance->CR2 |=  sMasterConfig->MasterOutputTrigger;
 3472              		.loc 1 1621 0 discriminator 2
ARM GAS  /tmp/cct1Lg5Q.s 			page 91


 3473 0038 7B68     		ldr	r3, [r7, #4]
 3474 003a 1B68     		ldr	r3, [r3]
 3475 003c 7A68     		ldr	r2, [r7, #4]
 3476 003e 1268     		ldr	r2, [r2]
 3477 0040 5168     		ldr	r1, [r2, #4]
 3478 0042 3A68     		ldr	r2, [r7]
 3479 0044 1268     		ldr	r2, [r2]
 3480 0046 0A43     		orrs	r2, r1
 3481 0048 5A60     		str	r2, [r3, #4]
1622:Drivers/STM32F0xx_HAL_Driver/Src/stm32f0xx_hal_tim_ex.c **** 
1623:Drivers/STM32F0xx_HAL_Driver/Src/stm32f0xx_hal_tim_ex.c ****   /* Reset the MSM Bit */
1624:Drivers/STM32F0xx_HAL_Driver/Src/stm32f0xx_hal_tim_ex.c ****   htim->Instance->SMCR &= ~TIM_SMCR_MSM;
 3482              		.loc 1 1624 0 discriminator 2
 3483 004a 7B68     		ldr	r3, [r7, #4]
 3484 004c 1B68     		ldr	r3, [r3]
 3485 004e 7A68     		ldr	r2, [r7, #4]
 3486 0050 1268     		ldr	r2, [r2]
 3487 0052 9268     		ldr	r2, [r2, #8]
 3488 0054 8021     		movs	r1, #128
 3489 0056 8A43     		bics	r2, r1
 3490 0058 9A60     		str	r2, [r3, #8]
1625:Drivers/STM32F0xx_HAL_Driver/Src/stm32f0xx_hal_tim_ex.c ****   /* Set or Reset the MSM Bit */
1626:Drivers/STM32F0xx_HAL_Driver/Src/stm32f0xx_hal_tim_ex.c ****   htim->Instance->SMCR |= sMasterConfig->MasterSlaveMode;
 3491              		.loc 1 1626 0 discriminator 2
 3492 005a 7B68     		ldr	r3, [r7, #4]
 3493 005c 1B68     		ldr	r3, [r3]
 3494 005e 7A68     		ldr	r2, [r7, #4]
 3495 0060 1268     		ldr	r2, [r2]
 3496 0062 9168     		ldr	r1, [r2, #8]
 3497 0064 3A68     		ldr	r2, [r7]
 3498 0066 5268     		ldr	r2, [r2, #4]
 3499 0068 0A43     		orrs	r2, r1
 3500 006a 9A60     		str	r2, [r3, #8]
1627:Drivers/STM32F0xx_HAL_Driver/Src/stm32f0xx_hal_tim_ex.c **** 
1628:Drivers/STM32F0xx_HAL_Driver/Src/stm32f0xx_hal_tim_ex.c ****   htim->State = HAL_TIM_STATE_READY;
 3501              		.loc 1 1628 0 discriminator 2
 3502 006c 7B68     		ldr	r3, [r7, #4]
 3503 006e 3922     		movs	r2, #57
 3504 0070 0121     		movs	r1, #1
 3505 0072 9954     		strb	r1, [r3, r2]
1629:Drivers/STM32F0xx_HAL_Driver/Src/stm32f0xx_hal_tim_ex.c **** 
1630:Drivers/STM32F0xx_HAL_Driver/Src/stm32f0xx_hal_tim_ex.c ****   __HAL_UNLOCK(htim);
 3506              		.loc 1 1630 0 discriminator 2
 3507 0074 7B68     		ldr	r3, [r7, #4]
 3508 0076 3822     		movs	r2, #56
 3509 0078 0021     		movs	r1, #0
 3510 007a 9954     		strb	r1, [r3, r2]
1631:Drivers/STM32F0xx_HAL_Driver/Src/stm32f0xx_hal_tim_ex.c **** 
1632:Drivers/STM32F0xx_HAL_Driver/Src/stm32f0xx_hal_tim_ex.c ****   return HAL_OK;
 3511              		.loc 1 1632 0 discriminator 2
 3512 007c 0023     		movs	r3, #0
 3513              	.L190:
1633:Drivers/STM32F0xx_HAL_Driver/Src/stm32f0xx_hal_tim_ex.c **** }
 3514              		.loc 1 1633 0
 3515 007e 1800     		movs	r0, r3
 3516 0080 BD46     		mov	sp, r7
 3517 0082 02B0     		add	sp, sp, #8
ARM GAS  /tmp/cct1Lg5Q.s 			page 92


 3518              		@ sp needed
 3519 0084 80BD     		pop	{r7, pc}
 3520              		.cfi_endproc
 3521              	.LFE64:
 3523              		.section	.text.HAL_TIMEx_ConfigBreakDeadTime,"ax",%progbits
 3524              		.align	1
 3525              		.global	HAL_TIMEx_ConfigBreakDeadTime
 3526              		.syntax unified
 3527              		.code	16
 3528              		.thumb_func
 3529              		.fpu softvfp
 3531              	HAL_TIMEx_ConfigBreakDeadTime:
 3532              	.LFB65:
1634:Drivers/STM32F0xx_HAL_Driver/Src/stm32f0xx_hal_tim_ex.c **** 
1635:Drivers/STM32F0xx_HAL_Driver/Src/stm32f0xx_hal_tim_ex.c **** /**
1636:Drivers/STM32F0xx_HAL_Driver/Src/stm32f0xx_hal_tim_ex.c ****   * @brief   Configures the Break feature, dead time, Lock level, OSSI/OSSR State
1637:Drivers/STM32F0xx_HAL_Driver/Src/stm32f0xx_hal_tim_ex.c ****   *          and the AOE(automatic output enable).
1638:Drivers/STM32F0xx_HAL_Driver/Src/stm32f0xx_hal_tim_ex.c ****   * @param  htim : TIM handle
1639:Drivers/STM32F0xx_HAL_Driver/Src/stm32f0xx_hal_tim_ex.c ****   * @param  sBreakDeadTimeConfig : pointer to a TIM_ConfigBreakDeadConfigTypeDef structure that
1640:Drivers/STM32F0xx_HAL_Driver/Src/stm32f0xx_hal_tim_ex.c ****   *         contains the BDTR Register configuration  information for the TIM peripheral.
1641:Drivers/STM32F0xx_HAL_Driver/Src/stm32f0xx_hal_tim_ex.c ****   * @retval HAL status
1642:Drivers/STM32F0xx_HAL_Driver/Src/stm32f0xx_hal_tim_ex.c ****   */    
1643:Drivers/STM32F0xx_HAL_Driver/Src/stm32f0xx_hal_tim_ex.c **** HAL_StatusTypeDef HAL_TIMEx_ConfigBreakDeadTime(TIM_HandleTypeDef *htim,
1644:Drivers/STM32F0xx_HAL_Driver/Src/stm32f0xx_hal_tim_ex.c ****                                                 TIM_BreakDeadTimeConfigTypeDef *sBreakDeadTimeConfi
1645:Drivers/STM32F0xx_HAL_Driver/Src/stm32f0xx_hal_tim_ex.c **** {
 3533              		.loc 1 1645 0
 3534              		.cfi_startproc
 3535 0000 80B5     		push	{r7, lr}
 3536              	.LCFI90:
 3537              		.cfi_def_cfa_offset 8
 3538              		.cfi_offset 7, -8
 3539              		.cfi_offset 14, -4
 3540 0002 82B0     		sub	sp, sp, #8
 3541              	.LCFI91:
 3542              		.cfi_def_cfa_offset 16
 3543 0004 00AF     		add	r7, sp, #0
 3544              	.LCFI92:
 3545              		.cfi_def_cfa_register 7
 3546 0006 7860     		str	r0, [r7, #4]
 3547 0008 3960     		str	r1, [r7]
1646:Drivers/STM32F0xx_HAL_Driver/Src/stm32f0xx_hal_tim_ex.c ****   /* Check the parameters */
1647:Drivers/STM32F0xx_HAL_Driver/Src/stm32f0xx_hal_tim_ex.c ****   assert_param(IS_TIM_BREAK_INSTANCE(htim->Instance));
1648:Drivers/STM32F0xx_HAL_Driver/Src/stm32f0xx_hal_tim_ex.c ****   assert_param(IS_TIM_OSSR_STATE(sBreakDeadTimeConfig->OffStateRunMode));
1649:Drivers/STM32F0xx_HAL_Driver/Src/stm32f0xx_hal_tim_ex.c ****   assert_param(IS_TIM_OSSI_STATE(sBreakDeadTimeConfig->OffStateIDLEMode));
1650:Drivers/STM32F0xx_HAL_Driver/Src/stm32f0xx_hal_tim_ex.c ****   assert_param(IS_TIM_LOCK_LEVEL(sBreakDeadTimeConfig->LockLevel));
1651:Drivers/STM32F0xx_HAL_Driver/Src/stm32f0xx_hal_tim_ex.c ****   assert_param(IS_TIM_DEADTIME(sBreakDeadTimeConfig->DeadTime));
1652:Drivers/STM32F0xx_HAL_Driver/Src/stm32f0xx_hal_tim_ex.c ****   assert_param(IS_TIM_BREAK_STATE(sBreakDeadTimeConfig->BreakState));
1653:Drivers/STM32F0xx_HAL_Driver/Src/stm32f0xx_hal_tim_ex.c ****   assert_param(IS_TIM_BREAK_POLARITY(sBreakDeadTimeConfig->BreakPolarity));
1654:Drivers/STM32F0xx_HAL_Driver/Src/stm32f0xx_hal_tim_ex.c ****   assert_param(IS_TIM_AUTOMATIC_OUTPUT_STATE(sBreakDeadTimeConfig->AutomaticOutput));
1655:Drivers/STM32F0xx_HAL_Driver/Src/stm32f0xx_hal_tim_ex.c **** 
1656:Drivers/STM32F0xx_HAL_Driver/Src/stm32f0xx_hal_tim_ex.c ****   /* Process Locked */
1657:Drivers/STM32F0xx_HAL_Driver/Src/stm32f0xx_hal_tim_ex.c ****   __HAL_LOCK(htim);
 3548              		.loc 1 1657 0
 3549 000a 7B68     		ldr	r3, [r7, #4]
 3550 000c 3822     		movs	r2, #56
 3551 000e 9B5C     		ldrb	r3, [r3, r2]
 3552 0010 012B     		cmp	r3, #1
ARM GAS  /tmp/cct1Lg5Q.s 			page 93


 3553 0012 01D1     		bne	.L192
 3554              		.loc 1 1657 0 is_stmt 0 discriminator 1
 3555 0014 0223     		movs	r3, #2
 3556 0016 27E0     		b	.L193
 3557              	.L192:
 3558              		.loc 1 1657 0 discriminator 2
 3559 0018 7B68     		ldr	r3, [r7, #4]
 3560 001a 3822     		movs	r2, #56
 3561 001c 0121     		movs	r1, #1
 3562 001e 9954     		strb	r1, [r3, r2]
1658:Drivers/STM32F0xx_HAL_Driver/Src/stm32f0xx_hal_tim_ex.c **** 
1659:Drivers/STM32F0xx_HAL_Driver/Src/stm32f0xx_hal_tim_ex.c ****   htim->State = HAL_TIM_STATE_BUSY;
 3563              		.loc 1 1659 0 is_stmt 1 discriminator 2
 3564 0020 7B68     		ldr	r3, [r7, #4]
 3565 0022 3922     		movs	r2, #57
 3566 0024 0221     		movs	r1, #2
 3567 0026 9954     		strb	r1, [r3, r2]
1660:Drivers/STM32F0xx_HAL_Driver/Src/stm32f0xx_hal_tim_ex.c **** 
1661:Drivers/STM32F0xx_HAL_Driver/Src/stm32f0xx_hal_tim_ex.c ****   /* Set the Lock level, the Break enable Bit and the Polarity, the OSSR State,
1662:Drivers/STM32F0xx_HAL_Driver/Src/stm32f0xx_hal_tim_ex.c ****      the OSSI State, the dead time value and the Automatic Output Enable Bit */
1663:Drivers/STM32F0xx_HAL_Driver/Src/stm32f0xx_hal_tim_ex.c ****   htim->Instance->BDTR = (uint32_t)sBreakDeadTimeConfig->OffStateRunMode  |
 3568              		.loc 1 1663 0 discriminator 2
 3569 0028 7B68     		ldr	r3, [r7, #4]
 3570 002a 1B68     		ldr	r3, [r3]
 3571 002c 3A68     		ldr	r2, [r7]
 3572 002e 1168     		ldr	r1, [r2]
1664:Drivers/STM32F0xx_HAL_Driver/Src/stm32f0xx_hal_tim_ex.c ****                                    sBreakDeadTimeConfig->OffStateIDLEMode |
 3573              		.loc 1 1664 0 discriminator 2
 3574 0030 3A68     		ldr	r2, [r7]
 3575 0032 5268     		ldr	r2, [r2, #4]
1663:Drivers/STM32F0xx_HAL_Driver/Src/stm32f0xx_hal_tim_ex.c ****                                    sBreakDeadTimeConfig->OffStateIDLEMode |
 3576              		.loc 1 1663 0 discriminator 2
 3577 0034 1143     		orrs	r1, r2
1665:Drivers/STM32F0xx_HAL_Driver/Src/stm32f0xx_hal_tim_ex.c ****                                    sBreakDeadTimeConfig->LockLevel        |
 3578              		.loc 1 1665 0 discriminator 2
 3579 0036 3A68     		ldr	r2, [r7]
 3580 0038 9268     		ldr	r2, [r2, #8]
1664:Drivers/STM32F0xx_HAL_Driver/Src/stm32f0xx_hal_tim_ex.c ****                                    sBreakDeadTimeConfig->OffStateIDLEMode |
 3581              		.loc 1 1664 0 discriminator 2
 3582 003a 1143     		orrs	r1, r2
1666:Drivers/STM32F0xx_HAL_Driver/Src/stm32f0xx_hal_tim_ex.c ****                                    sBreakDeadTimeConfig->DeadTime         |
 3583              		.loc 1 1666 0 discriminator 2
 3584 003c 3A68     		ldr	r2, [r7]
 3585 003e D268     		ldr	r2, [r2, #12]
1665:Drivers/STM32F0xx_HAL_Driver/Src/stm32f0xx_hal_tim_ex.c ****                                    sBreakDeadTimeConfig->LockLevel        |
 3586              		.loc 1 1665 0 discriminator 2
 3587 0040 1143     		orrs	r1, r2
1667:Drivers/STM32F0xx_HAL_Driver/Src/stm32f0xx_hal_tim_ex.c ****                                    sBreakDeadTimeConfig->BreakState       |
 3588              		.loc 1 1667 0 discriminator 2
 3589 0042 3A68     		ldr	r2, [r7]
 3590 0044 1269     		ldr	r2, [r2, #16]
1666:Drivers/STM32F0xx_HAL_Driver/Src/stm32f0xx_hal_tim_ex.c ****                                    sBreakDeadTimeConfig->DeadTime         |
 3591              		.loc 1 1666 0 discriminator 2
 3592 0046 1143     		orrs	r1, r2
1668:Drivers/STM32F0xx_HAL_Driver/Src/stm32f0xx_hal_tim_ex.c ****                                    sBreakDeadTimeConfig->BreakPolarity    |
 3593              		.loc 1 1668 0 discriminator 2
 3594 0048 3A68     		ldr	r2, [r7]
ARM GAS  /tmp/cct1Lg5Q.s 			page 94


 3595 004a 5269     		ldr	r2, [r2, #20]
1667:Drivers/STM32F0xx_HAL_Driver/Src/stm32f0xx_hal_tim_ex.c ****                                    sBreakDeadTimeConfig->BreakState       |
 3596              		.loc 1 1667 0 discriminator 2
 3597 004c 1143     		orrs	r1, r2
1669:Drivers/STM32F0xx_HAL_Driver/Src/stm32f0xx_hal_tim_ex.c ****                                    sBreakDeadTimeConfig->AutomaticOutput;
 3598              		.loc 1 1669 0 discriminator 2
 3599 004e 3A68     		ldr	r2, [r7]
 3600 0050 9269     		ldr	r2, [r2, #24]
1668:Drivers/STM32F0xx_HAL_Driver/Src/stm32f0xx_hal_tim_ex.c ****                                    sBreakDeadTimeConfig->BreakPolarity    |
 3601              		.loc 1 1668 0 discriminator 2
 3602 0052 0A43     		orrs	r2, r1
1663:Drivers/STM32F0xx_HAL_Driver/Src/stm32f0xx_hal_tim_ex.c ****                                    sBreakDeadTimeConfig->OffStateIDLEMode |
 3603              		.loc 1 1663 0 discriminator 2
 3604 0054 5A64     		str	r2, [r3, #68]
1670:Drivers/STM32F0xx_HAL_Driver/Src/stm32f0xx_hal_tim_ex.c **** 
1671:Drivers/STM32F0xx_HAL_Driver/Src/stm32f0xx_hal_tim_ex.c **** 
1672:Drivers/STM32F0xx_HAL_Driver/Src/stm32f0xx_hal_tim_ex.c ****   htim->State = HAL_TIM_STATE_READY;
 3605              		.loc 1 1672 0 discriminator 2
 3606 0056 7B68     		ldr	r3, [r7, #4]
 3607 0058 3922     		movs	r2, #57
 3608 005a 0121     		movs	r1, #1
 3609 005c 9954     		strb	r1, [r3, r2]
1673:Drivers/STM32F0xx_HAL_Driver/Src/stm32f0xx_hal_tim_ex.c **** 
1674:Drivers/STM32F0xx_HAL_Driver/Src/stm32f0xx_hal_tim_ex.c ****   __HAL_UNLOCK(htim);
 3610              		.loc 1 1674 0 discriminator 2
 3611 005e 7B68     		ldr	r3, [r7, #4]
 3612 0060 3822     		movs	r2, #56
 3613 0062 0021     		movs	r1, #0
 3614 0064 9954     		strb	r1, [r3, r2]
1675:Drivers/STM32F0xx_HAL_Driver/Src/stm32f0xx_hal_tim_ex.c **** 
1676:Drivers/STM32F0xx_HAL_Driver/Src/stm32f0xx_hal_tim_ex.c ****   return HAL_OK;
 3615              		.loc 1 1676 0 discriminator 2
 3616 0066 0023     		movs	r3, #0
 3617              	.L193:
1677:Drivers/STM32F0xx_HAL_Driver/Src/stm32f0xx_hal_tim_ex.c **** }
 3618              		.loc 1 1677 0
 3619 0068 1800     		movs	r0, r3
 3620 006a BD46     		mov	sp, r7
 3621 006c 02B0     		add	sp, sp, #8
 3622              		@ sp needed
 3623 006e 80BD     		pop	{r7, pc}
 3624              		.cfi_endproc
 3625              	.LFE65:
 3627              		.section	.text.HAL_TIMEx_RemapConfig,"ax",%progbits
 3628              		.align	1
 3629              		.global	HAL_TIMEx_RemapConfig
 3630              		.syntax unified
 3631              		.code	16
 3632              		.thumb_func
 3633              		.fpu softvfp
 3635              	HAL_TIMEx_RemapConfig:
 3636              	.LFB66:
1678:Drivers/STM32F0xx_HAL_Driver/Src/stm32f0xx_hal_tim_ex.c **** 
1679:Drivers/STM32F0xx_HAL_Driver/Src/stm32f0xx_hal_tim_ex.c **** /**
1680:Drivers/STM32F0xx_HAL_Driver/Src/stm32f0xx_hal_tim_ex.c ****   * @brief  Configures the TIM14 Remapping input capabilities.
1681:Drivers/STM32F0xx_HAL_Driver/Src/stm32f0xx_hal_tim_ex.c ****   * @param  htim : TIM handle.
1682:Drivers/STM32F0xx_HAL_Driver/Src/stm32f0xx_hal_tim_ex.c ****   * @param  Remap : specifies the TIM remapping source.
ARM GAS  /tmp/cct1Lg5Q.s 			page 95


1683:Drivers/STM32F0xx_HAL_Driver/Src/stm32f0xx_hal_tim_ex.c ****   *          This parameter can be one of the following values:
1684:Drivers/STM32F0xx_HAL_Driver/Src/stm32f0xx_hal_tim_ex.c ****   *            @arg TIM_TIM14_GPIO: TIM14 TI1 is connected to GPIO
1685:Drivers/STM32F0xx_HAL_Driver/Src/stm32f0xx_hal_tim_ex.c ****   *            @arg TIM_TIM14_RTC: TIM14 TI1 is connected to RTC_clock
1686:Drivers/STM32F0xx_HAL_Driver/Src/stm32f0xx_hal_tim_ex.c ****   *            @arg TIM_TIM14_HSE: TIM14 TI1 is connected to HSE/32
1687:Drivers/STM32F0xx_HAL_Driver/Src/stm32f0xx_hal_tim_ex.c ****   *            @arg TIM_TIM14_MCO: TIM14 TI1 is connected to MCO
1688:Drivers/STM32F0xx_HAL_Driver/Src/stm32f0xx_hal_tim_ex.c ****   * @retval HAL status
1689:Drivers/STM32F0xx_HAL_Driver/Src/stm32f0xx_hal_tim_ex.c ****   */
1690:Drivers/STM32F0xx_HAL_Driver/Src/stm32f0xx_hal_tim_ex.c **** HAL_StatusTypeDef HAL_TIMEx_RemapConfig(TIM_HandleTypeDef *htim, uint32_t Remap)
1691:Drivers/STM32F0xx_HAL_Driver/Src/stm32f0xx_hal_tim_ex.c **** {
 3637              		.loc 1 1691 0
 3638              		.cfi_startproc
 3639 0000 80B5     		push	{r7, lr}
 3640              	.LCFI93:
 3641              		.cfi_def_cfa_offset 8
 3642              		.cfi_offset 7, -8
 3643              		.cfi_offset 14, -4
 3644 0002 82B0     		sub	sp, sp, #8
 3645              	.LCFI94:
 3646              		.cfi_def_cfa_offset 16
 3647 0004 00AF     		add	r7, sp, #0
 3648              	.LCFI95:
 3649              		.cfi_def_cfa_register 7
 3650 0006 7860     		str	r0, [r7, #4]
 3651 0008 3960     		str	r1, [r7]
1692:Drivers/STM32F0xx_HAL_Driver/Src/stm32f0xx_hal_tim_ex.c ****   __HAL_LOCK(htim);
 3652              		.loc 1 1692 0
 3653 000a 7B68     		ldr	r3, [r7, #4]
 3654 000c 3822     		movs	r2, #56
 3655 000e 9B5C     		ldrb	r3, [r3, r2]
 3656 0010 012B     		cmp	r3, #1
 3657 0012 01D1     		bne	.L195
 3658              		.loc 1 1692 0 is_stmt 0 discriminator 1
 3659 0014 0223     		movs	r3, #2
 3660 0016 10E0     		b	.L196
 3661              	.L195:
 3662              		.loc 1 1692 0 discriminator 2
 3663 0018 7B68     		ldr	r3, [r7, #4]
 3664 001a 3822     		movs	r2, #56
 3665 001c 0121     		movs	r1, #1
 3666 001e 9954     		strb	r1, [r3, r2]
1693:Drivers/STM32F0xx_HAL_Driver/Src/stm32f0xx_hal_tim_ex.c **** 
1694:Drivers/STM32F0xx_HAL_Driver/Src/stm32f0xx_hal_tim_ex.c ****   /* Check parameters */
1695:Drivers/STM32F0xx_HAL_Driver/Src/stm32f0xx_hal_tim_ex.c ****   assert_param(IS_TIM_REMAP_INSTANCE(htim->Instance));
1696:Drivers/STM32F0xx_HAL_Driver/Src/stm32f0xx_hal_tim_ex.c ****   assert_param(IS_TIM_REMAP(Remap));
1697:Drivers/STM32F0xx_HAL_Driver/Src/stm32f0xx_hal_tim_ex.c **** 
1698:Drivers/STM32F0xx_HAL_Driver/Src/stm32f0xx_hal_tim_ex.c ****   /* Set the Timer remapping configuration */
1699:Drivers/STM32F0xx_HAL_Driver/Src/stm32f0xx_hal_tim_ex.c ****   htim->Instance->OR = Remap;
 3667              		.loc 1 1699 0 is_stmt 1 discriminator 2
 3668 0020 7B68     		ldr	r3, [r7, #4]
 3669 0022 1B68     		ldr	r3, [r3]
 3670 0024 3A68     		ldr	r2, [r7]
 3671 0026 1A65     		str	r2, [r3, #80]
1700:Drivers/STM32F0xx_HAL_Driver/Src/stm32f0xx_hal_tim_ex.c **** 
1701:Drivers/STM32F0xx_HAL_Driver/Src/stm32f0xx_hal_tim_ex.c ****   htim->State = HAL_TIM_STATE_READY;
 3672              		.loc 1 1701 0 discriminator 2
 3673 0028 7B68     		ldr	r3, [r7, #4]
 3674 002a 3922     		movs	r2, #57
ARM GAS  /tmp/cct1Lg5Q.s 			page 96


 3675 002c 0121     		movs	r1, #1
 3676 002e 9954     		strb	r1, [r3, r2]
1702:Drivers/STM32F0xx_HAL_Driver/Src/stm32f0xx_hal_tim_ex.c **** 
1703:Drivers/STM32F0xx_HAL_Driver/Src/stm32f0xx_hal_tim_ex.c ****   __HAL_UNLOCK(htim);
 3677              		.loc 1 1703 0 discriminator 2
 3678 0030 7B68     		ldr	r3, [r7, #4]
 3679 0032 3822     		movs	r2, #56
 3680 0034 0021     		movs	r1, #0
 3681 0036 9954     		strb	r1, [r3, r2]
1704:Drivers/STM32F0xx_HAL_Driver/Src/stm32f0xx_hal_tim_ex.c **** 
1705:Drivers/STM32F0xx_HAL_Driver/Src/stm32f0xx_hal_tim_ex.c ****   return HAL_OK;
 3682              		.loc 1 1705 0 discriminator 2
 3683 0038 0023     		movs	r3, #0
 3684              	.L196:
1706:Drivers/STM32F0xx_HAL_Driver/Src/stm32f0xx_hal_tim_ex.c **** }
 3685              		.loc 1 1706 0
 3686 003a 1800     		movs	r0, r3
 3687 003c BD46     		mov	sp, r7
 3688 003e 02B0     		add	sp, sp, #8
 3689              		@ sp needed
 3690 0040 80BD     		pop	{r7, pc}
 3691              		.cfi_endproc
 3692              	.LFE66:
 3694              		.section	.text.HAL_TIM_ConfigOCrefClear,"ax",%progbits
 3695              		.align	1
 3696              		.global	HAL_TIM_ConfigOCrefClear
 3697              		.syntax unified
 3698              		.code	16
 3699              		.thumb_func
 3700              		.fpu softvfp
 3702              	HAL_TIM_ConfigOCrefClear:
 3703              	.LFB67:
1707:Drivers/STM32F0xx_HAL_Driver/Src/stm32f0xx_hal_tim_ex.c **** 
1708:Drivers/STM32F0xx_HAL_Driver/Src/stm32f0xx_hal_tim_ex.c **** /**
1709:Drivers/STM32F0xx_HAL_Driver/Src/stm32f0xx_hal_tim_ex.c ****   * @}
1710:Drivers/STM32F0xx_HAL_Driver/Src/stm32f0xx_hal_tim_ex.c ****   */
1711:Drivers/STM32F0xx_HAL_Driver/Src/stm32f0xx_hal_tim_ex.c **** 
1712:Drivers/STM32F0xx_HAL_Driver/Src/stm32f0xx_hal_tim_ex.c **** /** @addtogroup TIM_Exported_Functions_Group8 Peripheral Control functions
1713:Drivers/STM32F0xx_HAL_Driver/Src/stm32f0xx_hal_tim_ex.c ****  *  @brief    Peripheral Control functions 
1714:Drivers/STM32F0xx_HAL_Driver/Src/stm32f0xx_hal_tim_ex.c ****  *
1715:Drivers/STM32F0xx_HAL_Driver/Src/stm32f0xx_hal_tim_ex.c ****   * @{
1716:Drivers/STM32F0xx_HAL_Driver/Src/stm32f0xx_hal_tim_ex.c ****   */
1717:Drivers/STM32F0xx_HAL_Driver/Src/stm32f0xx_hal_tim_ex.c **** 
1718:Drivers/STM32F0xx_HAL_Driver/Src/stm32f0xx_hal_tim_ex.c **** #if defined(STM32F051x8) || defined(STM32F058xx) || \
1719:Drivers/STM32F0xx_HAL_Driver/Src/stm32f0xx_hal_tim_ex.c ****     defined(STM32F071xB) || defined(STM32F072xB) || defined(STM32F078xx) || \
1720:Drivers/STM32F0xx_HAL_Driver/Src/stm32f0xx_hal_tim_ex.c ****     defined(STM32F091xC) || defined (STM32F098xx)
1721:Drivers/STM32F0xx_HAL_Driver/Src/stm32f0xx_hal_tim_ex.c **** /**
1722:Drivers/STM32F0xx_HAL_Driver/Src/stm32f0xx_hal_tim_ex.c ****   * @brief  Configures the OCRef clear feature
1723:Drivers/STM32F0xx_HAL_Driver/Src/stm32f0xx_hal_tim_ex.c ****   * @param  htim: TIM handle
1724:Drivers/STM32F0xx_HAL_Driver/Src/stm32f0xx_hal_tim_ex.c ****   * @param  sClearInputConfig: pointer to a TIM_ClearInputConfigTypeDef structure that
1725:Drivers/STM32F0xx_HAL_Driver/Src/stm32f0xx_hal_tim_ex.c ****   *         contains the OCREF clear feature and parameters for the TIM peripheral. 
1726:Drivers/STM32F0xx_HAL_Driver/Src/stm32f0xx_hal_tim_ex.c ****   * @param  Channel: specifies the TIM Channel
1727:Drivers/STM32F0xx_HAL_Driver/Src/stm32f0xx_hal_tim_ex.c ****   *          This parameter can be one of the following values:
1728:Drivers/STM32F0xx_HAL_Driver/Src/stm32f0xx_hal_tim_ex.c ****   *            @arg TIM_CHANNEL_1: TIM Channel 1
1729:Drivers/STM32F0xx_HAL_Driver/Src/stm32f0xx_hal_tim_ex.c ****   *            @arg TIM_CHANNEL_2: TIM Channel 2
1730:Drivers/STM32F0xx_HAL_Driver/Src/stm32f0xx_hal_tim_ex.c ****   *            @arg TIM_CHANNEL_3: TIM Channel 3
1731:Drivers/STM32F0xx_HAL_Driver/Src/stm32f0xx_hal_tim_ex.c ****   *            @arg TIM_CHANNEL_4: TIM Channel 4
ARM GAS  /tmp/cct1Lg5Q.s 			page 97


1732:Drivers/STM32F0xx_HAL_Driver/Src/stm32f0xx_hal_tim_ex.c ****   *            @arg TIM_Channel_5: TIM Channel 5
1733:Drivers/STM32F0xx_HAL_Driver/Src/stm32f0xx_hal_tim_ex.c ****   * @retval None
1734:Drivers/STM32F0xx_HAL_Driver/Src/stm32f0xx_hal_tim_ex.c ****   */ 
1735:Drivers/STM32F0xx_HAL_Driver/Src/stm32f0xx_hal_tim_ex.c **** HAL_StatusTypeDef HAL_TIM_ConfigOCrefClear(TIM_HandleTypeDef *htim,
1736:Drivers/STM32F0xx_HAL_Driver/Src/stm32f0xx_hal_tim_ex.c ****                                            TIM_ClearInputConfigTypeDef *sClearInputConfig,
1737:Drivers/STM32F0xx_HAL_Driver/Src/stm32f0xx_hal_tim_ex.c ****                                            uint32_t Channel)
1738:Drivers/STM32F0xx_HAL_Driver/Src/stm32f0xx_hal_tim_ex.c **** { 
 3704              		.loc 1 1738 0
 3705              		.cfi_startproc
 3706 0000 80B5     		push	{r7, lr}
 3707              	.LCFI96:
 3708              		.cfi_def_cfa_offset 8
 3709              		.cfi_offset 7, -8
 3710              		.cfi_offset 14, -4
 3711 0002 86B0     		sub	sp, sp, #24
 3712              	.LCFI97:
 3713              		.cfi_def_cfa_offset 32
 3714 0004 00AF     		add	r7, sp, #0
 3715              	.LCFI98:
 3716              		.cfi_def_cfa_register 7
 3717 0006 F860     		str	r0, [r7, #12]
 3718 0008 B960     		str	r1, [r7, #8]
 3719 000a 7A60     		str	r2, [r7, #4]
1739:Drivers/STM32F0xx_HAL_Driver/Src/stm32f0xx_hal_tim_ex.c ****   uint32_t tmpsmcr = 0;
 3720              		.loc 1 1739 0
 3721 000c 0023     		movs	r3, #0
 3722 000e 7B61     		str	r3, [r7, #20]
1740:Drivers/STM32F0xx_HAL_Driver/Src/stm32f0xx_hal_tim_ex.c **** 
1741:Drivers/STM32F0xx_HAL_Driver/Src/stm32f0xx_hal_tim_ex.c ****   /* Check the parameters */ 
1742:Drivers/STM32F0xx_HAL_Driver/Src/stm32f0xx_hal_tim_ex.c ****   assert_param(IS_TIM_OCXREF_CLEAR_INSTANCE(htim->Instance));
1743:Drivers/STM32F0xx_HAL_Driver/Src/stm32f0xx_hal_tim_ex.c ****   assert_param(IS_TIM_CLEARINPUT_SOURCE(sClearInputConfig->ClearInputSource));
1744:Drivers/STM32F0xx_HAL_Driver/Src/stm32f0xx_hal_tim_ex.c ****                                         
1745:Drivers/STM32F0xx_HAL_Driver/Src/stm32f0xx_hal_tim_ex.c ****   /* Check input state */
1746:Drivers/STM32F0xx_HAL_Driver/Src/stm32f0xx_hal_tim_ex.c ****   __HAL_LOCK(htim);
 3723              		.loc 1 1746 0
 3724 0010 FB68     		ldr	r3, [r7, #12]
 3725 0012 3822     		movs	r2, #56
 3726 0014 9B5C     		ldrb	r3, [r3, r2]
 3727 0016 012B     		cmp	r3, #1
 3728 0018 01D1     		bne	.L198
 3729              		.loc 1 1746 0 is_stmt 0 discriminator 1
 3730 001a 0223     		movs	r3, #2
 3731 001c ABE0     		b	.L199
 3732              	.L198:
 3733              		.loc 1 1746 0 discriminator 2
 3734 001e FB68     		ldr	r3, [r7, #12]
 3735 0020 3822     		movs	r2, #56
 3736 0022 0121     		movs	r1, #1
 3737 0024 9954     		strb	r1, [r3, r2]
1747:Drivers/STM32F0xx_HAL_Driver/Src/stm32f0xx_hal_tim_ex.c **** 
1748:Drivers/STM32F0xx_HAL_Driver/Src/stm32f0xx_hal_tim_ex.c ****   htim->State = HAL_TIM_STATE_BUSY;
 3738              		.loc 1 1748 0 is_stmt 1 discriminator 2
 3739 0026 FB68     		ldr	r3, [r7, #12]
 3740 0028 3922     		movs	r2, #57
 3741 002a 0221     		movs	r1, #2
 3742 002c 9954     		strb	r1, [r3, r2]
1749:Drivers/STM32F0xx_HAL_Driver/Src/stm32f0xx_hal_tim_ex.c ****   
ARM GAS  /tmp/cct1Lg5Q.s 			page 98


1750:Drivers/STM32F0xx_HAL_Driver/Src/stm32f0xx_hal_tim_ex.c ****   switch (sClearInputConfig->ClearInputSource)
 3743              		.loc 1 1750 0 discriminator 2
 3744 002e BB68     		ldr	r3, [r7, #8]
 3745 0030 5B68     		ldr	r3, [r3, #4]
 3746 0032 012B     		cmp	r3, #1
 3747 0034 1DD0     		beq	.L201
 3748 0036 02D3     		bcc	.L202
 3749 0038 022B     		cmp	r3, #2
 3750 003a 11D0     		beq	.L203
1751:Drivers/STM32F0xx_HAL_Driver/Src/stm32f0xx_hal_tim_ex.c ****   {
1752:Drivers/STM32F0xx_HAL_Driver/Src/stm32f0xx_hal_tim_ex.c ****     case TIM_CLEARINPUTSOURCE_NONE:
1753:Drivers/STM32F0xx_HAL_Driver/Src/stm32f0xx_hal_tim_ex.c ****     {
1754:Drivers/STM32F0xx_HAL_Driver/Src/stm32f0xx_hal_tim_ex.c ****       /* Get the TIMx SMCR register value */
1755:Drivers/STM32F0xx_HAL_Driver/Src/stm32f0xx_hal_tim_ex.c ****       tmpsmcr = htim->Instance->SMCR;
1756:Drivers/STM32F0xx_HAL_Driver/Src/stm32f0xx_hal_tim_ex.c ****       
1757:Drivers/STM32F0xx_HAL_Driver/Src/stm32f0xx_hal_tim_ex.c ****       /* Clear the OCREF clear selection bit */
1758:Drivers/STM32F0xx_HAL_Driver/Src/stm32f0xx_hal_tim_ex.c ****       tmpsmcr &= ~TIM_SMCR_OCCS;
1759:Drivers/STM32F0xx_HAL_Driver/Src/stm32f0xx_hal_tim_ex.c ****       
1760:Drivers/STM32F0xx_HAL_Driver/Src/stm32f0xx_hal_tim_ex.c ****       /* Clear the ETR Bits */
1761:Drivers/STM32F0xx_HAL_Driver/Src/stm32f0xx_hal_tim_ex.c ****       tmpsmcr &= ~(TIM_SMCR_ETF | TIM_SMCR_ETPS | TIM_SMCR_ECE | TIM_SMCR_ETP);
1762:Drivers/STM32F0xx_HAL_Driver/Src/stm32f0xx_hal_tim_ex.c ****       
1763:Drivers/STM32F0xx_HAL_Driver/Src/stm32f0xx_hal_tim_ex.c ****       /* Set TIMx_SMCR */
1764:Drivers/STM32F0xx_HAL_Driver/Src/stm32f0xx_hal_tim_ex.c ****       htim->Instance->SMCR = tmpsmcr;
1765:Drivers/STM32F0xx_HAL_Driver/Src/stm32f0xx_hal_tim_ex.c ****    }
1766:Drivers/STM32F0xx_HAL_Driver/Src/stm32f0xx_hal_tim_ex.c ****     break;
1767:Drivers/STM32F0xx_HAL_Driver/Src/stm32f0xx_hal_tim_ex.c ****     
1768:Drivers/STM32F0xx_HAL_Driver/Src/stm32f0xx_hal_tim_ex.c ****     case TIM_CLEARINPUTSOURCE_OCREFCLR:
1769:Drivers/STM32F0xx_HAL_Driver/Src/stm32f0xx_hal_tim_ex.c ****     {
1770:Drivers/STM32F0xx_HAL_Driver/Src/stm32f0xx_hal_tim_ex.c ****       /* Clear the OCREF clear selection bit */
1771:Drivers/STM32F0xx_HAL_Driver/Src/stm32f0xx_hal_tim_ex.c ****       htim->Instance->SMCR &= ~TIM_SMCR_OCCS;
1772:Drivers/STM32F0xx_HAL_Driver/Src/stm32f0xx_hal_tim_ex.c ****     }
1773:Drivers/STM32F0xx_HAL_Driver/Src/stm32f0xx_hal_tim_ex.c ****     break;
1774:Drivers/STM32F0xx_HAL_Driver/Src/stm32f0xx_hal_tim_ex.c ****     
1775:Drivers/STM32F0xx_HAL_Driver/Src/stm32f0xx_hal_tim_ex.c ****     case TIM_CLEARINPUTSOURCE_ETR:
1776:Drivers/STM32F0xx_HAL_Driver/Src/stm32f0xx_hal_tim_ex.c ****     {
1777:Drivers/STM32F0xx_HAL_Driver/Src/stm32f0xx_hal_tim_ex.c ****       /* Check the parameters */ 
1778:Drivers/STM32F0xx_HAL_Driver/Src/stm32f0xx_hal_tim_ex.c ****       assert_param(IS_TIM_CLEARINPUT_POLARITY(sClearInputConfig->ClearInputPolarity));
1779:Drivers/STM32F0xx_HAL_Driver/Src/stm32f0xx_hal_tim_ex.c ****       assert_param(IS_TIM_CLEARINPUT_PRESCALER(sClearInputConfig->ClearInputPrescaler));
1780:Drivers/STM32F0xx_HAL_Driver/Src/stm32f0xx_hal_tim_ex.c ****       assert_param(IS_TIM_CLEARINPUT_FILTER(sClearInputConfig->ClearInputFilter));
1781:Drivers/STM32F0xx_HAL_Driver/Src/stm32f0xx_hal_tim_ex.c ****       
1782:Drivers/STM32F0xx_HAL_Driver/Src/stm32f0xx_hal_tim_ex.c ****       TIM_ETR_SetConfig(htim->Instance,
1783:Drivers/STM32F0xx_HAL_Driver/Src/stm32f0xx_hal_tim_ex.c ****                         sClearInputConfig->ClearInputPrescaler,
1784:Drivers/STM32F0xx_HAL_Driver/Src/stm32f0xx_hal_tim_ex.c ****                         sClearInputConfig->ClearInputPolarity,
1785:Drivers/STM32F0xx_HAL_Driver/Src/stm32f0xx_hal_tim_ex.c ****                         sClearInputConfig->ClearInputFilter);
1786:Drivers/STM32F0xx_HAL_Driver/Src/stm32f0xx_hal_tim_ex.c ****       
1787:Drivers/STM32F0xx_HAL_Driver/Src/stm32f0xx_hal_tim_ex.c ****       /* Set the OCREF clear selection bit */
1788:Drivers/STM32F0xx_HAL_Driver/Src/stm32f0xx_hal_tim_ex.c ****       htim->Instance->SMCR |= TIM_SMCR_OCCS;
1789:Drivers/STM32F0xx_HAL_Driver/Src/stm32f0xx_hal_tim_ex.c ****     }
1790:Drivers/STM32F0xx_HAL_Driver/Src/stm32f0xx_hal_tim_ex.c ****     break;
1791:Drivers/STM32F0xx_HAL_Driver/Src/stm32f0xx_hal_tim_ex.c ****     default:
1792:Drivers/STM32F0xx_HAL_Driver/Src/stm32f0xx_hal_tim_ex.c ****     break;
 3751              		.loc 1 1792 0 discriminator 2
 3752 003c 2CE0     		b	.L204
 3753              	.L202:
1755:Drivers/STM32F0xx_HAL_Driver/Src/stm32f0xx_hal_tim_ex.c ****       
 3754              		.loc 1 1755 0
 3755 003e FB68     		ldr	r3, [r7, #12]
ARM GAS  /tmp/cct1Lg5Q.s 			page 99


 3756 0040 1B68     		ldr	r3, [r3]
 3757 0042 9B68     		ldr	r3, [r3, #8]
 3758 0044 7B61     		str	r3, [r7, #20]
1758:Drivers/STM32F0xx_HAL_Driver/Src/stm32f0xx_hal_tim_ex.c ****       
 3759              		.loc 1 1758 0
 3760 0046 7B69     		ldr	r3, [r7, #20]
 3761 0048 0822     		movs	r2, #8
 3762 004a 9343     		bics	r3, r2
 3763 004c 7B61     		str	r3, [r7, #20]
1761:Drivers/STM32F0xx_HAL_Driver/Src/stm32f0xx_hal_tim_ex.c ****       
 3764              		.loc 1 1761 0
 3765 004e 7B69     		ldr	r3, [r7, #20]
 3766 0050 4B4A     		ldr	r2, .L221
 3767 0052 1340     		ands	r3, r2
 3768 0054 7B61     		str	r3, [r7, #20]
1764:Drivers/STM32F0xx_HAL_Driver/Src/stm32f0xx_hal_tim_ex.c ****    }
 3769              		.loc 1 1764 0
 3770 0056 FB68     		ldr	r3, [r7, #12]
 3771 0058 1B68     		ldr	r3, [r3]
 3772 005a 7A69     		ldr	r2, [r7, #20]
 3773 005c 9A60     		str	r2, [r3, #8]
1766:Drivers/STM32F0xx_HAL_Driver/Src/stm32f0xx_hal_tim_ex.c ****     
 3774              		.loc 1 1766 0
 3775 005e 1BE0     		b	.L204
 3776              	.L203:
1771:Drivers/STM32F0xx_HAL_Driver/Src/stm32f0xx_hal_tim_ex.c ****     }
 3777              		.loc 1 1771 0
 3778 0060 FB68     		ldr	r3, [r7, #12]
 3779 0062 1B68     		ldr	r3, [r3]
 3780 0064 FA68     		ldr	r2, [r7, #12]
 3781 0066 1268     		ldr	r2, [r2]
 3782 0068 9268     		ldr	r2, [r2, #8]
 3783 006a 0821     		movs	r1, #8
 3784 006c 8A43     		bics	r2, r1
 3785 006e 9A60     		str	r2, [r3, #8]
1773:Drivers/STM32F0xx_HAL_Driver/Src/stm32f0xx_hal_tim_ex.c ****     
 3786              		.loc 1 1773 0
 3787 0070 12E0     		b	.L204
 3788              	.L201:
1782:Drivers/STM32F0xx_HAL_Driver/Src/stm32f0xx_hal_tim_ex.c ****                         sClearInputConfig->ClearInputPrescaler,
 3789              		.loc 1 1782 0
 3790 0072 FB68     		ldr	r3, [r7, #12]
 3791 0074 1868     		ldr	r0, [r3]
 3792 0076 BB68     		ldr	r3, [r7, #8]
 3793 0078 D968     		ldr	r1, [r3, #12]
 3794 007a BB68     		ldr	r3, [r7, #8]
 3795 007c 9A68     		ldr	r2, [r3, #8]
 3796 007e BB68     		ldr	r3, [r7, #8]
 3797 0080 1B69     		ldr	r3, [r3, #16]
 3798 0082 FFF7FEFF 		bl	TIM_ETR_SetConfig
1788:Drivers/STM32F0xx_HAL_Driver/Src/stm32f0xx_hal_tim_ex.c ****     }
 3799              		.loc 1 1788 0
 3800 0086 FB68     		ldr	r3, [r7, #12]
 3801 0088 1B68     		ldr	r3, [r3]
 3802 008a FA68     		ldr	r2, [r7, #12]
 3803 008c 1268     		ldr	r2, [r2]
 3804 008e 9268     		ldr	r2, [r2, #8]
ARM GAS  /tmp/cct1Lg5Q.s 			page 100


 3805 0090 0821     		movs	r1, #8
 3806 0092 0A43     		orrs	r2, r1
 3807 0094 9A60     		str	r2, [r3, #8]
1790:Drivers/STM32F0xx_HAL_Driver/Src/stm32f0xx_hal_tim_ex.c ****     default:
 3808              		.loc 1 1790 0
 3809 0096 C046     		nop
 3810              	.L204:
1793:Drivers/STM32F0xx_HAL_Driver/Src/stm32f0xx_hal_tim_ex.c ****   }
1794:Drivers/STM32F0xx_HAL_Driver/Src/stm32f0xx_hal_tim_ex.c ****   
1795:Drivers/STM32F0xx_HAL_Driver/Src/stm32f0xx_hal_tim_ex.c ****   switch (Channel)
 3811              		.loc 1 1795 0
 3812 0098 7B68     		ldr	r3, [r7, #4]
 3813 009a 042B     		cmp	r3, #4
 3814 009c 1ED0     		beq	.L206
 3815 009e 02D8     		bhi	.L207
 3816 00a0 002B     		cmp	r3, #0
 3817 00a2 05D0     		beq	.L208
1796:Drivers/STM32F0xx_HAL_Driver/Src/stm32f0xx_hal_tim_ex.c ****   { 
1797:Drivers/STM32F0xx_HAL_Driver/Src/stm32f0xx_hal_tim_ex.c ****     case TIM_CHANNEL_1:
1798:Drivers/STM32F0xx_HAL_Driver/Src/stm32f0xx_hal_tim_ex.c ****       {
1799:Drivers/STM32F0xx_HAL_Driver/Src/stm32f0xx_hal_tim_ex.c ****         if(sClearInputConfig->ClearInputState != RESET)
1800:Drivers/STM32F0xx_HAL_Driver/Src/stm32f0xx_hal_tim_ex.c ****         {
1801:Drivers/STM32F0xx_HAL_Driver/Src/stm32f0xx_hal_tim_ex.c ****           /* Enable the Ocref clear feature for Channel 1 */
1802:Drivers/STM32F0xx_HAL_Driver/Src/stm32f0xx_hal_tim_ex.c ****           htim->Instance->CCMR1 |= TIM_CCMR1_OC1CE;
1803:Drivers/STM32F0xx_HAL_Driver/Src/stm32f0xx_hal_tim_ex.c ****         }
1804:Drivers/STM32F0xx_HAL_Driver/Src/stm32f0xx_hal_tim_ex.c ****         else
1805:Drivers/STM32F0xx_HAL_Driver/Src/stm32f0xx_hal_tim_ex.c ****         {
1806:Drivers/STM32F0xx_HAL_Driver/Src/stm32f0xx_hal_tim_ex.c ****           /* Disable the Ocref clear feature for Channel 1 */
1807:Drivers/STM32F0xx_HAL_Driver/Src/stm32f0xx_hal_tim_ex.c ****           htim->Instance->CCMR1 &= ~TIM_CCMR1_OC1CE;      
1808:Drivers/STM32F0xx_HAL_Driver/Src/stm32f0xx_hal_tim_ex.c ****         }
1809:Drivers/STM32F0xx_HAL_Driver/Src/stm32f0xx_hal_tim_ex.c ****       }    
1810:Drivers/STM32F0xx_HAL_Driver/Src/stm32f0xx_hal_tim_ex.c ****       break;
1811:Drivers/STM32F0xx_HAL_Driver/Src/stm32f0xx_hal_tim_ex.c ****     case TIM_CHANNEL_2:    
1812:Drivers/STM32F0xx_HAL_Driver/Src/stm32f0xx_hal_tim_ex.c ****       {
1813:Drivers/STM32F0xx_HAL_Driver/Src/stm32f0xx_hal_tim_ex.c ****         if(sClearInputConfig->ClearInputState != RESET)
1814:Drivers/STM32F0xx_HAL_Driver/Src/stm32f0xx_hal_tim_ex.c ****         {
1815:Drivers/STM32F0xx_HAL_Driver/Src/stm32f0xx_hal_tim_ex.c ****           /* Enable the Ocref clear feature for Channel 2 */
1816:Drivers/STM32F0xx_HAL_Driver/Src/stm32f0xx_hal_tim_ex.c ****           htim->Instance->CCMR1 |= TIM_CCMR1_OC2CE;
1817:Drivers/STM32F0xx_HAL_Driver/Src/stm32f0xx_hal_tim_ex.c ****         }
1818:Drivers/STM32F0xx_HAL_Driver/Src/stm32f0xx_hal_tim_ex.c ****         else
1819:Drivers/STM32F0xx_HAL_Driver/Src/stm32f0xx_hal_tim_ex.c ****         {
1820:Drivers/STM32F0xx_HAL_Driver/Src/stm32f0xx_hal_tim_ex.c ****           /* Disable the Ocref clear feature for Channel 2 */
1821:Drivers/STM32F0xx_HAL_Driver/Src/stm32f0xx_hal_tim_ex.c ****           htim->Instance->CCMR1 &= ~TIM_CCMR1_OC2CE;      
1822:Drivers/STM32F0xx_HAL_Driver/Src/stm32f0xx_hal_tim_ex.c ****         }
1823:Drivers/STM32F0xx_HAL_Driver/Src/stm32f0xx_hal_tim_ex.c ****       }    
1824:Drivers/STM32F0xx_HAL_Driver/Src/stm32f0xx_hal_tim_ex.c ****     break;
1825:Drivers/STM32F0xx_HAL_Driver/Src/stm32f0xx_hal_tim_ex.c ****     case TIM_CHANNEL_3:    
1826:Drivers/STM32F0xx_HAL_Driver/Src/stm32f0xx_hal_tim_ex.c ****       {
1827:Drivers/STM32F0xx_HAL_Driver/Src/stm32f0xx_hal_tim_ex.c ****         if(sClearInputConfig->ClearInputState != RESET)
1828:Drivers/STM32F0xx_HAL_Driver/Src/stm32f0xx_hal_tim_ex.c ****         {
1829:Drivers/STM32F0xx_HAL_Driver/Src/stm32f0xx_hal_tim_ex.c ****           /* Enable the Ocref clear feature for Channel 3 */
1830:Drivers/STM32F0xx_HAL_Driver/Src/stm32f0xx_hal_tim_ex.c ****           htim->Instance->CCMR2 |= TIM_CCMR2_OC3CE;
1831:Drivers/STM32F0xx_HAL_Driver/Src/stm32f0xx_hal_tim_ex.c ****         }
1832:Drivers/STM32F0xx_HAL_Driver/Src/stm32f0xx_hal_tim_ex.c ****         else
1833:Drivers/STM32F0xx_HAL_Driver/Src/stm32f0xx_hal_tim_ex.c ****         {
1834:Drivers/STM32F0xx_HAL_Driver/Src/stm32f0xx_hal_tim_ex.c ****           /* Disable the Ocref clear feature for Channel 3 */
1835:Drivers/STM32F0xx_HAL_Driver/Src/stm32f0xx_hal_tim_ex.c ****           htim->Instance->CCMR2 &= ~TIM_CCMR2_OC3CE;      
ARM GAS  /tmp/cct1Lg5Q.s 			page 101


1836:Drivers/STM32F0xx_HAL_Driver/Src/stm32f0xx_hal_tim_ex.c ****         }
1837:Drivers/STM32F0xx_HAL_Driver/Src/stm32f0xx_hal_tim_ex.c ****       }    
1838:Drivers/STM32F0xx_HAL_Driver/Src/stm32f0xx_hal_tim_ex.c ****     break;
1839:Drivers/STM32F0xx_HAL_Driver/Src/stm32f0xx_hal_tim_ex.c ****     case TIM_CHANNEL_4:    
1840:Drivers/STM32F0xx_HAL_Driver/Src/stm32f0xx_hal_tim_ex.c ****       {
1841:Drivers/STM32F0xx_HAL_Driver/Src/stm32f0xx_hal_tim_ex.c ****         if(sClearInputConfig->ClearInputState != RESET)
1842:Drivers/STM32F0xx_HAL_Driver/Src/stm32f0xx_hal_tim_ex.c ****         {
1843:Drivers/STM32F0xx_HAL_Driver/Src/stm32f0xx_hal_tim_ex.c ****           /* Enable the Ocref clear feature for Channel 4 */
1844:Drivers/STM32F0xx_HAL_Driver/Src/stm32f0xx_hal_tim_ex.c ****           htim->Instance->CCMR2 |= TIM_CCMR2_OC4CE;
1845:Drivers/STM32F0xx_HAL_Driver/Src/stm32f0xx_hal_tim_ex.c ****         }
1846:Drivers/STM32F0xx_HAL_Driver/Src/stm32f0xx_hal_tim_ex.c ****         else
1847:Drivers/STM32F0xx_HAL_Driver/Src/stm32f0xx_hal_tim_ex.c ****         {
1848:Drivers/STM32F0xx_HAL_Driver/Src/stm32f0xx_hal_tim_ex.c ****           /* Disable the Ocref clear feature for Channel 4 */
1849:Drivers/STM32F0xx_HAL_Driver/Src/stm32f0xx_hal_tim_ex.c ****           htim->Instance->CCMR2 &= ~TIM_CCMR2_OC4CE;      
1850:Drivers/STM32F0xx_HAL_Driver/Src/stm32f0xx_hal_tim_ex.c ****         }
1851:Drivers/STM32F0xx_HAL_Driver/Src/stm32f0xx_hal_tim_ex.c ****       }    
1852:Drivers/STM32F0xx_HAL_Driver/Src/stm32f0xx_hal_tim_ex.c ****     break;
1853:Drivers/STM32F0xx_HAL_Driver/Src/stm32f0xx_hal_tim_ex.c ****     default:  
1854:Drivers/STM32F0xx_HAL_Driver/Src/stm32f0xx_hal_tim_ex.c ****     break;
 3818              		.loc 1 1854 0
 3819 00a4 5EE0     		b	.L213
 3820              	.L207:
1795:Drivers/STM32F0xx_HAL_Driver/Src/stm32f0xx_hal_tim_ex.c ****   { 
 3821              		.loc 1 1795 0
 3822 00a6 082B     		cmp	r3, #8
 3823 00a8 2FD0     		beq	.L209
 3824 00aa 0C2B     		cmp	r3, #12
 3825 00ac 43D0     		beq	.L210
 3826              		.loc 1 1854 0
 3827 00ae 59E0     		b	.L213
 3828              	.L208:
1799:Drivers/STM32F0xx_HAL_Driver/Src/stm32f0xx_hal_tim_ex.c ****         {
 3829              		.loc 1 1799 0
 3830 00b0 BB68     		ldr	r3, [r7, #8]
 3831 00b2 1B68     		ldr	r3, [r3]
 3832 00b4 002B     		cmp	r3, #0
 3833 00b6 08D0     		beq	.L211
1802:Drivers/STM32F0xx_HAL_Driver/Src/stm32f0xx_hal_tim_ex.c ****         }
 3834              		.loc 1 1802 0
 3835 00b8 FB68     		ldr	r3, [r7, #12]
 3836 00ba 1B68     		ldr	r3, [r3]
 3837 00bc FA68     		ldr	r2, [r7, #12]
 3838 00be 1268     		ldr	r2, [r2]
 3839 00c0 9269     		ldr	r2, [r2, #24]
 3840 00c2 8021     		movs	r1, #128
 3841 00c4 0A43     		orrs	r2, r1
 3842 00c6 9A61     		str	r2, [r3, #24]
1810:Drivers/STM32F0xx_HAL_Driver/Src/stm32f0xx_hal_tim_ex.c ****     case TIM_CHANNEL_2:    
 3843              		.loc 1 1810 0
 3844 00c8 4CE0     		b	.L213
 3845              	.L211:
1807:Drivers/STM32F0xx_HAL_Driver/Src/stm32f0xx_hal_tim_ex.c ****         }
 3846              		.loc 1 1807 0
 3847 00ca FB68     		ldr	r3, [r7, #12]
 3848 00cc 1B68     		ldr	r3, [r3]
 3849 00ce FA68     		ldr	r2, [r7, #12]
 3850 00d0 1268     		ldr	r2, [r2]
ARM GAS  /tmp/cct1Lg5Q.s 			page 102


 3851 00d2 9269     		ldr	r2, [r2, #24]
 3852 00d4 8021     		movs	r1, #128
 3853 00d6 8A43     		bics	r2, r1
 3854 00d8 9A61     		str	r2, [r3, #24]
1810:Drivers/STM32F0xx_HAL_Driver/Src/stm32f0xx_hal_tim_ex.c ****     case TIM_CHANNEL_2:    
 3855              		.loc 1 1810 0
 3856 00da 43E0     		b	.L213
 3857              	.L206:
1813:Drivers/STM32F0xx_HAL_Driver/Src/stm32f0xx_hal_tim_ex.c ****         {
 3858              		.loc 1 1813 0
 3859 00dc BB68     		ldr	r3, [r7, #8]
 3860 00de 1B68     		ldr	r3, [r3]
 3861 00e0 002B     		cmp	r3, #0
 3862 00e2 09D0     		beq	.L214
1816:Drivers/STM32F0xx_HAL_Driver/Src/stm32f0xx_hal_tim_ex.c ****         }
 3863              		.loc 1 1816 0
 3864 00e4 FB68     		ldr	r3, [r7, #12]
 3865 00e6 1B68     		ldr	r3, [r3]
 3866 00e8 FA68     		ldr	r2, [r7, #12]
 3867 00ea 1268     		ldr	r2, [r2]
 3868 00ec 9269     		ldr	r2, [r2, #24]
 3869 00ee 8021     		movs	r1, #128
 3870 00f0 0902     		lsls	r1, r1, #8
 3871 00f2 0A43     		orrs	r2, r1
 3872 00f4 9A61     		str	r2, [r3, #24]
1824:Drivers/STM32F0xx_HAL_Driver/Src/stm32f0xx_hal_tim_ex.c ****     case TIM_CHANNEL_3:    
 3873              		.loc 1 1824 0
 3874 00f6 35E0     		b	.L213
 3875              	.L214:
1821:Drivers/STM32F0xx_HAL_Driver/Src/stm32f0xx_hal_tim_ex.c ****         }
 3876              		.loc 1 1821 0
 3877 00f8 FB68     		ldr	r3, [r7, #12]
 3878 00fa 1B68     		ldr	r3, [r3]
 3879 00fc FA68     		ldr	r2, [r7, #12]
 3880 00fe 1268     		ldr	r2, [r2]
 3881 0100 9269     		ldr	r2, [r2, #24]
 3882 0102 2049     		ldr	r1, .L221+4
 3883 0104 0A40     		ands	r2, r1
 3884 0106 9A61     		str	r2, [r3, #24]
1824:Drivers/STM32F0xx_HAL_Driver/Src/stm32f0xx_hal_tim_ex.c ****     case TIM_CHANNEL_3:    
 3885              		.loc 1 1824 0
 3886 0108 2CE0     		b	.L213
 3887              	.L209:
1827:Drivers/STM32F0xx_HAL_Driver/Src/stm32f0xx_hal_tim_ex.c ****         {
 3888              		.loc 1 1827 0
 3889 010a BB68     		ldr	r3, [r7, #8]
 3890 010c 1B68     		ldr	r3, [r3]
 3891 010e 002B     		cmp	r3, #0
 3892 0110 08D0     		beq	.L216
1830:Drivers/STM32F0xx_HAL_Driver/Src/stm32f0xx_hal_tim_ex.c ****         }
 3893              		.loc 1 1830 0
 3894 0112 FB68     		ldr	r3, [r7, #12]
 3895 0114 1B68     		ldr	r3, [r3]
 3896 0116 FA68     		ldr	r2, [r7, #12]
 3897 0118 1268     		ldr	r2, [r2]
 3898 011a D269     		ldr	r2, [r2, #28]
 3899 011c 8021     		movs	r1, #128
ARM GAS  /tmp/cct1Lg5Q.s 			page 103


 3900 011e 0A43     		orrs	r2, r1
 3901 0120 DA61     		str	r2, [r3, #28]
1838:Drivers/STM32F0xx_HAL_Driver/Src/stm32f0xx_hal_tim_ex.c ****     case TIM_CHANNEL_4:    
 3902              		.loc 1 1838 0
 3903 0122 1FE0     		b	.L213
 3904              	.L216:
1835:Drivers/STM32F0xx_HAL_Driver/Src/stm32f0xx_hal_tim_ex.c ****         }
 3905              		.loc 1 1835 0
 3906 0124 FB68     		ldr	r3, [r7, #12]
 3907 0126 1B68     		ldr	r3, [r3]
 3908 0128 FA68     		ldr	r2, [r7, #12]
 3909 012a 1268     		ldr	r2, [r2]
 3910 012c D269     		ldr	r2, [r2, #28]
 3911 012e 8021     		movs	r1, #128
 3912 0130 8A43     		bics	r2, r1
 3913 0132 DA61     		str	r2, [r3, #28]
1838:Drivers/STM32F0xx_HAL_Driver/Src/stm32f0xx_hal_tim_ex.c ****     case TIM_CHANNEL_4:    
 3914              		.loc 1 1838 0
 3915 0134 16E0     		b	.L213
 3916              	.L210:
1841:Drivers/STM32F0xx_HAL_Driver/Src/stm32f0xx_hal_tim_ex.c ****         {
 3917              		.loc 1 1841 0
 3918 0136 BB68     		ldr	r3, [r7, #8]
 3919 0138 1B68     		ldr	r3, [r3]
 3920 013a 002B     		cmp	r3, #0
 3921 013c 09D0     		beq	.L218
1844:Drivers/STM32F0xx_HAL_Driver/Src/stm32f0xx_hal_tim_ex.c ****         }
 3922              		.loc 1 1844 0
 3923 013e FB68     		ldr	r3, [r7, #12]
 3924 0140 1B68     		ldr	r3, [r3]
 3925 0142 FA68     		ldr	r2, [r7, #12]
 3926 0144 1268     		ldr	r2, [r2]
 3927 0146 D269     		ldr	r2, [r2, #28]
 3928 0148 8021     		movs	r1, #128
 3929 014a 0902     		lsls	r1, r1, #8
 3930 014c 0A43     		orrs	r2, r1
 3931 014e DA61     		str	r2, [r3, #28]
1852:Drivers/STM32F0xx_HAL_Driver/Src/stm32f0xx_hal_tim_ex.c ****     default:  
 3932              		.loc 1 1852 0
 3933 0150 07E0     		b	.L220
 3934              	.L218:
1849:Drivers/STM32F0xx_HAL_Driver/Src/stm32f0xx_hal_tim_ex.c ****         }
 3935              		.loc 1 1849 0
 3936 0152 FB68     		ldr	r3, [r7, #12]
 3937 0154 1B68     		ldr	r3, [r3]
 3938 0156 FA68     		ldr	r2, [r7, #12]
 3939 0158 1268     		ldr	r2, [r2]
 3940 015a D269     		ldr	r2, [r2, #28]
 3941 015c 0949     		ldr	r1, .L221+4
 3942 015e 0A40     		ands	r2, r1
 3943 0160 DA61     		str	r2, [r3, #28]
 3944              	.L220:
1852:Drivers/STM32F0xx_HAL_Driver/Src/stm32f0xx_hal_tim_ex.c ****     default:  
 3945              		.loc 1 1852 0
 3946 0162 C046     		nop
 3947              	.L213:
1855:Drivers/STM32F0xx_HAL_Driver/Src/stm32f0xx_hal_tim_ex.c ****   } 
ARM GAS  /tmp/cct1Lg5Q.s 			page 104


1856:Drivers/STM32F0xx_HAL_Driver/Src/stm32f0xx_hal_tim_ex.c **** 
1857:Drivers/STM32F0xx_HAL_Driver/Src/stm32f0xx_hal_tim_ex.c ****   htim->State = HAL_TIM_STATE_READY;
 3948              		.loc 1 1857 0
 3949 0164 FB68     		ldr	r3, [r7, #12]
 3950 0166 3922     		movs	r2, #57
 3951 0168 0121     		movs	r1, #1
 3952 016a 9954     		strb	r1, [r3, r2]
1858:Drivers/STM32F0xx_HAL_Driver/Src/stm32f0xx_hal_tim_ex.c ****   
1859:Drivers/STM32F0xx_HAL_Driver/Src/stm32f0xx_hal_tim_ex.c ****   __HAL_UNLOCK(htim);
 3953              		.loc 1 1859 0
 3954 016c FB68     		ldr	r3, [r7, #12]
 3955 016e 3822     		movs	r2, #56
 3956 0170 0021     		movs	r1, #0
 3957 0172 9954     		strb	r1, [r3, r2]
1860:Drivers/STM32F0xx_HAL_Driver/Src/stm32f0xx_hal_tim_ex.c **** 
1861:Drivers/STM32F0xx_HAL_Driver/Src/stm32f0xx_hal_tim_ex.c ****   return HAL_OK;  
 3958              		.loc 1 1861 0
 3959 0174 0023     		movs	r3, #0
 3960              	.L199:
1862:Drivers/STM32F0xx_HAL_Driver/Src/stm32f0xx_hal_tim_ex.c **** }  
 3961              		.loc 1 1862 0
 3962 0176 1800     		movs	r0, r3
 3963 0178 BD46     		mov	sp, r7
 3964 017a 06B0     		add	sp, sp, #24
 3965              		@ sp needed
 3966 017c 80BD     		pop	{r7, pc}
 3967              	.L222:
 3968 017e C046     		.align	2
 3969              	.L221:
 3970 0180 FF00FFFF 		.word	-65281
 3971 0184 FF7FFFFF 		.word	-32769
 3972              		.cfi_endproc
 3973              	.LFE67:
 3975              		.section	.text.HAL_TIMEx_CommutationCallback,"ax",%progbits
 3976              		.align	1
 3977              		.weak	HAL_TIMEx_CommutationCallback
 3978              		.syntax unified
 3979              		.code	16
 3980              		.thumb_func
 3981              		.fpu softvfp
 3983              	HAL_TIMEx_CommutationCallback:
 3984              	.LFB68:
1863:Drivers/STM32F0xx_HAL_Driver/Src/stm32f0xx_hal_tim_ex.c **** #endif /* STM32F051x8 || STM32F058xx || */
1864:Drivers/STM32F0xx_HAL_Driver/Src/stm32f0xx_hal_tim_ex.c ****        /* STM32F071xB || STM32F072xB || STM32F078xx || */
1865:Drivers/STM32F0xx_HAL_Driver/Src/stm32f0xx_hal_tim_ex.c ****        /* STM32F091xC || defined (STM32F098xx) */
1866:Drivers/STM32F0xx_HAL_Driver/Src/stm32f0xx_hal_tim_ex.c **** /**
1867:Drivers/STM32F0xx_HAL_Driver/Src/stm32f0xx_hal_tim_ex.c ****   * @}
1868:Drivers/STM32F0xx_HAL_Driver/Src/stm32f0xx_hal_tim_ex.c ****   */
1869:Drivers/STM32F0xx_HAL_Driver/Src/stm32f0xx_hal_tim_ex.c **** 
1870:Drivers/STM32F0xx_HAL_Driver/Src/stm32f0xx_hal_tim_ex.c **** /** @defgroup TIMEx_Exported_Functions_Group6 Extension Callbacks functions 
1871:Drivers/STM32F0xx_HAL_Driver/Src/stm32f0xx_hal_tim_ex.c ****  *  @brief   Extension Callbacks functions 
1872:Drivers/STM32F0xx_HAL_Driver/Src/stm32f0xx_hal_tim_ex.c ****  *
1873:Drivers/STM32F0xx_HAL_Driver/Src/stm32f0xx_hal_tim_ex.c **** @verbatim 
1874:Drivers/STM32F0xx_HAL_Driver/Src/stm32f0xx_hal_tim_ex.c ****   ==============================================================================
1875:Drivers/STM32F0xx_HAL_Driver/Src/stm32f0xx_hal_tim_ex.c ****                     ##### Extension Callbacks functions #####
1876:Drivers/STM32F0xx_HAL_Driver/Src/stm32f0xx_hal_tim_ex.c ****   ==============================================================================
1877:Drivers/STM32F0xx_HAL_Driver/Src/stm32f0xx_hal_tim_ex.c ****   [..]
ARM GAS  /tmp/cct1Lg5Q.s 			page 105


1878:Drivers/STM32F0xx_HAL_Driver/Src/stm32f0xx_hal_tim_ex.c ****     This section provides Extension TIM callback functions:
1879:Drivers/STM32F0xx_HAL_Driver/Src/stm32f0xx_hal_tim_ex.c ****     (+) Timer Commutation callback
1880:Drivers/STM32F0xx_HAL_Driver/Src/stm32f0xx_hal_tim_ex.c ****     (+) Timer Break callback
1881:Drivers/STM32F0xx_HAL_Driver/Src/stm32f0xx_hal_tim_ex.c **** 
1882:Drivers/STM32F0xx_HAL_Driver/Src/stm32f0xx_hal_tim_ex.c **** @endverbatim
1883:Drivers/STM32F0xx_HAL_Driver/Src/stm32f0xx_hal_tim_ex.c ****   * @{
1884:Drivers/STM32F0xx_HAL_Driver/Src/stm32f0xx_hal_tim_ex.c ****   */
1885:Drivers/STM32F0xx_HAL_Driver/Src/stm32f0xx_hal_tim_ex.c **** 
1886:Drivers/STM32F0xx_HAL_Driver/Src/stm32f0xx_hal_tim_ex.c **** /**
1887:Drivers/STM32F0xx_HAL_Driver/Src/stm32f0xx_hal_tim_ex.c ****   * @brief  Hall commutation changed callback in non blocking mode 
1888:Drivers/STM32F0xx_HAL_Driver/Src/stm32f0xx_hal_tim_ex.c ****   * @param  htim : TIM handle
1889:Drivers/STM32F0xx_HAL_Driver/Src/stm32f0xx_hal_tim_ex.c ****   * @retval None
1890:Drivers/STM32F0xx_HAL_Driver/Src/stm32f0xx_hal_tim_ex.c ****   */
1891:Drivers/STM32F0xx_HAL_Driver/Src/stm32f0xx_hal_tim_ex.c **** __weak void HAL_TIMEx_CommutationCallback(TIM_HandleTypeDef *htim)
1892:Drivers/STM32F0xx_HAL_Driver/Src/stm32f0xx_hal_tim_ex.c **** {
 3985              		.loc 1 1892 0
 3986              		.cfi_startproc
 3987 0000 80B5     		push	{r7, lr}
 3988              	.LCFI99:
 3989              		.cfi_def_cfa_offset 8
 3990              		.cfi_offset 7, -8
 3991              		.cfi_offset 14, -4
 3992 0002 82B0     		sub	sp, sp, #8
 3993              	.LCFI100:
 3994              		.cfi_def_cfa_offset 16
 3995 0004 00AF     		add	r7, sp, #0
 3996              	.LCFI101:
 3997              		.cfi_def_cfa_register 7
 3998 0006 7860     		str	r0, [r7, #4]
1893:Drivers/STM32F0xx_HAL_Driver/Src/stm32f0xx_hal_tim_ex.c ****   /* Prevent unused argument(s) compilation warning */
1894:Drivers/STM32F0xx_HAL_Driver/Src/stm32f0xx_hal_tim_ex.c ****   UNUSED(htim);
1895:Drivers/STM32F0xx_HAL_Driver/Src/stm32f0xx_hal_tim_ex.c **** 
1896:Drivers/STM32F0xx_HAL_Driver/Src/stm32f0xx_hal_tim_ex.c ****   /* NOTE : This function Should not be modified, when the callback is needed,
1897:Drivers/STM32F0xx_HAL_Driver/Src/stm32f0xx_hal_tim_ex.c ****             the HAL_TIMEx_CommutationCallback could be implemented in the user file
1898:Drivers/STM32F0xx_HAL_Driver/Src/stm32f0xx_hal_tim_ex.c ****    */
1899:Drivers/STM32F0xx_HAL_Driver/Src/stm32f0xx_hal_tim_ex.c **** }
 3999              		.loc 1 1899 0
 4000 0008 C046     		nop
 4001 000a BD46     		mov	sp, r7
 4002 000c 02B0     		add	sp, sp, #8
 4003              		@ sp needed
 4004 000e 80BD     		pop	{r7, pc}
 4005              		.cfi_endproc
 4006              	.LFE68:
 4008              		.section	.text.HAL_TIMEx_BreakCallback,"ax",%progbits
 4009              		.align	1
 4010              		.weak	HAL_TIMEx_BreakCallback
 4011              		.syntax unified
 4012              		.code	16
 4013              		.thumb_func
 4014              		.fpu softvfp
 4016              	HAL_TIMEx_BreakCallback:
 4017              	.LFB69:
1900:Drivers/STM32F0xx_HAL_Driver/Src/stm32f0xx_hal_tim_ex.c **** 
1901:Drivers/STM32F0xx_HAL_Driver/Src/stm32f0xx_hal_tim_ex.c **** /**
1902:Drivers/STM32F0xx_HAL_Driver/Src/stm32f0xx_hal_tim_ex.c ****   * @brief  Hall Break detection callback in non blocking mode 
1903:Drivers/STM32F0xx_HAL_Driver/Src/stm32f0xx_hal_tim_ex.c ****   * @param  htim : TIM handle
ARM GAS  /tmp/cct1Lg5Q.s 			page 106


1904:Drivers/STM32F0xx_HAL_Driver/Src/stm32f0xx_hal_tim_ex.c ****   * @retval None
1905:Drivers/STM32F0xx_HAL_Driver/Src/stm32f0xx_hal_tim_ex.c ****   */
1906:Drivers/STM32F0xx_HAL_Driver/Src/stm32f0xx_hal_tim_ex.c **** __weak void HAL_TIMEx_BreakCallback(TIM_HandleTypeDef *htim)
1907:Drivers/STM32F0xx_HAL_Driver/Src/stm32f0xx_hal_tim_ex.c **** {
 4018              		.loc 1 1907 0
 4019              		.cfi_startproc
 4020 0000 80B5     		push	{r7, lr}
 4021              	.LCFI102:
 4022              		.cfi_def_cfa_offset 8
 4023              		.cfi_offset 7, -8
 4024              		.cfi_offset 14, -4
 4025 0002 82B0     		sub	sp, sp, #8
 4026              	.LCFI103:
 4027              		.cfi_def_cfa_offset 16
 4028 0004 00AF     		add	r7, sp, #0
 4029              	.LCFI104:
 4030              		.cfi_def_cfa_register 7
 4031 0006 7860     		str	r0, [r7, #4]
1908:Drivers/STM32F0xx_HAL_Driver/Src/stm32f0xx_hal_tim_ex.c ****   /* Prevent unused argument(s) compilation warning */
1909:Drivers/STM32F0xx_HAL_Driver/Src/stm32f0xx_hal_tim_ex.c ****   UNUSED(htim);
1910:Drivers/STM32F0xx_HAL_Driver/Src/stm32f0xx_hal_tim_ex.c **** 
1911:Drivers/STM32F0xx_HAL_Driver/Src/stm32f0xx_hal_tim_ex.c ****   /* NOTE : This function Should not be modified, when the callback is needed,
1912:Drivers/STM32F0xx_HAL_Driver/Src/stm32f0xx_hal_tim_ex.c ****             the HAL_TIMEx_BreakCallback could be implemented in the user file
1913:Drivers/STM32F0xx_HAL_Driver/Src/stm32f0xx_hal_tim_ex.c ****    */
1914:Drivers/STM32F0xx_HAL_Driver/Src/stm32f0xx_hal_tim_ex.c **** }
 4032              		.loc 1 1914 0
 4033 0008 C046     		nop
 4034 000a BD46     		mov	sp, r7
 4035 000c 02B0     		add	sp, sp, #8
 4036              		@ sp needed
 4037 000e 80BD     		pop	{r7, pc}
 4038              		.cfi_endproc
 4039              	.LFE69:
 4041              		.section	.text.TIMEx_DMACommutationCplt,"ax",%progbits
 4042              		.align	1
 4043              		.global	TIMEx_DMACommutationCplt
 4044              		.syntax unified
 4045              		.code	16
 4046              		.thumb_func
 4047              		.fpu softvfp
 4049              	TIMEx_DMACommutationCplt:
 4050              	.LFB70:
1915:Drivers/STM32F0xx_HAL_Driver/Src/stm32f0xx_hal_tim_ex.c **** 
1916:Drivers/STM32F0xx_HAL_Driver/Src/stm32f0xx_hal_tim_ex.c **** /**
1917:Drivers/STM32F0xx_HAL_Driver/Src/stm32f0xx_hal_tim_ex.c ****   * @brief  TIM DMA Commutation callback.
1918:Drivers/STM32F0xx_HAL_Driver/Src/stm32f0xx_hal_tim_ex.c ****   * @param  hdma : pointer to DMA handle.
1919:Drivers/STM32F0xx_HAL_Driver/Src/stm32f0xx_hal_tim_ex.c ****   * @retval None
1920:Drivers/STM32F0xx_HAL_Driver/Src/stm32f0xx_hal_tim_ex.c ****   */
1921:Drivers/STM32F0xx_HAL_Driver/Src/stm32f0xx_hal_tim_ex.c **** void TIMEx_DMACommutationCplt(DMA_HandleTypeDef *hdma)
1922:Drivers/STM32F0xx_HAL_Driver/Src/stm32f0xx_hal_tim_ex.c **** {
 4051              		.loc 1 1922 0
 4052              		.cfi_startproc
 4053 0000 80B5     		push	{r7, lr}
 4054              	.LCFI105:
 4055              		.cfi_def_cfa_offset 8
 4056              		.cfi_offset 7, -8
 4057              		.cfi_offset 14, -4
ARM GAS  /tmp/cct1Lg5Q.s 			page 107


 4058 0002 84B0     		sub	sp, sp, #16
 4059              	.LCFI106:
 4060              		.cfi_def_cfa_offset 24
 4061 0004 00AF     		add	r7, sp, #0
 4062              	.LCFI107:
 4063              		.cfi_def_cfa_register 7
 4064 0006 7860     		str	r0, [r7, #4]
1923:Drivers/STM32F0xx_HAL_Driver/Src/stm32f0xx_hal_tim_ex.c ****   TIM_HandleTypeDef* htim = ( TIM_HandleTypeDef* )((DMA_HandleTypeDef* )hdma)->Parent;
 4065              		.loc 1 1923 0
 4066 0008 7B68     		ldr	r3, [r7, #4]
 4067 000a 5B6A     		ldr	r3, [r3, #36]
 4068 000c FB60     		str	r3, [r7, #12]
1924:Drivers/STM32F0xx_HAL_Driver/Src/stm32f0xx_hal_tim_ex.c **** 
1925:Drivers/STM32F0xx_HAL_Driver/Src/stm32f0xx_hal_tim_ex.c ****   htim->State= HAL_TIM_STATE_READY;
 4069              		.loc 1 1925 0
 4070 000e FB68     		ldr	r3, [r7, #12]
 4071 0010 3922     		movs	r2, #57
 4072 0012 0121     		movs	r1, #1
 4073 0014 9954     		strb	r1, [r3, r2]
1926:Drivers/STM32F0xx_HAL_Driver/Src/stm32f0xx_hal_tim_ex.c **** 
1927:Drivers/STM32F0xx_HAL_Driver/Src/stm32f0xx_hal_tim_ex.c ****   HAL_TIMEx_CommutationCallback(htim);
 4074              		.loc 1 1927 0
 4075 0016 FB68     		ldr	r3, [r7, #12]
 4076 0018 1800     		movs	r0, r3
 4077 001a FFF7FEFF 		bl	HAL_TIMEx_CommutationCallback
1928:Drivers/STM32F0xx_HAL_Driver/Src/stm32f0xx_hal_tim_ex.c **** }
 4078              		.loc 1 1928 0
 4079 001e C046     		nop
 4080 0020 BD46     		mov	sp, r7
 4081 0022 04B0     		add	sp, sp, #16
 4082              		@ sp needed
 4083 0024 80BD     		pop	{r7, pc}
 4084              		.cfi_endproc
 4085              	.LFE70:
 4087              		.section	.text.HAL_TIMEx_HallSensor_GetState,"ax",%progbits
 4088              		.align	1
 4089              		.global	HAL_TIMEx_HallSensor_GetState
 4090              		.syntax unified
 4091              		.code	16
 4092              		.thumb_func
 4093              		.fpu softvfp
 4095              	HAL_TIMEx_HallSensor_GetState:
 4096              	.LFB71:
1929:Drivers/STM32F0xx_HAL_Driver/Src/stm32f0xx_hal_tim_ex.c **** 
1930:Drivers/STM32F0xx_HAL_Driver/Src/stm32f0xx_hal_tim_ex.c **** /**
1931:Drivers/STM32F0xx_HAL_Driver/Src/stm32f0xx_hal_tim_ex.c ****   * @}
1932:Drivers/STM32F0xx_HAL_Driver/Src/stm32f0xx_hal_tim_ex.c ****   */
1933:Drivers/STM32F0xx_HAL_Driver/Src/stm32f0xx_hal_tim_ex.c **** 
1934:Drivers/STM32F0xx_HAL_Driver/Src/stm32f0xx_hal_tim_ex.c **** /** @defgroup TIMEx_Exported_Functions_Group7 Extension Peripheral State functions 
1935:Drivers/STM32F0xx_HAL_Driver/Src/stm32f0xx_hal_tim_ex.c ****  *  @brief   Extension Peripheral State functions 
1936:Drivers/STM32F0xx_HAL_Driver/Src/stm32f0xx_hal_tim_ex.c ****  *
1937:Drivers/STM32F0xx_HAL_Driver/Src/stm32f0xx_hal_tim_ex.c **** @verbatim 
1938:Drivers/STM32F0xx_HAL_Driver/Src/stm32f0xx_hal_tim_ex.c ****   ==============================================================================
1939:Drivers/STM32F0xx_HAL_Driver/Src/stm32f0xx_hal_tim_ex.c ****                 ##### Extension Peripheral State functions #####
1940:Drivers/STM32F0xx_HAL_Driver/Src/stm32f0xx_hal_tim_ex.c ****   ==============================================================================
1941:Drivers/STM32F0xx_HAL_Driver/Src/stm32f0xx_hal_tim_ex.c ****   [..]
1942:Drivers/STM32F0xx_HAL_Driver/Src/stm32f0xx_hal_tim_ex.c ****     This subsection permit to get in run-time the status of the peripheral 
ARM GAS  /tmp/cct1Lg5Q.s 			page 108


1943:Drivers/STM32F0xx_HAL_Driver/Src/stm32f0xx_hal_tim_ex.c ****     and the data flow.
1944:Drivers/STM32F0xx_HAL_Driver/Src/stm32f0xx_hal_tim_ex.c **** 
1945:Drivers/STM32F0xx_HAL_Driver/Src/stm32f0xx_hal_tim_ex.c **** @endverbatim
1946:Drivers/STM32F0xx_HAL_Driver/Src/stm32f0xx_hal_tim_ex.c ****   * @{
1947:Drivers/STM32F0xx_HAL_Driver/Src/stm32f0xx_hal_tim_ex.c ****   */
1948:Drivers/STM32F0xx_HAL_Driver/Src/stm32f0xx_hal_tim_ex.c **** 
1949:Drivers/STM32F0xx_HAL_Driver/Src/stm32f0xx_hal_tim_ex.c **** /**
1950:Drivers/STM32F0xx_HAL_Driver/Src/stm32f0xx_hal_tim_ex.c ****   * @brief  Return the TIM Hall Sensor interface state
1951:Drivers/STM32F0xx_HAL_Driver/Src/stm32f0xx_hal_tim_ex.c ****   * @param  htim : TIM Hall Sensor handle
1952:Drivers/STM32F0xx_HAL_Driver/Src/stm32f0xx_hal_tim_ex.c ****   * @retval HAL state
1953:Drivers/STM32F0xx_HAL_Driver/Src/stm32f0xx_hal_tim_ex.c ****   */
1954:Drivers/STM32F0xx_HAL_Driver/Src/stm32f0xx_hal_tim_ex.c **** HAL_TIM_StateTypeDef HAL_TIMEx_HallSensor_GetState(TIM_HandleTypeDef *htim)
1955:Drivers/STM32F0xx_HAL_Driver/Src/stm32f0xx_hal_tim_ex.c **** {
 4097              		.loc 1 1955 0
 4098              		.cfi_startproc
 4099 0000 80B5     		push	{r7, lr}
 4100              	.LCFI108:
 4101              		.cfi_def_cfa_offset 8
 4102              		.cfi_offset 7, -8
 4103              		.cfi_offset 14, -4
 4104 0002 82B0     		sub	sp, sp, #8
 4105              	.LCFI109:
 4106              		.cfi_def_cfa_offset 16
 4107 0004 00AF     		add	r7, sp, #0
 4108              	.LCFI110:
 4109              		.cfi_def_cfa_register 7
 4110 0006 7860     		str	r0, [r7, #4]
1956:Drivers/STM32F0xx_HAL_Driver/Src/stm32f0xx_hal_tim_ex.c ****   return htim->State;
 4111              		.loc 1 1956 0
 4112 0008 7B68     		ldr	r3, [r7, #4]
 4113 000a 3922     		movs	r2, #57
 4114 000c 9B5C     		ldrb	r3, [r3, r2]
 4115 000e DBB2     		uxtb	r3, r3
1957:Drivers/STM32F0xx_HAL_Driver/Src/stm32f0xx_hal_tim_ex.c **** }
 4116              		.loc 1 1957 0
 4117 0010 1800     		movs	r0, r3
 4118 0012 BD46     		mov	sp, r7
 4119 0014 02B0     		add	sp, sp, #8
 4120              		@ sp needed
 4121 0016 80BD     		pop	{r7, pc}
 4122              		.cfi_endproc
 4123              	.LFE71:
 4125              		.section	.text.TIM_CCxNChannelCmd,"ax",%progbits
 4126              		.align	1
 4127              		.syntax unified
 4128              		.code	16
 4129              		.thumb_func
 4130              		.fpu softvfp
 4132              	TIM_CCxNChannelCmd:
 4133              	.LFB72:
1958:Drivers/STM32F0xx_HAL_Driver/Src/stm32f0xx_hal_tim_ex.c **** 
1959:Drivers/STM32F0xx_HAL_Driver/Src/stm32f0xx_hal_tim_ex.c **** /**
1960:Drivers/STM32F0xx_HAL_Driver/Src/stm32f0xx_hal_tim_ex.c ****   * @}
1961:Drivers/STM32F0xx_HAL_Driver/Src/stm32f0xx_hal_tim_ex.c ****   */
1962:Drivers/STM32F0xx_HAL_Driver/Src/stm32f0xx_hal_tim_ex.c **** 
1963:Drivers/STM32F0xx_HAL_Driver/Src/stm32f0xx_hal_tim_ex.c **** /**
1964:Drivers/STM32F0xx_HAL_Driver/Src/stm32f0xx_hal_tim_ex.c ****   * @}
ARM GAS  /tmp/cct1Lg5Q.s 			page 109


1965:Drivers/STM32F0xx_HAL_Driver/Src/stm32f0xx_hal_tim_ex.c ****   */
1966:Drivers/STM32F0xx_HAL_Driver/Src/stm32f0xx_hal_tim_ex.c **** 
1967:Drivers/STM32F0xx_HAL_Driver/Src/stm32f0xx_hal_tim_ex.c **** /** @addtogroup TIMEx_Private_Functions
1968:Drivers/STM32F0xx_HAL_Driver/Src/stm32f0xx_hal_tim_ex.c ****   * @{
1969:Drivers/STM32F0xx_HAL_Driver/Src/stm32f0xx_hal_tim_ex.c ****   */
1970:Drivers/STM32F0xx_HAL_Driver/Src/stm32f0xx_hal_tim_ex.c **** 
1971:Drivers/STM32F0xx_HAL_Driver/Src/stm32f0xx_hal_tim_ex.c **** /**
1972:Drivers/STM32F0xx_HAL_Driver/Src/stm32f0xx_hal_tim_ex.c ****   * @brief  Enables or disables the TIM Capture Compare Channel xN.
1973:Drivers/STM32F0xx_HAL_Driver/Src/stm32f0xx_hal_tim_ex.c ****   * @param  TIMx  to select the TIM peripheral
1974:Drivers/STM32F0xx_HAL_Driver/Src/stm32f0xx_hal_tim_ex.c ****   * @param  Channel : specifies the TIM Channel
1975:Drivers/STM32F0xx_HAL_Driver/Src/stm32f0xx_hal_tim_ex.c ****   *          This parameter can be one of the following values:
1976:Drivers/STM32F0xx_HAL_Driver/Src/stm32f0xx_hal_tim_ex.c ****   *            @arg TIM_CHANNEL_1: TIM Channel 1
1977:Drivers/STM32F0xx_HAL_Driver/Src/stm32f0xx_hal_tim_ex.c ****   *            @arg TIM_CHANNEL_2: TIM Channel 2
1978:Drivers/STM32F0xx_HAL_Driver/Src/stm32f0xx_hal_tim_ex.c ****   *            @arg TIM_CHANNEL_3: TIM Channel 3
1979:Drivers/STM32F0xx_HAL_Driver/Src/stm32f0xx_hal_tim_ex.c ****   * @param  ChannelNState : specifies the TIM Channel CCxNE bit new state.
1980:Drivers/STM32F0xx_HAL_Driver/Src/stm32f0xx_hal_tim_ex.c ****   *          This parameter can be: TIM_CCxN_ENABLE or TIM_CCxN_Disable.
1981:Drivers/STM32F0xx_HAL_Driver/Src/stm32f0xx_hal_tim_ex.c ****   * @retval None
1982:Drivers/STM32F0xx_HAL_Driver/Src/stm32f0xx_hal_tim_ex.c ****   */
1983:Drivers/STM32F0xx_HAL_Driver/Src/stm32f0xx_hal_tim_ex.c **** static void TIM_CCxNChannelCmd(TIM_TypeDef* TIMx, uint32_t Channel, uint32_t ChannelNState)
1984:Drivers/STM32F0xx_HAL_Driver/Src/stm32f0xx_hal_tim_ex.c **** {
 4134              		.loc 1 1984 0
 4135              		.cfi_startproc
 4136 0000 80B5     		push	{r7, lr}
 4137              	.LCFI111:
 4138              		.cfi_def_cfa_offset 8
 4139              		.cfi_offset 7, -8
 4140              		.cfi_offset 14, -4
 4141 0002 86B0     		sub	sp, sp, #24
 4142              	.LCFI112:
 4143              		.cfi_def_cfa_offset 32
 4144 0004 00AF     		add	r7, sp, #0
 4145              	.LCFI113:
 4146              		.cfi_def_cfa_register 7
 4147 0006 F860     		str	r0, [r7, #12]
 4148 0008 B960     		str	r1, [r7, #8]
 4149 000a 7A60     		str	r2, [r7, #4]
1985:Drivers/STM32F0xx_HAL_Driver/Src/stm32f0xx_hal_tim_ex.c ****   uint32_t tmp = 0;
 4150              		.loc 1 1985 0
 4151 000c 0023     		movs	r3, #0
 4152 000e 7B61     		str	r3, [r7, #20]
1986:Drivers/STM32F0xx_HAL_Driver/Src/stm32f0xx_hal_tim_ex.c **** 
1987:Drivers/STM32F0xx_HAL_Driver/Src/stm32f0xx_hal_tim_ex.c ****   tmp = TIM_CCER_CC1NE << Channel;
 4153              		.loc 1 1987 0
 4154 0010 0422     		movs	r2, #4
 4155 0012 BB68     		ldr	r3, [r7, #8]
 4156 0014 9A40     		lsls	r2, r2, r3
 4157 0016 1300     		movs	r3, r2
 4158 0018 7B61     		str	r3, [r7, #20]
1988:Drivers/STM32F0xx_HAL_Driver/Src/stm32f0xx_hal_tim_ex.c **** 
1989:Drivers/STM32F0xx_HAL_Driver/Src/stm32f0xx_hal_tim_ex.c ****   /* Reset the CCxNE Bit */
1990:Drivers/STM32F0xx_HAL_Driver/Src/stm32f0xx_hal_tim_ex.c ****   TIMx->CCER &=  ~tmp;
 4159              		.loc 1 1990 0
 4160 001a FB68     		ldr	r3, [r7, #12]
 4161 001c 1B6A     		ldr	r3, [r3, #32]
 4162 001e 7A69     		ldr	r2, [r7, #20]
 4163 0020 D243     		mvns	r2, r2
 4164 0022 1A40     		ands	r2, r3
ARM GAS  /tmp/cct1Lg5Q.s 			page 110


 4165 0024 FB68     		ldr	r3, [r7, #12]
 4166 0026 1A62     		str	r2, [r3, #32]
1991:Drivers/STM32F0xx_HAL_Driver/Src/stm32f0xx_hal_tim_ex.c **** 
1992:Drivers/STM32F0xx_HAL_Driver/Src/stm32f0xx_hal_tim_ex.c ****   /* Set or reset the CCxNE Bit */
1993:Drivers/STM32F0xx_HAL_Driver/Src/stm32f0xx_hal_tim_ex.c ****   TIMx->CCER |=  (uint32_t)(ChannelNState << Channel);
 4167              		.loc 1 1993 0
 4168 0028 FB68     		ldr	r3, [r7, #12]
 4169 002a 1A6A     		ldr	r2, [r3, #32]
 4170 002c 7968     		ldr	r1, [r7, #4]
 4171 002e BB68     		ldr	r3, [r7, #8]
 4172 0030 9940     		lsls	r1, r1, r3
 4173 0032 0B00     		movs	r3, r1
 4174 0034 1A43     		orrs	r2, r3
 4175 0036 FB68     		ldr	r3, [r7, #12]
 4176 0038 1A62     		str	r2, [r3, #32]
1994:Drivers/STM32F0xx_HAL_Driver/Src/stm32f0xx_hal_tim_ex.c **** }
 4177              		.loc 1 1994 0
 4178 003a C046     		nop
 4179 003c BD46     		mov	sp, r7
 4180 003e 06B0     		add	sp, sp, #24
 4181              		@ sp needed
 4182 0040 80BD     		pop	{r7, pc}
 4183              		.cfi_endproc
 4184              	.LFE72:
 4186              		.text
 4187              	.Letext0:
 4188              		.file 2 "/usr/arm-none-eabi/include/machine/_default_types.h"
 4189              		.file 3 "/usr/arm-none-eabi/include/sys/_stdint.h"
 4190              		.file 4 "Drivers/CMSIS/Device/ST/STM32F0xx/Include/system_stm32f0xx.h"
 4191              		.file 5 "Drivers/CMSIS/Device/ST/STM32F0xx/Include/stm32f072xb.h"
 4192              		.file 6 "/usr/arm-none-eabi/include/sys/lock.h"
 4193              		.file 7 "/usr/arm-none-eabi/include/sys/_types.h"
 4194              		.file 8 "/usr/lib/gcc/arm-none-eabi/6.2.0/include/stddef.h"
 4195              		.file 9 "/usr/arm-none-eabi/include/sys/reent.h"
 4196              		.file 10 "Drivers/CMSIS/Device/ST/STM32F0xx/Include/stm32f0xx.h"
 4197              		.file 11 "Drivers/STM32F0xx_HAL_Driver/Inc/stm32f0xx_hal_def.h"
 4198              		.file 12 "Drivers/STM32F0xx_HAL_Driver/Inc/stm32f0xx_hal_dma.h"
 4199              		.file 13 "Drivers/STM32F0xx_HAL_Driver/Inc/stm32f0xx_hal_tim.h"
 4200              		.file 14 "Drivers/STM32F0xx_HAL_Driver/Inc/stm32f0xx_hal_tim_ex.h"
ARM GAS  /tmp/cct1Lg5Q.s 			page 111


DEFINED SYMBOLS
                            *ABS*:0000000000000000 stm32f0xx_hal_tim_ex.c
     /tmp/cct1Lg5Q.s:16     .text.HAL_TIMEx_HallSensor_Init:0000000000000000 $t
     /tmp/cct1Lg5Q.s:23     .text.HAL_TIMEx_HallSensor_Init:0000000000000000 HAL_TIMEx_HallSensor_Init
     /tmp/cct1Lg5Q.s:322    .text.HAL_TIMEx_HallSensor_MspInit:0000000000000000 HAL_TIMEx_HallSensor_MspInit
     /tmp/cct1Lg5Q.s:232    .text.HAL_TIMEx_HallSensor_DeInit:0000000000000000 $t
     /tmp/cct1Lg5Q.s:239    .text.HAL_TIMEx_HallSensor_DeInit:0000000000000000 HAL_TIMEx_HallSensor_DeInit
     /tmp/cct1Lg5Q.s:355    .text.HAL_TIMEx_HallSensor_MspDeInit:0000000000000000 HAL_TIMEx_HallSensor_MspDeInit
     /tmp/cct1Lg5Q.s:309    .text.HAL_TIMEx_HallSensor_DeInit:000000000000005c $d
     /tmp/cct1Lg5Q.s:315    .text.HAL_TIMEx_HallSensor_MspInit:0000000000000000 $t
     /tmp/cct1Lg5Q.s:348    .text.HAL_TIMEx_HallSensor_MspDeInit:0000000000000000 $t
     /tmp/cct1Lg5Q.s:381    .text.HAL_TIMEx_HallSensor_Start:0000000000000000 $t
     /tmp/cct1Lg5Q.s:388    .text.HAL_TIMEx_HallSensor_Start:0000000000000000 HAL_TIMEx_HallSensor_Start
     /tmp/cct1Lg5Q.s:432    .text.HAL_TIMEx_HallSensor_Stop:0000000000000000 $t
     /tmp/cct1Lg5Q.s:439    .text.HAL_TIMEx_HallSensor_Stop:0000000000000000 HAL_TIMEx_HallSensor_Stop
     /tmp/cct1Lg5Q.s:497    .text.HAL_TIMEx_HallSensor_Stop:0000000000000048 $d
     /tmp/cct1Lg5Q.s:503    .text.HAL_TIMEx_HallSensor_Start_IT:0000000000000000 $t
     /tmp/cct1Lg5Q.s:510    .text.HAL_TIMEx_HallSensor_Start_IT:0000000000000000 HAL_TIMEx_HallSensor_Start_IT
     /tmp/cct1Lg5Q.s:563    .text.HAL_TIMEx_HallSensor_Stop_IT:0000000000000000 $t
     /tmp/cct1Lg5Q.s:570    .text.HAL_TIMEx_HallSensor_Stop_IT:0000000000000000 HAL_TIMEx_HallSensor_Stop_IT
     /tmp/cct1Lg5Q.s:637    .text.HAL_TIMEx_HallSensor_Stop_IT:0000000000000058 $d
     /tmp/cct1Lg5Q.s:643    .text.HAL_TIMEx_HallSensor_Start_DMA:0000000000000000 $t
     /tmp/cct1Lg5Q.s:650    .text.HAL_TIMEx_HallSensor_Start_DMA:0000000000000000 HAL_TIMEx_HallSensor_Start_DMA
     /tmp/cct1Lg5Q.s:765    .text.HAL_TIMEx_HallSensor_Start_DMA:00000000000000a4 $d
     /tmp/cct1Lg5Q.s:771    .text.HAL_TIMEx_HallSensor_Stop_DMA:0000000000000000 $t
     /tmp/cct1Lg5Q.s:778    .text.HAL_TIMEx_HallSensor_Stop_DMA:0000000000000000 HAL_TIMEx_HallSensor_Stop_DMA
     /tmp/cct1Lg5Q.s:845    .text.HAL_TIMEx_HallSensor_Stop_DMA:0000000000000058 $d
     /tmp/cct1Lg5Q.s:852    .text.HAL_TIMEx_OCN_Start:0000000000000000 $t
     /tmp/cct1Lg5Q.s:859    .text.HAL_TIMEx_OCN_Start:0000000000000000 HAL_TIMEx_OCN_Start
     /tmp/cct1Lg5Q.s:4132   .text.TIM_CCxNChannelCmd:0000000000000000 TIM_CCxNChannelCmd
     /tmp/cct1Lg5Q.s:914    .text.HAL_TIMEx_OCN_Stop:0000000000000000 $t
     /tmp/cct1Lg5Q.s:921    .text.HAL_TIMEx_OCN_Stop:0000000000000000 HAL_TIMEx_OCN_Stop
     /tmp/cct1Lg5Q.s:1004   .text.HAL_TIMEx_OCN_Stop:0000000000000074 $d
     /tmp/cct1Lg5Q.s:1011   .text.HAL_TIMEx_OCN_Start_IT:0000000000000000 $t
     /tmp/cct1Lg5Q.s:1018   .text.HAL_TIMEx_OCN_Start_IT:0000000000000000 HAL_TIMEx_OCN_Start_IT
     /tmp/cct1Lg5Q.s:1148   .text.HAL_TIMEx_OCN_Stop_IT:0000000000000000 $t
     /tmp/cct1Lg5Q.s:1155   .text.HAL_TIMEx_OCN_Stop_IT:0000000000000000 HAL_TIMEx_OCN_Stop_IT
     /tmp/cct1Lg5Q.s:1327   .text.HAL_TIMEx_OCN_Stop_IT:00000000000000f8 $d
     /tmp/cct1Lg5Q.s:1334   .text.HAL_TIMEx_OCN_Start_DMA:0000000000000000 $t
     /tmp/cct1Lg5Q.s:1341   .text.HAL_TIMEx_OCN_Start_DMA:0000000000000000 HAL_TIMEx_OCN_Start_DMA
     /tmp/cct1Lg5Q.s:1591   .text.HAL_TIMEx_OCN_Start_DMA:0000000000000184 $d
     /tmp/cct1Lg5Q.s:1597   .text.HAL_TIMEx_OCN_Stop_DMA:0000000000000000 $t
     /tmp/cct1Lg5Q.s:1604   .text.HAL_TIMEx_OCN_Stop_DMA:0000000000000000 HAL_TIMEx_OCN_Stop_DMA
     /tmp/cct1Lg5Q.s:1758   .text.HAL_TIMEx_OCN_Stop_DMA:00000000000000dc $d
     /tmp/cct1Lg5Q.s:1769   .text.HAL_TIMEx_PWMN_Start:0000000000000000 $t
     /tmp/cct1Lg5Q.s:1776   .text.HAL_TIMEx_PWMN_Start:0000000000000000 HAL_TIMEx_PWMN_Start
     /tmp/cct1Lg5Q.s:1831   .text.HAL_TIMEx_PWMN_Stop:0000000000000000 $t
     /tmp/cct1Lg5Q.s:1838   .text.HAL_TIMEx_PWMN_Stop:0000000000000000 HAL_TIMEx_PWMN_Stop
     /tmp/cct1Lg5Q.s:1921   .text.HAL_TIMEx_PWMN_Stop:0000000000000074 $d
     /tmp/cct1Lg5Q.s:1928   .text.HAL_TIMEx_PWMN_Start_IT:0000000000000000 $t
     /tmp/cct1Lg5Q.s:1935   .text.HAL_TIMEx_PWMN_Start_IT:0000000000000000 HAL_TIMEx_PWMN_Start_IT
     /tmp/cct1Lg5Q.s:2065   .text.HAL_TIMEx_PWMN_Stop_IT:0000000000000000 $t
     /tmp/cct1Lg5Q.s:2072   .text.HAL_TIMEx_PWMN_Stop_IT:0000000000000000 HAL_TIMEx_PWMN_Stop_IT
     /tmp/cct1Lg5Q.s:2244   .text.HAL_TIMEx_PWMN_Stop_IT:00000000000000f8 $d
     /tmp/cct1Lg5Q.s:2251   .text.HAL_TIMEx_PWMN_Start_DMA:0000000000000000 $t
     /tmp/cct1Lg5Q.s:2258   .text.HAL_TIMEx_PWMN_Start_DMA:0000000000000000 HAL_TIMEx_PWMN_Start_DMA
     /tmp/cct1Lg5Q.s:2508   .text.HAL_TIMEx_PWMN_Start_DMA:0000000000000184 $d
ARM GAS  /tmp/cct1Lg5Q.s 			page 112


     /tmp/cct1Lg5Q.s:2514   .text.HAL_TIMEx_PWMN_Stop_DMA:0000000000000000 $t
     /tmp/cct1Lg5Q.s:2521   .text.HAL_TIMEx_PWMN_Stop_DMA:0000000000000000 HAL_TIMEx_PWMN_Stop_DMA
     /tmp/cct1Lg5Q.s:2675   .text.HAL_TIMEx_PWMN_Stop_DMA:00000000000000dc $d
     /tmp/cct1Lg5Q.s:2686   .text.HAL_TIMEx_OnePulseN_Start:0000000000000000 $t
     /tmp/cct1Lg5Q.s:2693   .text.HAL_TIMEx_OnePulseN_Start:0000000000000000 HAL_TIMEx_OnePulseN_Start
     /tmp/cct1Lg5Q.s:2739   .text.HAL_TIMEx_OnePulseN_Stop:0000000000000000 $t
     /tmp/cct1Lg5Q.s:2746   .text.HAL_TIMEx_OnePulseN_Stop:0000000000000000 HAL_TIMEx_OnePulseN_Stop
     /tmp/cct1Lg5Q.s:2829   .text.HAL_TIMEx_OnePulseN_Stop:0000000000000074 $d
     /tmp/cct1Lg5Q.s:2836   .text.HAL_TIMEx_OnePulseN_Start_IT:0000000000000000 $t
     /tmp/cct1Lg5Q.s:2843   .text.HAL_TIMEx_OnePulseN_Start_IT:0000000000000000 HAL_TIMEx_OnePulseN_Start_IT
     /tmp/cct1Lg5Q.s:2907   .text.HAL_TIMEx_OnePulseN_Stop_IT:0000000000000000 $t
     /tmp/cct1Lg5Q.s:2914   .text.HAL_TIMEx_OnePulseN_Stop_IT:0000000000000000 HAL_TIMEx_OnePulseN_Stop_IT
     /tmp/cct1Lg5Q.s:3015   .text.HAL_TIMEx_OnePulseN_Stop_IT:0000000000000094 $d
     /tmp/cct1Lg5Q.s:3022   .text.HAL_TIMEx_ConfigCommutationEvent:0000000000000000 $t
     /tmp/cct1Lg5Q.s:3029   .text.HAL_TIMEx_ConfigCommutationEvent:0000000000000000 HAL_TIMEx_ConfigCommutationEvent
     /tmp/cct1Lg5Q.s:3143   .text.HAL_TIMEx_ConfigCommutationEvent_IT:0000000000000000 $t
     /tmp/cct1Lg5Q.s:3150   .text.HAL_TIMEx_ConfigCommutationEvent_IT:0000000000000000 HAL_TIMEx_ConfigCommutationEvent_IT
     /tmp/cct1Lg5Q.s:3273   .text.HAL_TIMEx_ConfigCommutationEvent_DMA:0000000000000000 $t
     /tmp/cct1Lg5Q.s:3280   .text.HAL_TIMEx_ConfigCommutationEvent_DMA:0000000000000000 HAL_TIMEx_ConfigCommutationEvent_DMA
     /tmp/cct1Lg5Q.s:3413   .text.HAL_TIMEx_ConfigCommutationEvent_DMA:00000000000000c0 $d
     /tmp/cct1Lg5Q.s:4049   .text.TIMEx_DMACommutationCplt:0000000000000000 TIMEx_DMACommutationCplt
     /tmp/cct1Lg5Q.s:3419   .text.HAL_TIMEx_MasterConfigSynchronization:0000000000000000 $t
     /tmp/cct1Lg5Q.s:3426   .text.HAL_TIMEx_MasterConfigSynchronization:0000000000000000 HAL_TIMEx_MasterConfigSynchronization
     /tmp/cct1Lg5Q.s:3524   .text.HAL_TIMEx_ConfigBreakDeadTime:0000000000000000 $t
     /tmp/cct1Lg5Q.s:3531   .text.HAL_TIMEx_ConfigBreakDeadTime:0000000000000000 HAL_TIMEx_ConfigBreakDeadTime
     /tmp/cct1Lg5Q.s:3628   .text.HAL_TIMEx_RemapConfig:0000000000000000 $t
     /tmp/cct1Lg5Q.s:3635   .text.HAL_TIMEx_RemapConfig:0000000000000000 HAL_TIMEx_RemapConfig
     /tmp/cct1Lg5Q.s:3695   .text.HAL_TIM_ConfigOCrefClear:0000000000000000 $t
     /tmp/cct1Lg5Q.s:3702   .text.HAL_TIM_ConfigOCrefClear:0000000000000000 HAL_TIM_ConfigOCrefClear
     /tmp/cct1Lg5Q.s:3970   .text.HAL_TIM_ConfigOCrefClear:0000000000000180 $d
     /tmp/cct1Lg5Q.s:3976   .text.HAL_TIMEx_CommutationCallback:0000000000000000 $t
     /tmp/cct1Lg5Q.s:3983   .text.HAL_TIMEx_CommutationCallback:0000000000000000 HAL_TIMEx_CommutationCallback
     /tmp/cct1Lg5Q.s:4009   .text.HAL_TIMEx_BreakCallback:0000000000000000 $t
     /tmp/cct1Lg5Q.s:4016   .text.HAL_TIMEx_BreakCallback:0000000000000000 HAL_TIMEx_BreakCallback
     /tmp/cct1Lg5Q.s:4042   .text.TIMEx_DMACommutationCplt:0000000000000000 $t
     /tmp/cct1Lg5Q.s:4088   .text.HAL_TIMEx_HallSensor_GetState:0000000000000000 $t
     /tmp/cct1Lg5Q.s:4095   .text.HAL_TIMEx_HallSensor_GetState:0000000000000000 HAL_TIMEx_HallSensor_GetState
     /tmp/cct1Lg5Q.s:4126   .text.TIM_CCxNChannelCmd:0000000000000000 $t
                     .debug_frame:0000000000000010 $d

UNDEFINED SYMBOLS
TIM_Base_SetConfig
TIM_TI1_SetConfig
TIM_OC2_SetConfig
TIM_CCxChannelCmd
HAL_DMA_Start_IT
TIM_DMACaptureCplt
TIM_DMAError
TIM_DMADelayPulseCplt
TIM_ETR_SetConfig
