ARM GAS  /tmp/ccE0rAsr.s 			page 1


   1              		.cpu cortex-m0
   2              		.eabi_attribute 20, 1
   3              		.eabi_attribute 21, 1
   4              		.eabi_attribute 23, 3
   5              		.eabi_attribute 24, 1
   6              		.eabi_attribute 25, 1
   7              		.eabi_attribute 26, 1
   8              		.eabi_attribute 30, 4
   9              		.eabi_attribute 34, 0
  10              		.eabi_attribute 18, 4
  11              		.file	"stm32f0xx_hal_dac_ex.c"
  12              		.text
  13              	.Ltext0:
  14              		.cfi_sections	.debug_frame
  15              		.section	.text.DAC_DMAErrorCh1,"ax",%progbits
  16              		.align	1
  17              		.syntax unified
  18              		.code	16
  19              		.thumb_func
  20              		.fpu softvfp
  22              	DAC_DMAErrorCh1:
  23              	.LFB42:
  24              		.file 1 "Drivers/STM32F0xx_HAL_Driver/Src/stm32f0xx_hal_dac_ex.c"
   1:Drivers/STM32F0xx_HAL_Driver/Src/stm32f0xx_hal_dac_ex.c **** /**
   2:Drivers/STM32F0xx_HAL_Driver/Src/stm32f0xx_hal_dac_ex.c ****   ******************************************************************************
   3:Drivers/STM32F0xx_HAL_Driver/Src/stm32f0xx_hal_dac_ex.c ****   * @file    stm32f0xx_hal_dac_ex.c
   4:Drivers/STM32F0xx_HAL_Driver/Src/stm32f0xx_hal_dac_ex.c ****   * @author  MCD Application Team
   5:Drivers/STM32F0xx_HAL_Driver/Src/stm32f0xx_hal_dac_ex.c ****   * @version V1.4.0
   6:Drivers/STM32F0xx_HAL_Driver/Src/stm32f0xx_hal_dac_ex.c ****   * @date    27-May-2016
   7:Drivers/STM32F0xx_HAL_Driver/Src/stm32f0xx_hal_dac_ex.c ****   * @brief   DAC HAL module driver.
   8:Drivers/STM32F0xx_HAL_Driver/Src/stm32f0xx_hal_dac_ex.c ****   *          This file provides firmware functions to manage the extended 
   9:Drivers/STM32F0xx_HAL_Driver/Src/stm32f0xx_hal_dac_ex.c ****   *          functionalities of the DAC peripheral.  
  10:Drivers/STM32F0xx_HAL_Driver/Src/stm32f0xx_hal_dac_ex.c ****   *     
  11:Drivers/STM32F0xx_HAL_Driver/Src/stm32f0xx_hal_dac_ex.c ****   *
  12:Drivers/STM32F0xx_HAL_Driver/Src/stm32f0xx_hal_dac_ex.c ****   @verbatim      
  13:Drivers/STM32F0xx_HAL_Driver/Src/stm32f0xx_hal_dac_ex.c ****   ==============================================================================
  14:Drivers/STM32F0xx_HAL_Driver/Src/stm32f0xx_hal_dac_ex.c ****                       ##### How to use this driver #####
  15:Drivers/STM32F0xx_HAL_Driver/Src/stm32f0xx_hal_dac_ex.c ****   ==============================================================================
  16:Drivers/STM32F0xx_HAL_Driver/Src/stm32f0xx_hal_dac_ex.c ****     [..]          
  17:Drivers/STM32F0xx_HAL_Driver/Src/stm32f0xx_hal_dac_ex.c ****       (+) When Dual mode is enabled (i.e. DAC Channel1 and Channel2 are used simultaneously) :
  18:Drivers/STM32F0xx_HAL_Driver/Src/stm32f0xx_hal_dac_ex.c ****           Use HAL_DACEx_DualGetValue() to get digital data to be converted and use
  19:Drivers/STM32F0xx_HAL_Driver/Src/stm32f0xx_hal_dac_ex.c ****           HAL_DACEx_DualSetValue() to set digital value to converted simultaneously in Channel 1 an
  20:Drivers/STM32F0xx_HAL_Driver/Src/stm32f0xx_hal_dac_ex.c ****       (+) Use HAL_DACEx_TriangleWaveGenerate() to generate Triangle signal.
  21:Drivers/STM32F0xx_HAL_Driver/Src/stm32f0xx_hal_dac_ex.c ****       (+) Use HAL_DACEx_NoiseWaveGenerate() to generate Noise signal.
  22:Drivers/STM32F0xx_HAL_Driver/Src/stm32f0xx_hal_dac_ex.c ****    
  23:Drivers/STM32F0xx_HAL_Driver/Src/stm32f0xx_hal_dac_ex.c ****  @endverbatim    
  24:Drivers/STM32F0xx_HAL_Driver/Src/stm32f0xx_hal_dac_ex.c ****   ******************************************************************************
  25:Drivers/STM32F0xx_HAL_Driver/Src/stm32f0xx_hal_dac_ex.c ****   * @attention
  26:Drivers/STM32F0xx_HAL_Driver/Src/stm32f0xx_hal_dac_ex.c ****   *
  27:Drivers/STM32F0xx_HAL_Driver/Src/stm32f0xx_hal_dac_ex.c ****   * <h2><center>&copy; COPYRIGHT(c) 2016 STMicroelectronics</center></h2>
  28:Drivers/STM32F0xx_HAL_Driver/Src/stm32f0xx_hal_dac_ex.c ****   *
  29:Drivers/STM32F0xx_HAL_Driver/Src/stm32f0xx_hal_dac_ex.c ****   * Redistribution and use in source and binary forms, with or without modification,
  30:Drivers/STM32F0xx_HAL_Driver/Src/stm32f0xx_hal_dac_ex.c ****   * are permitted provided that the following conditions are met:
  31:Drivers/STM32F0xx_HAL_Driver/Src/stm32f0xx_hal_dac_ex.c ****   *   1. Redistributions of source code must retain the above copyright notice,
  32:Drivers/STM32F0xx_HAL_Driver/Src/stm32f0xx_hal_dac_ex.c ****   *      this list of conditions and the following disclaimer.
  33:Drivers/STM32F0xx_HAL_Driver/Src/stm32f0xx_hal_dac_ex.c ****   *   2. Redistributions in binary form must reproduce the above copyright notice,
  34:Drivers/STM32F0xx_HAL_Driver/Src/stm32f0xx_hal_dac_ex.c ****   *      this list of conditions and the following disclaimer in the documentation
ARM GAS  /tmp/ccE0rAsr.s 			page 2


  35:Drivers/STM32F0xx_HAL_Driver/Src/stm32f0xx_hal_dac_ex.c ****   *      and/or other materials provided with the distribution.
  36:Drivers/STM32F0xx_HAL_Driver/Src/stm32f0xx_hal_dac_ex.c ****   *   3. Neither the name of STMicroelectronics nor the names of its contributors
  37:Drivers/STM32F0xx_HAL_Driver/Src/stm32f0xx_hal_dac_ex.c ****   *      may be used to endorse or promote products derived from this software
  38:Drivers/STM32F0xx_HAL_Driver/Src/stm32f0xx_hal_dac_ex.c ****   *      without specific prior written permission.
  39:Drivers/STM32F0xx_HAL_Driver/Src/stm32f0xx_hal_dac_ex.c ****   *
  40:Drivers/STM32F0xx_HAL_Driver/Src/stm32f0xx_hal_dac_ex.c ****   * THIS SOFTWARE IS PROVIDED BY THE COPYRIGHT HOLDERS AND CONTRIBUTORS "AS IS"
  41:Drivers/STM32F0xx_HAL_Driver/Src/stm32f0xx_hal_dac_ex.c ****   * AND ANY EXPRESS OR IMPLIED WARRANTIES, INCLUDING, BUT NOT LIMITED TO, THE
  42:Drivers/STM32F0xx_HAL_Driver/Src/stm32f0xx_hal_dac_ex.c ****   * IMPLIED WARRANTIES OF MERCHANTABILITY AND FITNESS FOR A PARTICULAR PURPOSE ARE
  43:Drivers/STM32F0xx_HAL_Driver/Src/stm32f0xx_hal_dac_ex.c ****   * DISCLAIMED. IN NO EVENT SHALL THE COPYRIGHT HOLDER OR CONTRIBUTORS BE LIABLE
  44:Drivers/STM32F0xx_HAL_Driver/Src/stm32f0xx_hal_dac_ex.c ****   * FOR ANY DIRECT, INDIRECT, INCIDENTAL, SPECIAL, EXEMPLARY, OR CONSEQUENTIAL
  45:Drivers/STM32F0xx_HAL_Driver/Src/stm32f0xx_hal_dac_ex.c ****   * DAMAGES (INCLUDING, BUT NOT LIMITED TO, PROCUREMENT OF SUBSTITUTE GOODS OR
  46:Drivers/STM32F0xx_HAL_Driver/Src/stm32f0xx_hal_dac_ex.c ****   * SERVICES; LOSS OF USE, DATA, OR PROFITS; OR BUSINESS INTERRUPTION) HOWEVER
  47:Drivers/STM32F0xx_HAL_Driver/Src/stm32f0xx_hal_dac_ex.c ****   * CAUSED AND ON ANY THEORY OF LIABILITY, WHETHER IN CONTRACT, STRICT LIABILITY,
  48:Drivers/STM32F0xx_HAL_Driver/Src/stm32f0xx_hal_dac_ex.c ****   * OR TORT (INCLUDING NEGLIGENCE OR OTHERWISE) ARISING IN ANY WAY OUT OF THE USE
  49:Drivers/STM32F0xx_HAL_Driver/Src/stm32f0xx_hal_dac_ex.c ****   * OF THIS SOFTWARE, EVEN IF ADVISED OF THE POSSIBILITY OF SUCH DAMAGE.
  50:Drivers/STM32F0xx_HAL_Driver/Src/stm32f0xx_hal_dac_ex.c ****   *
  51:Drivers/STM32F0xx_HAL_Driver/Src/stm32f0xx_hal_dac_ex.c ****   ******************************************************************************
  52:Drivers/STM32F0xx_HAL_Driver/Src/stm32f0xx_hal_dac_ex.c ****   */ 
  53:Drivers/STM32F0xx_HAL_Driver/Src/stm32f0xx_hal_dac_ex.c **** 
  54:Drivers/STM32F0xx_HAL_Driver/Src/stm32f0xx_hal_dac_ex.c **** 
  55:Drivers/STM32F0xx_HAL_Driver/Src/stm32f0xx_hal_dac_ex.c **** /* Includes ------------------------------------------------------------------*/
  56:Drivers/STM32F0xx_HAL_Driver/Src/stm32f0xx_hal_dac_ex.c **** #include "stm32f0xx_hal.h"
  57:Drivers/STM32F0xx_HAL_Driver/Src/stm32f0xx_hal_dac_ex.c **** 
  58:Drivers/STM32F0xx_HAL_Driver/Src/stm32f0xx_hal_dac_ex.c **** /** @addtogroup STM32F0xx_HAL_Driver
  59:Drivers/STM32F0xx_HAL_Driver/Src/stm32f0xx_hal_dac_ex.c ****   * @{
  60:Drivers/STM32F0xx_HAL_Driver/Src/stm32f0xx_hal_dac_ex.c ****   */
  61:Drivers/STM32F0xx_HAL_Driver/Src/stm32f0xx_hal_dac_ex.c **** 
  62:Drivers/STM32F0xx_HAL_Driver/Src/stm32f0xx_hal_dac_ex.c **** #ifdef HAL_DAC_MODULE_ENABLED
  63:Drivers/STM32F0xx_HAL_Driver/Src/stm32f0xx_hal_dac_ex.c **** 
  64:Drivers/STM32F0xx_HAL_Driver/Src/stm32f0xx_hal_dac_ex.c **** /** @addtogroup DAC
  65:Drivers/STM32F0xx_HAL_Driver/Src/stm32f0xx_hal_dac_ex.c ****   * @{
  66:Drivers/STM32F0xx_HAL_Driver/Src/stm32f0xx_hal_dac_ex.c ****   */ 
  67:Drivers/STM32F0xx_HAL_Driver/Src/stm32f0xx_hal_dac_ex.c **** 
  68:Drivers/STM32F0xx_HAL_Driver/Src/stm32f0xx_hal_dac_ex.c **** #if defined(STM32F051x8) || defined(STM32F058xx) || \
  69:Drivers/STM32F0xx_HAL_Driver/Src/stm32f0xx_hal_dac_ex.c ****     defined(STM32F071xB) || defined(STM32F072xB) || defined(STM32F078xx) || \
  70:Drivers/STM32F0xx_HAL_Driver/Src/stm32f0xx_hal_dac_ex.c ****     defined(STM32F091xC) || defined(STM32F098xx)
  71:Drivers/STM32F0xx_HAL_Driver/Src/stm32f0xx_hal_dac_ex.c **** 
  72:Drivers/STM32F0xx_HAL_Driver/Src/stm32f0xx_hal_dac_ex.c **** /** @addtogroup DAC_Private_Functions
  73:Drivers/STM32F0xx_HAL_Driver/Src/stm32f0xx_hal_dac_ex.c ****   * @{
  74:Drivers/STM32F0xx_HAL_Driver/Src/stm32f0xx_hal_dac_ex.c ****   */
  75:Drivers/STM32F0xx_HAL_Driver/Src/stm32f0xx_hal_dac_ex.c **** static void DAC_DMAConvCpltCh1(DMA_HandleTypeDef *hdma);
  76:Drivers/STM32F0xx_HAL_Driver/Src/stm32f0xx_hal_dac_ex.c **** static void DAC_DMAErrorCh1(DMA_HandleTypeDef *hdma);
  77:Drivers/STM32F0xx_HAL_Driver/Src/stm32f0xx_hal_dac_ex.c **** static void DAC_DMAHalfConvCpltCh1(DMA_HandleTypeDef *hdma); 
  78:Drivers/STM32F0xx_HAL_Driver/Src/stm32f0xx_hal_dac_ex.c **** /**
  79:Drivers/STM32F0xx_HAL_Driver/Src/stm32f0xx_hal_dac_ex.c ****   * @}
  80:Drivers/STM32F0xx_HAL_Driver/Src/stm32f0xx_hal_dac_ex.c ****   */
  81:Drivers/STM32F0xx_HAL_Driver/Src/stm32f0xx_hal_dac_ex.c ****   
  82:Drivers/STM32F0xx_HAL_Driver/Src/stm32f0xx_hal_dac_ex.c **** #endif /* STM32F051x8 STM32F058xx  */
  83:Drivers/STM32F0xx_HAL_Driver/Src/stm32f0xx_hal_dac_ex.c ****        /* STM32F071xB STM32F072xB STM32F078xx */
  84:Drivers/STM32F0xx_HAL_Driver/Src/stm32f0xx_hal_dac_ex.c ****        /* STM32F091xC STM32F098xx */
  85:Drivers/STM32F0xx_HAL_Driver/Src/stm32f0xx_hal_dac_ex.c **** 
  86:Drivers/STM32F0xx_HAL_Driver/Src/stm32f0xx_hal_dac_ex.c **** #if defined(STM32F071xB) || defined(STM32F072xB) || defined(STM32F078xx) || \
  87:Drivers/STM32F0xx_HAL_Driver/Src/stm32f0xx_hal_dac_ex.c ****     defined(STM32F091xC) || defined(STM32F098xx)
  88:Drivers/STM32F0xx_HAL_Driver/Src/stm32f0xx_hal_dac_ex.c **** 
  89:Drivers/STM32F0xx_HAL_Driver/Src/stm32f0xx_hal_dac_ex.c **** /** @addtogroup DAC_Private_Functions
  90:Drivers/STM32F0xx_HAL_Driver/Src/stm32f0xx_hal_dac_ex.c ****   * @{
  91:Drivers/STM32F0xx_HAL_Driver/Src/stm32f0xx_hal_dac_ex.c ****   */
ARM GAS  /tmp/ccE0rAsr.s 			page 3


  92:Drivers/STM32F0xx_HAL_Driver/Src/stm32f0xx_hal_dac_ex.c **** 
  93:Drivers/STM32F0xx_HAL_Driver/Src/stm32f0xx_hal_dac_ex.c **** /* DAC_DMAConvCpltCh2 / DAC_DMAErrorCh2 / DAC_DMAHalfConvCpltCh2 */
  94:Drivers/STM32F0xx_HAL_Driver/Src/stm32f0xx_hal_dac_ex.c **** /* are set by HAL_DAC_Start_DMA */
  95:Drivers/STM32F0xx_HAL_Driver/Src/stm32f0xx_hal_dac_ex.c **** 
  96:Drivers/STM32F0xx_HAL_Driver/Src/stm32f0xx_hal_dac_ex.c **** void DAC_DMAConvCpltCh2(DMA_HandleTypeDef *hdma);
  97:Drivers/STM32F0xx_HAL_Driver/Src/stm32f0xx_hal_dac_ex.c **** void DAC_DMAErrorCh2(DMA_HandleTypeDef *hdma);
  98:Drivers/STM32F0xx_HAL_Driver/Src/stm32f0xx_hal_dac_ex.c **** void DAC_DMAHalfConvCpltCh2(DMA_HandleTypeDef *hdma); 
  99:Drivers/STM32F0xx_HAL_Driver/Src/stm32f0xx_hal_dac_ex.c **** /**
 100:Drivers/STM32F0xx_HAL_Driver/Src/stm32f0xx_hal_dac_ex.c ****   * @}
 101:Drivers/STM32F0xx_HAL_Driver/Src/stm32f0xx_hal_dac_ex.c ****   */
 102:Drivers/STM32F0xx_HAL_Driver/Src/stm32f0xx_hal_dac_ex.c **** 
 103:Drivers/STM32F0xx_HAL_Driver/Src/stm32f0xx_hal_dac_ex.c **** #endif /* STM32F071xB  STM32F072xB  STM32F078xx */
 104:Drivers/STM32F0xx_HAL_Driver/Src/stm32f0xx_hal_dac_ex.c ****        /* STM32F091xC  STM32F098xx */
 105:Drivers/STM32F0xx_HAL_Driver/Src/stm32f0xx_hal_dac_ex.c **** 
 106:Drivers/STM32F0xx_HAL_Driver/Src/stm32f0xx_hal_dac_ex.c **** /** @addtogroup DAC_Exported_Functions
 107:Drivers/STM32F0xx_HAL_Driver/Src/stm32f0xx_hal_dac_ex.c ****   * @{
 108:Drivers/STM32F0xx_HAL_Driver/Src/stm32f0xx_hal_dac_ex.c ****   */
 109:Drivers/STM32F0xx_HAL_Driver/Src/stm32f0xx_hal_dac_ex.c **** 
 110:Drivers/STM32F0xx_HAL_Driver/Src/stm32f0xx_hal_dac_ex.c **** /** @addtogroup DAC_Exported_Functions_Group3
 111:Drivers/STM32F0xx_HAL_Driver/Src/stm32f0xx_hal_dac_ex.c ****   * @{
 112:Drivers/STM32F0xx_HAL_Driver/Src/stm32f0xx_hal_dac_ex.c ****   */
 113:Drivers/STM32F0xx_HAL_Driver/Src/stm32f0xx_hal_dac_ex.c **** 
 114:Drivers/STM32F0xx_HAL_Driver/Src/stm32f0xx_hal_dac_ex.c **** #if defined(STM32F071xB) || defined(STM32F072xB) || defined(STM32F078xx) || \
 115:Drivers/STM32F0xx_HAL_Driver/Src/stm32f0xx_hal_dac_ex.c ****     defined(STM32F091xC) || defined(STM32F098xx)
 116:Drivers/STM32F0xx_HAL_Driver/Src/stm32f0xx_hal_dac_ex.c **** 
 117:Drivers/STM32F0xx_HAL_Driver/Src/stm32f0xx_hal_dac_ex.c **** /**
 118:Drivers/STM32F0xx_HAL_Driver/Src/stm32f0xx_hal_dac_ex.c ****   * @brief  Configures the selected DAC channel.
 119:Drivers/STM32F0xx_HAL_Driver/Src/stm32f0xx_hal_dac_ex.c ****   * @param  hdac: pointer to a DAC_HandleTypeDef structure that contains
 120:Drivers/STM32F0xx_HAL_Driver/Src/stm32f0xx_hal_dac_ex.c ****   *         the configuration information for the specified DAC.
 121:Drivers/STM32F0xx_HAL_Driver/Src/stm32f0xx_hal_dac_ex.c ****   * @param  sConfig: DAC configuration structure.
 122:Drivers/STM32F0xx_HAL_Driver/Src/stm32f0xx_hal_dac_ex.c ****   * @param  Channel: The selected DAC channel. 
 123:Drivers/STM32F0xx_HAL_Driver/Src/stm32f0xx_hal_dac_ex.c ****   *          This parameter can be one of the following values:
 124:Drivers/STM32F0xx_HAL_Driver/Src/stm32f0xx_hal_dac_ex.c ****   *            @arg DAC_CHANNEL_1: DAC Channel1 selected
 125:Drivers/STM32F0xx_HAL_Driver/Src/stm32f0xx_hal_dac_ex.c ****   *            @arg DAC_CHANNEL_2: DAC Channel2 selected
 126:Drivers/STM32F0xx_HAL_Driver/Src/stm32f0xx_hal_dac_ex.c ****   * @retval HAL status
 127:Drivers/STM32F0xx_HAL_Driver/Src/stm32f0xx_hal_dac_ex.c ****   */
 128:Drivers/STM32F0xx_HAL_Driver/Src/stm32f0xx_hal_dac_ex.c **** HAL_StatusTypeDef HAL_DAC_ConfigChannel(DAC_HandleTypeDef* hdac, DAC_ChannelConfTypeDef* sConfig, u
 129:Drivers/STM32F0xx_HAL_Driver/Src/stm32f0xx_hal_dac_ex.c **** {
 130:Drivers/STM32F0xx_HAL_Driver/Src/stm32f0xx_hal_dac_ex.c ****   uint32_t tmpreg1 = 0, tmpreg2 = 0;
 131:Drivers/STM32F0xx_HAL_Driver/Src/stm32f0xx_hal_dac_ex.c **** 
 132:Drivers/STM32F0xx_HAL_Driver/Src/stm32f0xx_hal_dac_ex.c ****   /* Check the DAC parameters */
 133:Drivers/STM32F0xx_HAL_Driver/Src/stm32f0xx_hal_dac_ex.c ****   assert_param(IS_DAC_TRIGGER(sConfig->DAC_Trigger));
 134:Drivers/STM32F0xx_HAL_Driver/Src/stm32f0xx_hal_dac_ex.c ****   assert_param(IS_DAC_OUTPUT_BUFFER_STATE(sConfig->DAC_OutputBuffer));
 135:Drivers/STM32F0xx_HAL_Driver/Src/stm32f0xx_hal_dac_ex.c ****   assert_param(IS_DAC_TRIGGER(sConfig->DAC_Trigger));
 136:Drivers/STM32F0xx_HAL_Driver/Src/stm32f0xx_hal_dac_ex.c ****   assert_param(IS_DAC_CHANNEL(Channel));
 137:Drivers/STM32F0xx_HAL_Driver/Src/stm32f0xx_hal_dac_ex.c ****   
 138:Drivers/STM32F0xx_HAL_Driver/Src/stm32f0xx_hal_dac_ex.c ****   /* Process locked */
 139:Drivers/STM32F0xx_HAL_Driver/Src/stm32f0xx_hal_dac_ex.c ****   __HAL_LOCK(hdac);
 140:Drivers/STM32F0xx_HAL_Driver/Src/stm32f0xx_hal_dac_ex.c ****   
 141:Drivers/STM32F0xx_HAL_Driver/Src/stm32f0xx_hal_dac_ex.c ****   /* Change DAC state */
 142:Drivers/STM32F0xx_HAL_Driver/Src/stm32f0xx_hal_dac_ex.c ****   hdac->State = HAL_DAC_STATE_BUSY;
 143:Drivers/STM32F0xx_HAL_Driver/Src/stm32f0xx_hal_dac_ex.c ****   
 144:Drivers/STM32F0xx_HAL_Driver/Src/stm32f0xx_hal_dac_ex.c ****   /* Get the DAC CR value */
 145:Drivers/STM32F0xx_HAL_Driver/Src/stm32f0xx_hal_dac_ex.c ****   tmpreg1 = hdac->Instance->CR;
 146:Drivers/STM32F0xx_HAL_Driver/Src/stm32f0xx_hal_dac_ex.c ****   /* Clear BOFFx, TENx, TSELx, WAVEx and MAMPx bits */
 147:Drivers/STM32F0xx_HAL_Driver/Src/stm32f0xx_hal_dac_ex.c ****   tmpreg1 &= ~(((uint32_t)(DAC_CR_MAMP1 | DAC_CR_WAVE1 | DAC_CR_TSEL1 | DAC_CR_TEN1 | DAC_CR_BOFF1)
 148:Drivers/STM32F0xx_HAL_Driver/Src/stm32f0xx_hal_dac_ex.c ****   /* Configure for the selected DAC channel: buffer output, trigger */
ARM GAS  /tmp/ccE0rAsr.s 			page 4


 149:Drivers/STM32F0xx_HAL_Driver/Src/stm32f0xx_hal_dac_ex.c ****   /* Set TSELx and TENx bits according to DAC_Trigger value */
 150:Drivers/STM32F0xx_HAL_Driver/Src/stm32f0xx_hal_dac_ex.c ****   /* Set BOFFx bit according to DAC_OutputBuffer value */   
 151:Drivers/STM32F0xx_HAL_Driver/Src/stm32f0xx_hal_dac_ex.c ****   tmpreg2 = (sConfig->DAC_Trigger | sConfig->DAC_OutputBuffer);
 152:Drivers/STM32F0xx_HAL_Driver/Src/stm32f0xx_hal_dac_ex.c ****   /* Calculate CR register value depending on DAC_Channel */
 153:Drivers/STM32F0xx_HAL_Driver/Src/stm32f0xx_hal_dac_ex.c ****   tmpreg1 |= tmpreg2 << Channel;
 154:Drivers/STM32F0xx_HAL_Driver/Src/stm32f0xx_hal_dac_ex.c ****   /* Write to DAC CR */
 155:Drivers/STM32F0xx_HAL_Driver/Src/stm32f0xx_hal_dac_ex.c ****   hdac->Instance->CR = tmpreg1;
 156:Drivers/STM32F0xx_HAL_Driver/Src/stm32f0xx_hal_dac_ex.c ****   
 157:Drivers/STM32F0xx_HAL_Driver/Src/stm32f0xx_hal_dac_ex.c ****   /* Change DAC state */
 158:Drivers/STM32F0xx_HAL_Driver/Src/stm32f0xx_hal_dac_ex.c ****   hdac->State = HAL_DAC_STATE_READY;
 159:Drivers/STM32F0xx_HAL_Driver/Src/stm32f0xx_hal_dac_ex.c ****   
 160:Drivers/STM32F0xx_HAL_Driver/Src/stm32f0xx_hal_dac_ex.c ****   /* Process unlocked */
 161:Drivers/STM32F0xx_HAL_Driver/Src/stm32f0xx_hal_dac_ex.c ****   __HAL_UNLOCK(hdac);
 162:Drivers/STM32F0xx_HAL_Driver/Src/stm32f0xx_hal_dac_ex.c ****   
 163:Drivers/STM32F0xx_HAL_Driver/Src/stm32f0xx_hal_dac_ex.c ****   /* Return function status */
 164:Drivers/STM32F0xx_HAL_Driver/Src/stm32f0xx_hal_dac_ex.c ****   return HAL_OK;
 165:Drivers/STM32F0xx_HAL_Driver/Src/stm32f0xx_hal_dac_ex.c **** }
 166:Drivers/STM32F0xx_HAL_Driver/Src/stm32f0xx_hal_dac_ex.c **** 
 167:Drivers/STM32F0xx_HAL_Driver/Src/stm32f0xx_hal_dac_ex.c **** #endif /* STM32F071xB STM32F072xB STM32F078xx */
 168:Drivers/STM32F0xx_HAL_Driver/Src/stm32f0xx_hal_dac_ex.c ****        /* STM32F091xC STM32F098xx  */
 169:Drivers/STM32F0xx_HAL_Driver/Src/stm32f0xx_hal_dac_ex.c **** 
 170:Drivers/STM32F0xx_HAL_Driver/Src/stm32f0xx_hal_dac_ex.c **** #if defined (STM32F051x8) || defined (STM32F058xx)
 171:Drivers/STM32F0xx_HAL_Driver/Src/stm32f0xx_hal_dac_ex.c **** 
 172:Drivers/STM32F0xx_HAL_Driver/Src/stm32f0xx_hal_dac_ex.c **** /**
 173:Drivers/STM32F0xx_HAL_Driver/Src/stm32f0xx_hal_dac_ex.c ****   * @brief  Configures the selected DAC channel.
 174:Drivers/STM32F0xx_HAL_Driver/Src/stm32f0xx_hal_dac_ex.c ****   * @param  hdac: pointer to a DAC_HandleTypeDef structure that contains
 175:Drivers/STM32F0xx_HAL_Driver/Src/stm32f0xx_hal_dac_ex.c ****   *         the configuration information for the specified DAC.
 176:Drivers/STM32F0xx_HAL_Driver/Src/stm32f0xx_hal_dac_ex.c ****   * @param  sConfig: DAC configuration structure.
 177:Drivers/STM32F0xx_HAL_Driver/Src/stm32f0xx_hal_dac_ex.c ****   * @param  Channel: The selected DAC channel. 
 178:Drivers/STM32F0xx_HAL_Driver/Src/stm32f0xx_hal_dac_ex.c ****   *          This parameter can be one of the following values:
 179:Drivers/STM32F0xx_HAL_Driver/Src/stm32f0xx_hal_dac_ex.c ****   *            @arg DAC_CHANNEL_1: DAC Channel1 selected
 180:Drivers/STM32F0xx_HAL_Driver/Src/stm32f0xx_hal_dac_ex.c ****   * @retval HAL status
 181:Drivers/STM32F0xx_HAL_Driver/Src/stm32f0xx_hal_dac_ex.c ****   */
 182:Drivers/STM32F0xx_HAL_Driver/Src/stm32f0xx_hal_dac_ex.c **** HAL_StatusTypeDef HAL_DAC_ConfigChannel(DAC_HandleTypeDef* hdac, DAC_ChannelConfTypeDef* sConfig, u
 183:Drivers/STM32F0xx_HAL_Driver/Src/stm32f0xx_hal_dac_ex.c **** {
 184:Drivers/STM32F0xx_HAL_Driver/Src/stm32f0xx_hal_dac_ex.c ****   uint32_t tmpreg1 = 0, tmpreg2 = 0;
 185:Drivers/STM32F0xx_HAL_Driver/Src/stm32f0xx_hal_dac_ex.c **** 
 186:Drivers/STM32F0xx_HAL_Driver/Src/stm32f0xx_hal_dac_ex.c ****   /* Check the DAC parameters */
 187:Drivers/STM32F0xx_HAL_Driver/Src/stm32f0xx_hal_dac_ex.c ****   assert_param(IS_DAC_TRIGGER(sConfig->DAC_Trigger));
 188:Drivers/STM32F0xx_HAL_Driver/Src/stm32f0xx_hal_dac_ex.c ****   assert_param(IS_DAC_OUTPUT_BUFFER_STATE(sConfig->DAC_OutputBuffer));
 189:Drivers/STM32F0xx_HAL_Driver/Src/stm32f0xx_hal_dac_ex.c ****   assert_param(IS_DAC_TRIGGER(sConfig->DAC_Trigger));
 190:Drivers/STM32F0xx_HAL_Driver/Src/stm32f0xx_hal_dac_ex.c ****   assert_param(IS_DAC_CHANNEL(Channel));
 191:Drivers/STM32F0xx_HAL_Driver/Src/stm32f0xx_hal_dac_ex.c ****   
 192:Drivers/STM32F0xx_HAL_Driver/Src/stm32f0xx_hal_dac_ex.c ****   /* Process locked */
 193:Drivers/STM32F0xx_HAL_Driver/Src/stm32f0xx_hal_dac_ex.c ****   __HAL_LOCK(hdac);
 194:Drivers/STM32F0xx_HAL_Driver/Src/stm32f0xx_hal_dac_ex.c ****   
 195:Drivers/STM32F0xx_HAL_Driver/Src/stm32f0xx_hal_dac_ex.c ****   /* Change DAC state */
 196:Drivers/STM32F0xx_HAL_Driver/Src/stm32f0xx_hal_dac_ex.c ****   hdac->State = HAL_DAC_STATE_BUSY;
 197:Drivers/STM32F0xx_HAL_Driver/Src/stm32f0xx_hal_dac_ex.c ****   
 198:Drivers/STM32F0xx_HAL_Driver/Src/stm32f0xx_hal_dac_ex.c ****   /* Get the DAC CR value */
 199:Drivers/STM32F0xx_HAL_Driver/Src/stm32f0xx_hal_dac_ex.c ****   tmpreg1 = hdac->Instance->CR;
 200:Drivers/STM32F0xx_HAL_Driver/Src/stm32f0xx_hal_dac_ex.c ****   /* Clear BOFFx, TENx, TSELx, WAVEx and MAMPx bits */
 201:Drivers/STM32F0xx_HAL_Driver/Src/stm32f0xx_hal_dac_ex.c ****   tmpreg1 &= ~(((uint32_t)(DAC_CR_TSEL1 | DAC_CR_TEN1 | DAC_CR_BOFF1)) << Channel); 
 202:Drivers/STM32F0xx_HAL_Driver/Src/stm32f0xx_hal_dac_ex.c ****   /* Configure for the selected DAC channel: buffer output, trigger */
 203:Drivers/STM32F0xx_HAL_Driver/Src/stm32f0xx_hal_dac_ex.c ****   /* Set TSELx and TENx bits according to DAC_Trigger value */
 204:Drivers/STM32F0xx_HAL_Driver/Src/stm32f0xx_hal_dac_ex.c ****   /* Set BOFFx bit according to DAC_OutputBuffer value */   
 205:Drivers/STM32F0xx_HAL_Driver/Src/stm32f0xx_hal_dac_ex.c ****   tmpreg2 = (sConfig->DAC_Trigger | sConfig->DAC_OutputBuffer);
ARM GAS  /tmp/ccE0rAsr.s 			page 5


 206:Drivers/STM32F0xx_HAL_Driver/Src/stm32f0xx_hal_dac_ex.c ****   /* Calculate CR register value depending on DAC_Channel */
 207:Drivers/STM32F0xx_HAL_Driver/Src/stm32f0xx_hal_dac_ex.c ****   tmpreg1 |= tmpreg2 << Channel;
 208:Drivers/STM32F0xx_HAL_Driver/Src/stm32f0xx_hal_dac_ex.c ****   /* Write to DAC CR */
 209:Drivers/STM32F0xx_HAL_Driver/Src/stm32f0xx_hal_dac_ex.c ****   hdac->Instance->CR = tmpreg1;
 210:Drivers/STM32F0xx_HAL_Driver/Src/stm32f0xx_hal_dac_ex.c ****   
 211:Drivers/STM32F0xx_HAL_Driver/Src/stm32f0xx_hal_dac_ex.c ****   /* Change DAC state */
 212:Drivers/STM32F0xx_HAL_Driver/Src/stm32f0xx_hal_dac_ex.c ****   hdac->State = HAL_DAC_STATE_READY;
 213:Drivers/STM32F0xx_HAL_Driver/Src/stm32f0xx_hal_dac_ex.c ****   
 214:Drivers/STM32F0xx_HAL_Driver/Src/stm32f0xx_hal_dac_ex.c ****   /* Process unlocked */
 215:Drivers/STM32F0xx_HAL_Driver/Src/stm32f0xx_hal_dac_ex.c ****   __HAL_UNLOCK(hdac);
 216:Drivers/STM32F0xx_HAL_Driver/Src/stm32f0xx_hal_dac_ex.c ****   
 217:Drivers/STM32F0xx_HAL_Driver/Src/stm32f0xx_hal_dac_ex.c ****   /* Return function status */
 218:Drivers/STM32F0xx_HAL_Driver/Src/stm32f0xx_hal_dac_ex.c ****   return HAL_OK;
 219:Drivers/STM32F0xx_HAL_Driver/Src/stm32f0xx_hal_dac_ex.c **** }
 220:Drivers/STM32F0xx_HAL_Driver/Src/stm32f0xx_hal_dac_ex.c **** 
 221:Drivers/STM32F0xx_HAL_Driver/Src/stm32f0xx_hal_dac_ex.c **** #endif /* STM32F051x8 STM32F058xx */
 222:Drivers/STM32F0xx_HAL_Driver/Src/stm32f0xx_hal_dac_ex.c **** 
 223:Drivers/STM32F0xx_HAL_Driver/Src/stm32f0xx_hal_dac_ex.c **** #if defined(STM32F071xB) || defined(STM32F072xB) || defined(STM32F078xx) || \
 224:Drivers/STM32F0xx_HAL_Driver/Src/stm32f0xx_hal_dac_ex.c ****     defined(STM32F091xC) || defined(STM32F098xx)
 225:Drivers/STM32F0xx_HAL_Driver/Src/stm32f0xx_hal_dac_ex.c **** /* DAC 1 has 2 channels 1 & 2 */
 226:Drivers/STM32F0xx_HAL_Driver/Src/stm32f0xx_hal_dac_ex.c **** 
 227:Drivers/STM32F0xx_HAL_Driver/Src/stm32f0xx_hal_dac_ex.c **** /**
 228:Drivers/STM32F0xx_HAL_Driver/Src/stm32f0xx_hal_dac_ex.c ****   * @brief  Returns the last data output value of the selected DAC channel.
 229:Drivers/STM32F0xx_HAL_Driver/Src/stm32f0xx_hal_dac_ex.c ****   * @param  hdac: pointer to a DAC_HandleTypeDef structure that contains
 230:Drivers/STM32F0xx_HAL_Driver/Src/stm32f0xx_hal_dac_ex.c ****   *         the configuration information for the specified DAC.
 231:Drivers/STM32F0xx_HAL_Driver/Src/stm32f0xx_hal_dac_ex.c ****   * @param  Channel: The selected DAC channel. 
 232:Drivers/STM32F0xx_HAL_Driver/Src/stm32f0xx_hal_dac_ex.c ****   *          This parameter can be one of the following values:
 233:Drivers/STM32F0xx_HAL_Driver/Src/stm32f0xx_hal_dac_ex.c ****   *            @arg DAC_CHANNEL_1: DAC Channel1 selected
 234:Drivers/STM32F0xx_HAL_Driver/Src/stm32f0xx_hal_dac_ex.c ****   *            @arg DAC_CHANNEL_2: DAC Channel2 selected
 235:Drivers/STM32F0xx_HAL_Driver/Src/stm32f0xx_hal_dac_ex.c ****   * @retval The selected DAC channel data output value.
 236:Drivers/STM32F0xx_HAL_Driver/Src/stm32f0xx_hal_dac_ex.c ****   */
 237:Drivers/STM32F0xx_HAL_Driver/Src/stm32f0xx_hal_dac_ex.c **** uint32_t HAL_DAC_GetValue(DAC_HandleTypeDef* hdac, uint32_t Channel)
 238:Drivers/STM32F0xx_HAL_Driver/Src/stm32f0xx_hal_dac_ex.c **** {
 239:Drivers/STM32F0xx_HAL_Driver/Src/stm32f0xx_hal_dac_ex.c ****   /* Check the parameters */
 240:Drivers/STM32F0xx_HAL_Driver/Src/stm32f0xx_hal_dac_ex.c ****   assert_param(IS_DAC_CHANNEL(Channel));
 241:Drivers/STM32F0xx_HAL_Driver/Src/stm32f0xx_hal_dac_ex.c ****   
 242:Drivers/STM32F0xx_HAL_Driver/Src/stm32f0xx_hal_dac_ex.c ****   /* Returns the DAC channel data output register value */
 243:Drivers/STM32F0xx_HAL_Driver/Src/stm32f0xx_hal_dac_ex.c ****   if(Channel == DAC_CHANNEL_1)
 244:Drivers/STM32F0xx_HAL_Driver/Src/stm32f0xx_hal_dac_ex.c ****   {
 245:Drivers/STM32F0xx_HAL_Driver/Src/stm32f0xx_hal_dac_ex.c ****     return hdac->Instance->DOR1;
 246:Drivers/STM32F0xx_HAL_Driver/Src/stm32f0xx_hal_dac_ex.c ****   }
 247:Drivers/STM32F0xx_HAL_Driver/Src/stm32f0xx_hal_dac_ex.c ****   else
 248:Drivers/STM32F0xx_HAL_Driver/Src/stm32f0xx_hal_dac_ex.c ****   {
 249:Drivers/STM32F0xx_HAL_Driver/Src/stm32f0xx_hal_dac_ex.c ****     return hdac->Instance->DOR2;
 250:Drivers/STM32F0xx_HAL_Driver/Src/stm32f0xx_hal_dac_ex.c ****   }
 251:Drivers/STM32F0xx_HAL_Driver/Src/stm32f0xx_hal_dac_ex.c **** }
 252:Drivers/STM32F0xx_HAL_Driver/Src/stm32f0xx_hal_dac_ex.c **** 
 253:Drivers/STM32F0xx_HAL_Driver/Src/stm32f0xx_hal_dac_ex.c **** #endif /* STM32F071xB  STM32F072xB  STM32F078xx */
 254:Drivers/STM32F0xx_HAL_Driver/Src/stm32f0xx_hal_dac_ex.c ****        /* STM32F091xC  STM32F098xx */
 255:Drivers/STM32F0xx_HAL_Driver/Src/stm32f0xx_hal_dac_ex.c ****   
 256:Drivers/STM32F0xx_HAL_Driver/Src/stm32f0xx_hal_dac_ex.c **** #if defined (STM32F051x8) || defined (STM32F058xx)
 257:Drivers/STM32F0xx_HAL_Driver/Src/stm32f0xx_hal_dac_ex.c **** 
 258:Drivers/STM32F0xx_HAL_Driver/Src/stm32f0xx_hal_dac_ex.c **** /* DAC 1 has 1 channels  */
 259:Drivers/STM32F0xx_HAL_Driver/Src/stm32f0xx_hal_dac_ex.c **** 
 260:Drivers/STM32F0xx_HAL_Driver/Src/stm32f0xx_hal_dac_ex.c **** /**
 261:Drivers/STM32F0xx_HAL_Driver/Src/stm32f0xx_hal_dac_ex.c ****   * @brief  Returns the last data output value of the selected DAC channel.
 262:Drivers/STM32F0xx_HAL_Driver/Src/stm32f0xx_hal_dac_ex.c ****   * @param  hdac: pointer to a DAC_HandleTypeDef structure that contains
ARM GAS  /tmp/ccE0rAsr.s 			page 6


 263:Drivers/STM32F0xx_HAL_Driver/Src/stm32f0xx_hal_dac_ex.c ****   *         the configuration information for the specified DAC.
 264:Drivers/STM32F0xx_HAL_Driver/Src/stm32f0xx_hal_dac_ex.c ****   * @param  Channel: The selected DAC channel. 
 265:Drivers/STM32F0xx_HAL_Driver/Src/stm32f0xx_hal_dac_ex.c ****   *          This parameter can be one of the following values:
 266:Drivers/STM32F0xx_HAL_Driver/Src/stm32f0xx_hal_dac_ex.c ****   *            @arg DAC_CHANNEL_1: DAC Channel1 selected
 267:Drivers/STM32F0xx_HAL_Driver/Src/stm32f0xx_hal_dac_ex.c ****     * @retval The selected DAC channel data output value.
 268:Drivers/STM32F0xx_HAL_Driver/Src/stm32f0xx_hal_dac_ex.c ****   */
 269:Drivers/STM32F0xx_HAL_Driver/Src/stm32f0xx_hal_dac_ex.c **** uint32_t HAL_DAC_GetValue(DAC_HandleTypeDef* hdac, uint32_t Channel)
 270:Drivers/STM32F0xx_HAL_Driver/Src/stm32f0xx_hal_dac_ex.c **** {
 271:Drivers/STM32F0xx_HAL_Driver/Src/stm32f0xx_hal_dac_ex.c ****   /* Check the parameters */
 272:Drivers/STM32F0xx_HAL_Driver/Src/stm32f0xx_hal_dac_ex.c ****   assert_param(IS_DAC_CHANNEL(Channel));
 273:Drivers/STM32F0xx_HAL_Driver/Src/stm32f0xx_hal_dac_ex.c ****   
 274:Drivers/STM32F0xx_HAL_Driver/Src/stm32f0xx_hal_dac_ex.c ****   /* Returns the DAC channel data output register value */
 275:Drivers/STM32F0xx_HAL_Driver/Src/stm32f0xx_hal_dac_ex.c ****   return hdac->Instance->DOR1;
 276:Drivers/STM32F0xx_HAL_Driver/Src/stm32f0xx_hal_dac_ex.c **** }
 277:Drivers/STM32F0xx_HAL_Driver/Src/stm32f0xx_hal_dac_ex.c **** 
 278:Drivers/STM32F0xx_HAL_Driver/Src/stm32f0xx_hal_dac_ex.c **** 
 279:Drivers/STM32F0xx_HAL_Driver/Src/stm32f0xx_hal_dac_ex.c **** 
 280:Drivers/STM32F0xx_HAL_Driver/Src/stm32f0xx_hal_dac_ex.c **** #endif /* STM32F051x8 STM32F058xx */
 281:Drivers/STM32F0xx_HAL_Driver/Src/stm32f0xx_hal_dac_ex.c **** 
 282:Drivers/STM32F0xx_HAL_Driver/Src/stm32f0xx_hal_dac_ex.c **** /**
 283:Drivers/STM32F0xx_HAL_Driver/Src/stm32f0xx_hal_dac_ex.c ****   * @}
 284:Drivers/STM32F0xx_HAL_Driver/Src/stm32f0xx_hal_dac_ex.c ****   */
 285:Drivers/STM32F0xx_HAL_Driver/Src/stm32f0xx_hal_dac_ex.c **** 
 286:Drivers/STM32F0xx_HAL_Driver/Src/stm32f0xx_hal_dac_ex.c **** /** @addtogroup DAC_Exported_Functions_Group2
 287:Drivers/STM32F0xx_HAL_Driver/Src/stm32f0xx_hal_dac_ex.c ****   * @{
 288:Drivers/STM32F0xx_HAL_Driver/Src/stm32f0xx_hal_dac_ex.c ****   */
 289:Drivers/STM32F0xx_HAL_Driver/Src/stm32f0xx_hal_dac_ex.c **** 
 290:Drivers/STM32F0xx_HAL_Driver/Src/stm32f0xx_hal_dac_ex.c **** #if defined(STM32F071xB) || defined(STM32F072xB) || defined(STM32F078xx) || \
 291:Drivers/STM32F0xx_HAL_Driver/Src/stm32f0xx_hal_dac_ex.c ****     defined(STM32F091xC) || defined(STM32F098xx)
 292:Drivers/STM32F0xx_HAL_Driver/Src/stm32f0xx_hal_dac_ex.c **** 
 293:Drivers/STM32F0xx_HAL_Driver/Src/stm32f0xx_hal_dac_ex.c **** /**
 294:Drivers/STM32F0xx_HAL_Driver/Src/stm32f0xx_hal_dac_ex.c ****   * @brief  Enables DAC and starts conversion of channel.
 295:Drivers/STM32F0xx_HAL_Driver/Src/stm32f0xx_hal_dac_ex.c ****   * @param  hdac: pointer to a DAC_HandleTypeDef structure that contains
 296:Drivers/STM32F0xx_HAL_Driver/Src/stm32f0xx_hal_dac_ex.c ****   *         the configuration information for the specified DAC.
 297:Drivers/STM32F0xx_HAL_Driver/Src/stm32f0xx_hal_dac_ex.c ****   * @param  Channel: The selected DAC channel. 
 298:Drivers/STM32F0xx_HAL_Driver/Src/stm32f0xx_hal_dac_ex.c ****   *          This parameter can be one of the following values:
 299:Drivers/STM32F0xx_HAL_Driver/Src/stm32f0xx_hal_dac_ex.c ****   *            @arg DAC_CHANNEL_1: DAC Channel1 selected
 300:Drivers/STM32F0xx_HAL_Driver/Src/stm32f0xx_hal_dac_ex.c ****   *            @arg DAC_CHANNEL_2: DAC Channel2 selected
 301:Drivers/STM32F0xx_HAL_Driver/Src/stm32f0xx_hal_dac_ex.c ****   * @retval HAL status
 302:Drivers/STM32F0xx_HAL_Driver/Src/stm32f0xx_hal_dac_ex.c ****   */
 303:Drivers/STM32F0xx_HAL_Driver/Src/stm32f0xx_hal_dac_ex.c **** HAL_StatusTypeDef HAL_DAC_Start(DAC_HandleTypeDef* hdac, uint32_t Channel)
 304:Drivers/STM32F0xx_HAL_Driver/Src/stm32f0xx_hal_dac_ex.c **** {
 305:Drivers/STM32F0xx_HAL_Driver/Src/stm32f0xx_hal_dac_ex.c ****   /* Check the parameters */
 306:Drivers/STM32F0xx_HAL_Driver/Src/stm32f0xx_hal_dac_ex.c ****   assert_param(IS_DAC_CHANNEL(Channel));
 307:Drivers/STM32F0xx_HAL_Driver/Src/stm32f0xx_hal_dac_ex.c ****   
 308:Drivers/STM32F0xx_HAL_Driver/Src/stm32f0xx_hal_dac_ex.c ****   /* Process locked */
 309:Drivers/STM32F0xx_HAL_Driver/Src/stm32f0xx_hal_dac_ex.c ****   __HAL_LOCK(hdac);
 310:Drivers/STM32F0xx_HAL_Driver/Src/stm32f0xx_hal_dac_ex.c ****   
 311:Drivers/STM32F0xx_HAL_Driver/Src/stm32f0xx_hal_dac_ex.c ****   /* Change DAC state */
 312:Drivers/STM32F0xx_HAL_Driver/Src/stm32f0xx_hal_dac_ex.c ****   hdac->State = HAL_DAC_STATE_BUSY;
 313:Drivers/STM32F0xx_HAL_Driver/Src/stm32f0xx_hal_dac_ex.c ****   
 314:Drivers/STM32F0xx_HAL_Driver/Src/stm32f0xx_hal_dac_ex.c ****   /* Enable the Peripharal */
 315:Drivers/STM32F0xx_HAL_Driver/Src/stm32f0xx_hal_dac_ex.c ****   __HAL_DAC_ENABLE(hdac, Channel);
 316:Drivers/STM32F0xx_HAL_Driver/Src/stm32f0xx_hal_dac_ex.c ****   
 317:Drivers/STM32F0xx_HAL_Driver/Src/stm32f0xx_hal_dac_ex.c ****   if(Channel == DAC_CHANNEL_1)
 318:Drivers/STM32F0xx_HAL_Driver/Src/stm32f0xx_hal_dac_ex.c ****   {
 319:Drivers/STM32F0xx_HAL_Driver/Src/stm32f0xx_hal_dac_ex.c ****     /* Check if software trigger enabled */
ARM GAS  /tmp/ccE0rAsr.s 			page 7


 320:Drivers/STM32F0xx_HAL_Driver/Src/stm32f0xx_hal_dac_ex.c ****     if((hdac->Instance->CR & (DAC_CR_TEN1 | DAC_CR_TSEL1)) == (DAC_CR_TEN1 | DAC_CR_TSEL1))
 321:Drivers/STM32F0xx_HAL_Driver/Src/stm32f0xx_hal_dac_ex.c ****     {
 322:Drivers/STM32F0xx_HAL_Driver/Src/stm32f0xx_hal_dac_ex.c ****       /* Enable the selected DAC software conversion */
 323:Drivers/STM32F0xx_HAL_Driver/Src/stm32f0xx_hal_dac_ex.c ****       SET_BIT(hdac->Instance->SWTRIGR, DAC_SWTRIGR_SWTRIG1);
 324:Drivers/STM32F0xx_HAL_Driver/Src/stm32f0xx_hal_dac_ex.c ****     }
 325:Drivers/STM32F0xx_HAL_Driver/Src/stm32f0xx_hal_dac_ex.c ****   }
 326:Drivers/STM32F0xx_HAL_Driver/Src/stm32f0xx_hal_dac_ex.c ****   else
 327:Drivers/STM32F0xx_HAL_Driver/Src/stm32f0xx_hal_dac_ex.c ****   {
 328:Drivers/STM32F0xx_HAL_Driver/Src/stm32f0xx_hal_dac_ex.c ****     /* Check if software trigger enabled */
 329:Drivers/STM32F0xx_HAL_Driver/Src/stm32f0xx_hal_dac_ex.c ****     if((hdac->Instance->CR & (DAC_CR_TEN2 | DAC_CR_TSEL2)) == (DAC_CR_TEN2 | DAC_CR_TSEL2))
 330:Drivers/STM32F0xx_HAL_Driver/Src/stm32f0xx_hal_dac_ex.c ****     {
 331:Drivers/STM32F0xx_HAL_Driver/Src/stm32f0xx_hal_dac_ex.c ****       /* Enable the selected DAC software conversion*/
 332:Drivers/STM32F0xx_HAL_Driver/Src/stm32f0xx_hal_dac_ex.c ****       SET_BIT(hdac->Instance->SWTRIGR, DAC_SWTRIGR_SWTRIG2);
 333:Drivers/STM32F0xx_HAL_Driver/Src/stm32f0xx_hal_dac_ex.c ****     }
 334:Drivers/STM32F0xx_HAL_Driver/Src/stm32f0xx_hal_dac_ex.c ****   }
 335:Drivers/STM32F0xx_HAL_Driver/Src/stm32f0xx_hal_dac_ex.c ****   
 336:Drivers/STM32F0xx_HAL_Driver/Src/stm32f0xx_hal_dac_ex.c ****   /* Change DAC state */
 337:Drivers/STM32F0xx_HAL_Driver/Src/stm32f0xx_hal_dac_ex.c ****   hdac->State = HAL_DAC_STATE_READY;
 338:Drivers/STM32F0xx_HAL_Driver/Src/stm32f0xx_hal_dac_ex.c ****   
 339:Drivers/STM32F0xx_HAL_Driver/Src/stm32f0xx_hal_dac_ex.c ****   /* Process unlocked */
 340:Drivers/STM32F0xx_HAL_Driver/Src/stm32f0xx_hal_dac_ex.c ****   __HAL_UNLOCK(hdac);
 341:Drivers/STM32F0xx_HAL_Driver/Src/stm32f0xx_hal_dac_ex.c ****     
 342:Drivers/STM32F0xx_HAL_Driver/Src/stm32f0xx_hal_dac_ex.c ****   /* Return function status */
 343:Drivers/STM32F0xx_HAL_Driver/Src/stm32f0xx_hal_dac_ex.c ****   return HAL_OK;
 344:Drivers/STM32F0xx_HAL_Driver/Src/stm32f0xx_hal_dac_ex.c **** }
 345:Drivers/STM32F0xx_HAL_Driver/Src/stm32f0xx_hal_dac_ex.c **** 
 346:Drivers/STM32F0xx_HAL_Driver/Src/stm32f0xx_hal_dac_ex.c **** /**
 347:Drivers/STM32F0xx_HAL_Driver/Src/stm32f0xx_hal_dac_ex.c ****   * @brief  Enables DAC and starts conversion of channel.
 348:Drivers/STM32F0xx_HAL_Driver/Src/stm32f0xx_hal_dac_ex.c ****   * @param  hdac: pointer to a DAC_HandleTypeDef structure that contains
 349:Drivers/STM32F0xx_HAL_Driver/Src/stm32f0xx_hal_dac_ex.c ****   *         the configuration information for the specified DAC.
 350:Drivers/STM32F0xx_HAL_Driver/Src/stm32f0xx_hal_dac_ex.c ****   * @param  Channel: The selected DAC channel. 
 351:Drivers/STM32F0xx_HAL_Driver/Src/stm32f0xx_hal_dac_ex.c ****   *          This parameter can be one of the following values:
 352:Drivers/STM32F0xx_HAL_Driver/Src/stm32f0xx_hal_dac_ex.c ****   *            @arg DAC_CHANNEL_1: DAC Channel1 selected
 353:Drivers/STM32F0xx_HAL_Driver/Src/stm32f0xx_hal_dac_ex.c ****   *            @arg DAC_CHANNEL_2: DAC Channel2 selected
 354:Drivers/STM32F0xx_HAL_Driver/Src/stm32f0xx_hal_dac_ex.c ****   * @param  pData: The destination peripheral Buffer address.
 355:Drivers/STM32F0xx_HAL_Driver/Src/stm32f0xx_hal_dac_ex.c ****   * @param  Length: The length of data to be transferred from memory to DAC peripheral
 356:Drivers/STM32F0xx_HAL_Driver/Src/stm32f0xx_hal_dac_ex.c ****   * @param  Alignment: Specifies the data alignment for DAC channel.
 357:Drivers/STM32F0xx_HAL_Driver/Src/stm32f0xx_hal_dac_ex.c ****   *          This parameter can be one of the following values:
 358:Drivers/STM32F0xx_HAL_Driver/Src/stm32f0xx_hal_dac_ex.c ****   *            @arg DAC_ALIGN_8B_R: 8bit right data alignment selected
 359:Drivers/STM32F0xx_HAL_Driver/Src/stm32f0xx_hal_dac_ex.c ****   *            @arg DAC_ALIGN_12B_L: 12bit left data alignment selected
 360:Drivers/STM32F0xx_HAL_Driver/Src/stm32f0xx_hal_dac_ex.c ****   *            @arg DAC_ALIGN_12B_R: 12bit right data alignment selected
 361:Drivers/STM32F0xx_HAL_Driver/Src/stm32f0xx_hal_dac_ex.c ****   * @retval HAL status
 362:Drivers/STM32F0xx_HAL_Driver/Src/stm32f0xx_hal_dac_ex.c ****   */
 363:Drivers/STM32F0xx_HAL_Driver/Src/stm32f0xx_hal_dac_ex.c **** HAL_StatusTypeDef HAL_DAC_Start_DMA(DAC_HandleTypeDef* hdac, uint32_t Channel, uint32_t* pData, uin
 364:Drivers/STM32F0xx_HAL_Driver/Src/stm32f0xx_hal_dac_ex.c **** {
 365:Drivers/STM32F0xx_HAL_Driver/Src/stm32f0xx_hal_dac_ex.c ****   uint32_t tmpreg = 0;
 366:Drivers/STM32F0xx_HAL_Driver/Src/stm32f0xx_hal_dac_ex.c ****     
 367:Drivers/STM32F0xx_HAL_Driver/Src/stm32f0xx_hal_dac_ex.c ****   /* Check the parameters */
 368:Drivers/STM32F0xx_HAL_Driver/Src/stm32f0xx_hal_dac_ex.c ****   assert_param(IS_DAC_CHANNEL(Channel));
 369:Drivers/STM32F0xx_HAL_Driver/Src/stm32f0xx_hal_dac_ex.c ****   assert_param(IS_DAC_ALIGN(Alignment));
 370:Drivers/STM32F0xx_HAL_Driver/Src/stm32f0xx_hal_dac_ex.c ****   
 371:Drivers/STM32F0xx_HAL_Driver/Src/stm32f0xx_hal_dac_ex.c ****   /* Process locked */
 372:Drivers/STM32F0xx_HAL_Driver/Src/stm32f0xx_hal_dac_ex.c ****   __HAL_LOCK(hdac);
 373:Drivers/STM32F0xx_HAL_Driver/Src/stm32f0xx_hal_dac_ex.c ****   
 374:Drivers/STM32F0xx_HAL_Driver/Src/stm32f0xx_hal_dac_ex.c ****   /* Change DAC state */
 375:Drivers/STM32F0xx_HAL_Driver/Src/stm32f0xx_hal_dac_ex.c ****   hdac->State = HAL_DAC_STATE_BUSY;
 376:Drivers/STM32F0xx_HAL_Driver/Src/stm32f0xx_hal_dac_ex.c ****   
ARM GAS  /tmp/ccE0rAsr.s 			page 8


 377:Drivers/STM32F0xx_HAL_Driver/Src/stm32f0xx_hal_dac_ex.c ****   if(Channel == DAC_CHANNEL_1)
 378:Drivers/STM32F0xx_HAL_Driver/Src/stm32f0xx_hal_dac_ex.c ****   {
 379:Drivers/STM32F0xx_HAL_Driver/Src/stm32f0xx_hal_dac_ex.c ****     /* Set the DMA transfer complete callback for channel1 */
 380:Drivers/STM32F0xx_HAL_Driver/Src/stm32f0xx_hal_dac_ex.c ****     hdac->DMA_Handle1->XferCpltCallback = DAC_DMAConvCpltCh1;
 381:Drivers/STM32F0xx_HAL_Driver/Src/stm32f0xx_hal_dac_ex.c ****     
 382:Drivers/STM32F0xx_HAL_Driver/Src/stm32f0xx_hal_dac_ex.c ****     /* Set the DMA half transfer complete callback for channel1 */
 383:Drivers/STM32F0xx_HAL_Driver/Src/stm32f0xx_hal_dac_ex.c ****     hdac->DMA_Handle1->XferHalfCpltCallback = DAC_DMAHalfConvCpltCh1;
 384:Drivers/STM32F0xx_HAL_Driver/Src/stm32f0xx_hal_dac_ex.c ****        
 385:Drivers/STM32F0xx_HAL_Driver/Src/stm32f0xx_hal_dac_ex.c ****     /* Set the DMA error callback for channel1 */
 386:Drivers/STM32F0xx_HAL_Driver/Src/stm32f0xx_hal_dac_ex.c ****     hdac->DMA_Handle1->XferErrorCallback = DAC_DMAErrorCh1;
 387:Drivers/STM32F0xx_HAL_Driver/Src/stm32f0xx_hal_dac_ex.c ****     
 388:Drivers/STM32F0xx_HAL_Driver/Src/stm32f0xx_hal_dac_ex.c ****     /* Enable the selected DAC channel1 DMA request */
 389:Drivers/STM32F0xx_HAL_Driver/Src/stm32f0xx_hal_dac_ex.c ****     SET_BIT(hdac->Instance->CR, DAC_CR_DMAEN1);
 390:Drivers/STM32F0xx_HAL_Driver/Src/stm32f0xx_hal_dac_ex.c ****     
 391:Drivers/STM32F0xx_HAL_Driver/Src/stm32f0xx_hal_dac_ex.c ****     /* Case of use of channel 1 */
 392:Drivers/STM32F0xx_HAL_Driver/Src/stm32f0xx_hal_dac_ex.c ****     switch(Alignment)
 393:Drivers/STM32F0xx_HAL_Driver/Src/stm32f0xx_hal_dac_ex.c ****     {
 394:Drivers/STM32F0xx_HAL_Driver/Src/stm32f0xx_hal_dac_ex.c ****       case DAC_ALIGN_12B_R:
 395:Drivers/STM32F0xx_HAL_Driver/Src/stm32f0xx_hal_dac_ex.c ****         /* Get DHR12R1 address */
 396:Drivers/STM32F0xx_HAL_Driver/Src/stm32f0xx_hal_dac_ex.c ****         tmpreg = (uint32_t)&hdac->Instance->DHR12R1;
 397:Drivers/STM32F0xx_HAL_Driver/Src/stm32f0xx_hal_dac_ex.c ****         break;
 398:Drivers/STM32F0xx_HAL_Driver/Src/stm32f0xx_hal_dac_ex.c ****       case DAC_ALIGN_12B_L:
 399:Drivers/STM32F0xx_HAL_Driver/Src/stm32f0xx_hal_dac_ex.c ****         /* Get DHR12L1 address */
 400:Drivers/STM32F0xx_HAL_Driver/Src/stm32f0xx_hal_dac_ex.c ****         tmpreg = (uint32_t)&hdac->Instance->DHR12L1;
 401:Drivers/STM32F0xx_HAL_Driver/Src/stm32f0xx_hal_dac_ex.c ****         break;
 402:Drivers/STM32F0xx_HAL_Driver/Src/stm32f0xx_hal_dac_ex.c ****       case DAC_ALIGN_8B_R:
 403:Drivers/STM32F0xx_HAL_Driver/Src/stm32f0xx_hal_dac_ex.c ****         /* Get DHR8R1 address */
 404:Drivers/STM32F0xx_HAL_Driver/Src/stm32f0xx_hal_dac_ex.c ****         tmpreg = (uint32_t)&hdac->Instance->DHR8R1;
 405:Drivers/STM32F0xx_HAL_Driver/Src/stm32f0xx_hal_dac_ex.c ****         break;
 406:Drivers/STM32F0xx_HAL_Driver/Src/stm32f0xx_hal_dac_ex.c ****       default:
 407:Drivers/STM32F0xx_HAL_Driver/Src/stm32f0xx_hal_dac_ex.c ****         break;
 408:Drivers/STM32F0xx_HAL_Driver/Src/stm32f0xx_hal_dac_ex.c ****     }
 409:Drivers/STM32F0xx_HAL_Driver/Src/stm32f0xx_hal_dac_ex.c ****   }
 410:Drivers/STM32F0xx_HAL_Driver/Src/stm32f0xx_hal_dac_ex.c ****   else
 411:Drivers/STM32F0xx_HAL_Driver/Src/stm32f0xx_hal_dac_ex.c ****   {
 412:Drivers/STM32F0xx_HAL_Driver/Src/stm32f0xx_hal_dac_ex.c ****     /* Set the DMA transfer complete callback for channel2 */
 413:Drivers/STM32F0xx_HAL_Driver/Src/stm32f0xx_hal_dac_ex.c ****     hdac->DMA_Handle2->XferCpltCallback = DAC_DMAConvCpltCh2;
 414:Drivers/STM32F0xx_HAL_Driver/Src/stm32f0xx_hal_dac_ex.c ****     
 415:Drivers/STM32F0xx_HAL_Driver/Src/stm32f0xx_hal_dac_ex.c ****     /* Set the DMA half transfer complete callback for channel2 */
 416:Drivers/STM32F0xx_HAL_Driver/Src/stm32f0xx_hal_dac_ex.c ****     hdac->DMA_Handle2->XferHalfCpltCallback = DAC_DMAHalfConvCpltCh2;
 417:Drivers/STM32F0xx_HAL_Driver/Src/stm32f0xx_hal_dac_ex.c ****        
 418:Drivers/STM32F0xx_HAL_Driver/Src/stm32f0xx_hal_dac_ex.c ****     /* Set the DMA error callback for channel2 */
 419:Drivers/STM32F0xx_HAL_Driver/Src/stm32f0xx_hal_dac_ex.c ****     hdac->DMA_Handle2->XferErrorCallback = DAC_DMAErrorCh2;
 420:Drivers/STM32F0xx_HAL_Driver/Src/stm32f0xx_hal_dac_ex.c ****     
 421:Drivers/STM32F0xx_HAL_Driver/Src/stm32f0xx_hal_dac_ex.c ****     /* Enable the selected DAC channel2 DMA request */
 422:Drivers/STM32F0xx_HAL_Driver/Src/stm32f0xx_hal_dac_ex.c ****     SET_BIT(hdac->Instance->CR, DAC_CR_DMAEN2);
 423:Drivers/STM32F0xx_HAL_Driver/Src/stm32f0xx_hal_dac_ex.c ****     
 424:Drivers/STM32F0xx_HAL_Driver/Src/stm32f0xx_hal_dac_ex.c ****     /* Case of use of channel 2 */
 425:Drivers/STM32F0xx_HAL_Driver/Src/stm32f0xx_hal_dac_ex.c ****     switch(Alignment)
 426:Drivers/STM32F0xx_HAL_Driver/Src/stm32f0xx_hal_dac_ex.c ****     {
 427:Drivers/STM32F0xx_HAL_Driver/Src/stm32f0xx_hal_dac_ex.c ****       case DAC_ALIGN_12B_R:
 428:Drivers/STM32F0xx_HAL_Driver/Src/stm32f0xx_hal_dac_ex.c ****         /* Get DHR12R2 address */
 429:Drivers/STM32F0xx_HAL_Driver/Src/stm32f0xx_hal_dac_ex.c ****         tmpreg = (uint32_t)&hdac->Instance->DHR12R2;
 430:Drivers/STM32F0xx_HAL_Driver/Src/stm32f0xx_hal_dac_ex.c ****         break;
 431:Drivers/STM32F0xx_HAL_Driver/Src/stm32f0xx_hal_dac_ex.c ****       case DAC_ALIGN_12B_L:
 432:Drivers/STM32F0xx_HAL_Driver/Src/stm32f0xx_hal_dac_ex.c ****         /* Get DHR12L2 address */
 433:Drivers/STM32F0xx_HAL_Driver/Src/stm32f0xx_hal_dac_ex.c ****         tmpreg = (uint32_t)&hdac->Instance->DHR12L2;
ARM GAS  /tmp/ccE0rAsr.s 			page 9


 434:Drivers/STM32F0xx_HAL_Driver/Src/stm32f0xx_hal_dac_ex.c ****         break;
 435:Drivers/STM32F0xx_HAL_Driver/Src/stm32f0xx_hal_dac_ex.c ****       case DAC_ALIGN_8B_R:
 436:Drivers/STM32F0xx_HAL_Driver/Src/stm32f0xx_hal_dac_ex.c ****         /* Get DHR8R2 address */
 437:Drivers/STM32F0xx_HAL_Driver/Src/stm32f0xx_hal_dac_ex.c ****         tmpreg = (uint32_t)&hdac->Instance->DHR8R2;
 438:Drivers/STM32F0xx_HAL_Driver/Src/stm32f0xx_hal_dac_ex.c ****         break;
 439:Drivers/STM32F0xx_HAL_Driver/Src/stm32f0xx_hal_dac_ex.c ****       default:
 440:Drivers/STM32F0xx_HAL_Driver/Src/stm32f0xx_hal_dac_ex.c ****         break;
 441:Drivers/STM32F0xx_HAL_Driver/Src/stm32f0xx_hal_dac_ex.c ****     }
 442:Drivers/STM32F0xx_HAL_Driver/Src/stm32f0xx_hal_dac_ex.c ****   }
 443:Drivers/STM32F0xx_HAL_Driver/Src/stm32f0xx_hal_dac_ex.c ****   
 444:Drivers/STM32F0xx_HAL_Driver/Src/stm32f0xx_hal_dac_ex.c ****   /* Enable the DMA channel */
 445:Drivers/STM32F0xx_HAL_Driver/Src/stm32f0xx_hal_dac_ex.c ****   if(Channel == DAC_CHANNEL_1)
 446:Drivers/STM32F0xx_HAL_Driver/Src/stm32f0xx_hal_dac_ex.c ****   {
 447:Drivers/STM32F0xx_HAL_Driver/Src/stm32f0xx_hal_dac_ex.c ****     /* Enable the DAC DMA underrun interrupt */
 448:Drivers/STM32F0xx_HAL_Driver/Src/stm32f0xx_hal_dac_ex.c ****     __HAL_DAC_ENABLE_IT(hdac, DAC_IT_DMAUDR1);
 449:Drivers/STM32F0xx_HAL_Driver/Src/stm32f0xx_hal_dac_ex.c ****     
 450:Drivers/STM32F0xx_HAL_Driver/Src/stm32f0xx_hal_dac_ex.c ****     /* Enable the DMA channel */
 451:Drivers/STM32F0xx_HAL_Driver/Src/stm32f0xx_hal_dac_ex.c ****     HAL_DMA_Start_IT(hdac->DMA_Handle1, (uint32_t)pData, tmpreg, Length);
 452:Drivers/STM32F0xx_HAL_Driver/Src/stm32f0xx_hal_dac_ex.c ****   } 
 453:Drivers/STM32F0xx_HAL_Driver/Src/stm32f0xx_hal_dac_ex.c ****   else
 454:Drivers/STM32F0xx_HAL_Driver/Src/stm32f0xx_hal_dac_ex.c ****   {
 455:Drivers/STM32F0xx_HAL_Driver/Src/stm32f0xx_hal_dac_ex.c ****     /* Enable the DAC DMA underrun interrupt */
 456:Drivers/STM32F0xx_HAL_Driver/Src/stm32f0xx_hal_dac_ex.c ****     __HAL_DAC_ENABLE_IT(hdac, DAC_IT_DMAUDR2);
 457:Drivers/STM32F0xx_HAL_Driver/Src/stm32f0xx_hal_dac_ex.c ****     
 458:Drivers/STM32F0xx_HAL_Driver/Src/stm32f0xx_hal_dac_ex.c ****     /* Enable the DMA channel */
 459:Drivers/STM32F0xx_HAL_Driver/Src/stm32f0xx_hal_dac_ex.c ****     HAL_DMA_Start_IT(hdac->DMA_Handle2, (uint32_t)pData, tmpreg, Length);
 460:Drivers/STM32F0xx_HAL_Driver/Src/stm32f0xx_hal_dac_ex.c ****   }
 461:Drivers/STM32F0xx_HAL_Driver/Src/stm32f0xx_hal_dac_ex.c ****   
 462:Drivers/STM32F0xx_HAL_Driver/Src/stm32f0xx_hal_dac_ex.c ****   /* Enable the Peripharal */
 463:Drivers/STM32F0xx_HAL_Driver/Src/stm32f0xx_hal_dac_ex.c ****   __HAL_DAC_ENABLE(hdac, Channel);
 464:Drivers/STM32F0xx_HAL_Driver/Src/stm32f0xx_hal_dac_ex.c ****   
 465:Drivers/STM32F0xx_HAL_Driver/Src/stm32f0xx_hal_dac_ex.c ****   /* Process Unlocked */
 466:Drivers/STM32F0xx_HAL_Driver/Src/stm32f0xx_hal_dac_ex.c ****   __HAL_UNLOCK(hdac);
 467:Drivers/STM32F0xx_HAL_Driver/Src/stm32f0xx_hal_dac_ex.c ****   
 468:Drivers/STM32F0xx_HAL_Driver/Src/stm32f0xx_hal_dac_ex.c ****   /* Return function status */
 469:Drivers/STM32F0xx_HAL_Driver/Src/stm32f0xx_hal_dac_ex.c ****   return HAL_OK;
 470:Drivers/STM32F0xx_HAL_Driver/Src/stm32f0xx_hal_dac_ex.c **** }
 471:Drivers/STM32F0xx_HAL_Driver/Src/stm32f0xx_hal_dac_ex.c **** 
 472:Drivers/STM32F0xx_HAL_Driver/Src/stm32f0xx_hal_dac_ex.c **** 
 473:Drivers/STM32F0xx_HAL_Driver/Src/stm32f0xx_hal_dac_ex.c **** 
 474:Drivers/STM32F0xx_HAL_Driver/Src/stm32f0xx_hal_dac_ex.c **** #endif /* STM32F071xB  STM32F072xB  STM32F078xx */
 475:Drivers/STM32F0xx_HAL_Driver/Src/stm32f0xx_hal_dac_ex.c ****        /* STM32F091xC  STM32F098xx */
 476:Drivers/STM32F0xx_HAL_Driver/Src/stm32f0xx_hal_dac_ex.c **** 
 477:Drivers/STM32F0xx_HAL_Driver/Src/stm32f0xx_hal_dac_ex.c **** #if defined (STM32F051x8) || defined (STM32F058xx)
 478:Drivers/STM32F0xx_HAL_Driver/Src/stm32f0xx_hal_dac_ex.c **** 
 479:Drivers/STM32F0xx_HAL_Driver/Src/stm32f0xx_hal_dac_ex.c **** HAL_StatusTypeDef HAL_DAC_Start(DAC_HandleTypeDef* hdac, uint32_t Channel)
 480:Drivers/STM32F0xx_HAL_Driver/Src/stm32f0xx_hal_dac_ex.c **** {
 481:Drivers/STM32F0xx_HAL_Driver/Src/stm32f0xx_hal_dac_ex.c ****   /* Check the parameters */
 482:Drivers/STM32F0xx_HAL_Driver/Src/stm32f0xx_hal_dac_ex.c ****   assert_param(IS_DAC_CHANNEL(Channel));
 483:Drivers/STM32F0xx_HAL_Driver/Src/stm32f0xx_hal_dac_ex.c ****   
 484:Drivers/STM32F0xx_HAL_Driver/Src/stm32f0xx_hal_dac_ex.c ****   /* Process locked */
 485:Drivers/STM32F0xx_HAL_Driver/Src/stm32f0xx_hal_dac_ex.c ****   __HAL_LOCK(hdac);
 486:Drivers/STM32F0xx_HAL_Driver/Src/stm32f0xx_hal_dac_ex.c ****   
 487:Drivers/STM32F0xx_HAL_Driver/Src/stm32f0xx_hal_dac_ex.c ****   /* Change DAC state */
 488:Drivers/STM32F0xx_HAL_Driver/Src/stm32f0xx_hal_dac_ex.c ****   hdac->State = HAL_DAC_STATE_BUSY;
 489:Drivers/STM32F0xx_HAL_Driver/Src/stm32f0xx_hal_dac_ex.c ****   
 490:Drivers/STM32F0xx_HAL_Driver/Src/stm32f0xx_hal_dac_ex.c ****   /* Enable the Peripharal */
ARM GAS  /tmp/ccE0rAsr.s 			page 10


 491:Drivers/STM32F0xx_HAL_Driver/Src/stm32f0xx_hal_dac_ex.c ****   __HAL_DAC_ENABLE(hdac, Channel);
 492:Drivers/STM32F0xx_HAL_Driver/Src/stm32f0xx_hal_dac_ex.c ****   
 493:Drivers/STM32F0xx_HAL_Driver/Src/stm32f0xx_hal_dac_ex.c ****   if(Channel == DAC_CHANNEL_1)
 494:Drivers/STM32F0xx_HAL_Driver/Src/stm32f0xx_hal_dac_ex.c ****   {
 495:Drivers/STM32F0xx_HAL_Driver/Src/stm32f0xx_hal_dac_ex.c ****     /* Check if software trigger enabled */
 496:Drivers/STM32F0xx_HAL_Driver/Src/stm32f0xx_hal_dac_ex.c ****     if((hdac->Instance->CR & (DAC_CR_TEN1 | DAC_CR_TSEL1)) == (DAC_CR_TEN1 | DAC_CR_TSEL1))
 497:Drivers/STM32F0xx_HAL_Driver/Src/stm32f0xx_hal_dac_ex.c ****     {
 498:Drivers/STM32F0xx_HAL_Driver/Src/stm32f0xx_hal_dac_ex.c ****       /* Enable the selected DAC software conversion */
 499:Drivers/STM32F0xx_HAL_Driver/Src/stm32f0xx_hal_dac_ex.c ****       SET_BIT(hdac->Instance->SWTRIGR, DAC_SWTRIGR_SWTRIG1);
 500:Drivers/STM32F0xx_HAL_Driver/Src/stm32f0xx_hal_dac_ex.c ****     }
 501:Drivers/STM32F0xx_HAL_Driver/Src/stm32f0xx_hal_dac_ex.c ****   }
 502:Drivers/STM32F0xx_HAL_Driver/Src/stm32f0xx_hal_dac_ex.c ****  
 503:Drivers/STM32F0xx_HAL_Driver/Src/stm32f0xx_hal_dac_ex.c ****   /* Change DAC state */
 504:Drivers/STM32F0xx_HAL_Driver/Src/stm32f0xx_hal_dac_ex.c ****   hdac->State = HAL_DAC_STATE_READY;
 505:Drivers/STM32F0xx_HAL_Driver/Src/stm32f0xx_hal_dac_ex.c ****   
 506:Drivers/STM32F0xx_HAL_Driver/Src/stm32f0xx_hal_dac_ex.c ****   /* Process unlocked */
 507:Drivers/STM32F0xx_HAL_Driver/Src/stm32f0xx_hal_dac_ex.c ****   __HAL_UNLOCK(hdac);
 508:Drivers/STM32F0xx_HAL_Driver/Src/stm32f0xx_hal_dac_ex.c ****     
 509:Drivers/STM32F0xx_HAL_Driver/Src/stm32f0xx_hal_dac_ex.c ****   /* Return function status */
 510:Drivers/STM32F0xx_HAL_Driver/Src/stm32f0xx_hal_dac_ex.c ****   return HAL_OK;
 511:Drivers/STM32F0xx_HAL_Driver/Src/stm32f0xx_hal_dac_ex.c **** }
 512:Drivers/STM32F0xx_HAL_Driver/Src/stm32f0xx_hal_dac_ex.c **** 
 513:Drivers/STM32F0xx_HAL_Driver/Src/stm32f0xx_hal_dac_ex.c **** /**
 514:Drivers/STM32F0xx_HAL_Driver/Src/stm32f0xx_hal_dac_ex.c ****   * @brief  Enables DAC and starts conversion of channel.
 515:Drivers/STM32F0xx_HAL_Driver/Src/stm32f0xx_hal_dac_ex.c ****   * @param  hdac: pointer to a DAC_HandleTypeDef structure that contains
 516:Drivers/STM32F0xx_HAL_Driver/Src/stm32f0xx_hal_dac_ex.c ****   *         the configuration information for the specified DAC.
 517:Drivers/STM32F0xx_HAL_Driver/Src/stm32f0xx_hal_dac_ex.c ****   * @param  Channel: The selected DAC channel. 
 518:Drivers/STM32F0xx_HAL_Driver/Src/stm32f0xx_hal_dac_ex.c ****   *          This parameter can be one of the following values:
 519:Drivers/STM32F0xx_HAL_Driver/Src/stm32f0xx_hal_dac_ex.c ****   *            @arg DAC_CHANNEL_1: DAC Channel1 selected
 520:Drivers/STM32F0xx_HAL_Driver/Src/stm32f0xx_hal_dac_ex.c ****   * @param  pData: The destination peripheral Buffer address.
 521:Drivers/STM32F0xx_HAL_Driver/Src/stm32f0xx_hal_dac_ex.c ****   * @param  Length: The length of data to be transferred from memory to DAC peripheral
 522:Drivers/STM32F0xx_HAL_Driver/Src/stm32f0xx_hal_dac_ex.c ****   * @param  Alignment: Specifies the data alignment for DAC channel.
 523:Drivers/STM32F0xx_HAL_Driver/Src/stm32f0xx_hal_dac_ex.c ****   *          This parameter can be one of the following values:
 524:Drivers/STM32F0xx_HAL_Driver/Src/stm32f0xx_hal_dac_ex.c ****   *            @arg DAC_ALIGN_8B_R: 8bit right data alignment selected
 525:Drivers/STM32F0xx_HAL_Driver/Src/stm32f0xx_hal_dac_ex.c ****   *            @arg DAC_ALIGN_12B_L: 12bit left data alignment selected
 526:Drivers/STM32F0xx_HAL_Driver/Src/stm32f0xx_hal_dac_ex.c ****   *            @arg DAC_ALIGN_12B_R: 12bit right data alignment selected
 527:Drivers/STM32F0xx_HAL_Driver/Src/stm32f0xx_hal_dac_ex.c ****   * @retval HAL status
 528:Drivers/STM32F0xx_HAL_Driver/Src/stm32f0xx_hal_dac_ex.c ****   */
 529:Drivers/STM32F0xx_HAL_Driver/Src/stm32f0xx_hal_dac_ex.c **** HAL_StatusTypeDef HAL_DAC_Start_DMA(DAC_HandleTypeDef* hdac, uint32_t Channel, uint32_t* pData, uin
 530:Drivers/STM32F0xx_HAL_Driver/Src/stm32f0xx_hal_dac_ex.c **** {
 531:Drivers/STM32F0xx_HAL_Driver/Src/stm32f0xx_hal_dac_ex.c ****   uint32_t tmpreg = 0;
 532:Drivers/STM32F0xx_HAL_Driver/Src/stm32f0xx_hal_dac_ex.c ****     
 533:Drivers/STM32F0xx_HAL_Driver/Src/stm32f0xx_hal_dac_ex.c ****   /* Check the parameters */
 534:Drivers/STM32F0xx_HAL_Driver/Src/stm32f0xx_hal_dac_ex.c ****   assert_param(IS_DAC_CHANNEL(Channel));
 535:Drivers/STM32F0xx_HAL_Driver/Src/stm32f0xx_hal_dac_ex.c ****   assert_param(IS_DAC_ALIGN(Alignment));
 536:Drivers/STM32F0xx_HAL_Driver/Src/stm32f0xx_hal_dac_ex.c ****   
 537:Drivers/STM32F0xx_HAL_Driver/Src/stm32f0xx_hal_dac_ex.c ****   /* Process locked */
 538:Drivers/STM32F0xx_HAL_Driver/Src/stm32f0xx_hal_dac_ex.c ****   __HAL_LOCK(hdac);
 539:Drivers/STM32F0xx_HAL_Driver/Src/stm32f0xx_hal_dac_ex.c ****   
 540:Drivers/STM32F0xx_HAL_Driver/Src/stm32f0xx_hal_dac_ex.c ****   /* Change DAC state */
 541:Drivers/STM32F0xx_HAL_Driver/Src/stm32f0xx_hal_dac_ex.c ****   hdac->State = HAL_DAC_STATE_BUSY;
 542:Drivers/STM32F0xx_HAL_Driver/Src/stm32f0xx_hal_dac_ex.c ****   
 543:Drivers/STM32F0xx_HAL_Driver/Src/stm32f0xx_hal_dac_ex.c ****   /* Set the DMA transfer complete callback for channel1 */
 544:Drivers/STM32F0xx_HAL_Driver/Src/stm32f0xx_hal_dac_ex.c ****   hdac->DMA_Handle1->XferCpltCallback = DAC_DMAConvCpltCh1;
 545:Drivers/STM32F0xx_HAL_Driver/Src/stm32f0xx_hal_dac_ex.c ****   
 546:Drivers/STM32F0xx_HAL_Driver/Src/stm32f0xx_hal_dac_ex.c ****   /* Set the DMA half transfer complete callback for channel1 */
 547:Drivers/STM32F0xx_HAL_Driver/Src/stm32f0xx_hal_dac_ex.c ****   hdac->DMA_Handle1->XferHalfCpltCallback = DAC_DMAHalfConvCpltCh1;
ARM GAS  /tmp/ccE0rAsr.s 			page 11


 548:Drivers/STM32F0xx_HAL_Driver/Src/stm32f0xx_hal_dac_ex.c ****      
 549:Drivers/STM32F0xx_HAL_Driver/Src/stm32f0xx_hal_dac_ex.c ****   /* Set the DMA error callback for channel1 */
 550:Drivers/STM32F0xx_HAL_Driver/Src/stm32f0xx_hal_dac_ex.c ****   hdac->DMA_Handle1->XferErrorCallback = DAC_DMAErrorCh1;
 551:Drivers/STM32F0xx_HAL_Driver/Src/stm32f0xx_hal_dac_ex.c ****   
 552:Drivers/STM32F0xx_HAL_Driver/Src/stm32f0xx_hal_dac_ex.c ****   /* Enable the selected DAC channel1 DMA request */
 553:Drivers/STM32F0xx_HAL_Driver/Src/stm32f0xx_hal_dac_ex.c ****   SET_BIT(hdac->Instance->CR, DAC_CR_DMAEN1);
 554:Drivers/STM32F0xx_HAL_Driver/Src/stm32f0xx_hal_dac_ex.c **** 
 555:Drivers/STM32F0xx_HAL_Driver/Src/stm32f0xx_hal_dac_ex.c ****   /* Case of use of channel 1 */
 556:Drivers/STM32F0xx_HAL_Driver/Src/stm32f0xx_hal_dac_ex.c ****   switch(Alignment)
 557:Drivers/STM32F0xx_HAL_Driver/Src/stm32f0xx_hal_dac_ex.c ****   {
 558:Drivers/STM32F0xx_HAL_Driver/Src/stm32f0xx_hal_dac_ex.c ****     case DAC_ALIGN_12B_R:
 559:Drivers/STM32F0xx_HAL_Driver/Src/stm32f0xx_hal_dac_ex.c ****       /* Get DHR12R1 address */
 560:Drivers/STM32F0xx_HAL_Driver/Src/stm32f0xx_hal_dac_ex.c ****       tmpreg = (uint32_t)&hdac->Instance->DHR12R1;
 561:Drivers/STM32F0xx_HAL_Driver/Src/stm32f0xx_hal_dac_ex.c ****       break;
 562:Drivers/STM32F0xx_HAL_Driver/Src/stm32f0xx_hal_dac_ex.c ****     case DAC_ALIGN_12B_L:
 563:Drivers/STM32F0xx_HAL_Driver/Src/stm32f0xx_hal_dac_ex.c ****       /* Get DHR12L1 address */
 564:Drivers/STM32F0xx_HAL_Driver/Src/stm32f0xx_hal_dac_ex.c ****       tmpreg = (uint32_t)&hdac->Instance->DHR12L1;
 565:Drivers/STM32F0xx_HAL_Driver/Src/stm32f0xx_hal_dac_ex.c ****       break;
 566:Drivers/STM32F0xx_HAL_Driver/Src/stm32f0xx_hal_dac_ex.c ****     case DAC_ALIGN_8B_R:
 567:Drivers/STM32F0xx_HAL_Driver/Src/stm32f0xx_hal_dac_ex.c ****       /* Get DHR8R1 address */
 568:Drivers/STM32F0xx_HAL_Driver/Src/stm32f0xx_hal_dac_ex.c ****       tmpreg = (uint32_t)&hdac->Instance->DHR8R1;
 569:Drivers/STM32F0xx_HAL_Driver/Src/stm32f0xx_hal_dac_ex.c ****       break;
 570:Drivers/STM32F0xx_HAL_Driver/Src/stm32f0xx_hal_dac_ex.c ****     default:
 571:Drivers/STM32F0xx_HAL_Driver/Src/stm32f0xx_hal_dac_ex.c ****       break;
 572:Drivers/STM32F0xx_HAL_Driver/Src/stm32f0xx_hal_dac_ex.c ****   }
 573:Drivers/STM32F0xx_HAL_Driver/Src/stm32f0xx_hal_dac_ex.c **** 
 574:Drivers/STM32F0xx_HAL_Driver/Src/stm32f0xx_hal_dac_ex.c ****   /* Enable the DMA channel */
 575:Drivers/STM32F0xx_HAL_Driver/Src/stm32f0xx_hal_dac_ex.c ****   /* Enable the DAC DMA underrun interrupt */
 576:Drivers/STM32F0xx_HAL_Driver/Src/stm32f0xx_hal_dac_ex.c ****   __HAL_DAC_ENABLE_IT(hdac, DAC_IT_DMAUDR1);
 577:Drivers/STM32F0xx_HAL_Driver/Src/stm32f0xx_hal_dac_ex.c ****     
 578:Drivers/STM32F0xx_HAL_Driver/Src/stm32f0xx_hal_dac_ex.c ****   /* Enable the DMA channel */
 579:Drivers/STM32F0xx_HAL_Driver/Src/stm32f0xx_hal_dac_ex.c ****   HAL_DMA_Start_IT(hdac->DMA_Handle1, (uint32_t)pData, tmpreg, Length);
 580:Drivers/STM32F0xx_HAL_Driver/Src/stm32f0xx_hal_dac_ex.c ****   
 581:Drivers/STM32F0xx_HAL_Driver/Src/stm32f0xx_hal_dac_ex.c ****   /* Enable the DAC DMA underrun interrupt */
 582:Drivers/STM32F0xx_HAL_Driver/Src/stm32f0xx_hal_dac_ex.c ****   __HAL_DAC_ENABLE_IT(hdac, DAC_IT_DMAUDR1);
 583:Drivers/STM32F0xx_HAL_Driver/Src/stm32f0xx_hal_dac_ex.c ****     
 584:Drivers/STM32F0xx_HAL_Driver/Src/stm32f0xx_hal_dac_ex.c ****   /* Enable the DMA channel */
 585:Drivers/STM32F0xx_HAL_Driver/Src/stm32f0xx_hal_dac_ex.c ****   HAL_DMA_Start_IT(hdac->DMA_Handle1, (uint32_t)pData, tmpreg, Length);
 586:Drivers/STM32F0xx_HAL_Driver/Src/stm32f0xx_hal_dac_ex.c ****     
 587:Drivers/STM32F0xx_HAL_Driver/Src/stm32f0xx_hal_dac_ex.c ****   /* Enable the Peripharal */
 588:Drivers/STM32F0xx_HAL_Driver/Src/stm32f0xx_hal_dac_ex.c ****   __HAL_DAC_ENABLE(hdac, Channel);
 589:Drivers/STM32F0xx_HAL_Driver/Src/stm32f0xx_hal_dac_ex.c ****   
 590:Drivers/STM32F0xx_HAL_Driver/Src/stm32f0xx_hal_dac_ex.c ****   /* Process Unlocked */
 591:Drivers/STM32F0xx_HAL_Driver/Src/stm32f0xx_hal_dac_ex.c ****   __HAL_UNLOCK(hdac);
 592:Drivers/STM32F0xx_HAL_Driver/Src/stm32f0xx_hal_dac_ex.c ****   
 593:Drivers/STM32F0xx_HAL_Driver/Src/stm32f0xx_hal_dac_ex.c ****   /* Return function status */
 594:Drivers/STM32F0xx_HAL_Driver/Src/stm32f0xx_hal_dac_ex.c ****   return HAL_OK;
 595:Drivers/STM32F0xx_HAL_Driver/Src/stm32f0xx_hal_dac_ex.c **** }
 596:Drivers/STM32F0xx_HAL_Driver/Src/stm32f0xx_hal_dac_ex.c **** 
 597:Drivers/STM32F0xx_HAL_Driver/Src/stm32f0xx_hal_dac_ex.c **** #endif  /* STM32F051x8 STM32F058xx */
 598:Drivers/STM32F0xx_HAL_Driver/Src/stm32f0xx_hal_dac_ex.c **** 
 599:Drivers/STM32F0xx_HAL_Driver/Src/stm32f0xx_hal_dac_ex.c **** #if defined(STM32F071xB) || defined(STM32F072xB) || defined(STM32F078xx) || \
 600:Drivers/STM32F0xx_HAL_Driver/Src/stm32f0xx_hal_dac_ex.c ****     defined(STM32F091xC) || defined(STM32F098xx)
 601:Drivers/STM32F0xx_HAL_Driver/Src/stm32f0xx_hal_dac_ex.c **** /* DAC channel 2 is available on top of DAC channel 1 */
 602:Drivers/STM32F0xx_HAL_Driver/Src/stm32f0xx_hal_dac_ex.c **** 
 603:Drivers/STM32F0xx_HAL_Driver/Src/stm32f0xx_hal_dac_ex.c **** /**
 604:Drivers/STM32F0xx_HAL_Driver/Src/stm32f0xx_hal_dac_ex.c ****   * @brief  Handles DAC interrupt request  
ARM GAS  /tmp/ccE0rAsr.s 			page 12


 605:Drivers/STM32F0xx_HAL_Driver/Src/stm32f0xx_hal_dac_ex.c ****   * @param  hdac: pointer to a DAC_HandleTypeDef structure that contains
 606:Drivers/STM32F0xx_HAL_Driver/Src/stm32f0xx_hal_dac_ex.c ****   *         the configuration information for the specified DAC.
 607:Drivers/STM32F0xx_HAL_Driver/Src/stm32f0xx_hal_dac_ex.c ****   * @retval None
 608:Drivers/STM32F0xx_HAL_Driver/Src/stm32f0xx_hal_dac_ex.c ****   */
 609:Drivers/STM32F0xx_HAL_Driver/Src/stm32f0xx_hal_dac_ex.c **** void HAL_DAC_IRQHandler(DAC_HandleTypeDef* hdac)
 610:Drivers/STM32F0xx_HAL_Driver/Src/stm32f0xx_hal_dac_ex.c **** {
 611:Drivers/STM32F0xx_HAL_Driver/Src/stm32f0xx_hal_dac_ex.c ****   if(__HAL_DAC_GET_IT_SOURCE(hdac, DAC_IT_DMAUDR1))
 612:Drivers/STM32F0xx_HAL_Driver/Src/stm32f0xx_hal_dac_ex.c ****   { 
 613:Drivers/STM32F0xx_HAL_Driver/Src/stm32f0xx_hal_dac_ex.c ****     /* Check underrun channel 1 flag */
 614:Drivers/STM32F0xx_HAL_Driver/Src/stm32f0xx_hal_dac_ex.c ****     if(__HAL_DAC_GET_FLAG(hdac, DAC_FLAG_DMAUDR1))
 615:Drivers/STM32F0xx_HAL_Driver/Src/stm32f0xx_hal_dac_ex.c ****     {
 616:Drivers/STM32F0xx_HAL_Driver/Src/stm32f0xx_hal_dac_ex.c ****       /* Change DAC state to error state */
 617:Drivers/STM32F0xx_HAL_Driver/Src/stm32f0xx_hal_dac_ex.c ****       hdac->State = HAL_DAC_STATE_ERROR;
 618:Drivers/STM32F0xx_HAL_Driver/Src/stm32f0xx_hal_dac_ex.c ****     
 619:Drivers/STM32F0xx_HAL_Driver/Src/stm32f0xx_hal_dac_ex.c ****       /* Set DAC error code to channel1 DMA underrun error */
 620:Drivers/STM32F0xx_HAL_Driver/Src/stm32f0xx_hal_dac_ex.c ****       hdac->ErrorCode |= HAL_DAC_ERROR_DMAUNDERRUNCH1;
 621:Drivers/STM32F0xx_HAL_Driver/Src/stm32f0xx_hal_dac_ex.c ****     
 622:Drivers/STM32F0xx_HAL_Driver/Src/stm32f0xx_hal_dac_ex.c ****       /* Clear the underrun flag */
 623:Drivers/STM32F0xx_HAL_Driver/Src/stm32f0xx_hal_dac_ex.c ****       __HAL_DAC_CLEAR_FLAG(hdac,DAC_FLAG_DMAUDR1);
 624:Drivers/STM32F0xx_HAL_Driver/Src/stm32f0xx_hal_dac_ex.c ****     
 625:Drivers/STM32F0xx_HAL_Driver/Src/stm32f0xx_hal_dac_ex.c ****       /* Disable the selected DAC channel1 DMA request */
 626:Drivers/STM32F0xx_HAL_Driver/Src/stm32f0xx_hal_dac_ex.c ****       hdac->Instance->CR &= ~DAC_CR_DMAEN1;
 627:Drivers/STM32F0xx_HAL_Driver/Src/stm32f0xx_hal_dac_ex.c ****     
 628:Drivers/STM32F0xx_HAL_Driver/Src/stm32f0xx_hal_dac_ex.c ****       /* Error callback */ 
 629:Drivers/STM32F0xx_HAL_Driver/Src/stm32f0xx_hal_dac_ex.c ****       HAL_DAC_DMAUnderrunCallbackCh1(hdac);
 630:Drivers/STM32F0xx_HAL_Driver/Src/stm32f0xx_hal_dac_ex.c ****     }
 631:Drivers/STM32F0xx_HAL_Driver/Src/stm32f0xx_hal_dac_ex.c ****   }
 632:Drivers/STM32F0xx_HAL_Driver/Src/stm32f0xx_hal_dac_ex.c ****   if(__HAL_DAC_GET_IT_SOURCE(hdac, DAC_IT_DMAUDR2))
 633:Drivers/STM32F0xx_HAL_Driver/Src/stm32f0xx_hal_dac_ex.c ****   {
 634:Drivers/STM32F0xx_HAL_Driver/Src/stm32f0xx_hal_dac_ex.c ****     /* Check underrun channel 2 flag */
 635:Drivers/STM32F0xx_HAL_Driver/Src/stm32f0xx_hal_dac_ex.c ****     if(__HAL_DAC_GET_FLAG(hdac, DAC_FLAG_DMAUDR2))
 636:Drivers/STM32F0xx_HAL_Driver/Src/stm32f0xx_hal_dac_ex.c ****     { 
 637:Drivers/STM32F0xx_HAL_Driver/Src/stm32f0xx_hal_dac_ex.c ****       /* Change DAC state to error state */
 638:Drivers/STM32F0xx_HAL_Driver/Src/stm32f0xx_hal_dac_ex.c ****       hdac->State = HAL_DAC_STATE_ERROR;
 639:Drivers/STM32F0xx_HAL_Driver/Src/stm32f0xx_hal_dac_ex.c ****     
 640:Drivers/STM32F0xx_HAL_Driver/Src/stm32f0xx_hal_dac_ex.c ****       /* Set DAC error code to channel2 DMA underrun error */
 641:Drivers/STM32F0xx_HAL_Driver/Src/stm32f0xx_hal_dac_ex.c ****       hdac->ErrorCode |= HAL_DAC_ERROR_DMAUNDERRUNCH2;
 642:Drivers/STM32F0xx_HAL_Driver/Src/stm32f0xx_hal_dac_ex.c ****     
 643:Drivers/STM32F0xx_HAL_Driver/Src/stm32f0xx_hal_dac_ex.c ****       /* Clear the underrun flag */
 644:Drivers/STM32F0xx_HAL_Driver/Src/stm32f0xx_hal_dac_ex.c ****       __HAL_DAC_CLEAR_FLAG(hdac,DAC_FLAG_DMAUDR2);
 645:Drivers/STM32F0xx_HAL_Driver/Src/stm32f0xx_hal_dac_ex.c ****     
 646:Drivers/STM32F0xx_HAL_Driver/Src/stm32f0xx_hal_dac_ex.c ****       /* Disable the selected DAC channel1 DMA request */
 647:Drivers/STM32F0xx_HAL_Driver/Src/stm32f0xx_hal_dac_ex.c ****       hdac->Instance->CR &= ~DAC_CR_DMAEN2;
 648:Drivers/STM32F0xx_HAL_Driver/Src/stm32f0xx_hal_dac_ex.c ****     
 649:Drivers/STM32F0xx_HAL_Driver/Src/stm32f0xx_hal_dac_ex.c ****       /* Error callback */ 
 650:Drivers/STM32F0xx_HAL_Driver/Src/stm32f0xx_hal_dac_ex.c ****       HAL_DACEx_DMAUnderrunCallbackCh2(hdac);
 651:Drivers/STM32F0xx_HAL_Driver/Src/stm32f0xx_hal_dac_ex.c ****     }
 652:Drivers/STM32F0xx_HAL_Driver/Src/stm32f0xx_hal_dac_ex.c ****   }
 653:Drivers/STM32F0xx_HAL_Driver/Src/stm32f0xx_hal_dac_ex.c **** }
 654:Drivers/STM32F0xx_HAL_Driver/Src/stm32f0xx_hal_dac_ex.c **** 
 655:Drivers/STM32F0xx_HAL_Driver/Src/stm32f0xx_hal_dac_ex.c **** #endif  /* STM32F071xB  STM32F072xB  STM32F078xx */
 656:Drivers/STM32F0xx_HAL_Driver/Src/stm32f0xx_hal_dac_ex.c ****         /* STM32F091xC  STM32F098xx */
 657:Drivers/STM32F0xx_HAL_Driver/Src/stm32f0xx_hal_dac_ex.c **** 
 658:Drivers/STM32F0xx_HAL_Driver/Src/stm32f0xx_hal_dac_ex.c **** #if defined (STM32F051x8) || defined (STM32F058xx)
 659:Drivers/STM32F0xx_HAL_Driver/Src/stm32f0xx_hal_dac_ex.c **** /* DAC channel 2 is NOT available. Only DAC channel 1 is available */
 660:Drivers/STM32F0xx_HAL_Driver/Src/stm32f0xx_hal_dac_ex.c **** 
 661:Drivers/STM32F0xx_HAL_Driver/Src/stm32f0xx_hal_dac_ex.c **** /**
ARM GAS  /tmp/ccE0rAsr.s 			page 13


 662:Drivers/STM32F0xx_HAL_Driver/Src/stm32f0xx_hal_dac_ex.c ****   * @brief  Handles DAC interrupt request  
 663:Drivers/STM32F0xx_HAL_Driver/Src/stm32f0xx_hal_dac_ex.c ****   * @param  hdac: pointer to a DAC_HandleTypeDef structure that contains
 664:Drivers/STM32F0xx_HAL_Driver/Src/stm32f0xx_hal_dac_ex.c ****   *         the configuration information for the specified DAC.
 665:Drivers/STM32F0xx_HAL_Driver/Src/stm32f0xx_hal_dac_ex.c ****   * @retval None
 666:Drivers/STM32F0xx_HAL_Driver/Src/stm32f0xx_hal_dac_ex.c ****   */
 667:Drivers/STM32F0xx_HAL_Driver/Src/stm32f0xx_hal_dac_ex.c **** void HAL_DAC_IRQHandler(DAC_HandleTypeDef* hdac)
 668:Drivers/STM32F0xx_HAL_Driver/Src/stm32f0xx_hal_dac_ex.c **** {
 669:Drivers/STM32F0xx_HAL_Driver/Src/stm32f0xx_hal_dac_ex.c ****   if(__HAL_DAC_GET_IT_SOURCE(hdac, DAC_IT_DMAUDR1))
 670:Drivers/STM32F0xx_HAL_Driver/Src/stm32f0xx_hal_dac_ex.c ****   { 
 671:Drivers/STM32F0xx_HAL_Driver/Src/stm32f0xx_hal_dac_ex.c ****   /* Check Overrun flag */
 672:Drivers/STM32F0xx_HAL_Driver/Src/stm32f0xx_hal_dac_ex.c ****   if(__HAL_DAC_GET_FLAG(hdac, DAC_FLAG_DMAUDR1))
 673:Drivers/STM32F0xx_HAL_Driver/Src/stm32f0xx_hal_dac_ex.c ****     {
 674:Drivers/STM32F0xx_HAL_Driver/Src/stm32f0xx_hal_dac_ex.c ****       /* Change DAC state to error state */
 675:Drivers/STM32F0xx_HAL_Driver/Src/stm32f0xx_hal_dac_ex.c ****       hdac->State = HAL_DAC_STATE_ERROR;
 676:Drivers/STM32F0xx_HAL_Driver/Src/stm32f0xx_hal_dac_ex.c ****     
 677:Drivers/STM32F0xx_HAL_Driver/Src/stm32f0xx_hal_dac_ex.c ****       /* Set DAC error code to chanel1 DMA underrun error */
 678:Drivers/STM32F0xx_HAL_Driver/Src/stm32f0xx_hal_dac_ex.c ****       hdac->ErrorCode |= HAL_DAC_ERROR_DMAUNDERRUNCH1;
 679:Drivers/STM32F0xx_HAL_Driver/Src/stm32f0xx_hal_dac_ex.c ****     
 680:Drivers/STM32F0xx_HAL_Driver/Src/stm32f0xx_hal_dac_ex.c ****       /* Clear the underrun flag */
 681:Drivers/STM32F0xx_HAL_Driver/Src/stm32f0xx_hal_dac_ex.c ****       __HAL_DAC_CLEAR_FLAG(hdac,DAC_FLAG_DMAUDR1);
 682:Drivers/STM32F0xx_HAL_Driver/Src/stm32f0xx_hal_dac_ex.c ****     
 683:Drivers/STM32F0xx_HAL_Driver/Src/stm32f0xx_hal_dac_ex.c ****       /* Disable the selected DAC channel1 DMA request */
 684:Drivers/STM32F0xx_HAL_Driver/Src/stm32f0xx_hal_dac_ex.c ****       hdac->Instance->CR &= ~DAC_CR_DMAEN1;
 685:Drivers/STM32F0xx_HAL_Driver/Src/stm32f0xx_hal_dac_ex.c ****     
 686:Drivers/STM32F0xx_HAL_Driver/Src/stm32f0xx_hal_dac_ex.c ****       /* Error callback */ 
 687:Drivers/STM32F0xx_HAL_Driver/Src/stm32f0xx_hal_dac_ex.c ****       HAL_DAC_DMAUnderrunCallbackCh1(hdac);
 688:Drivers/STM32F0xx_HAL_Driver/Src/stm32f0xx_hal_dac_ex.c ****     }
 689:Drivers/STM32F0xx_HAL_Driver/Src/stm32f0xx_hal_dac_ex.c ****   }
 690:Drivers/STM32F0xx_HAL_Driver/Src/stm32f0xx_hal_dac_ex.c **** }
 691:Drivers/STM32F0xx_HAL_Driver/Src/stm32f0xx_hal_dac_ex.c **** 
 692:Drivers/STM32F0xx_HAL_Driver/Src/stm32f0xx_hal_dac_ex.c **** #endif  /* STM32F051x8 STM32F058xx */
 693:Drivers/STM32F0xx_HAL_Driver/Src/stm32f0xx_hal_dac_ex.c **** 
 694:Drivers/STM32F0xx_HAL_Driver/Src/stm32f0xx_hal_dac_ex.c **** /**
 695:Drivers/STM32F0xx_HAL_Driver/Src/stm32f0xx_hal_dac_ex.c ****   * @}
 696:Drivers/STM32F0xx_HAL_Driver/Src/stm32f0xx_hal_dac_ex.c ****   */
 697:Drivers/STM32F0xx_HAL_Driver/Src/stm32f0xx_hal_dac_ex.c **** 
 698:Drivers/STM32F0xx_HAL_Driver/Src/stm32f0xx_hal_dac_ex.c **** /**
 699:Drivers/STM32F0xx_HAL_Driver/Src/stm32f0xx_hal_dac_ex.c ****   * @}
 700:Drivers/STM32F0xx_HAL_Driver/Src/stm32f0xx_hal_dac_ex.c ****   */
 701:Drivers/STM32F0xx_HAL_Driver/Src/stm32f0xx_hal_dac_ex.c **** 
 702:Drivers/STM32F0xx_HAL_Driver/Src/stm32f0xx_hal_dac_ex.c **** #if defined(STM32F051x8) || defined(STM32F058xx) || \
 703:Drivers/STM32F0xx_HAL_Driver/Src/stm32f0xx_hal_dac_ex.c ****     defined(STM32F071xB) || defined(STM32F072xB) || defined(STM32F078xx) || \
 704:Drivers/STM32F0xx_HAL_Driver/Src/stm32f0xx_hal_dac_ex.c ****     defined(STM32F091xC) || defined(STM32F098xx)
 705:Drivers/STM32F0xx_HAL_Driver/Src/stm32f0xx_hal_dac_ex.c **** 
 706:Drivers/STM32F0xx_HAL_Driver/Src/stm32f0xx_hal_dac_ex.c **** /** @addtogroup DAC_Private_Functions
 707:Drivers/STM32F0xx_HAL_Driver/Src/stm32f0xx_hal_dac_ex.c ****   * @{
 708:Drivers/STM32F0xx_HAL_Driver/Src/stm32f0xx_hal_dac_ex.c ****   */
 709:Drivers/STM32F0xx_HAL_Driver/Src/stm32f0xx_hal_dac_ex.c **** 
 710:Drivers/STM32F0xx_HAL_Driver/Src/stm32f0xx_hal_dac_ex.c **** /**
 711:Drivers/STM32F0xx_HAL_Driver/Src/stm32f0xx_hal_dac_ex.c ****   * @brief  DMA conversion complete callback. 
 712:Drivers/STM32F0xx_HAL_Driver/Src/stm32f0xx_hal_dac_ex.c ****   * @param  hdma: pointer to a DMA_HandleTypeDef structure that contains
 713:Drivers/STM32F0xx_HAL_Driver/Src/stm32f0xx_hal_dac_ex.c ****   *                the configuration information for the specified DMA module.
 714:Drivers/STM32F0xx_HAL_Driver/Src/stm32f0xx_hal_dac_ex.c ****   * @retval None
 715:Drivers/STM32F0xx_HAL_Driver/Src/stm32f0xx_hal_dac_ex.c ****   */
 716:Drivers/STM32F0xx_HAL_Driver/Src/stm32f0xx_hal_dac_ex.c **** static void DAC_DMAConvCpltCh1(DMA_HandleTypeDef *hdma)   
 717:Drivers/STM32F0xx_HAL_Driver/Src/stm32f0xx_hal_dac_ex.c **** {
 718:Drivers/STM32F0xx_HAL_Driver/Src/stm32f0xx_hal_dac_ex.c ****   DAC_HandleTypeDef* hdac = ( DAC_HandleTypeDef* )((DMA_HandleTypeDef* )hdma)->Parent;
ARM GAS  /tmp/ccE0rAsr.s 			page 14


 719:Drivers/STM32F0xx_HAL_Driver/Src/stm32f0xx_hal_dac_ex.c ****   
 720:Drivers/STM32F0xx_HAL_Driver/Src/stm32f0xx_hal_dac_ex.c ****   HAL_DAC_ConvCpltCallbackCh1(hdac); 
 721:Drivers/STM32F0xx_HAL_Driver/Src/stm32f0xx_hal_dac_ex.c ****   
 722:Drivers/STM32F0xx_HAL_Driver/Src/stm32f0xx_hal_dac_ex.c ****   hdac->State= HAL_DAC_STATE_READY;
 723:Drivers/STM32F0xx_HAL_Driver/Src/stm32f0xx_hal_dac_ex.c **** }
 724:Drivers/STM32F0xx_HAL_Driver/Src/stm32f0xx_hal_dac_ex.c **** 
 725:Drivers/STM32F0xx_HAL_Driver/Src/stm32f0xx_hal_dac_ex.c **** /**
 726:Drivers/STM32F0xx_HAL_Driver/Src/stm32f0xx_hal_dac_ex.c ****   * @brief  DMA half transfer complete callback. 
 727:Drivers/STM32F0xx_HAL_Driver/Src/stm32f0xx_hal_dac_ex.c ****   * @param  hdma: pointer to a DMA_HandleTypeDef structure that contains
 728:Drivers/STM32F0xx_HAL_Driver/Src/stm32f0xx_hal_dac_ex.c ****   *                the configuration information for the specified DMA module.
 729:Drivers/STM32F0xx_HAL_Driver/Src/stm32f0xx_hal_dac_ex.c ****   * @retval None
 730:Drivers/STM32F0xx_HAL_Driver/Src/stm32f0xx_hal_dac_ex.c ****   */
 731:Drivers/STM32F0xx_HAL_Driver/Src/stm32f0xx_hal_dac_ex.c **** static void DAC_DMAHalfConvCpltCh1(DMA_HandleTypeDef *hdma)   
 732:Drivers/STM32F0xx_HAL_Driver/Src/stm32f0xx_hal_dac_ex.c **** {
 733:Drivers/STM32F0xx_HAL_Driver/Src/stm32f0xx_hal_dac_ex.c ****     DAC_HandleTypeDef* hdac = ( DAC_HandleTypeDef* )((DMA_HandleTypeDef* )hdma)->Parent;
 734:Drivers/STM32F0xx_HAL_Driver/Src/stm32f0xx_hal_dac_ex.c ****     /* Conversion complete callback */
 735:Drivers/STM32F0xx_HAL_Driver/Src/stm32f0xx_hal_dac_ex.c ****     HAL_DAC_ConvHalfCpltCallbackCh1(hdac); 
 736:Drivers/STM32F0xx_HAL_Driver/Src/stm32f0xx_hal_dac_ex.c **** }
 737:Drivers/STM32F0xx_HAL_Driver/Src/stm32f0xx_hal_dac_ex.c **** 
 738:Drivers/STM32F0xx_HAL_Driver/Src/stm32f0xx_hal_dac_ex.c **** /**
 739:Drivers/STM32F0xx_HAL_Driver/Src/stm32f0xx_hal_dac_ex.c ****   * @brief  DMA error callback 
 740:Drivers/STM32F0xx_HAL_Driver/Src/stm32f0xx_hal_dac_ex.c ****   * @param  hdma: pointer to a DMA_HandleTypeDef structure that contains
 741:Drivers/STM32F0xx_HAL_Driver/Src/stm32f0xx_hal_dac_ex.c ****   *                the configuration information for the specified DMA module.
 742:Drivers/STM32F0xx_HAL_Driver/Src/stm32f0xx_hal_dac_ex.c ****   * @retval None
 743:Drivers/STM32F0xx_HAL_Driver/Src/stm32f0xx_hal_dac_ex.c ****   */
 744:Drivers/STM32F0xx_HAL_Driver/Src/stm32f0xx_hal_dac_ex.c **** static void DAC_DMAErrorCh1(DMA_HandleTypeDef *hdma)   
 745:Drivers/STM32F0xx_HAL_Driver/Src/stm32f0xx_hal_dac_ex.c **** {
  25              		.loc 1 745 0
  26              		.cfi_startproc
  27              	.LVL0:
 746:Drivers/STM32F0xx_HAL_Driver/Src/stm32f0xx_hal_dac_ex.c ****   DAC_HandleTypeDef* hdac = ( DAC_HandleTypeDef* )((DMA_HandleTypeDef* )hdma)->Parent;
 747:Drivers/STM32F0xx_HAL_Driver/Src/stm32f0xx_hal_dac_ex.c ****     
 748:Drivers/STM32F0xx_HAL_Driver/Src/stm32f0xx_hal_dac_ex.c ****   /* Set DAC error code to DMA error */
 749:Drivers/STM32F0xx_HAL_Driver/Src/stm32f0xx_hal_dac_ex.c ****   hdac->ErrorCode |= HAL_DAC_ERROR_DMA;
  28              		.loc 1 749 0
  29 0000 0423     		movs	r3, #4
 745:Drivers/STM32F0xx_HAL_Driver/Src/stm32f0xx_hal_dac_ex.c ****   DAC_HandleTypeDef* hdac = ( DAC_HandleTypeDef* )((DMA_HandleTypeDef* )hdma)->Parent;
  30              		.loc 1 745 0
  31 0002 10B5     		push	{r4, lr}
  32              	.LCFI0:
  33              		.cfi_def_cfa_offset 8
  34              		.cfi_offset 4, -8
  35              		.cfi_offset 14, -4
 746:Drivers/STM32F0xx_HAL_Driver/Src/stm32f0xx_hal_dac_ex.c ****   DAC_HandleTypeDef* hdac = ( DAC_HandleTypeDef* )((DMA_HandleTypeDef* )hdma)->Parent;
  36              		.loc 1 746 0
  37 0004 446A     		ldr	r4, [r0, #36]
  38              	.LVL1:
 750:Drivers/STM32F0xx_HAL_Driver/Src/stm32f0xx_hal_dac_ex.c ****     
 751:Drivers/STM32F0xx_HAL_Driver/Src/stm32f0xx_hal_dac_ex.c ****   HAL_DAC_ErrorCallbackCh1(hdac); 
 752:Drivers/STM32F0xx_HAL_Driver/Src/stm32f0xx_hal_dac_ex.c ****     
 753:Drivers/STM32F0xx_HAL_Driver/Src/stm32f0xx_hal_dac_ex.c ****   hdac->State= HAL_DAC_STATE_READY;
 754:Drivers/STM32F0xx_HAL_Driver/Src/stm32f0xx_hal_dac_ex.c **** }
  39              		.loc 1 754 0
  40              		@ sp needed
 749:Drivers/STM32F0xx_HAL_Driver/Src/stm32f0xx_hal_dac_ex.c ****     
  41              		.loc 1 749 0
  42 0006 2269     		ldr	r2, [r4, #16]
ARM GAS  /tmp/ccE0rAsr.s 			page 15


 751:Drivers/STM32F0xx_HAL_Driver/Src/stm32f0xx_hal_dac_ex.c ****     
  43              		.loc 1 751 0
  44 0008 2000     		movs	r0, r4
  45              	.LVL2:
 749:Drivers/STM32F0xx_HAL_Driver/Src/stm32f0xx_hal_dac_ex.c ****     
  46              		.loc 1 749 0
  47 000a 1343     		orrs	r3, r2
  48 000c 2361     		str	r3, [r4, #16]
 751:Drivers/STM32F0xx_HAL_Driver/Src/stm32f0xx_hal_dac_ex.c ****     
  49              		.loc 1 751 0
  50 000e FFF7FEFF 		bl	HAL_DAC_ErrorCallbackCh1
  51              	.LVL3:
 753:Drivers/STM32F0xx_HAL_Driver/Src/stm32f0xx_hal_dac_ex.c **** }
  52              		.loc 1 753 0
  53 0012 0123     		movs	r3, #1
  54 0014 2371     		strb	r3, [r4, #4]
  55              	.LVL4:
  56              		.loc 1 754 0
  57 0016 10BD     		pop	{r4, pc}
  58              		.cfi_endproc
  59              	.LFE42:
  61              		.section	.text.DAC_DMAHalfConvCpltCh1,"ax",%progbits
  62              		.align	1
  63              		.syntax unified
  64              		.code	16
  65              		.thumb_func
  66              		.fpu softvfp
  68              	DAC_DMAHalfConvCpltCh1:
  69              	.LFB41:
 732:Drivers/STM32F0xx_HAL_Driver/Src/stm32f0xx_hal_dac_ex.c ****     DAC_HandleTypeDef* hdac = ( DAC_HandleTypeDef* )((DMA_HandleTypeDef* )hdma)->Parent;
  70              		.loc 1 732 0
  71              		.cfi_startproc
  72              	.LVL5:
  73 0000 10B5     		push	{r4, lr}
  74              	.LCFI1:
  75              		.cfi_def_cfa_offset 8
  76              		.cfi_offset 4, -8
  77              		.cfi_offset 14, -4
 735:Drivers/STM32F0xx_HAL_Driver/Src/stm32f0xx_hal_dac_ex.c **** }
  78              		.loc 1 735 0
  79 0002 406A     		ldr	r0, [r0, #36]
  80              	.LVL6:
  81 0004 FFF7FEFF 		bl	HAL_DAC_ConvHalfCpltCallbackCh1
  82              	.LVL7:
 736:Drivers/STM32F0xx_HAL_Driver/Src/stm32f0xx_hal_dac_ex.c **** 
  83              		.loc 1 736 0
  84              		@ sp needed
  85 0008 10BD     		pop	{r4, pc}
  86              		.cfi_endproc
  87              	.LFE41:
  89              		.section	.text.DAC_DMAConvCpltCh1,"ax",%progbits
  90              		.align	1
  91              		.syntax unified
  92              		.code	16
  93              		.thumb_func
  94              		.fpu softvfp
  96              	DAC_DMAConvCpltCh1:
ARM GAS  /tmp/ccE0rAsr.s 			page 16


  97              	.LFB40:
 717:Drivers/STM32F0xx_HAL_Driver/Src/stm32f0xx_hal_dac_ex.c ****   DAC_HandleTypeDef* hdac = ( DAC_HandleTypeDef* )((DMA_HandleTypeDef* )hdma)->Parent;
  98              		.loc 1 717 0
  99              		.cfi_startproc
 100              	.LVL8:
 101 0000 10B5     		push	{r4, lr}
 102              	.LCFI2:
 103              		.cfi_def_cfa_offset 8
 104              		.cfi_offset 4, -8
 105              		.cfi_offset 14, -4
 718:Drivers/STM32F0xx_HAL_Driver/Src/stm32f0xx_hal_dac_ex.c ****   
 106              		.loc 1 718 0
 107 0002 446A     		ldr	r4, [r0, #36]
 108              	.LVL9:
 723:Drivers/STM32F0xx_HAL_Driver/Src/stm32f0xx_hal_dac_ex.c **** 
 109              		.loc 1 723 0
 110              		@ sp needed
 720:Drivers/STM32F0xx_HAL_Driver/Src/stm32f0xx_hal_dac_ex.c ****   
 111              		.loc 1 720 0
 112 0004 2000     		movs	r0, r4
 113              	.LVL10:
 114 0006 FFF7FEFF 		bl	HAL_DAC_ConvCpltCallbackCh1
 115              	.LVL11:
 722:Drivers/STM32F0xx_HAL_Driver/Src/stm32f0xx_hal_dac_ex.c **** }
 116              		.loc 1 722 0
 117 000a 0123     		movs	r3, #1
 118 000c 2371     		strb	r3, [r4, #4]
 119              	.LVL12:
 723:Drivers/STM32F0xx_HAL_Driver/Src/stm32f0xx_hal_dac_ex.c **** 
 120              		.loc 1 723 0
 121 000e 10BD     		pop	{r4, pc}
 122              		.cfi_endproc
 123              	.LFE40:
 125              		.section	.text.HAL_DAC_ConfigChannel,"ax",%progbits
 126              		.align	1
 127              		.global	HAL_DAC_ConfigChannel
 128              		.syntax unified
 129              		.code	16
 130              		.thumb_func
 131              		.fpu softvfp
 133              	HAL_DAC_ConfigChannel:
 134              	.LFB35:
 129:Drivers/STM32F0xx_HAL_Driver/Src/stm32f0xx_hal_dac_ex.c ****   uint32_t tmpreg1 = 0, tmpreg2 = 0;
 135              		.loc 1 129 0
 136              		.cfi_startproc
 137              	.LVL13:
 138 0000 30B5     		push	{r4, r5, lr}
 139              	.LCFI3:
 140              		.cfi_def_cfa_offset 12
 141              		.cfi_offset 4, -12
 142              		.cfi_offset 5, -8
 143              		.cfi_offset 14, -4
 139:Drivers/STM32F0xx_HAL_Driver/Src/stm32f0xx_hal_dac_ex.c ****   
 144              		.loc 1 139 0
 145 0002 4379     		ldrb	r3, [r0, #5]
 129:Drivers/STM32F0xx_HAL_Driver/Src/stm32f0xx_hal_dac_ex.c ****   uint32_t tmpreg1 = 0, tmpreg2 = 0;
 146              		.loc 1 129 0
ARM GAS  /tmp/ccE0rAsr.s 			page 17


 147 0004 0400     		movs	r4, r0
 148 0006 0220     		movs	r0, #2
 149              	.LVL14:
 139:Drivers/STM32F0xx_HAL_Driver/Src/stm32f0xx_hal_dac_ex.c ****   
 150              		.loc 1 139 0
 151 0008 012B     		cmp	r3, #1
 152 000a 10D0     		beq	.L5
 142:Drivers/STM32F0xx_HAL_Driver/Src/stm32f0xx_hal_dac_ex.c ****   
 153              		.loc 1 142 0 discriminator 2
 154 000c 2071     		strb	r0, [r4, #4]
 147:Drivers/STM32F0xx_HAL_Driver/Src/stm32f0xx_hal_dac_ex.c ****   /* Configure for the selected DAC channel: buffer output, trigger */
 155              		.loc 1 147 0 discriminator 2
 156 000e 0848     		ldr	r0, .L8
 145:Drivers/STM32F0xx_HAL_Driver/Src/stm32f0xx_hal_dac_ex.c ****   /* Clear BOFFx, TENx, TSELx, WAVEx and MAMPx bits */
 157              		.loc 1 145 0 discriminator 2
 158 0010 2568     		ldr	r5, [r4]
 147:Drivers/STM32F0xx_HAL_Driver/Src/stm32f0xx_hal_dac_ex.c ****   /* Configure for the selected DAC channel: buffer output, trigger */
 159              		.loc 1 147 0 discriminator 2
 160 0012 9040     		lsls	r0, r0, r2
 145:Drivers/STM32F0xx_HAL_Driver/Src/stm32f0xx_hal_dac_ex.c ****   /* Clear BOFFx, TENx, TSELx, WAVEx and MAMPx bits */
 161              		.loc 1 145 0 discriminator 2
 162 0014 2B68     		ldr	r3, [r5]
 163              	.LVL15:
 147:Drivers/STM32F0xx_HAL_Driver/Src/stm32f0xx_hal_dac_ex.c ****   /* Configure for the selected DAC channel: buffer output, trigger */
 164              		.loc 1 147 0 discriminator 2
 165 0016 8343     		bics	r3, r0
 166              	.LVL16:
 167 0018 1800     		movs	r0, r3
 168              	.LVL17:
 151:Drivers/STM32F0xx_HAL_Driver/Src/stm32f0xx_hal_dac_ex.c ****   /* Calculate CR register value depending on DAC_Channel */
 169              		.loc 1 151 0 discriminator 2
 170 001a 0B68     		ldr	r3, [r1]
 171 001c 4968     		ldr	r1, [r1, #4]
 172              	.LVL18:
 173 001e 0B43     		orrs	r3, r1
 174              	.LVL19:
 153:Drivers/STM32F0xx_HAL_Driver/Src/stm32f0xx_hal_dac_ex.c ****   /* Write to DAC CR */
 175              		.loc 1 153 0 discriminator 2
 176 0020 9340     		lsls	r3, r3, r2
 177              	.LVL20:
 178 0022 0343     		orrs	r3, r0
 179              	.LVL21:
 155:Drivers/STM32F0xx_HAL_Driver/Src/stm32f0xx_hal_dac_ex.c ****   
 180              		.loc 1 155 0 discriminator 2
 181 0024 2B60     		str	r3, [r5]
 161:Drivers/STM32F0xx_HAL_Driver/Src/stm32f0xx_hal_dac_ex.c ****   
 182              		.loc 1 161 0 discriminator 2
 183 0026 0020     		movs	r0, #0
 158:Drivers/STM32F0xx_HAL_Driver/Src/stm32f0xx_hal_dac_ex.c ****   
 184              		.loc 1 158 0 discriminator 2
 185 0028 0123     		movs	r3, #1
 186              	.LVL22:
 161:Drivers/STM32F0xx_HAL_Driver/Src/stm32f0xx_hal_dac_ex.c ****   
 187              		.loc 1 161 0 discriminator 2
 188 002a 6071     		strb	r0, [r4, #5]
 158:Drivers/STM32F0xx_HAL_Driver/Src/stm32f0xx_hal_dac_ex.c ****   
 189              		.loc 1 158 0 discriminator 2
ARM GAS  /tmp/ccE0rAsr.s 			page 18


 190 002c 2371     		strb	r3, [r4, #4]
 191              	.LVL23:
 192              	.L5:
 165:Drivers/STM32F0xx_HAL_Driver/Src/stm32f0xx_hal_dac_ex.c **** 
 193              		.loc 1 165 0
 194              		@ sp needed
 195              	.LVL24:
 196 002e 30BD     		pop	{r4, r5, pc}
 197              	.L9:
 198              		.align	2
 199              	.L8:
 200 0030 FE0F0000 		.word	4094
 201              		.cfi_endproc
 202              	.LFE35:
 204              		.section	.text.HAL_DAC_GetValue,"ax",%progbits
 205              		.align	1
 206              		.global	HAL_DAC_GetValue
 207              		.syntax unified
 208              		.code	16
 209              		.thumb_func
 210              		.fpu softvfp
 212              	HAL_DAC_GetValue:
 213              	.LFB36:
 238:Drivers/STM32F0xx_HAL_Driver/Src/stm32f0xx_hal_dac_ex.c ****   /* Check the parameters */
 214              		.loc 1 238 0
 215              		.cfi_startproc
 216              	.LVL25:
 217 0000 0368     		ldr	r3, [r0]
 243:Drivers/STM32F0xx_HAL_Driver/Src/stm32f0xx_hal_dac_ex.c ****   {
 218              		.loc 1 243 0
 219 0002 0029     		cmp	r1, #0
 220 0004 01D1     		bne	.L11
 245:Drivers/STM32F0xx_HAL_Driver/Src/stm32f0xx_hal_dac_ex.c ****   }
 221              		.loc 1 245 0
 222 0006 D86A     		ldr	r0, [r3, #44]
 223              	.LVL26:
 224              	.L10:
 251:Drivers/STM32F0xx_HAL_Driver/Src/stm32f0xx_hal_dac_ex.c **** 
 225              		.loc 1 251 0
 226              		@ sp needed
 227 0008 7047     		bx	lr
 228              	.LVL27:
 229              	.L11:
 249:Drivers/STM32F0xx_HAL_Driver/Src/stm32f0xx_hal_dac_ex.c ****   }
 230              		.loc 1 249 0
 231 000a 186B     		ldr	r0, [r3, #48]
 232              	.LVL28:
 233 000c FCE7     		b	.L10
 234              		.cfi_endproc
 235              	.LFE36:
 237              		.section	.text.HAL_DAC_Start,"ax",%progbits
 238              		.align	1
 239              		.global	HAL_DAC_Start
 240              		.syntax unified
 241              		.code	16
 242              		.thumb_func
 243              		.fpu softvfp
ARM GAS  /tmp/ccE0rAsr.s 			page 19


 245              	HAL_DAC_Start:
 246              	.LFB37:
 304:Drivers/STM32F0xx_HAL_Driver/Src/stm32f0xx_hal_dac_ex.c ****   /* Check the parameters */
 247              		.loc 1 304 0
 248              		.cfi_startproc
 249              	.LVL29:
 250 0000 70B5     		push	{r4, r5, r6, lr}
 251              	.LCFI4:
 252              		.cfi_def_cfa_offset 16
 253              		.cfi_offset 4, -16
 254              		.cfi_offset 5, -12
 255              		.cfi_offset 6, -8
 256              		.cfi_offset 14, -4
 257 0002 0224     		movs	r4, #2
 309:Drivers/STM32F0xx_HAL_Driver/Src/stm32f0xx_hal_dac_ex.c ****   
 258              		.loc 1 309 0
 259 0004 4379     		ldrb	r3, [r0, #5]
 304:Drivers/STM32F0xx_HAL_Driver/Src/stm32f0xx_hal_dac_ex.c ****   /* Check the parameters */
 260              		.loc 1 304 0
 261 0006 0200     		movs	r2, r0
 309:Drivers/STM32F0xx_HAL_Driver/Src/stm32f0xx_hal_dac_ex.c ****   
 262              		.loc 1 309 0
 263 0008 2000     		movs	r0, r4
 264              	.LVL30:
 265 000a 012B     		cmp	r3, #1
 266 000c 16D0     		beq	.L14
 309:Drivers/STM32F0xx_HAL_Driver/Src/stm32f0xx_hal_dac_ex.c ****   
 267              		.loc 1 309 0 is_stmt 0 discriminator 2
 268 000e 0138     		subs	r0, r0, #1
 315:Drivers/STM32F0xx_HAL_Driver/Src/stm32f0xx_hal_dac_ex.c ****   
 269              		.loc 1 315 0 is_stmt 1 discriminator 2
 270 0010 0500     		movs	r5, r0
 271 0012 8D40     		lsls	r5, r5, r1
 272 0014 1368     		ldr	r3, [r2]
 312:Drivers/STM32F0xx_HAL_Driver/Src/stm32f0xx_hal_dac_ex.c ****   
 273              		.loc 1 312 0 discriminator 2
 274 0016 1471     		strb	r4, [r2, #4]
 315:Drivers/STM32F0xx_HAL_Driver/Src/stm32f0xx_hal_dac_ex.c ****   
 275              		.loc 1 315 0 discriminator 2
 276 0018 1E68     		ldr	r6, [r3]
 309:Drivers/STM32F0xx_HAL_Driver/Src/stm32f0xx_hal_dac_ex.c ****   
 277              		.loc 1 309 0 discriminator 2
 278 001a 5071     		strb	r0, [r2, #5]
 315:Drivers/STM32F0xx_HAL_Driver/Src/stm32f0xx_hal_dac_ex.c ****   
 279              		.loc 1 315 0 discriminator 2
 280 001c 3543     		orrs	r5, r6
 281 001e 1D60     		str	r5, [r3]
 317:Drivers/STM32F0xx_HAL_Driver/Src/stm32f0xx_hal_dac_ex.c ****   {
 282              		.loc 1 317 0 discriminator 2
 283 0020 0029     		cmp	r1, #0
 284 0022 0CD1     		bne	.L15
 320:Drivers/STM32F0xx_HAL_Driver/Src/stm32f0xx_hal_dac_ex.c ****     {
 285              		.loc 1 320 0
 286 0024 1968     		ldr	r1, [r3]
 287              	.LVL31:
 288 0026 3A34     		adds	r4, r4, #58
 289 0028 2140     		ands	r1, r4
ARM GAS  /tmp/ccE0rAsr.s 			page 20


 290 002a A142     		cmp	r1, r4
 291 002c 02D1     		bne	.L16
 323:Drivers/STM32F0xx_HAL_Driver/Src/stm32f0xx_hal_dac_ex.c ****     }
 292              		.loc 1 323 0
 293 002e 5968     		ldr	r1, [r3, #4]
 294 0030 0843     		orrs	r0, r1
 295 0032 5860     		str	r0, [r3, #4]
 296              	.L16:
 337:Drivers/STM32F0xx_HAL_Driver/Src/stm32f0xx_hal_dac_ex.c ****   
 297              		.loc 1 337 0
 298 0034 0123     		movs	r3, #1
 340:Drivers/STM32F0xx_HAL_Driver/Src/stm32f0xx_hal_dac_ex.c ****     
 299              		.loc 1 340 0
 300 0036 0020     		movs	r0, #0
 337:Drivers/STM32F0xx_HAL_Driver/Src/stm32f0xx_hal_dac_ex.c ****   
 301              		.loc 1 337 0
 302 0038 1371     		strb	r3, [r2, #4]
 340:Drivers/STM32F0xx_HAL_Driver/Src/stm32f0xx_hal_dac_ex.c ****     
 303              		.loc 1 340 0
 304 003a 5071     		strb	r0, [r2, #5]
 305              	.L14:
 344:Drivers/STM32F0xx_HAL_Driver/Src/stm32f0xx_hal_dac_ex.c **** 
 306              		.loc 1 344 0
 307              		@ sp needed
 308 003c 70BD     		pop	{r4, r5, r6, pc}
 309              	.LVL32:
 310              	.L15:
 329:Drivers/STM32F0xx_HAL_Driver/Src/stm32f0xx_hal_dac_ex.c ****     {
 311              		.loc 1 329 0
 312 003e F020     		movs	r0, #240
 313 0040 1968     		ldr	r1, [r3]
 314              	.LVL33:
 315 0042 8003     		lsls	r0, r0, #14
 316 0044 0140     		ands	r1, r0
 317 0046 8142     		cmp	r1, r0
 318 0048 F4D1     		bne	.L16
 332:Drivers/STM32F0xx_HAL_Driver/Src/stm32f0xx_hal_dac_ex.c ****     }
 319              		.loc 1 332 0
 320 004a 5968     		ldr	r1, [r3, #4]
 321 004c 0C43     		orrs	r4, r1
 322 004e 5C60     		str	r4, [r3, #4]
 323 0050 F0E7     		b	.L16
 324              		.cfi_endproc
 325              	.LFE37:
 327              		.section	.text.HAL_DAC_Start_DMA,"ax",%progbits
 328              		.align	1
 329              		.global	HAL_DAC_Start_DMA
 330              		.syntax unified
 331              		.code	16
 332              		.thumb_func
 333              		.fpu softvfp
 335              	HAL_DAC_Start_DMA:
 336              	.LFB38:
 364:Drivers/STM32F0xx_HAL_Driver/Src/stm32f0xx_hal_dac_ex.c ****   uint32_t tmpreg = 0;
 337              		.loc 1 364 0
 338              		.cfi_startproc
 339              	.LVL34:
ARM GAS  /tmp/ccE0rAsr.s 			page 21


 340 0000 F7B5     		push	{r0, r1, r2, r4, r5, r6, r7, lr}
 341              	.LCFI5:
 342              		.cfi_def_cfa_offset 32
 343              		.cfi_offset 0, -32
 344              		.cfi_offset 1, -28
 345              		.cfi_offset 2, -24
 346              		.cfi_offset 4, -20
 347              		.cfi_offset 5, -16
 348              		.cfi_offset 6, -12
 349              		.cfi_offset 7, -8
 350              		.cfi_offset 14, -4
 364:Drivers/STM32F0xx_HAL_Driver/Src/stm32f0xx_hal_dac_ex.c ****   uint32_t tmpreg = 0;
 351              		.loc 1 364 0
 352 0002 0E00     		movs	r6, r1
 353 0004 1100     		movs	r1, r2
 354              	.LVL35:
 355 0006 0222     		movs	r2, #2
 356              	.LVL36:
 357 0008 0193     		str	r3, [sp, #4]
 372:Drivers/STM32F0xx_HAL_Driver/Src/stm32f0xx_hal_dac_ex.c ****   
 358              		.loc 1 372 0
 359 000a 4779     		ldrb	r7, [r0, #5]
 364:Drivers/STM32F0xx_HAL_Driver/Src/stm32f0xx_hal_dac_ex.c ****   uint32_t tmpreg = 0;
 360              		.loc 1 364 0
 361 000c 0500     		movs	r5, r0
 362 000e 089C     		ldr	r4, [sp, #32]
 372:Drivers/STM32F0xx_HAL_Driver/Src/stm32f0xx_hal_dac_ex.c ****   
 363              		.loc 1 372 0
 364 0010 1000     		movs	r0, r2
 365              	.LVL37:
 366 0012 012F     		cmp	r7, #1
 367 0014 4DD0     		beq	.L34
 372:Drivers/STM32F0xx_HAL_Driver/Src/stm32f0xx_hal_dac_ex.c ****   
 368              		.loc 1 372 0 is_stmt 0 discriminator 2
 369 0016 0138     		subs	r0, r0, #1
 370 0018 6871     		strb	r0, [r5, #5]
 375:Drivers/STM32F0xx_HAL_Driver/Src/stm32f0xx_hal_dac_ex.c ****   
 371              		.loc 1 375 0 is_stmt 1 discriminator 2
 372 001a 2A71     		strb	r2, [r5, #4]
 377:Drivers/STM32F0xx_HAL_Driver/Src/stm32f0xx_hal_dac_ex.c ****   {
 373              		.loc 1 377 0 discriminator 2
 374 001c 002E     		cmp	r6, #0
 375 001e 1DD1     		bne	.L21
 380:Drivers/STM32F0xx_HAL_Driver/Src/stm32f0xx_hal_dac_ex.c ****     
 376              		.loc 1 380 0
 377 0020 A868     		ldr	r0, [r5, #8]
 378 0022 254A     		ldr	r2, .L38
 389:Drivers/STM32F0xx_HAL_Driver/Src/stm32f0xx_hal_dac_ex.c ****     
 379              		.loc 1 389 0
 380 0024 2F68     		ldr	r7, [r5]
 380:Drivers/STM32F0xx_HAL_Driver/Src/stm32f0xx_hal_dac_ex.c ****     
 381              		.loc 1 380 0
 382 0026 8262     		str	r2, [r0, #40]
 383:Drivers/STM32F0xx_HAL_Driver/Src/stm32f0xx_hal_dac_ex.c ****        
 383              		.loc 1 383 0
 384 0028 244A     		ldr	r2, .L38+4
 385 002a C262     		str	r2, [r0, #44]
ARM GAS  /tmp/ccE0rAsr.s 			page 22


 386:Drivers/STM32F0xx_HAL_Driver/Src/stm32f0xx_hal_dac_ex.c ****     
 386              		.loc 1 386 0
 387 002c 244A     		ldr	r2, .L38+8
 388 002e 0263     		str	r2, [r0, #48]
 389:Drivers/STM32F0xx_HAL_Driver/Src/stm32f0xx_hal_dac_ex.c ****     
 389              		.loc 1 389 0
 390 0030 3A68     		ldr	r2, [r7]
 391 0032 9446     		mov	ip, r2
 392 0034 8022     		movs	r2, #128
 393 0036 6346     		mov	r3, ip
 394              	.LVL38:
 395 0038 5201     		lsls	r2, r2, #5
 396 003a 1A43     		orrs	r2, r3
 397 003c 3A60     		str	r2, [r7]
 400:Drivers/STM32F0xx_HAL_Driver/Src/stm32f0xx_hal_dac_ex.c ****         break;
 398              		.loc 1 400 0
 399 003e 3A00     		movs	r2, r7
 400 0040 0C32     		adds	r2, r2, #12
 392:Drivers/STM32F0xx_HAL_Driver/Src/stm32f0xx_hal_dac_ex.c ****     {
 401              		.loc 1 392 0
 402 0042 042C     		cmp	r4, #4
 403 0044 05D0     		beq	.L22
 404:Drivers/STM32F0xx_HAL_Driver/Src/stm32f0xx_hal_dac_ex.c ****         break;
 404              		.loc 1 404 0
 405 0046 0432     		adds	r2, r2, #4
 392:Drivers/STM32F0xx_HAL_Driver/Src/stm32f0xx_hal_dac_ex.c ****     {
 406              		.loc 1 392 0
 407 0048 082C     		cmp	r4, #8
 408 004a 02D0     		beq	.L22
 396:Drivers/STM32F0xx_HAL_Driver/Src/stm32f0xx_hal_dac_ex.c ****         break;
 409              		.loc 1 396 0
 410 004c 083A     		subs	r2, r2, #8
 392:Drivers/STM32F0xx_HAL_Driver/Src/stm32f0xx_hal_dac_ex.c ****     {
 411              		.loc 1 392 0
 412 004e 002C     		cmp	r4, #0
 413 0050 30D1     		bne	.L36
 414              	.L22:
 415              	.LVL39:
 448:Drivers/STM32F0xx_HAL_Driver/Src/stm32f0xx_hal_dac_ex.c ****     
 416              		.loc 1 448 0
 417 0052 8024     		movs	r4, #128
 418 0054 3B68     		ldr	r3, [r7]
 419 0056 A401     		lsls	r4, r4, #6
 420 0058 9C46     		mov	ip, r3
 421 005a 1CE0     		b	.L37
 422              	.LVL40:
 423              	.L21:
 413:Drivers/STM32F0xx_HAL_Driver/Src/stm32f0xx_hal_dac_ex.c ****     
 424              		.loc 1 413 0
 425 005c E868     		ldr	r0, [r5, #12]
 426 005e 194A     		ldr	r2, .L38+12
 422:Drivers/STM32F0xx_HAL_Driver/Src/stm32f0xx_hal_dac_ex.c ****     
 427              		.loc 1 422 0
 428 0060 2F68     		ldr	r7, [r5]
 413:Drivers/STM32F0xx_HAL_Driver/Src/stm32f0xx_hal_dac_ex.c ****     
 429              		.loc 1 413 0
 430 0062 8262     		str	r2, [r0, #40]
ARM GAS  /tmp/ccE0rAsr.s 			page 23


 416:Drivers/STM32F0xx_HAL_Driver/Src/stm32f0xx_hal_dac_ex.c ****        
 431              		.loc 1 416 0
 432 0064 184A     		ldr	r2, .L38+16
 422:Drivers/STM32F0xx_HAL_Driver/Src/stm32f0xx_hal_dac_ex.c ****     
 433              		.loc 1 422 0
 434 0066 3B68     		ldr	r3, [r7]
 435              	.LVL41:
 416:Drivers/STM32F0xx_HAL_Driver/Src/stm32f0xx_hal_dac_ex.c ****        
 436              		.loc 1 416 0
 437 0068 C262     		str	r2, [r0, #44]
 419:Drivers/STM32F0xx_HAL_Driver/Src/stm32f0xx_hal_dac_ex.c ****     
 438              		.loc 1 419 0
 439 006a 184A     		ldr	r2, .L38+20
 440 006c 0263     		str	r2, [r0, #48]
 422:Drivers/STM32F0xx_HAL_Driver/Src/stm32f0xx_hal_dac_ex.c ****     
 441              		.loc 1 422 0
 442 006e 8022     		movs	r2, #128
 443 0070 5205     		lsls	r2, r2, #21
 444 0072 1A43     		orrs	r2, r3
 445 0074 3A60     		str	r2, [r7]
 433:Drivers/STM32F0xx_HAL_Driver/Src/stm32f0xx_hal_dac_ex.c ****         break;
 446              		.loc 1 433 0
 447 0076 3A00     		movs	r2, r7
 448 0078 1832     		adds	r2, r2, #24
 425:Drivers/STM32F0xx_HAL_Driver/Src/stm32f0xx_hal_dac_ex.c ****     {
 449              		.loc 1 425 0
 450 007a 042C     		cmp	r4, #4
 451 007c 07D0     		beq	.L26
 437:Drivers/STM32F0xx_HAL_Driver/Src/stm32f0xx_hal_dac_ex.c ****         break;
 452              		.loc 1 437 0
 453 007e 0432     		adds	r2, r2, #4
 425:Drivers/STM32F0xx_HAL_Driver/Src/stm32f0xx_hal_dac_ex.c ****     {
 454              		.loc 1 425 0
 455 0080 082C     		cmp	r4, #8
 456 0082 04D0     		beq	.L26
 365:Drivers/STM32F0xx_HAL_Driver/Src/stm32f0xx_hal_dac_ex.c ****     
 457              		.loc 1 365 0
 458 0084 6342     		rsbs	r3, r4, #0
 459 0086 6341     		adcs	r3, r3, r4
 429:Drivers/STM32F0xx_HAL_Driver/Src/stm32f0xx_hal_dac_ex.c ****         break;
 460              		.loc 1 429 0
 461 0088 083A     		subs	r2, r2, #8
 365:Drivers/STM32F0xx_HAL_Driver/Src/stm32f0xx_hal_dac_ex.c ****     
 462              		.loc 1 365 0
 463 008a 5C42     		rsbs	r4, r3, #0
 464 008c 2240     		ands	r2, r4
 465              	.L26:
 466              	.LVL42:
 456:Drivers/STM32F0xx_HAL_Driver/Src/stm32f0xx_hal_dac_ex.c ****     
 467              		.loc 1 456 0
 468 008e 3B68     		ldr	r3, [r7]
 469 0090 8024     		movs	r4, #128
 470 0092 9C46     		mov	ip, r3
 471 0094 A405     		lsls	r4, r4, #22
 472              	.L37:
 448:Drivers/STM32F0xx_HAL_Driver/Src/stm32f0xx_hal_dac_ex.c ****     
 473              		.loc 1 448 0
ARM GAS  /tmp/ccE0rAsr.s 			page 24


 474 0096 6346     		mov	r3, ip
 475 0098 1C43     		orrs	r4, r3
 476 009a 3C60     		str	r4, [r7]
 477              	.LVL43:
 451:Drivers/STM32F0xx_HAL_Driver/Src/stm32f0xx_hal_dac_ex.c ****   } 
 478              		.loc 1 451 0
 479 009c 019B     		ldr	r3, [sp, #4]
 480 009e FFF7FEFF 		bl	HAL_DMA_Start_IT
 481              	.LVL44:
 463:Drivers/STM32F0xx_HAL_Driver/Src/stm32f0xx_hal_dac_ex.c ****   
 482              		.loc 1 463 0
 483 00a2 0123     		movs	r3, #1
 484 00a4 B340     		lsls	r3, r3, r6
 466:Drivers/STM32F0xx_HAL_Driver/Src/stm32f0xx_hal_dac_ex.c ****   
 485              		.loc 1 466 0
 486 00a6 0020     		movs	r0, #0
 463:Drivers/STM32F0xx_HAL_Driver/Src/stm32f0xx_hal_dac_ex.c ****   
 487              		.loc 1 463 0
 488 00a8 2A68     		ldr	r2, [r5]
 489 00aa 1168     		ldr	r1, [r2]
 490 00ac 0B43     		orrs	r3, r1
 491 00ae 1360     		str	r3, [r2]
 466:Drivers/STM32F0xx_HAL_Driver/Src/stm32f0xx_hal_dac_ex.c ****   
 492              		.loc 1 466 0
 493 00b0 6871     		strb	r0, [r5, #5]
 494              	.L34:
 470:Drivers/STM32F0xx_HAL_Driver/Src/stm32f0xx_hal_dac_ex.c **** 
 495              		.loc 1 470 0
 496              		@ sp needed
 497              	.LVL45:
 498              	.LVL46:
 499 00b2 FEBD     		pop	{r1, r2, r3, r4, r5, r6, r7, pc}
 500              	.LVL47:
 501              	.L36:
 365:Drivers/STM32F0xx_HAL_Driver/Src/stm32f0xx_hal_dac_ex.c ****     
 502              		.loc 1 365 0
 503 00b4 3200     		movs	r2, r6
 504 00b6 CCE7     		b	.L22
 505              	.L39:
 506              		.align	2
 507              	.L38:
 508 00b8 00000000 		.word	DAC_DMAConvCpltCh1
 509 00bc 00000000 		.word	DAC_DMAHalfConvCpltCh1
 510 00c0 00000000 		.word	DAC_DMAErrorCh1
 511 00c4 00000000 		.word	DAC_DMAConvCpltCh2
 512 00c8 00000000 		.word	DAC_DMAHalfConvCpltCh2
 513 00cc 00000000 		.word	DAC_DMAErrorCh2
 514              		.cfi_endproc
 515              	.LFE38:
 517              		.section	.text.HAL_DACEx_DualGetValue,"ax",%progbits
 518              		.align	1
 519              		.global	HAL_DACEx_DualGetValue
 520              		.syntax unified
 521              		.code	16
 522              		.thumb_func
 523              		.fpu softvfp
 525              	HAL_DACEx_DualGetValue:
ARM GAS  /tmp/ccE0rAsr.s 			page 25


 526              	.LFB46:
 755:Drivers/STM32F0xx_HAL_Driver/Src/stm32f0xx_hal_dac_ex.c **** /**
 756:Drivers/STM32F0xx_HAL_Driver/Src/stm32f0xx_hal_dac_ex.c ****   * @}
 757:Drivers/STM32F0xx_HAL_Driver/Src/stm32f0xx_hal_dac_ex.c ****   */
 758:Drivers/STM32F0xx_HAL_Driver/Src/stm32f0xx_hal_dac_ex.c **** #endif /* STM32F051x8  STM32F058xx */
 759:Drivers/STM32F0xx_HAL_Driver/Src/stm32f0xx_hal_dac_ex.c ****        /* STM32F071xB  STM32F072xB  STM32F078xx */
 760:Drivers/STM32F0xx_HAL_Driver/Src/stm32f0xx_hal_dac_ex.c ****        /* STM32F091xC  STM32F098xx */
 761:Drivers/STM32F0xx_HAL_Driver/Src/stm32f0xx_hal_dac_ex.c **** 
 762:Drivers/STM32F0xx_HAL_Driver/Src/stm32f0xx_hal_dac_ex.c **** #if defined(STM32F071xB) || defined(STM32F072xB) || defined(STM32F078xx) || \
 763:Drivers/STM32F0xx_HAL_Driver/Src/stm32f0xx_hal_dac_ex.c ****     defined(STM32F091xC) || defined(STM32F098xx)
 764:Drivers/STM32F0xx_HAL_Driver/Src/stm32f0xx_hal_dac_ex.c **** 
 765:Drivers/STM32F0xx_HAL_Driver/Src/stm32f0xx_hal_dac_ex.c **** /** @addtogroup DAC_Private_Functions
 766:Drivers/STM32F0xx_HAL_Driver/Src/stm32f0xx_hal_dac_ex.c ****   * @{
 767:Drivers/STM32F0xx_HAL_Driver/Src/stm32f0xx_hal_dac_ex.c ****   */
 768:Drivers/STM32F0xx_HAL_Driver/Src/stm32f0xx_hal_dac_ex.c **** 
 769:Drivers/STM32F0xx_HAL_Driver/Src/stm32f0xx_hal_dac_ex.c **** /**
 770:Drivers/STM32F0xx_HAL_Driver/Src/stm32f0xx_hal_dac_ex.c ****   * @brief  DMA conversion complete callback. 
 771:Drivers/STM32F0xx_HAL_Driver/Src/stm32f0xx_hal_dac_ex.c ****   * @param  hdma: pointer to a DMA_HandleTypeDef structure that contains
 772:Drivers/STM32F0xx_HAL_Driver/Src/stm32f0xx_hal_dac_ex.c ****   *                the configuration information for the specified DMA module.
 773:Drivers/STM32F0xx_HAL_Driver/Src/stm32f0xx_hal_dac_ex.c ****   * @retval None
 774:Drivers/STM32F0xx_HAL_Driver/Src/stm32f0xx_hal_dac_ex.c ****   */
 775:Drivers/STM32F0xx_HAL_Driver/Src/stm32f0xx_hal_dac_ex.c **** void DAC_DMAConvCpltCh2(DMA_HandleTypeDef *hdma)   
 776:Drivers/STM32F0xx_HAL_Driver/Src/stm32f0xx_hal_dac_ex.c **** {
 777:Drivers/STM32F0xx_HAL_Driver/Src/stm32f0xx_hal_dac_ex.c ****   DAC_HandleTypeDef* hdac = ( DAC_HandleTypeDef* )((DMA_HandleTypeDef* )hdma)->Parent;
 778:Drivers/STM32F0xx_HAL_Driver/Src/stm32f0xx_hal_dac_ex.c ****   
 779:Drivers/STM32F0xx_HAL_Driver/Src/stm32f0xx_hal_dac_ex.c ****   HAL_DACEx_ConvCpltCallbackCh2(hdac); 
 780:Drivers/STM32F0xx_HAL_Driver/Src/stm32f0xx_hal_dac_ex.c ****   
 781:Drivers/STM32F0xx_HAL_Driver/Src/stm32f0xx_hal_dac_ex.c ****   hdac->State= HAL_DAC_STATE_READY;
 782:Drivers/STM32F0xx_HAL_Driver/Src/stm32f0xx_hal_dac_ex.c **** }
 783:Drivers/STM32F0xx_HAL_Driver/Src/stm32f0xx_hal_dac_ex.c **** 
 784:Drivers/STM32F0xx_HAL_Driver/Src/stm32f0xx_hal_dac_ex.c **** /**
 785:Drivers/STM32F0xx_HAL_Driver/Src/stm32f0xx_hal_dac_ex.c ****   * @brief  DMA half transfer complete callback. 
 786:Drivers/STM32F0xx_HAL_Driver/Src/stm32f0xx_hal_dac_ex.c ****   * @param  hdma: pointer to a DMA_HandleTypeDef structure that contains
 787:Drivers/STM32F0xx_HAL_Driver/Src/stm32f0xx_hal_dac_ex.c ****   *                the configuration information for the specified DMA module.
 788:Drivers/STM32F0xx_HAL_Driver/Src/stm32f0xx_hal_dac_ex.c ****   * @retval None
 789:Drivers/STM32F0xx_HAL_Driver/Src/stm32f0xx_hal_dac_ex.c ****   */
 790:Drivers/STM32F0xx_HAL_Driver/Src/stm32f0xx_hal_dac_ex.c **** void DAC_DMAHalfConvCpltCh2(DMA_HandleTypeDef *hdma)   
 791:Drivers/STM32F0xx_HAL_Driver/Src/stm32f0xx_hal_dac_ex.c **** {
 792:Drivers/STM32F0xx_HAL_Driver/Src/stm32f0xx_hal_dac_ex.c ****     DAC_HandleTypeDef* hdac = ( DAC_HandleTypeDef* )((DMA_HandleTypeDef* )hdma)->Parent;
 793:Drivers/STM32F0xx_HAL_Driver/Src/stm32f0xx_hal_dac_ex.c ****     /* Conversion complete callback */
 794:Drivers/STM32F0xx_HAL_Driver/Src/stm32f0xx_hal_dac_ex.c ****     HAL_DACEx_ConvHalfCpltCallbackCh2(hdac); 
 795:Drivers/STM32F0xx_HAL_Driver/Src/stm32f0xx_hal_dac_ex.c **** }
 796:Drivers/STM32F0xx_HAL_Driver/Src/stm32f0xx_hal_dac_ex.c **** 
 797:Drivers/STM32F0xx_HAL_Driver/Src/stm32f0xx_hal_dac_ex.c **** /**
 798:Drivers/STM32F0xx_HAL_Driver/Src/stm32f0xx_hal_dac_ex.c ****   * @brief  DMA error callback 
 799:Drivers/STM32F0xx_HAL_Driver/Src/stm32f0xx_hal_dac_ex.c ****   * @param  hdma: pointer to a DMA_HandleTypeDef structure that contains
 800:Drivers/STM32F0xx_HAL_Driver/Src/stm32f0xx_hal_dac_ex.c ****   *                the configuration information for the specified DMA module.
 801:Drivers/STM32F0xx_HAL_Driver/Src/stm32f0xx_hal_dac_ex.c ****   * @retval None
 802:Drivers/STM32F0xx_HAL_Driver/Src/stm32f0xx_hal_dac_ex.c ****   */
 803:Drivers/STM32F0xx_HAL_Driver/Src/stm32f0xx_hal_dac_ex.c **** void DAC_DMAErrorCh2(DMA_HandleTypeDef *hdma)   
 804:Drivers/STM32F0xx_HAL_Driver/Src/stm32f0xx_hal_dac_ex.c **** {
 805:Drivers/STM32F0xx_HAL_Driver/Src/stm32f0xx_hal_dac_ex.c ****   DAC_HandleTypeDef* hdac = ( DAC_HandleTypeDef* )((DMA_HandleTypeDef* )hdma)->Parent;
 806:Drivers/STM32F0xx_HAL_Driver/Src/stm32f0xx_hal_dac_ex.c ****     
 807:Drivers/STM32F0xx_HAL_Driver/Src/stm32f0xx_hal_dac_ex.c ****   /* Set DAC error code to DMA error */
 808:Drivers/STM32F0xx_HAL_Driver/Src/stm32f0xx_hal_dac_ex.c ****   hdac->ErrorCode |= HAL_DAC_ERROR_DMA;
 809:Drivers/STM32F0xx_HAL_Driver/Src/stm32f0xx_hal_dac_ex.c ****     
 810:Drivers/STM32F0xx_HAL_Driver/Src/stm32f0xx_hal_dac_ex.c ****   HAL_DACEx_ErrorCallbackCh2(hdac); 
ARM GAS  /tmp/ccE0rAsr.s 			page 26


 811:Drivers/STM32F0xx_HAL_Driver/Src/stm32f0xx_hal_dac_ex.c ****     
 812:Drivers/STM32F0xx_HAL_Driver/Src/stm32f0xx_hal_dac_ex.c ****   hdac->State= HAL_DAC_STATE_READY;
 813:Drivers/STM32F0xx_HAL_Driver/Src/stm32f0xx_hal_dac_ex.c **** }
 814:Drivers/STM32F0xx_HAL_Driver/Src/stm32f0xx_hal_dac_ex.c **** 
 815:Drivers/STM32F0xx_HAL_Driver/Src/stm32f0xx_hal_dac_ex.c **** /**
 816:Drivers/STM32F0xx_HAL_Driver/Src/stm32f0xx_hal_dac_ex.c ****   * @}
 817:Drivers/STM32F0xx_HAL_Driver/Src/stm32f0xx_hal_dac_ex.c ****   */
 818:Drivers/STM32F0xx_HAL_Driver/Src/stm32f0xx_hal_dac_ex.c **** 
 819:Drivers/STM32F0xx_HAL_Driver/Src/stm32f0xx_hal_dac_ex.c **** #endif /* STM32F071xB  STM32F072xB  STM32F078xx */
 820:Drivers/STM32F0xx_HAL_Driver/Src/stm32f0xx_hal_dac_ex.c ****        /* STM32F091xC  STM32F098xx */
 821:Drivers/STM32F0xx_HAL_Driver/Src/stm32f0xx_hal_dac_ex.c **** 
 822:Drivers/STM32F0xx_HAL_Driver/Src/stm32f0xx_hal_dac_ex.c **** /**
 823:Drivers/STM32F0xx_HAL_Driver/Src/stm32f0xx_hal_dac_ex.c ****   * @}
 824:Drivers/STM32F0xx_HAL_Driver/Src/stm32f0xx_hal_dac_ex.c ****   */
 825:Drivers/STM32F0xx_HAL_Driver/Src/stm32f0xx_hal_dac_ex.c **** 
 826:Drivers/STM32F0xx_HAL_Driver/Src/stm32f0xx_hal_dac_ex.c **** /** @defgroup DACEx DACEx
 827:Drivers/STM32F0xx_HAL_Driver/Src/stm32f0xx_hal_dac_ex.c ****   * @brief DACEx driver module
 828:Drivers/STM32F0xx_HAL_Driver/Src/stm32f0xx_hal_dac_ex.c ****   * @{
 829:Drivers/STM32F0xx_HAL_Driver/Src/stm32f0xx_hal_dac_ex.c ****   */ 
 830:Drivers/STM32F0xx_HAL_Driver/Src/stm32f0xx_hal_dac_ex.c **** 
 831:Drivers/STM32F0xx_HAL_Driver/Src/stm32f0xx_hal_dac_ex.c **** /* Private typedef -----------------------------------------------------------*/
 832:Drivers/STM32F0xx_HAL_Driver/Src/stm32f0xx_hal_dac_ex.c **** /* Private define ------------------------------------------------------------*/
 833:Drivers/STM32F0xx_HAL_Driver/Src/stm32f0xx_hal_dac_ex.c **** /* Private macro -------------------------------------------------------------*/
 834:Drivers/STM32F0xx_HAL_Driver/Src/stm32f0xx_hal_dac_ex.c **** /** @defgroup DACEx_Private_Macros DACEx Private Macros
 835:Drivers/STM32F0xx_HAL_Driver/Src/stm32f0xx_hal_dac_ex.c ****   * @{
 836:Drivers/STM32F0xx_HAL_Driver/Src/stm32f0xx_hal_dac_ex.c ****   */
 837:Drivers/STM32F0xx_HAL_Driver/Src/stm32f0xx_hal_dac_ex.c **** /**
 838:Drivers/STM32F0xx_HAL_Driver/Src/stm32f0xx_hal_dac_ex.c ****   * @}
 839:Drivers/STM32F0xx_HAL_Driver/Src/stm32f0xx_hal_dac_ex.c ****   */
 840:Drivers/STM32F0xx_HAL_Driver/Src/stm32f0xx_hal_dac_ex.c **** 
 841:Drivers/STM32F0xx_HAL_Driver/Src/stm32f0xx_hal_dac_ex.c **** /* Private variables ---------------------------------------------------------*/
 842:Drivers/STM32F0xx_HAL_Driver/Src/stm32f0xx_hal_dac_ex.c **** /* Private function prototypes -----------------------------------------------*/
 843:Drivers/STM32F0xx_HAL_Driver/Src/stm32f0xx_hal_dac_ex.c **** /* Private functions ---------------------------------------------------------*/
 844:Drivers/STM32F0xx_HAL_Driver/Src/stm32f0xx_hal_dac_ex.c **** 
 845:Drivers/STM32F0xx_HAL_Driver/Src/stm32f0xx_hal_dac_ex.c **** /** @defgroup DACEx_Exported_Functions DACEx Exported Functions
 846:Drivers/STM32F0xx_HAL_Driver/Src/stm32f0xx_hal_dac_ex.c ****   * @{
 847:Drivers/STM32F0xx_HAL_Driver/Src/stm32f0xx_hal_dac_ex.c ****   */
 848:Drivers/STM32F0xx_HAL_Driver/Src/stm32f0xx_hal_dac_ex.c **** 
 849:Drivers/STM32F0xx_HAL_Driver/Src/stm32f0xx_hal_dac_ex.c **** /** @defgroup DACEx_Exported_Functions_Group1 Extended features functions
 850:Drivers/STM32F0xx_HAL_Driver/Src/stm32f0xx_hal_dac_ex.c ****  *  @brief    Extended features functions 
 851:Drivers/STM32F0xx_HAL_Driver/Src/stm32f0xx_hal_dac_ex.c ****  *
 852:Drivers/STM32F0xx_HAL_Driver/Src/stm32f0xx_hal_dac_ex.c **** @verbatim   
 853:Drivers/STM32F0xx_HAL_Driver/Src/stm32f0xx_hal_dac_ex.c ****   ==============================================================================
 854:Drivers/STM32F0xx_HAL_Driver/Src/stm32f0xx_hal_dac_ex.c ****                  ##### Extended features functions #####
 855:Drivers/STM32F0xx_HAL_Driver/Src/stm32f0xx_hal_dac_ex.c ****   ==============================================================================  
 856:Drivers/STM32F0xx_HAL_Driver/Src/stm32f0xx_hal_dac_ex.c ****     [..]  This section provides functions allowing to:
 857:Drivers/STM32F0xx_HAL_Driver/Src/stm32f0xx_hal_dac_ex.c ****       (+) Start conversion.
 858:Drivers/STM32F0xx_HAL_Driver/Src/stm32f0xx_hal_dac_ex.c ****       (+) Stop conversion.
 859:Drivers/STM32F0xx_HAL_Driver/Src/stm32f0xx_hal_dac_ex.c ****       (+) Start conversion and enable DMA transfer.
 860:Drivers/STM32F0xx_HAL_Driver/Src/stm32f0xx_hal_dac_ex.c ****       (+) Stop conversion and disable DMA transfer.
 861:Drivers/STM32F0xx_HAL_Driver/Src/stm32f0xx_hal_dac_ex.c ****       (+) Get result of conversion.
 862:Drivers/STM32F0xx_HAL_Driver/Src/stm32f0xx_hal_dac_ex.c ****       (+) Get result of dual mode conversion.
 863:Drivers/STM32F0xx_HAL_Driver/Src/stm32f0xx_hal_dac_ex.c ****                      
 864:Drivers/STM32F0xx_HAL_Driver/Src/stm32f0xx_hal_dac_ex.c **** @endverbatim
 865:Drivers/STM32F0xx_HAL_Driver/Src/stm32f0xx_hal_dac_ex.c ****   * @{
 866:Drivers/STM32F0xx_HAL_Driver/Src/stm32f0xx_hal_dac_ex.c ****   */
 867:Drivers/STM32F0xx_HAL_Driver/Src/stm32f0xx_hal_dac_ex.c **** 
ARM GAS  /tmp/ccE0rAsr.s 			page 27


 868:Drivers/STM32F0xx_HAL_Driver/Src/stm32f0xx_hal_dac_ex.c **** #if defined(STM32F071xB) || defined(STM32F072xB) || defined(STM32F078xx) || \
 869:Drivers/STM32F0xx_HAL_Driver/Src/stm32f0xx_hal_dac_ex.c ****     defined(STM32F091xC) || defined(STM32F098xx) 
 870:Drivers/STM32F0xx_HAL_Driver/Src/stm32f0xx_hal_dac_ex.c ****       
 871:Drivers/STM32F0xx_HAL_Driver/Src/stm32f0xx_hal_dac_ex.c **** /**
 872:Drivers/STM32F0xx_HAL_Driver/Src/stm32f0xx_hal_dac_ex.c ****   * @brief  Returns the last data output value of the selected DAC channel.
 873:Drivers/STM32F0xx_HAL_Driver/Src/stm32f0xx_hal_dac_ex.c ****   * @param  hdac: pointer to a DAC_HandleTypeDef structure that contains
 874:Drivers/STM32F0xx_HAL_Driver/Src/stm32f0xx_hal_dac_ex.c ****   *         the configuration information for the specified DAC.
 875:Drivers/STM32F0xx_HAL_Driver/Src/stm32f0xx_hal_dac_ex.c ****   * @retval The selected DAC channel data output value.
 876:Drivers/STM32F0xx_HAL_Driver/Src/stm32f0xx_hal_dac_ex.c ****   */
 877:Drivers/STM32F0xx_HAL_Driver/Src/stm32f0xx_hal_dac_ex.c **** uint32_t HAL_DACEx_DualGetValue(DAC_HandleTypeDef* hdac)
 878:Drivers/STM32F0xx_HAL_Driver/Src/stm32f0xx_hal_dac_ex.c **** {
 527              		.loc 1 878 0
 528              		.cfi_startproc
 529              	.LVL48:
 879:Drivers/STM32F0xx_HAL_Driver/Src/stm32f0xx_hal_dac_ex.c ****   uint32_t tmp = 0;
 880:Drivers/STM32F0xx_HAL_Driver/Src/stm32f0xx_hal_dac_ex.c ****   
 881:Drivers/STM32F0xx_HAL_Driver/Src/stm32f0xx_hal_dac_ex.c ****   tmp |= hdac->Instance->DOR1;
 530              		.loc 1 881 0
 531 0000 0368     		ldr	r3, [r0]
 882:Drivers/STM32F0xx_HAL_Driver/Src/stm32f0xx_hal_dac_ex.c **** 
 883:Drivers/STM32F0xx_HAL_Driver/Src/stm32f0xx_hal_dac_ex.c ****   /* DAC channel 2 is present in DAC 1 */
 884:Drivers/STM32F0xx_HAL_Driver/Src/stm32f0xx_hal_dac_ex.c ****   tmp |= hdac->Instance->DOR2 << 16;
 885:Drivers/STM32F0xx_HAL_Driver/Src/stm32f0xx_hal_dac_ex.c ****   
 886:Drivers/STM32F0xx_HAL_Driver/Src/stm32f0xx_hal_dac_ex.c ****   /* Returns the DAC channel data output register value */
 887:Drivers/STM32F0xx_HAL_Driver/Src/stm32f0xx_hal_dac_ex.c ****   return tmp;
 888:Drivers/STM32F0xx_HAL_Driver/Src/stm32f0xx_hal_dac_ex.c **** }
 532              		.loc 1 888 0
 533              		@ sp needed
 881:Drivers/STM32F0xx_HAL_Driver/Src/stm32f0xx_hal_dac_ex.c **** 
 534              		.loc 1 881 0
 535 0002 DA6A     		ldr	r2, [r3, #44]
 536              	.LVL49:
 884:Drivers/STM32F0xx_HAL_Driver/Src/stm32f0xx_hal_dac_ex.c ****   
 537              		.loc 1 884 0
 538 0004 186B     		ldr	r0, [r3, #48]
 539              	.LVL50:
 540 0006 0004     		lsls	r0, r0, #16
 541              	.LVL51:
 542 0008 1043     		orrs	r0, r2
 543              	.LVL52:
 544              		.loc 1 888 0
 545 000a 7047     		bx	lr
 546              		.cfi_endproc
 547              	.LFE46:
 549              		.section	.text.HAL_DACEx_TriangleWaveGenerate,"ax",%progbits
 550              		.align	1
 551              		.global	HAL_DACEx_TriangleWaveGenerate
 552              		.syntax unified
 553              		.code	16
 554              		.thumb_func
 555              		.fpu softvfp
 557              	HAL_DACEx_TriangleWaveGenerate:
 558              	.LFB47:
 889:Drivers/STM32F0xx_HAL_Driver/Src/stm32f0xx_hal_dac_ex.c **** 
 890:Drivers/STM32F0xx_HAL_Driver/Src/stm32f0xx_hal_dac_ex.c **** #endif /* STM32F071xB  STM32F072xB  STM32F078xx */
 891:Drivers/STM32F0xx_HAL_Driver/Src/stm32f0xx_hal_dac_ex.c ****        /* STM32F091xC  STM32F098xx */
 892:Drivers/STM32F0xx_HAL_Driver/Src/stm32f0xx_hal_dac_ex.c **** 
ARM GAS  /tmp/ccE0rAsr.s 			page 28


 893:Drivers/STM32F0xx_HAL_Driver/Src/stm32f0xx_hal_dac_ex.c **** #if defined (STM32F051x8) || defined (STM32F058xx)
 894:Drivers/STM32F0xx_HAL_Driver/Src/stm32f0xx_hal_dac_ex.c **** 
 895:Drivers/STM32F0xx_HAL_Driver/Src/stm32f0xx_hal_dac_ex.c **** /**
 896:Drivers/STM32F0xx_HAL_Driver/Src/stm32f0xx_hal_dac_ex.c ****   * @brief  Returns the last data output value of the selected DAC channel.
 897:Drivers/STM32F0xx_HAL_Driver/Src/stm32f0xx_hal_dac_ex.c ****   * @param  hdac: pointer to a DAC_HandleTypeDef structure that contains
 898:Drivers/STM32F0xx_HAL_Driver/Src/stm32f0xx_hal_dac_ex.c ****   *         the configuration information for the specified DAC.
 899:Drivers/STM32F0xx_HAL_Driver/Src/stm32f0xx_hal_dac_ex.c ****   * @retval The selected DAC channel data output value.
 900:Drivers/STM32F0xx_HAL_Driver/Src/stm32f0xx_hal_dac_ex.c ****   */
 901:Drivers/STM32F0xx_HAL_Driver/Src/stm32f0xx_hal_dac_ex.c **** uint32_t HAL_DACEx_DualGetValue(DAC_HandleTypeDef* hdac)
 902:Drivers/STM32F0xx_HAL_Driver/Src/stm32f0xx_hal_dac_ex.c **** {
 903:Drivers/STM32F0xx_HAL_Driver/Src/stm32f0xx_hal_dac_ex.c ****   uint32_t tmp = 0;
 904:Drivers/STM32F0xx_HAL_Driver/Src/stm32f0xx_hal_dac_ex.c ****   
 905:Drivers/STM32F0xx_HAL_Driver/Src/stm32f0xx_hal_dac_ex.c ****   tmp |= hdac->Instance->DOR1;
 906:Drivers/STM32F0xx_HAL_Driver/Src/stm32f0xx_hal_dac_ex.c ****   
 907:Drivers/STM32F0xx_HAL_Driver/Src/stm32f0xx_hal_dac_ex.c ****   /* Returns the DAC channel data output register value */
 908:Drivers/STM32F0xx_HAL_Driver/Src/stm32f0xx_hal_dac_ex.c ****   return tmp;
 909:Drivers/STM32F0xx_HAL_Driver/Src/stm32f0xx_hal_dac_ex.c **** }
 910:Drivers/STM32F0xx_HAL_Driver/Src/stm32f0xx_hal_dac_ex.c **** 
 911:Drivers/STM32F0xx_HAL_Driver/Src/stm32f0xx_hal_dac_ex.c **** #endif /* STM32F051x8 STM32F058xx */
 912:Drivers/STM32F0xx_HAL_Driver/Src/stm32f0xx_hal_dac_ex.c **** 
 913:Drivers/STM32F0xx_HAL_Driver/Src/stm32f0xx_hal_dac_ex.c **** #if defined(STM32F071xB) || defined(STM32F072xB) || defined(STM32F078xx) || \
 914:Drivers/STM32F0xx_HAL_Driver/Src/stm32f0xx_hal_dac_ex.c ****     defined(STM32F091xC) || defined(STM32F098xx)
 915:Drivers/STM32F0xx_HAL_Driver/Src/stm32f0xx_hal_dac_ex.c **** 
 916:Drivers/STM32F0xx_HAL_Driver/Src/stm32f0xx_hal_dac_ex.c **** /**
 917:Drivers/STM32F0xx_HAL_Driver/Src/stm32f0xx_hal_dac_ex.c ****   * @brief  Enables or disables the selected DAC channel wave generation.
 918:Drivers/STM32F0xx_HAL_Driver/Src/stm32f0xx_hal_dac_ex.c ****   * @param  hdac: pointer to a DAC_HandleTypeDef structure that contains
 919:Drivers/STM32F0xx_HAL_Driver/Src/stm32f0xx_hal_dac_ex.c ****   *         the configuration information for the specified DAC.
 920:Drivers/STM32F0xx_HAL_Driver/Src/stm32f0xx_hal_dac_ex.c ****   * @param  Channel: The selected DAC channel. 
 921:Drivers/STM32F0xx_HAL_Driver/Src/stm32f0xx_hal_dac_ex.c ****   *          This parameter can be one of the following values:
 922:Drivers/STM32F0xx_HAL_Driver/Src/stm32f0xx_hal_dac_ex.c ****   *            DAC_CHANNEL_1 / DAC_CHANNEL_2
 923:Drivers/STM32F0xx_HAL_Driver/Src/stm32f0xx_hal_dac_ex.c ****   * @param  Amplitude: Select max triangle amplitude. 
 924:Drivers/STM32F0xx_HAL_Driver/Src/stm32f0xx_hal_dac_ex.c ****   *          This parameter can be one of the following values:
 925:Drivers/STM32F0xx_HAL_Driver/Src/stm32f0xx_hal_dac_ex.c ****   *            @arg DAC_TRIANGLEAMPLITUDE_1: Select max triangle amplitude of 1
 926:Drivers/STM32F0xx_HAL_Driver/Src/stm32f0xx_hal_dac_ex.c ****   *            @arg DAC_TRIANGLEAMPLITUDE_3: Select max triangle amplitude of 3
 927:Drivers/STM32F0xx_HAL_Driver/Src/stm32f0xx_hal_dac_ex.c ****   *            @arg DAC_TRIANGLEAMPLITUDE_7: Select max triangle amplitude of 7
 928:Drivers/STM32F0xx_HAL_Driver/Src/stm32f0xx_hal_dac_ex.c ****   *            @arg DAC_TRIANGLEAMPLITUDE_15: Select max triangle amplitude of 15
 929:Drivers/STM32F0xx_HAL_Driver/Src/stm32f0xx_hal_dac_ex.c ****   *            @arg DAC_TRIANGLEAMPLITUDE_31: Select max triangle amplitude of 31
 930:Drivers/STM32F0xx_HAL_Driver/Src/stm32f0xx_hal_dac_ex.c ****   *            @arg DAC_TRIANGLEAMPLITUDE_63: Select max triangle amplitude of 63
 931:Drivers/STM32F0xx_HAL_Driver/Src/stm32f0xx_hal_dac_ex.c ****   *            @arg DAC_TRIANGLEAMPLITUDE_127: Select max triangle amplitude of 127
 932:Drivers/STM32F0xx_HAL_Driver/Src/stm32f0xx_hal_dac_ex.c ****   *            @arg DAC_TRIANGLEAMPLITUDE_255: Select max triangle amplitude of 255
 933:Drivers/STM32F0xx_HAL_Driver/Src/stm32f0xx_hal_dac_ex.c ****   *            @arg DAC_TRIANGLEAMPLITUDE_511: Select max triangle amplitude of 511
 934:Drivers/STM32F0xx_HAL_Driver/Src/stm32f0xx_hal_dac_ex.c ****   *            @arg DAC_TRIANGLEAMPLITUDE_1023: Select max triangle amplitude of 1023
 935:Drivers/STM32F0xx_HAL_Driver/Src/stm32f0xx_hal_dac_ex.c ****   *            @arg DAC_TRIANGLEAMPLITUDE_2047: Select max triangle amplitude of 2047
 936:Drivers/STM32F0xx_HAL_Driver/Src/stm32f0xx_hal_dac_ex.c ****   *            @arg DAC_TRIANGLEAMPLITUDE_4095: Select max triangle amplitude of 4095              
 937:Drivers/STM32F0xx_HAL_Driver/Src/stm32f0xx_hal_dac_ex.c ****   * @retval HAL status
 938:Drivers/STM32F0xx_HAL_Driver/Src/stm32f0xx_hal_dac_ex.c ****   */
 939:Drivers/STM32F0xx_HAL_Driver/Src/stm32f0xx_hal_dac_ex.c **** HAL_StatusTypeDef HAL_DACEx_TriangleWaveGenerate(DAC_HandleTypeDef* hdac, uint32_t Channel, uint32_
 940:Drivers/STM32F0xx_HAL_Driver/Src/stm32f0xx_hal_dac_ex.c **** {  
 559              		.loc 1 940 0
 560              		.cfi_startproc
 561              	.LVL53:
 562 0000 70B5     		push	{r4, r5, r6, lr}
 563              	.LCFI6:
 564              		.cfi_def_cfa_offset 16
 565              		.cfi_offset 4, -16
 566              		.cfi_offset 5, -12
 567              		.cfi_offset 6, -8
ARM GAS  /tmp/ccE0rAsr.s 			page 29


 568              		.cfi_offset 14, -4
 941:Drivers/STM32F0xx_HAL_Driver/Src/stm32f0xx_hal_dac_ex.c ****   /* Check the parameters */
 942:Drivers/STM32F0xx_HAL_Driver/Src/stm32f0xx_hal_dac_ex.c ****   assert_param(IS_DAC_CHANNEL(Channel));
 943:Drivers/STM32F0xx_HAL_Driver/Src/stm32f0xx_hal_dac_ex.c ****   assert_param(IS_DAC_LFSR_UNMASK_TRIANGLE_AMPLITUDE(Amplitude));
 944:Drivers/STM32F0xx_HAL_Driver/Src/stm32f0xx_hal_dac_ex.c ****   
 945:Drivers/STM32F0xx_HAL_Driver/Src/stm32f0xx_hal_dac_ex.c ****   /* Process locked */
 946:Drivers/STM32F0xx_HAL_Driver/Src/stm32f0xx_hal_dac_ex.c ****   __HAL_LOCK(hdac);
 569              		.loc 1 946 0
 570 0002 4379     		ldrb	r3, [r0, #5]
 940:Drivers/STM32F0xx_HAL_Driver/Src/stm32f0xx_hal_dac_ex.c ****   /* Check the parameters */
 571              		.loc 1 940 0
 572 0004 0400     		movs	r4, r0
 573 0006 1600     		movs	r6, r2
 574 0008 0220     		movs	r0, #2
 575              	.LVL54:
 576              		.loc 1 946 0
 577 000a 012B     		cmp	r3, #1
 578 000c 0FD0     		beq	.L42
 947:Drivers/STM32F0xx_HAL_Driver/Src/stm32f0xx_hal_dac_ex.c ****   
 948:Drivers/STM32F0xx_HAL_Driver/Src/stm32f0xx_hal_dac_ex.c ****   /* Change DAC state */
 949:Drivers/STM32F0xx_HAL_Driver/Src/stm32f0xx_hal_dac_ex.c ****   hdac->State = HAL_DAC_STATE_BUSY;
 950:Drivers/STM32F0xx_HAL_Driver/Src/stm32f0xx_hal_dac_ex.c ****   
 951:Drivers/STM32F0xx_HAL_Driver/Src/stm32f0xx_hal_dac_ex.c ****   /* Enable the selected wave generation for the selected DAC channel */
 952:Drivers/STM32F0xx_HAL_Driver/Src/stm32f0xx_hal_dac_ex.c ****   MODIFY_REG(hdac->Instance->CR, ((DAC_CR_WAVE1)|(DAC_CR_MAMP1))<<Channel, (DAC_CR_WAVE1_1 | Amplit
 579              		.loc 1 952 0 discriminator 2
 580 000e FC25     		movs	r5, #252
 581 0010 8022     		movs	r2, #128
 582              	.LVL55:
 583 0012 2D01     		lsls	r5, r5, #4
 584 0014 8D40     		lsls	r5, r5, r1
 585 0016 3243     		orrs	r2, r6
 586 0018 8A40     		lsls	r2, r2, r1
 949:Drivers/STM32F0xx_HAL_Driver/Src/stm32f0xx_hal_dac_ex.c ****   
 587              		.loc 1 949 0 discriminator 2
 588 001a 2071     		strb	r0, [r4, #4]
 589              		.loc 1 952 0 discriminator 2
 590 001c 2068     		ldr	r0, [r4]
 591 001e 0368     		ldr	r3, [r0]
 592 0020 AB43     		bics	r3, r5
 593 0022 1A43     		orrs	r2, r3
 594 0024 0260     		str	r2, [r0]
 953:Drivers/STM32F0xx_HAL_Driver/Src/stm32f0xx_hal_dac_ex.c ****   
 954:Drivers/STM32F0xx_HAL_Driver/Src/stm32f0xx_hal_dac_ex.c ****   /* Change DAC state */
 955:Drivers/STM32F0xx_HAL_Driver/Src/stm32f0xx_hal_dac_ex.c ****   hdac->State = HAL_DAC_STATE_READY;
 595              		.loc 1 955 0 discriminator 2
 596 0026 0123     		movs	r3, #1
 956:Drivers/STM32F0xx_HAL_Driver/Src/stm32f0xx_hal_dac_ex.c ****   
 957:Drivers/STM32F0xx_HAL_Driver/Src/stm32f0xx_hal_dac_ex.c ****   /* Process unlocked */
 958:Drivers/STM32F0xx_HAL_Driver/Src/stm32f0xx_hal_dac_ex.c ****   __HAL_UNLOCK(hdac);
 597              		.loc 1 958 0 discriminator 2
 598 0028 0020     		movs	r0, #0
 955:Drivers/STM32F0xx_HAL_Driver/Src/stm32f0xx_hal_dac_ex.c ****   
 599              		.loc 1 955 0 discriminator 2
 600 002a 2371     		strb	r3, [r4, #4]
 601              		.loc 1 958 0 discriminator 2
 602 002c 6071     		strb	r0, [r4, #5]
 603              	.L42:
ARM GAS  /tmp/ccE0rAsr.s 			page 30


 959:Drivers/STM32F0xx_HAL_Driver/Src/stm32f0xx_hal_dac_ex.c ****   
 960:Drivers/STM32F0xx_HAL_Driver/Src/stm32f0xx_hal_dac_ex.c ****   /* Return function status */
 961:Drivers/STM32F0xx_HAL_Driver/Src/stm32f0xx_hal_dac_ex.c ****   return HAL_OK;
 962:Drivers/STM32F0xx_HAL_Driver/Src/stm32f0xx_hal_dac_ex.c **** }
 604              		.loc 1 962 0
 605              		@ sp needed
 606              	.LVL56:
 607              	.LVL57:
 608 002e 70BD     		pop	{r4, r5, r6, pc}
 609              		.cfi_endproc
 610              	.LFE47:
 612              		.section	.text.HAL_DACEx_NoiseWaveGenerate,"ax",%progbits
 613              		.align	1
 614              		.global	HAL_DACEx_NoiseWaveGenerate
 615              		.syntax unified
 616              		.code	16
 617              		.thumb_func
 618              		.fpu softvfp
 620              	HAL_DACEx_NoiseWaveGenerate:
 621              	.LFB48:
 963:Drivers/STM32F0xx_HAL_Driver/Src/stm32f0xx_hal_dac_ex.c **** 
 964:Drivers/STM32F0xx_HAL_Driver/Src/stm32f0xx_hal_dac_ex.c **** /**
 965:Drivers/STM32F0xx_HAL_Driver/Src/stm32f0xx_hal_dac_ex.c ****   * @brief  Enables or disables the selected DAC channel wave generation.
 966:Drivers/STM32F0xx_HAL_Driver/Src/stm32f0xx_hal_dac_ex.c ****   * @param  hdac: pointer to a DAC_HandleTypeDef structure that contains
 967:Drivers/STM32F0xx_HAL_Driver/Src/stm32f0xx_hal_dac_ex.c ****   *         the configuration information for the specified DAC. 
 968:Drivers/STM32F0xx_HAL_Driver/Src/stm32f0xx_hal_dac_ex.c ****   * @param  Channel: The selected DAC channel. 
 969:Drivers/STM32F0xx_HAL_Driver/Src/stm32f0xx_hal_dac_ex.c ****   *          This parameter can be one of the following values:
 970:Drivers/STM32F0xx_HAL_Driver/Src/stm32f0xx_hal_dac_ex.c ****   *            DAC_CHANNEL_1 / DAC_CHANNEL_2
 971:Drivers/STM32F0xx_HAL_Driver/Src/stm32f0xx_hal_dac_ex.c ****   * @param  Amplitude: Unmask DAC channel LFSR for noise wave generation. 
 972:Drivers/STM32F0xx_HAL_Driver/Src/stm32f0xx_hal_dac_ex.c ****   *          This parameter can be one of the following values: 
 973:Drivers/STM32F0xx_HAL_Driver/Src/stm32f0xx_hal_dac_ex.c ****   *            @arg DAC_LFSRUNMASK_BIT0: Unmask DAC channel LFSR bit0 for noise wave generation
 974:Drivers/STM32F0xx_HAL_Driver/Src/stm32f0xx_hal_dac_ex.c ****   *            @arg DAC_LFSRUNMASK_BITS1_0: Unmask DAC channel LFSR bit[1:0] for noise wave generat
 975:Drivers/STM32F0xx_HAL_Driver/Src/stm32f0xx_hal_dac_ex.c ****   *            @arg DAC_LFSRUNMASK_BITS2_0: Unmask DAC channel LFSR bit[2:0] for noise wave generat
 976:Drivers/STM32F0xx_HAL_Driver/Src/stm32f0xx_hal_dac_ex.c ****   *            @arg DAC_LFSRUNMASK_BITS3_0: Unmask DAC channel LFSR bit[3:0] for noise wave generat
 977:Drivers/STM32F0xx_HAL_Driver/Src/stm32f0xx_hal_dac_ex.c ****   *            @arg DAC_LFSRUNMASK_BITS4_0: Unmask DAC channel LFSR bit[4:0] for noise wave generat
 978:Drivers/STM32F0xx_HAL_Driver/Src/stm32f0xx_hal_dac_ex.c ****   *            @arg DAC_LFSRUNMASK_BITS5_0: Unmask DAC channel LFSR bit[5:0] for noise wave generat
 979:Drivers/STM32F0xx_HAL_Driver/Src/stm32f0xx_hal_dac_ex.c ****   *            @arg DAC_LFSRUNMASK_BITS6_0: Unmask DAC channel LFSR bit[6:0] for noise wave generat
 980:Drivers/STM32F0xx_HAL_Driver/Src/stm32f0xx_hal_dac_ex.c ****   *            @arg DAC_LFSRUNMASK_BITS7_0: Unmask DAC channel LFSR bit[7:0] for noise wave generat
 981:Drivers/STM32F0xx_HAL_Driver/Src/stm32f0xx_hal_dac_ex.c ****   *            @arg DAC_LFSRUNMASK_BITS8_0: Unmask DAC channel LFSR bit[8:0] for noise wave generat
 982:Drivers/STM32F0xx_HAL_Driver/Src/stm32f0xx_hal_dac_ex.c ****   *            @arg DAC_LFSRUNMASK_BITS9_0: Unmask DAC channel LFSR bit[9:0] for noise wave generat
 983:Drivers/STM32F0xx_HAL_Driver/Src/stm32f0xx_hal_dac_ex.c ****   *            @arg DAC_LFSRUNMASK_BITS10_0: Unmask DAC channel LFSR bit[10:0] for noise wave gener
 984:Drivers/STM32F0xx_HAL_Driver/Src/stm32f0xx_hal_dac_ex.c ****   *            @arg DAC_LFSRUNMASK_BITS11_0: Unmask DAC channel LFSR bit[11:0] for noise wave gener
 985:Drivers/STM32F0xx_HAL_Driver/Src/stm32f0xx_hal_dac_ex.c ****   * @retval HAL status
 986:Drivers/STM32F0xx_HAL_Driver/Src/stm32f0xx_hal_dac_ex.c ****   */
 987:Drivers/STM32F0xx_HAL_Driver/Src/stm32f0xx_hal_dac_ex.c **** HAL_StatusTypeDef HAL_DACEx_NoiseWaveGenerate(DAC_HandleTypeDef* hdac, uint32_t Channel, uint32_t A
 988:Drivers/STM32F0xx_HAL_Driver/Src/stm32f0xx_hal_dac_ex.c **** {  
 622              		.loc 1 988 0
 623              		.cfi_startproc
 624              	.LVL58:
 625 0000 70B5     		push	{r4, r5, r6, lr}
 626              	.LCFI7:
 627              		.cfi_def_cfa_offset 16
 628              		.cfi_offset 4, -16
 629              		.cfi_offset 5, -12
 630              		.cfi_offset 6, -8
 631              		.cfi_offset 14, -4
 989:Drivers/STM32F0xx_HAL_Driver/Src/stm32f0xx_hal_dac_ex.c ****   /* Check the parameters */
ARM GAS  /tmp/ccE0rAsr.s 			page 31


 990:Drivers/STM32F0xx_HAL_Driver/Src/stm32f0xx_hal_dac_ex.c ****   assert_param(IS_DAC_CHANNEL(Channel));
 991:Drivers/STM32F0xx_HAL_Driver/Src/stm32f0xx_hal_dac_ex.c ****   assert_param(IS_DAC_LFSR_UNMASK_TRIANGLE_AMPLITUDE(Amplitude));
 992:Drivers/STM32F0xx_HAL_Driver/Src/stm32f0xx_hal_dac_ex.c ****   
 993:Drivers/STM32F0xx_HAL_Driver/Src/stm32f0xx_hal_dac_ex.c ****   /* Process locked */
 994:Drivers/STM32F0xx_HAL_Driver/Src/stm32f0xx_hal_dac_ex.c ****   __HAL_LOCK(hdac);
 632              		.loc 1 994 0
 633 0002 4379     		ldrb	r3, [r0, #5]
 988:Drivers/STM32F0xx_HAL_Driver/Src/stm32f0xx_hal_dac_ex.c ****   /* Check the parameters */
 634              		.loc 1 988 0
 635 0004 0400     		movs	r4, r0
 636 0006 1600     		movs	r6, r2
 637 0008 0220     		movs	r0, #2
 638              	.LVL59:
 639              		.loc 1 994 0
 640 000a 012B     		cmp	r3, #1
 641 000c 0FD0     		beq	.L46
 995:Drivers/STM32F0xx_HAL_Driver/Src/stm32f0xx_hal_dac_ex.c ****   
 996:Drivers/STM32F0xx_HAL_Driver/Src/stm32f0xx_hal_dac_ex.c ****   /* Change DAC state */
 997:Drivers/STM32F0xx_HAL_Driver/Src/stm32f0xx_hal_dac_ex.c ****   hdac->State = HAL_DAC_STATE_BUSY;
 998:Drivers/STM32F0xx_HAL_Driver/Src/stm32f0xx_hal_dac_ex.c ****   
 999:Drivers/STM32F0xx_HAL_Driver/Src/stm32f0xx_hal_dac_ex.c ****   /* Enable the selected wave generation for the selected DAC channel */
1000:Drivers/STM32F0xx_HAL_Driver/Src/stm32f0xx_hal_dac_ex.c ****   MODIFY_REG(hdac->Instance->CR, ((DAC_CR_WAVE1)|(DAC_CR_MAMP1))<<Channel, (DAC_CR_WAVE1_0 | Amplit
 642              		.loc 1 1000 0 discriminator 2
 643 000e FC25     		movs	r5, #252
 644 0010 4022     		movs	r2, #64
 645              	.LVL60:
 646 0012 2D01     		lsls	r5, r5, #4
 647 0014 8D40     		lsls	r5, r5, r1
 648 0016 3243     		orrs	r2, r6
 649 0018 8A40     		lsls	r2, r2, r1
 997:Drivers/STM32F0xx_HAL_Driver/Src/stm32f0xx_hal_dac_ex.c ****   
 650              		.loc 1 997 0 discriminator 2
 651 001a 2071     		strb	r0, [r4, #4]
 652              		.loc 1 1000 0 discriminator 2
 653 001c 2068     		ldr	r0, [r4]
 654 001e 0368     		ldr	r3, [r0]
 655 0020 AB43     		bics	r3, r5
 656 0022 1A43     		orrs	r2, r3
 657 0024 0260     		str	r2, [r0]
1001:Drivers/STM32F0xx_HAL_Driver/Src/stm32f0xx_hal_dac_ex.c ****   
1002:Drivers/STM32F0xx_HAL_Driver/Src/stm32f0xx_hal_dac_ex.c ****   /* Change DAC state */
1003:Drivers/STM32F0xx_HAL_Driver/Src/stm32f0xx_hal_dac_ex.c ****   hdac->State = HAL_DAC_STATE_READY;
 658              		.loc 1 1003 0 discriminator 2
 659 0026 0123     		movs	r3, #1
1004:Drivers/STM32F0xx_HAL_Driver/Src/stm32f0xx_hal_dac_ex.c ****   
1005:Drivers/STM32F0xx_HAL_Driver/Src/stm32f0xx_hal_dac_ex.c ****   /* Process unlocked */
1006:Drivers/STM32F0xx_HAL_Driver/Src/stm32f0xx_hal_dac_ex.c ****   __HAL_UNLOCK(hdac);
 660              		.loc 1 1006 0 discriminator 2
 661 0028 0020     		movs	r0, #0
1003:Drivers/STM32F0xx_HAL_Driver/Src/stm32f0xx_hal_dac_ex.c ****   
 662              		.loc 1 1003 0 discriminator 2
 663 002a 2371     		strb	r3, [r4, #4]
 664              		.loc 1 1006 0 discriminator 2
 665 002c 6071     		strb	r0, [r4, #5]
 666              	.L46:
1007:Drivers/STM32F0xx_HAL_Driver/Src/stm32f0xx_hal_dac_ex.c ****   
1008:Drivers/STM32F0xx_HAL_Driver/Src/stm32f0xx_hal_dac_ex.c ****   /* Return function status */
ARM GAS  /tmp/ccE0rAsr.s 			page 32


1009:Drivers/STM32F0xx_HAL_Driver/Src/stm32f0xx_hal_dac_ex.c ****   return HAL_OK;
1010:Drivers/STM32F0xx_HAL_Driver/Src/stm32f0xx_hal_dac_ex.c **** }
 667              		.loc 1 1010 0
 668              		@ sp needed
 669              	.LVL61:
 670              	.LVL62:
 671 002e 70BD     		pop	{r4, r5, r6, pc}
 672              		.cfi_endproc
 673              	.LFE48:
 675              		.section	.text.HAL_DACEx_DualSetValue,"ax",%progbits
 676              		.align	1
 677              		.global	HAL_DACEx_DualSetValue
 678              		.syntax unified
 679              		.code	16
 680              		.thumb_func
 681              		.fpu softvfp
 683              	HAL_DACEx_DualSetValue:
 684              	.LFB49:
1011:Drivers/STM32F0xx_HAL_Driver/Src/stm32f0xx_hal_dac_ex.c **** 
1012:Drivers/STM32F0xx_HAL_Driver/Src/stm32f0xx_hal_dac_ex.c **** #endif   /* STM32F071xB  STM32F072xB  STM32F078xx */
1013:Drivers/STM32F0xx_HAL_Driver/Src/stm32f0xx_hal_dac_ex.c ****          /* STM32F091xC  STM32F098xx */
1014:Drivers/STM32F0xx_HAL_Driver/Src/stm32f0xx_hal_dac_ex.c ****   
1015:Drivers/STM32F0xx_HAL_Driver/Src/stm32f0xx_hal_dac_ex.c **** /**
1016:Drivers/STM32F0xx_HAL_Driver/Src/stm32f0xx_hal_dac_ex.c ****   * @}
1017:Drivers/STM32F0xx_HAL_Driver/Src/stm32f0xx_hal_dac_ex.c ****   */
1018:Drivers/STM32F0xx_HAL_Driver/Src/stm32f0xx_hal_dac_ex.c **** 
1019:Drivers/STM32F0xx_HAL_Driver/Src/stm32f0xx_hal_dac_ex.c **** /**
1020:Drivers/STM32F0xx_HAL_Driver/Src/stm32f0xx_hal_dac_ex.c ****   * @}
1021:Drivers/STM32F0xx_HAL_Driver/Src/stm32f0xx_hal_dac_ex.c ****   */
1022:Drivers/STM32F0xx_HAL_Driver/Src/stm32f0xx_hal_dac_ex.c **** 
1023:Drivers/STM32F0xx_HAL_Driver/Src/stm32f0xx_hal_dac_ex.c **** #if defined(STM32F051x8) || defined(STM32F058xx) || \
1024:Drivers/STM32F0xx_HAL_Driver/Src/stm32f0xx_hal_dac_ex.c ****     defined(STM32F071xB) || defined(STM32F072xB) || defined(STM32F078xx) || \
1025:Drivers/STM32F0xx_HAL_Driver/Src/stm32f0xx_hal_dac_ex.c ****     defined(STM32F091xC) || defined(STM32F098xx)
1026:Drivers/STM32F0xx_HAL_Driver/Src/stm32f0xx_hal_dac_ex.c **** 
1027:Drivers/STM32F0xx_HAL_Driver/Src/stm32f0xx_hal_dac_ex.c **** /** @addtogroup DACEx_Exported_Functions
1028:Drivers/STM32F0xx_HAL_Driver/Src/stm32f0xx_hal_dac_ex.c ****   * @{
1029:Drivers/STM32F0xx_HAL_Driver/Src/stm32f0xx_hal_dac_ex.c ****   */
1030:Drivers/STM32F0xx_HAL_Driver/Src/stm32f0xx_hal_dac_ex.c **** 
1031:Drivers/STM32F0xx_HAL_Driver/Src/stm32f0xx_hal_dac_ex.c **** /** @addtogroup DACEx_Exported_Functions_Group1
1032:Drivers/STM32F0xx_HAL_Driver/Src/stm32f0xx_hal_dac_ex.c ****  *  @brief    Extended features functions
1033:Drivers/STM32F0xx_HAL_Driver/Src/stm32f0xx_hal_dac_ex.c ****    * @{
1034:Drivers/STM32F0xx_HAL_Driver/Src/stm32f0xx_hal_dac_ex.c ****   */
1035:Drivers/STM32F0xx_HAL_Driver/Src/stm32f0xx_hal_dac_ex.c **** 
1036:Drivers/STM32F0xx_HAL_Driver/Src/stm32f0xx_hal_dac_ex.c **** /**
1037:Drivers/STM32F0xx_HAL_Driver/Src/stm32f0xx_hal_dac_ex.c ****   * @brief  Set the specified data holding register value for dual DAC channel.
1038:Drivers/STM32F0xx_HAL_Driver/Src/stm32f0xx_hal_dac_ex.c ****   * @param  hdac: pointer to a DAC_HandleTypeDef structure that contains
1039:Drivers/STM32F0xx_HAL_Driver/Src/stm32f0xx_hal_dac_ex.c ****   *               the configuration information for the specified DAC.
1040:Drivers/STM32F0xx_HAL_Driver/Src/stm32f0xx_hal_dac_ex.c ****   * @param  Alignment: Specifies the data alignment for dual channel DAC.
1041:Drivers/STM32F0xx_HAL_Driver/Src/stm32f0xx_hal_dac_ex.c ****   *          This parameter can be one of the following values:
1042:Drivers/STM32F0xx_HAL_Driver/Src/stm32f0xx_hal_dac_ex.c ****   *            DAC_ALIGN_8B_R: 8bit right data alignment selected
1043:Drivers/STM32F0xx_HAL_Driver/Src/stm32f0xx_hal_dac_ex.c ****   *            DAC_ALIGN_12B_L: 12bit left data alignment selected
1044:Drivers/STM32F0xx_HAL_Driver/Src/stm32f0xx_hal_dac_ex.c ****   *            DAC_ALIGN_12B_R: 12bit right data alignment selected
1045:Drivers/STM32F0xx_HAL_Driver/Src/stm32f0xx_hal_dac_ex.c ****   * @param  Data1: Data for DAC Channel2 to be loaded in the selected data holding register.
1046:Drivers/STM32F0xx_HAL_Driver/Src/stm32f0xx_hal_dac_ex.c ****   * @param  Data2: Data for DAC Channel1 to be loaded in the selected data  holding register.
1047:Drivers/STM32F0xx_HAL_Driver/Src/stm32f0xx_hal_dac_ex.c ****   * @note   In dual mode, a unique register access is required to write in both
1048:Drivers/STM32F0xx_HAL_Driver/Src/stm32f0xx_hal_dac_ex.c ****   *          DAC channels at the same time.
1049:Drivers/STM32F0xx_HAL_Driver/Src/stm32f0xx_hal_dac_ex.c ****   * @retval HAL status
ARM GAS  /tmp/ccE0rAsr.s 			page 33


1050:Drivers/STM32F0xx_HAL_Driver/Src/stm32f0xx_hal_dac_ex.c ****   */
1051:Drivers/STM32F0xx_HAL_Driver/Src/stm32f0xx_hal_dac_ex.c **** HAL_StatusTypeDef HAL_DACEx_DualSetValue(DAC_HandleTypeDef* hdac, uint32_t Alignment, uint32_t Data
1052:Drivers/STM32F0xx_HAL_Driver/Src/stm32f0xx_hal_dac_ex.c **** {  
 685              		.loc 1 1052 0
 686              		.cfi_startproc
 687              	.LVL63:
1053:Drivers/STM32F0xx_HAL_Driver/Src/stm32f0xx_hal_dac_ex.c ****   uint32_t data = 0, tmp = 0;
1054:Drivers/STM32F0xx_HAL_Driver/Src/stm32f0xx_hal_dac_ex.c ****   
1055:Drivers/STM32F0xx_HAL_Driver/Src/stm32f0xx_hal_dac_ex.c ****   /* Check the parameters */
1056:Drivers/STM32F0xx_HAL_Driver/Src/stm32f0xx_hal_dac_ex.c ****   assert_param(IS_DAC_ALIGN(Alignment));
1057:Drivers/STM32F0xx_HAL_Driver/Src/stm32f0xx_hal_dac_ex.c ****   assert_param(IS_DAC_DATA(Data1));
1058:Drivers/STM32F0xx_HAL_Driver/Src/stm32f0xx_hal_dac_ex.c ****   assert_param(IS_DAC_DATA(Data2));
1059:Drivers/STM32F0xx_HAL_Driver/Src/stm32f0xx_hal_dac_ex.c ****   
1060:Drivers/STM32F0xx_HAL_Driver/Src/stm32f0xx_hal_dac_ex.c ****   /* Calculate and set dual DAC data holding register value */
1061:Drivers/STM32F0xx_HAL_Driver/Src/stm32f0xx_hal_dac_ex.c ****   if (Alignment == DAC_ALIGN_8B_R)
 688              		.loc 1 1061 0
 689 0000 0829     		cmp	r1, #8
 690 0002 07D1     		bne	.L50
1062:Drivers/STM32F0xx_HAL_Driver/Src/stm32f0xx_hal_dac_ex.c ****   {
1063:Drivers/STM32F0xx_HAL_Driver/Src/stm32f0xx_hal_dac_ex.c ****     data = ((uint32_t)Data2 << 8) | Data1; 
 691              		.loc 1 1063 0
 692 0004 1B02     		lsls	r3, r3, #8
 693              	.LVL64:
 694              	.L52:
1064:Drivers/STM32F0xx_HAL_Driver/Src/stm32f0xx_hal_dac_ex.c ****   }
1065:Drivers/STM32F0xx_HAL_Driver/Src/stm32f0xx_hal_dac_ex.c ****   else
1066:Drivers/STM32F0xx_HAL_Driver/Src/stm32f0xx_hal_dac_ex.c ****   {
1067:Drivers/STM32F0xx_HAL_Driver/Src/stm32f0xx_hal_dac_ex.c ****     data = ((uint32_t)Data2 << 16) | Data1;
 695              		.loc 1 1067 0
 696 0006 1343     		orrs	r3, r2
 697              	.LVL65:
 698 0008 0268     		ldr	r2, [r0]
 699              	.LVL66:
1068:Drivers/STM32F0xx_HAL_Driver/Src/stm32f0xx_hal_dac_ex.c ****   }
1069:Drivers/STM32F0xx_HAL_Driver/Src/stm32f0xx_hal_dac_ex.c ****   
1070:Drivers/STM32F0xx_HAL_Driver/Src/stm32f0xx_hal_dac_ex.c ****   tmp = (uint32_t)hdac->Instance;
1071:Drivers/STM32F0xx_HAL_Driver/Src/stm32f0xx_hal_dac_ex.c ****   tmp += DAC_DHR12RD_ALIGNMENT(Alignment);
1072:Drivers/STM32F0xx_HAL_Driver/Src/stm32f0xx_hal_dac_ex.c **** 
1073:Drivers/STM32F0xx_HAL_Driver/Src/stm32f0xx_hal_dac_ex.c ****   /* Set the dual DAC selected data holding register */
1074:Drivers/STM32F0xx_HAL_Driver/Src/stm32f0xx_hal_dac_ex.c ****   *(__IO uint32_t *)tmp = data;
1075:Drivers/STM32F0xx_HAL_Driver/Src/stm32f0xx_hal_dac_ex.c ****   
1076:Drivers/STM32F0xx_HAL_Driver/Src/stm32f0xx_hal_dac_ex.c ****   /* Return function status */
1077:Drivers/STM32F0xx_HAL_Driver/Src/stm32f0xx_hal_dac_ex.c ****   return HAL_OK;
1078:Drivers/STM32F0xx_HAL_Driver/Src/stm32f0xx_hal_dac_ex.c **** }
 700              		.loc 1 1078 0
 701              		@ sp needed
 702 000a 2032     		adds	r2, r2, #32
 703              	.LVL67:
1071:Drivers/STM32F0xx_HAL_Driver/Src/stm32f0xx_hal_dac_ex.c **** 
 704              		.loc 1 1071 0
 705 000c 8918     		adds	r1, r1, r2
 706              	.LVL68:
 707              		.loc 1 1078 0
 708 000e 0020     		movs	r0, #0
 709              	.LVL69:
1074:Drivers/STM32F0xx_HAL_Driver/Src/stm32f0xx_hal_dac_ex.c ****   
 710              		.loc 1 1074 0
ARM GAS  /tmp/ccE0rAsr.s 			page 34


 711 0010 0B60     		str	r3, [r1]
 712              		.loc 1 1078 0
 713 0012 7047     		bx	lr
 714              	.LVL70:
 715              	.L50:
1067:Drivers/STM32F0xx_HAL_Driver/Src/stm32f0xx_hal_dac_ex.c ****   }
 716              		.loc 1 1067 0
 717 0014 1B04     		lsls	r3, r3, #16
 718              	.LVL71:
 719 0016 F6E7     		b	.L52
 720              		.cfi_endproc
 721              	.LFE49:
 723              		.section	.text.HAL_DACEx_ConvCpltCallbackCh2,"ax",%progbits
 724              		.align	1
 725              		.weak	HAL_DACEx_ConvCpltCallbackCh2
 726              		.syntax unified
 727              		.code	16
 728              		.thumb_func
 729              		.fpu softvfp
 731              	HAL_DACEx_ConvCpltCallbackCh2:
 732              	.LFB59:
 733              		.cfi_startproc
 734              		@ sp needed
 735 0000 7047     		bx	lr
 736              		.cfi_endproc
 737              	.LFE59:
 739              		.section	.text.DAC_DMAConvCpltCh2,"ax",%progbits
 740              		.align	1
 741              		.global	DAC_DMAConvCpltCh2
 742              		.syntax unified
 743              		.code	16
 744              		.thumb_func
 745              		.fpu softvfp
 747              	DAC_DMAConvCpltCh2:
 748              	.LFB43:
 776:Drivers/STM32F0xx_HAL_Driver/Src/stm32f0xx_hal_dac_ex.c ****   DAC_HandleTypeDef* hdac = ( DAC_HandleTypeDef* )((DMA_HandleTypeDef* )hdma)->Parent;
 749              		.loc 1 776 0
 750              		.cfi_startproc
 751              	.LVL72:
 776:Drivers/STM32F0xx_HAL_Driver/Src/stm32f0xx_hal_dac_ex.c ****   DAC_HandleTypeDef* hdac = ( DAC_HandleTypeDef* )((DMA_HandleTypeDef* )hdma)->Parent;
 752              		.loc 1 776 0
 753 0000 10B5     		push	{r4, lr}
 754              	.LCFI8:
 755              		.cfi_def_cfa_offset 8
 756              		.cfi_offset 4, -8
 757              		.cfi_offset 14, -4
 777:Drivers/STM32F0xx_HAL_Driver/Src/stm32f0xx_hal_dac_ex.c ****   
 758              		.loc 1 777 0
 759 0002 446A     		ldr	r4, [r0, #36]
 760              	.LVL73:
 782:Drivers/STM32F0xx_HAL_Driver/Src/stm32f0xx_hal_dac_ex.c **** 
 761              		.loc 1 782 0
 762              		@ sp needed
 779:Drivers/STM32F0xx_HAL_Driver/Src/stm32f0xx_hal_dac_ex.c ****   
 763              		.loc 1 779 0
 764 0004 2000     		movs	r0, r4
 765              	.LVL74:
ARM GAS  /tmp/ccE0rAsr.s 			page 35


 766 0006 FFF7FEFF 		bl	HAL_DACEx_ConvCpltCallbackCh2
 767              	.LVL75:
 781:Drivers/STM32F0xx_HAL_Driver/Src/stm32f0xx_hal_dac_ex.c **** }
 768              		.loc 1 781 0
 769 000a 0123     		movs	r3, #1
 770 000c 2371     		strb	r3, [r4, #4]
 771              	.LVL76:
 782:Drivers/STM32F0xx_HAL_Driver/Src/stm32f0xx_hal_dac_ex.c **** 
 772              		.loc 1 782 0
 773 000e 10BD     		pop	{r4, pc}
 774              		.cfi_endproc
 775              	.LFE43:
 777              		.section	.text.HAL_DACEx_ConvHalfCpltCallbackCh2,"ax",%progbits
 778              		.align	1
 779              		.weak	HAL_DACEx_ConvHalfCpltCallbackCh2
 780              		.syntax unified
 781              		.code	16
 782              		.thumb_func
 783              		.fpu softvfp
 785              	HAL_DACEx_ConvHalfCpltCallbackCh2:
 786              	.LFB57:
 787              		.cfi_startproc
 788              		@ sp needed
 789 0000 7047     		bx	lr
 790              		.cfi_endproc
 791              	.LFE57:
 793              		.section	.text.DAC_DMAHalfConvCpltCh2,"ax",%progbits
 794              		.align	1
 795              		.global	DAC_DMAHalfConvCpltCh2
 796              		.syntax unified
 797              		.code	16
 798              		.thumb_func
 799              		.fpu softvfp
 801              	DAC_DMAHalfConvCpltCh2:
 802              	.LFB44:
 791:Drivers/STM32F0xx_HAL_Driver/Src/stm32f0xx_hal_dac_ex.c ****     DAC_HandleTypeDef* hdac = ( DAC_HandleTypeDef* )((DMA_HandleTypeDef* )hdma)->Parent;
 803              		.loc 1 791 0
 804              		.cfi_startproc
 805              	.LVL77:
 791:Drivers/STM32F0xx_HAL_Driver/Src/stm32f0xx_hal_dac_ex.c ****     DAC_HandleTypeDef* hdac = ( DAC_HandleTypeDef* )((DMA_HandleTypeDef* )hdma)->Parent;
 806              		.loc 1 791 0
 807 0000 10B5     		push	{r4, lr}
 808              	.LCFI9:
 809              		.cfi_def_cfa_offset 8
 810              		.cfi_offset 4, -8
 811              		.cfi_offset 14, -4
 794:Drivers/STM32F0xx_HAL_Driver/Src/stm32f0xx_hal_dac_ex.c **** }
 812              		.loc 1 794 0
 813 0002 406A     		ldr	r0, [r0, #36]
 814              	.LVL78:
 815 0004 FFF7FEFF 		bl	HAL_DACEx_ConvHalfCpltCallbackCh2
 816              	.LVL79:
 795:Drivers/STM32F0xx_HAL_Driver/Src/stm32f0xx_hal_dac_ex.c **** 
 817              		.loc 1 795 0
 818              		@ sp needed
 819 0008 10BD     		pop	{r4, pc}
 820              		.cfi_endproc
ARM GAS  /tmp/ccE0rAsr.s 			page 36


 821              	.LFE44:
 823              		.section	.text.HAL_DACEx_ErrorCallbackCh2,"ax",%progbits
 824              		.align	1
 825              		.weak	HAL_DACEx_ErrorCallbackCh2
 826              		.syntax unified
 827              		.code	16
 828              		.thumb_func
 829              		.fpu softvfp
 831              	HAL_DACEx_ErrorCallbackCh2:
 832              	.LFB55:
 833              		.cfi_startproc
 834              		@ sp needed
 835 0000 7047     		bx	lr
 836              		.cfi_endproc
 837              	.LFE55:
 839              		.section	.text.DAC_DMAErrorCh2,"ax",%progbits
 840              		.align	1
 841              		.global	DAC_DMAErrorCh2
 842              		.syntax unified
 843              		.code	16
 844              		.thumb_func
 845              		.fpu softvfp
 847              	DAC_DMAErrorCh2:
 848              	.LFB45:
 804:Drivers/STM32F0xx_HAL_Driver/Src/stm32f0xx_hal_dac_ex.c ****   DAC_HandleTypeDef* hdac = ( DAC_HandleTypeDef* )((DMA_HandleTypeDef* )hdma)->Parent;
 849              		.loc 1 804 0
 850              		.cfi_startproc
 851              	.LVL80:
 808:Drivers/STM32F0xx_HAL_Driver/Src/stm32f0xx_hal_dac_ex.c ****     
 852              		.loc 1 808 0
 853 0000 0423     		movs	r3, #4
 804:Drivers/STM32F0xx_HAL_Driver/Src/stm32f0xx_hal_dac_ex.c ****   DAC_HandleTypeDef* hdac = ( DAC_HandleTypeDef* )((DMA_HandleTypeDef* )hdma)->Parent;
 854              		.loc 1 804 0
 855 0002 10B5     		push	{r4, lr}
 856              	.LCFI10:
 857              		.cfi_def_cfa_offset 8
 858              		.cfi_offset 4, -8
 859              		.cfi_offset 14, -4
 805:Drivers/STM32F0xx_HAL_Driver/Src/stm32f0xx_hal_dac_ex.c ****     
 860              		.loc 1 805 0
 861 0004 446A     		ldr	r4, [r0, #36]
 862              	.LVL81:
 813:Drivers/STM32F0xx_HAL_Driver/Src/stm32f0xx_hal_dac_ex.c **** 
 863              		.loc 1 813 0
 864              		@ sp needed
 808:Drivers/STM32F0xx_HAL_Driver/Src/stm32f0xx_hal_dac_ex.c ****     
 865              		.loc 1 808 0
 866 0006 2269     		ldr	r2, [r4, #16]
 810:Drivers/STM32F0xx_HAL_Driver/Src/stm32f0xx_hal_dac_ex.c ****     
 867              		.loc 1 810 0
 868 0008 2000     		movs	r0, r4
 869              	.LVL82:
 808:Drivers/STM32F0xx_HAL_Driver/Src/stm32f0xx_hal_dac_ex.c ****     
 870              		.loc 1 808 0
 871 000a 1343     		orrs	r3, r2
 872 000c 2361     		str	r3, [r4, #16]
 810:Drivers/STM32F0xx_HAL_Driver/Src/stm32f0xx_hal_dac_ex.c ****     
ARM GAS  /tmp/ccE0rAsr.s 			page 37


 873              		.loc 1 810 0
 874 000e FFF7FEFF 		bl	HAL_DACEx_ErrorCallbackCh2
 875              	.LVL83:
 812:Drivers/STM32F0xx_HAL_Driver/Src/stm32f0xx_hal_dac_ex.c **** }
 876              		.loc 1 812 0
 877 0012 0123     		movs	r3, #1
 878 0014 2371     		strb	r3, [r4, #4]
 879              	.LVL84:
 813:Drivers/STM32F0xx_HAL_Driver/Src/stm32f0xx_hal_dac_ex.c **** 
 880              		.loc 1 813 0
 881 0016 10BD     		pop	{r4, pc}
 882              		.cfi_endproc
 883              	.LFE45:
 885              		.section	.text.HAL_DACEx_DMAUnderrunCallbackCh2,"ax",%progbits
 886              		.align	1
 887              		.weak	HAL_DACEx_DMAUnderrunCallbackCh2
 888              		.syntax unified
 889              		.code	16
 890              		.thumb_func
 891              		.fpu softvfp
 893              	HAL_DACEx_DMAUnderrunCallbackCh2:
 894              	.LFB53:
1079:Drivers/STM32F0xx_HAL_Driver/Src/stm32f0xx_hal_dac_ex.c **** 
1080:Drivers/STM32F0xx_HAL_Driver/Src/stm32f0xx_hal_dac_ex.c **** /**
1081:Drivers/STM32F0xx_HAL_Driver/Src/stm32f0xx_hal_dac_ex.c ****   * @}
1082:Drivers/STM32F0xx_HAL_Driver/Src/stm32f0xx_hal_dac_ex.c ****   */
1083:Drivers/STM32F0xx_HAL_Driver/Src/stm32f0xx_hal_dac_ex.c **** 
1084:Drivers/STM32F0xx_HAL_Driver/Src/stm32f0xx_hal_dac_ex.c **** /**
1085:Drivers/STM32F0xx_HAL_Driver/Src/stm32f0xx_hal_dac_ex.c ****   * @}
1086:Drivers/STM32F0xx_HAL_Driver/Src/stm32f0xx_hal_dac_ex.c ****   */
1087:Drivers/STM32F0xx_HAL_Driver/Src/stm32f0xx_hal_dac_ex.c **** 
1088:Drivers/STM32F0xx_HAL_Driver/Src/stm32f0xx_hal_dac_ex.c **** #endif /* STM32F051x8  STM32F058xx */
1089:Drivers/STM32F0xx_HAL_Driver/Src/stm32f0xx_hal_dac_ex.c ****        /* STM32F071xB  STM32F072xB  STM32F078xx */
1090:Drivers/STM32F0xx_HAL_Driver/Src/stm32f0xx_hal_dac_ex.c ****        /* STM32F091xC  STM32F098xx */
1091:Drivers/STM32F0xx_HAL_Driver/Src/stm32f0xx_hal_dac_ex.c **** 
1092:Drivers/STM32F0xx_HAL_Driver/Src/stm32f0xx_hal_dac_ex.c **** #if defined(STM32F071xB) || defined(STM32F072xB) || defined(STM32F078xx) || \
1093:Drivers/STM32F0xx_HAL_Driver/Src/stm32f0xx_hal_dac_ex.c ****     defined(STM32F091xC) || defined(STM32F098xx)
1094:Drivers/STM32F0xx_HAL_Driver/Src/stm32f0xx_hal_dac_ex.c **** 
1095:Drivers/STM32F0xx_HAL_Driver/Src/stm32f0xx_hal_dac_ex.c **** /** @addtogroup DACEx_Exported_Functions
1096:Drivers/STM32F0xx_HAL_Driver/Src/stm32f0xx_hal_dac_ex.c ****   * @{
1097:Drivers/STM32F0xx_HAL_Driver/Src/stm32f0xx_hal_dac_ex.c ****   */
1098:Drivers/STM32F0xx_HAL_Driver/Src/stm32f0xx_hal_dac_ex.c **** 
1099:Drivers/STM32F0xx_HAL_Driver/Src/stm32f0xx_hal_dac_ex.c **** /** @addtogroup DACEx_Exported_Functions_Group1
1100:Drivers/STM32F0xx_HAL_Driver/Src/stm32f0xx_hal_dac_ex.c ****  *  @brief    Extended features functions
1101:Drivers/STM32F0xx_HAL_Driver/Src/stm32f0xx_hal_dac_ex.c ****    * @{
1102:Drivers/STM32F0xx_HAL_Driver/Src/stm32f0xx_hal_dac_ex.c ****   */
1103:Drivers/STM32F0xx_HAL_Driver/Src/stm32f0xx_hal_dac_ex.c **** 
1104:Drivers/STM32F0xx_HAL_Driver/Src/stm32f0xx_hal_dac_ex.c **** /**
1105:Drivers/STM32F0xx_HAL_Driver/Src/stm32f0xx_hal_dac_ex.c ****   * @brief  Conversion complete callback in non blocking mode for Channel2 
1106:Drivers/STM32F0xx_HAL_Driver/Src/stm32f0xx_hal_dac_ex.c ****   * @param  hdac: pointer to a DAC_HandleTypeDef structure that contains
1107:Drivers/STM32F0xx_HAL_Driver/Src/stm32f0xx_hal_dac_ex.c ****   *         the configuration information for the specified DAC.
1108:Drivers/STM32F0xx_HAL_Driver/Src/stm32f0xx_hal_dac_ex.c ****   * @retval None
1109:Drivers/STM32F0xx_HAL_Driver/Src/stm32f0xx_hal_dac_ex.c ****   */
1110:Drivers/STM32F0xx_HAL_Driver/Src/stm32f0xx_hal_dac_ex.c **** __weak void HAL_DACEx_ConvCpltCallbackCh2(DAC_HandleTypeDef* hdac)
1111:Drivers/STM32F0xx_HAL_Driver/Src/stm32f0xx_hal_dac_ex.c **** {
1112:Drivers/STM32F0xx_HAL_Driver/Src/stm32f0xx_hal_dac_ex.c ****   /* Prevent unused argument(s) compilation warning */
1113:Drivers/STM32F0xx_HAL_Driver/Src/stm32f0xx_hal_dac_ex.c ****   UNUSED(hdac);
ARM GAS  /tmp/ccE0rAsr.s 			page 38


1114:Drivers/STM32F0xx_HAL_Driver/Src/stm32f0xx_hal_dac_ex.c **** 
1115:Drivers/STM32F0xx_HAL_Driver/Src/stm32f0xx_hal_dac_ex.c ****   /* NOTE : This function Should not be modified, when the callback is needed,
1116:Drivers/STM32F0xx_HAL_Driver/Src/stm32f0xx_hal_dac_ex.c ****             the HAL_DAC_ConvCpltCallback could be implemented in the user file
1117:Drivers/STM32F0xx_HAL_Driver/Src/stm32f0xx_hal_dac_ex.c ****    */
1118:Drivers/STM32F0xx_HAL_Driver/Src/stm32f0xx_hal_dac_ex.c **** }
1119:Drivers/STM32F0xx_HAL_Driver/Src/stm32f0xx_hal_dac_ex.c **** 
1120:Drivers/STM32F0xx_HAL_Driver/Src/stm32f0xx_hal_dac_ex.c **** /**
1121:Drivers/STM32F0xx_HAL_Driver/Src/stm32f0xx_hal_dac_ex.c ****   * @brief  Conversion half DMA transfer callback in non blocking mode for Channel2 
1122:Drivers/STM32F0xx_HAL_Driver/Src/stm32f0xx_hal_dac_ex.c ****   * @param  hdac: pointer to a DAC_HandleTypeDef structure that contains
1123:Drivers/STM32F0xx_HAL_Driver/Src/stm32f0xx_hal_dac_ex.c ****   *         the configuration information for the specified DAC.
1124:Drivers/STM32F0xx_HAL_Driver/Src/stm32f0xx_hal_dac_ex.c ****   * @retval None
1125:Drivers/STM32F0xx_HAL_Driver/Src/stm32f0xx_hal_dac_ex.c ****   */
1126:Drivers/STM32F0xx_HAL_Driver/Src/stm32f0xx_hal_dac_ex.c **** __weak void HAL_DACEx_ConvHalfCpltCallbackCh2(DAC_HandleTypeDef* hdac)
1127:Drivers/STM32F0xx_HAL_Driver/Src/stm32f0xx_hal_dac_ex.c **** {
1128:Drivers/STM32F0xx_HAL_Driver/Src/stm32f0xx_hal_dac_ex.c ****   /* Prevent unused argument(s) compilation warning */
1129:Drivers/STM32F0xx_HAL_Driver/Src/stm32f0xx_hal_dac_ex.c ****   UNUSED(hdac);
1130:Drivers/STM32F0xx_HAL_Driver/Src/stm32f0xx_hal_dac_ex.c **** 
1131:Drivers/STM32F0xx_HAL_Driver/Src/stm32f0xx_hal_dac_ex.c ****   /* NOTE : This function Should not be modified, when the callback is needed,
1132:Drivers/STM32F0xx_HAL_Driver/Src/stm32f0xx_hal_dac_ex.c ****             the HAL_DAC_ConvHalfCpltCallbackCh2 could be implemented in the user file
1133:Drivers/STM32F0xx_HAL_Driver/Src/stm32f0xx_hal_dac_ex.c ****    */
1134:Drivers/STM32F0xx_HAL_Driver/Src/stm32f0xx_hal_dac_ex.c **** }
1135:Drivers/STM32F0xx_HAL_Driver/Src/stm32f0xx_hal_dac_ex.c **** 
1136:Drivers/STM32F0xx_HAL_Driver/Src/stm32f0xx_hal_dac_ex.c **** /**
1137:Drivers/STM32F0xx_HAL_Driver/Src/stm32f0xx_hal_dac_ex.c ****   * @brief  Error DAC callback for Channel2.
1138:Drivers/STM32F0xx_HAL_Driver/Src/stm32f0xx_hal_dac_ex.c ****   * @param  hdac: pointer to a DAC_HandleTypeDef structure that contains
1139:Drivers/STM32F0xx_HAL_Driver/Src/stm32f0xx_hal_dac_ex.c ****   *         the configuration information for the specified DAC.
1140:Drivers/STM32F0xx_HAL_Driver/Src/stm32f0xx_hal_dac_ex.c ****   * @retval None
1141:Drivers/STM32F0xx_HAL_Driver/Src/stm32f0xx_hal_dac_ex.c ****   */
1142:Drivers/STM32F0xx_HAL_Driver/Src/stm32f0xx_hal_dac_ex.c **** __weak void HAL_DACEx_ErrorCallbackCh2(DAC_HandleTypeDef *hdac)
1143:Drivers/STM32F0xx_HAL_Driver/Src/stm32f0xx_hal_dac_ex.c **** {
1144:Drivers/STM32F0xx_HAL_Driver/Src/stm32f0xx_hal_dac_ex.c ****   /* Prevent unused argument(s) compilation warning */
1145:Drivers/STM32F0xx_HAL_Driver/Src/stm32f0xx_hal_dac_ex.c ****   UNUSED(hdac);
1146:Drivers/STM32F0xx_HAL_Driver/Src/stm32f0xx_hal_dac_ex.c **** 
1147:Drivers/STM32F0xx_HAL_Driver/Src/stm32f0xx_hal_dac_ex.c ****   /* NOTE : This function Should not be modified, when the callback is needed,
1148:Drivers/STM32F0xx_HAL_Driver/Src/stm32f0xx_hal_dac_ex.c ****             the HAL_DAC_ErrorCallback could be implemented in the user file
1149:Drivers/STM32F0xx_HAL_Driver/Src/stm32f0xx_hal_dac_ex.c ****    */
1150:Drivers/STM32F0xx_HAL_Driver/Src/stm32f0xx_hal_dac_ex.c **** }
1151:Drivers/STM32F0xx_HAL_Driver/Src/stm32f0xx_hal_dac_ex.c **** 
1152:Drivers/STM32F0xx_HAL_Driver/Src/stm32f0xx_hal_dac_ex.c **** /**
1153:Drivers/STM32F0xx_HAL_Driver/Src/stm32f0xx_hal_dac_ex.c ****   * @brief  DMA underrun DAC callback for channel2.
1154:Drivers/STM32F0xx_HAL_Driver/Src/stm32f0xx_hal_dac_ex.c ****   * @param  hdac: pointer to a DAC_HandleTypeDef structure that contains
1155:Drivers/STM32F0xx_HAL_Driver/Src/stm32f0xx_hal_dac_ex.c ****   *         the configuration information for the specified DAC.
1156:Drivers/STM32F0xx_HAL_Driver/Src/stm32f0xx_hal_dac_ex.c ****   * @retval None
1157:Drivers/STM32F0xx_HAL_Driver/Src/stm32f0xx_hal_dac_ex.c ****   */
1158:Drivers/STM32F0xx_HAL_Driver/Src/stm32f0xx_hal_dac_ex.c **** __weak void HAL_DACEx_DMAUnderrunCallbackCh2(DAC_HandleTypeDef *hdac)
1159:Drivers/STM32F0xx_HAL_Driver/Src/stm32f0xx_hal_dac_ex.c **** {
 895              		.loc 1 1159 0
 896              		.cfi_startproc
 897              	.LVL85:
1160:Drivers/STM32F0xx_HAL_Driver/Src/stm32f0xx_hal_dac_ex.c ****   /* Prevent unused argument(s) compilation warning */
1161:Drivers/STM32F0xx_HAL_Driver/Src/stm32f0xx_hal_dac_ex.c ****   UNUSED(hdac);
1162:Drivers/STM32F0xx_HAL_Driver/Src/stm32f0xx_hal_dac_ex.c **** 
1163:Drivers/STM32F0xx_HAL_Driver/Src/stm32f0xx_hal_dac_ex.c ****   /* NOTE : This function Should not be modified, when the callback is needed,
1164:Drivers/STM32F0xx_HAL_Driver/Src/stm32f0xx_hal_dac_ex.c ****             the HAL_DAC_DMAUnderrunCallbackCh2 could be implemented in the user file
1165:Drivers/STM32F0xx_HAL_Driver/Src/stm32f0xx_hal_dac_ex.c ****    */
1166:Drivers/STM32F0xx_HAL_Driver/Src/stm32f0xx_hal_dac_ex.c **** }
 898              		.loc 1 1166 0
ARM GAS  /tmp/ccE0rAsr.s 			page 39


 899              		@ sp needed
 900 0000 7047     		bx	lr
 901              		.cfi_endproc
 902              	.LFE53:
 904              		.section	.text.HAL_DAC_IRQHandler,"ax",%progbits
 905              		.align	1
 906              		.global	HAL_DAC_IRQHandler
 907              		.syntax unified
 908              		.code	16
 909              		.thumb_func
 910              		.fpu softvfp
 912              	HAL_DAC_IRQHandler:
 913              	.LFB39:
 610:Drivers/STM32F0xx_HAL_Driver/Src/stm32f0xx_hal_dac_ex.c ****   if(__HAL_DAC_GET_IT_SOURCE(hdac, DAC_IT_DMAUDR1))
 914              		.loc 1 610 0
 915              		.cfi_startproc
 916              	.LVL86:
 611:Drivers/STM32F0xx_HAL_Driver/Src/stm32f0xx_hal_dac_ex.c ****   { 
 917              		.loc 1 611 0
 918 0000 8022     		movs	r2, #128
 919 0002 0368     		ldr	r3, [r0]
 920 0004 9201     		lsls	r2, r2, #6
 921 0006 1968     		ldr	r1, [r3]
 610:Drivers/STM32F0xx_HAL_Driver/Src/stm32f0xx_hal_dac_ex.c ****   if(__HAL_DAC_GET_IT_SOURCE(hdac, DAC_IT_DMAUDR1))
 922              		.loc 1 610 0
 923 0008 10B5     		push	{r4, lr}
 924              	.LCFI11:
 925              		.cfi_def_cfa_offset 8
 926              		.cfi_offset 4, -8
 927              		.cfi_offset 14, -4
 610:Drivers/STM32F0xx_HAL_Driver/Src/stm32f0xx_hal_dac_ex.c ****   if(__HAL_DAC_GET_IT_SOURCE(hdac, DAC_IT_DMAUDR1))
 928              		.loc 1 610 0
 929 000a 0400     		movs	r4, r0
 611:Drivers/STM32F0xx_HAL_Driver/Src/stm32f0xx_hal_dac_ex.c ****   { 
 930              		.loc 1 611 0
 931 000c 1142     		tst	r1, r2
 932 000e 10D0     		beq	.L61
 614:Drivers/STM32F0xx_HAL_Driver/Src/stm32f0xx_hal_dac_ex.c ****     {
 933              		.loc 1 614 0
 934 0010 596B     		ldr	r1, [r3, #52]
 935 0012 1142     		tst	r1, r2
 936 0014 0DD0     		beq	.L61
 617:Drivers/STM32F0xx_HAL_Driver/Src/stm32f0xx_hal_dac_ex.c ****     
 937              		.loc 1 617 0
 938 0016 0421     		movs	r1, #4
 939 0018 0171     		strb	r1, [r0, #4]
 620:Drivers/STM32F0xx_HAL_Driver/Src/stm32f0xx_hal_dac_ex.c ****     
 940              		.loc 1 620 0
 941 001a 0069     		ldr	r0, [r0, #16]
 942              	.LVL87:
 943 001c 0339     		subs	r1, r1, #3
 944 001e 0143     		orrs	r1, r0
 945 0020 2161     		str	r1, [r4, #16]
 623:Drivers/STM32F0xx_HAL_Driver/Src/stm32f0xx_hal_dac_ex.c ****     
 946              		.loc 1 623 0
 947 0022 5A63     		str	r2, [r3, #52]
 626:Drivers/STM32F0xx_HAL_Driver/Src/stm32f0xx_hal_dac_ex.c ****     
ARM GAS  /tmp/ccE0rAsr.s 			page 40


 948              		.loc 1 626 0
 949 0024 1A68     		ldr	r2, [r3]
 950 0026 0F49     		ldr	r1, .L75
 629:Drivers/STM32F0xx_HAL_Driver/Src/stm32f0xx_hal_dac_ex.c ****     }
 951              		.loc 1 629 0
 952 0028 2000     		movs	r0, r4
 626:Drivers/STM32F0xx_HAL_Driver/Src/stm32f0xx_hal_dac_ex.c ****     
 953              		.loc 1 626 0
 954 002a 0A40     		ands	r2, r1
 955 002c 1A60     		str	r2, [r3]
 629:Drivers/STM32F0xx_HAL_Driver/Src/stm32f0xx_hal_dac_ex.c ****     }
 956              		.loc 1 629 0
 957 002e FFF7FEFF 		bl	HAL_DAC_DMAUnderrunCallbackCh1
 958              	.LVL88:
 959              	.L61:
 632:Drivers/STM32F0xx_HAL_Driver/Src/stm32f0xx_hal_dac_ex.c ****   {
 960              		.loc 1 632 0
 961 0032 8022     		movs	r2, #128
 962 0034 2368     		ldr	r3, [r4]
 963 0036 9205     		lsls	r2, r2, #22
 964 0038 1968     		ldr	r1, [r3]
 965 003a 1142     		tst	r1, r2
 966 003c 10D0     		beq	.L60
 635:Drivers/STM32F0xx_HAL_Driver/Src/stm32f0xx_hal_dac_ex.c ****     { 
 967              		.loc 1 635 0
 968 003e 596B     		ldr	r1, [r3, #52]
 969 0040 1142     		tst	r1, r2
 970 0042 0DD0     		beq	.L60
 638:Drivers/STM32F0xx_HAL_Driver/Src/stm32f0xx_hal_dac_ex.c ****     
 971              		.loc 1 638 0
 972 0044 0421     		movs	r1, #4
 973 0046 2171     		strb	r1, [r4, #4]
 641:Drivers/STM32F0xx_HAL_Driver/Src/stm32f0xx_hal_dac_ex.c ****     
 974              		.loc 1 641 0
 975 0048 2069     		ldr	r0, [r4, #16]
 976 004a 0239     		subs	r1, r1, #2
 977 004c 0143     		orrs	r1, r0
 978 004e 2161     		str	r1, [r4, #16]
 644:Drivers/STM32F0xx_HAL_Driver/Src/stm32f0xx_hal_dac_ex.c ****     
 979              		.loc 1 644 0
 980 0050 5A63     		str	r2, [r3, #52]
 647:Drivers/STM32F0xx_HAL_Driver/Src/stm32f0xx_hal_dac_ex.c ****     
 981              		.loc 1 647 0
 982 0052 1A68     		ldr	r2, [r3]
 983 0054 0449     		ldr	r1, .L75+4
 650:Drivers/STM32F0xx_HAL_Driver/Src/stm32f0xx_hal_dac_ex.c ****     }
 984              		.loc 1 650 0
 985 0056 2000     		movs	r0, r4
 647:Drivers/STM32F0xx_HAL_Driver/Src/stm32f0xx_hal_dac_ex.c ****     
 986              		.loc 1 647 0
 987 0058 0A40     		ands	r2, r1
 988 005a 1A60     		str	r2, [r3]
 650:Drivers/STM32F0xx_HAL_Driver/Src/stm32f0xx_hal_dac_ex.c ****     }
 989              		.loc 1 650 0
 990 005c FFF7FEFF 		bl	HAL_DACEx_DMAUnderrunCallbackCh2
 991              	.LVL89:
 992              	.L60:
ARM GAS  /tmp/ccE0rAsr.s 			page 41


 653:Drivers/STM32F0xx_HAL_Driver/Src/stm32f0xx_hal_dac_ex.c **** 
 993              		.loc 1 653 0
 994              		@ sp needed
 995              	.LVL90:
 996 0060 10BD     		pop	{r4, pc}
 997              	.L76:
 998 0062 C046     		.align	2
 999              	.L75:
 1000 0064 FFEFFFFF 		.word	-4097
 1001 0068 FFFFFFEF 		.word	-268435457
 1002              		.cfi_endproc
 1003              	.LFE39:
 1005              		.text
 1006              	.Letext0:
 1007              		.file 2 "/usr/arm-none-eabi/include/machine/_default_types.h"
 1008              		.file 3 "/usr/arm-none-eabi/include/sys/_stdint.h"
 1009              		.file 4 "Drivers/CMSIS/Device/ST/STM32F0xx/Include/system_stm32f0xx.h"
 1010              		.file 5 "Drivers/CMSIS/Device/ST/STM32F0xx/Include/stm32f072xb.h"
 1011              		.file 6 "/usr/arm-none-eabi/include/sys/lock.h"
 1012              		.file 7 "/usr/arm-none-eabi/include/sys/_types.h"
 1013              		.file 8 "/usr/lib/gcc/arm-none-eabi/6.2.0/include/stddef.h"
 1014              		.file 9 "/usr/arm-none-eabi/include/sys/reent.h"
 1015              		.file 10 "Drivers/STM32F0xx_HAL_Driver/Inc/stm32f0xx_hal_def.h"
 1016              		.file 11 "Drivers/STM32F0xx_HAL_Driver/Inc/stm32f0xx_hal_dma.h"
 1017              		.file 12 "Drivers/STM32F0xx_HAL_Driver/Inc/stm32f0xx_hal_dac.h"
ARM GAS  /tmp/ccE0rAsr.s 			page 42

