ARM GAS  /tmp/ccCWZn8b.s 			page 1


   1              		.cpu cortex-m0
   2              		.eabi_attribute 20, 1
   3              		.eabi_attribute 21, 1
   4              		.eabi_attribute 23, 3
   5              		.eabi_attribute 24, 1
   6              		.eabi_attribute 25, 1
   7              		.eabi_attribute 26, 1
   8              		.eabi_attribute 30, 4
   9              		.eabi_attribute 34, 0
  10              		.eabi_attribute 18, 4
  11              		.file	"system_stm32f0xx.c"
  12              		.text
  13              	.Ltext0:
  14              		.cfi_sections	.debug_frame
  15              		.section	.text.SystemInit,"ax",%progbits
  16              		.align	1
  17              		.global	SystemInit
  18              		.syntax unified
  19              		.code	16
  20              		.thumb_func
  21              		.fpu softvfp
  23              	SystemInit:
  24              	.LFB35:
  25              		.file 1 "Drivers/CMSIS/Device/ST/STM32F0xx/Source/Templates/system_stm32f0xx.c"
   1:Drivers/CMSIS/Device/ST/STM32F0xx/Source/Templates/system_stm32f0xx.c **** /**
   2:Drivers/CMSIS/Device/ST/STM32F0xx/Source/Templates/system_stm32f0xx.c ****   ******************************************************************************
   3:Drivers/CMSIS/Device/ST/STM32F0xx/Source/Templates/system_stm32f0xx.c ****   * @file    system_stm32f0xx.c
   4:Drivers/CMSIS/Device/ST/STM32F0xx/Source/Templates/system_stm32f0xx.c ****   * @author  MCD Application Team
   5:Drivers/CMSIS/Device/ST/STM32F0xx/Source/Templates/system_stm32f0xx.c ****   * @version V2.3.0
   6:Drivers/CMSIS/Device/ST/STM32F0xx/Source/Templates/system_stm32f0xx.c ****   * @date    27-May-2016
   7:Drivers/CMSIS/Device/ST/STM32F0xx/Source/Templates/system_stm32f0xx.c ****   * @brief   CMSIS Cortex-M0 Device Peripheral Access Layer System Source File.
   8:Drivers/CMSIS/Device/ST/STM32F0xx/Source/Templates/system_stm32f0xx.c ****   *
   9:Drivers/CMSIS/Device/ST/STM32F0xx/Source/Templates/system_stm32f0xx.c ****   * 1. This file provides two functions and one global variable to be called from
  10:Drivers/CMSIS/Device/ST/STM32F0xx/Source/Templates/system_stm32f0xx.c ****   *    user application:
  11:Drivers/CMSIS/Device/ST/STM32F0xx/Source/Templates/system_stm32f0xx.c ****   *      - SystemInit(): This function is called at startup just after reset and 
  12:Drivers/CMSIS/Device/ST/STM32F0xx/Source/Templates/system_stm32f0xx.c ****   *                      before branch to main program. This call is made inside
  13:Drivers/CMSIS/Device/ST/STM32F0xx/Source/Templates/system_stm32f0xx.c ****   *                      the "startup_stm32f0xx.s" file.
  14:Drivers/CMSIS/Device/ST/STM32F0xx/Source/Templates/system_stm32f0xx.c ****   *
  15:Drivers/CMSIS/Device/ST/STM32F0xx/Source/Templates/system_stm32f0xx.c ****   *      - SystemCoreClock variable: Contains the core clock (HCLK), it can be used
  16:Drivers/CMSIS/Device/ST/STM32F0xx/Source/Templates/system_stm32f0xx.c ****   *                                  by the user application to setup the SysTick
  17:Drivers/CMSIS/Device/ST/STM32F0xx/Source/Templates/system_stm32f0xx.c ****   *                                  timer or configure other parameters.
  18:Drivers/CMSIS/Device/ST/STM32F0xx/Source/Templates/system_stm32f0xx.c ****   *
  19:Drivers/CMSIS/Device/ST/STM32F0xx/Source/Templates/system_stm32f0xx.c ****   *      - SystemCoreClockUpdate(): Updates the variable SystemCoreClock and must
  20:Drivers/CMSIS/Device/ST/STM32F0xx/Source/Templates/system_stm32f0xx.c ****   *                                 be called whenever the core clock is changed
  21:Drivers/CMSIS/Device/ST/STM32F0xx/Source/Templates/system_stm32f0xx.c ****   *                                 during program execution.
  22:Drivers/CMSIS/Device/ST/STM32F0xx/Source/Templates/system_stm32f0xx.c ****   *
  23:Drivers/CMSIS/Device/ST/STM32F0xx/Source/Templates/system_stm32f0xx.c ****   * 2. After each device reset the HSI (8 MHz) is used as system clock source.
  24:Drivers/CMSIS/Device/ST/STM32F0xx/Source/Templates/system_stm32f0xx.c ****   *    Then SystemInit() function is called, in "startup_stm32f0xx.s" file, to
  25:Drivers/CMSIS/Device/ST/STM32F0xx/Source/Templates/system_stm32f0xx.c ****   *    configure the system clock before to branch to main program.
  26:Drivers/CMSIS/Device/ST/STM32F0xx/Source/Templates/system_stm32f0xx.c ****   *
  27:Drivers/CMSIS/Device/ST/STM32F0xx/Source/Templates/system_stm32f0xx.c ****   * 3. This file configures the system clock as follows:
  28:Drivers/CMSIS/Device/ST/STM32F0xx/Source/Templates/system_stm32f0xx.c ****   *=============================================================================
  29:Drivers/CMSIS/Device/ST/STM32F0xx/Source/Templates/system_stm32f0xx.c ****   *                         Supported STM32F0xx device
  30:Drivers/CMSIS/Device/ST/STM32F0xx/Source/Templates/system_stm32f0xx.c ****   *-----------------------------------------------------------------------------
  31:Drivers/CMSIS/Device/ST/STM32F0xx/Source/Templates/system_stm32f0xx.c ****   *        System Clock source                    | HSI
  32:Drivers/CMSIS/Device/ST/STM32F0xx/Source/Templates/system_stm32f0xx.c ****   *-----------------------------------------------------------------------------
  33:Drivers/CMSIS/Device/ST/STM32F0xx/Source/Templates/system_stm32f0xx.c ****   *        SYSCLK(Hz)                             | 8000000
ARM GAS  /tmp/ccCWZn8b.s 			page 2


  34:Drivers/CMSIS/Device/ST/STM32F0xx/Source/Templates/system_stm32f0xx.c ****   *-----------------------------------------------------------------------------
  35:Drivers/CMSIS/Device/ST/STM32F0xx/Source/Templates/system_stm32f0xx.c ****   *        HCLK(Hz)                               | 8000000
  36:Drivers/CMSIS/Device/ST/STM32F0xx/Source/Templates/system_stm32f0xx.c ****   *-----------------------------------------------------------------------------
  37:Drivers/CMSIS/Device/ST/STM32F0xx/Source/Templates/system_stm32f0xx.c ****   *        AHB Prescaler                          | 1
  38:Drivers/CMSIS/Device/ST/STM32F0xx/Source/Templates/system_stm32f0xx.c ****   *-----------------------------------------------------------------------------
  39:Drivers/CMSIS/Device/ST/STM32F0xx/Source/Templates/system_stm32f0xx.c ****   *        APB1 Prescaler                         | 1
  40:Drivers/CMSIS/Device/ST/STM32F0xx/Source/Templates/system_stm32f0xx.c ****   *-----------------------------------------------------------------------------
  41:Drivers/CMSIS/Device/ST/STM32F0xx/Source/Templates/system_stm32f0xx.c ****   *=============================================================================
  42:Drivers/CMSIS/Device/ST/STM32F0xx/Source/Templates/system_stm32f0xx.c ****   ******************************************************************************
  43:Drivers/CMSIS/Device/ST/STM32F0xx/Source/Templates/system_stm32f0xx.c ****   * @attention
  44:Drivers/CMSIS/Device/ST/STM32F0xx/Source/Templates/system_stm32f0xx.c ****   *
  45:Drivers/CMSIS/Device/ST/STM32F0xx/Source/Templates/system_stm32f0xx.c ****   * <h2><center>&copy; COPYRIGHT(c) 2016 STMicroelectronics</center></h2>
  46:Drivers/CMSIS/Device/ST/STM32F0xx/Source/Templates/system_stm32f0xx.c ****   *
  47:Drivers/CMSIS/Device/ST/STM32F0xx/Source/Templates/system_stm32f0xx.c ****   * Redistribution and use in source and binary forms, with or without modification,
  48:Drivers/CMSIS/Device/ST/STM32F0xx/Source/Templates/system_stm32f0xx.c ****   * are permitted provided that the following conditions are met:
  49:Drivers/CMSIS/Device/ST/STM32F0xx/Source/Templates/system_stm32f0xx.c ****   *   1. Redistributions of source code must retain the above copyright notice,
  50:Drivers/CMSIS/Device/ST/STM32F0xx/Source/Templates/system_stm32f0xx.c ****   *      this list of conditions and the following disclaimer.
  51:Drivers/CMSIS/Device/ST/STM32F0xx/Source/Templates/system_stm32f0xx.c ****   *   2. Redistributions in binary form must reproduce the above copyright notice,
  52:Drivers/CMSIS/Device/ST/STM32F0xx/Source/Templates/system_stm32f0xx.c ****   *      this list of conditions and the following disclaimer in the documentation
  53:Drivers/CMSIS/Device/ST/STM32F0xx/Source/Templates/system_stm32f0xx.c ****   *      and/or other materials provided with the distribution.
  54:Drivers/CMSIS/Device/ST/STM32F0xx/Source/Templates/system_stm32f0xx.c ****   *   3. Neither the name of STMicroelectronics nor the names of its contributors
  55:Drivers/CMSIS/Device/ST/STM32F0xx/Source/Templates/system_stm32f0xx.c ****   *      may be used to endorse or promote products derived from this software
  56:Drivers/CMSIS/Device/ST/STM32F0xx/Source/Templates/system_stm32f0xx.c ****   *      without specific prior written permission.
  57:Drivers/CMSIS/Device/ST/STM32F0xx/Source/Templates/system_stm32f0xx.c ****   *
  58:Drivers/CMSIS/Device/ST/STM32F0xx/Source/Templates/system_stm32f0xx.c ****   * THIS SOFTWARE IS PROVIDED BY THE COPYRIGHT HOLDERS AND CONTRIBUTORS "AS IS"
  59:Drivers/CMSIS/Device/ST/STM32F0xx/Source/Templates/system_stm32f0xx.c ****   * AND ANY EXPRESS OR IMPLIED WARRANTIES, INCLUDING, BUT NOT LIMITED TO, THE
  60:Drivers/CMSIS/Device/ST/STM32F0xx/Source/Templates/system_stm32f0xx.c ****   * IMPLIED WARRANTIES OF MERCHANTABILITY AND FITNESS FOR A PARTICULAR PURPOSE ARE
  61:Drivers/CMSIS/Device/ST/STM32F0xx/Source/Templates/system_stm32f0xx.c ****   * DISCLAIMED. IN NO EVENT SHALL THE COPYRIGHT HOLDER OR CONTRIBUTORS BE LIABLE
  62:Drivers/CMSIS/Device/ST/STM32F0xx/Source/Templates/system_stm32f0xx.c ****   * FOR ANY DIRECT, INDIRECT, INCIDENTAL, SPECIAL, EXEMPLARY, OR CONSEQUENTIAL
  63:Drivers/CMSIS/Device/ST/STM32F0xx/Source/Templates/system_stm32f0xx.c ****   * DAMAGES (INCLUDING, BUT NOT LIMITED TO, PROCUREMENT OF SUBSTITUTE GOODS OR
  64:Drivers/CMSIS/Device/ST/STM32F0xx/Source/Templates/system_stm32f0xx.c ****   * SERVICES; LOSS OF USE, DATA, OR PROFITS; OR BUSINESS INTERRUPTION) HOWEVER
  65:Drivers/CMSIS/Device/ST/STM32F0xx/Source/Templates/system_stm32f0xx.c ****   * CAUSED AND ON ANY THEORY OF LIABILITY, WHETHER IN CONTRACT, STRICT LIABILITY,
  66:Drivers/CMSIS/Device/ST/STM32F0xx/Source/Templates/system_stm32f0xx.c ****   * OR TORT (INCLUDING NEGLIGENCE OR OTHERWISE) ARISING IN ANY WAY OUT OF THE USE
  67:Drivers/CMSIS/Device/ST/STM32F0xx/Source/Templates/system_stm32f0xx.c ****   * OF THIS SOFTWARE, EVEN IF ADVISED OF THE POSSIBILITY OF SUCH DAMAGE.
  68:Drivers/CMSIS/Device/ST/STM32F0xx/Source/Templates/system_stm32f0xx.c ****   *
  69:Drivers/CMSIS/Device/ST/STM32F0xx/Source/Templates/system_stm32f0xx.c ****   ******************************************************************************
  70:Drivers/CMSIS/Device/ST/STM32F0xx/Source/Templates/system_stm32f0xx.c ****   */
  71:Drivers/CMSIS/Device/ST/STM32F0xx/Source/Templates/system_stm32f0xx.c **** 
  72:Drivers/CMSIS/Device/ST/STM32F0xx/Source/Templates/system_stm32f0xx.c **** /** @addtogroup CMSIS
  73:Drivers/CMSIS/Device/ST/STM32F0xx/Source/Templates/system_stm32f0xx.c ****   * @{
  74:Drivers/CMSIS/Device/ST/STM32F0xx/Source/Templates/system_stm32f0xx.c ****   */
  75:Drivers/CMSIS/Device/ST/STM32F0xx/Source/Templates/system_stm32f0xx.c **** 
  76:Drivers/CMSIS/Device/ST/STM32F0xx/Source/Templates/system_stm32f0xx.c **** /** @addtogroup stm32f0xx_system
  77:Drivers/CMSIS/Device/ST/STM32F0xx/Source/Templates/system_stm32f0xx.c ****   * @{
  78:Drivers/CMSIS/Device/ST/STM32F0xx/Source/Templates/system_stm32f0xx.c ****   */
  79:Drivers/CMSIS/Device/ST/STM32F0xx/Source/Templates/system_stm32f0xx.c **** 
  80:Drivers/CMSIS/Device/ST/STM32F0xx/Source/Templates/system_stm32f0xx.c **** /** @addtogroup STM32F0xx_System_Private_Includes
  81:Drivers/CMSIS/Device/ST/STM32F0xx/Source/Templates/system_stm32f0xx.c ****   * @{
  82:Drivers/CMSIS/Device/ST/STM32F0xx/Source/Templates/system_stm32f0xx.c ****   */
  83:Drivers/CMSIS/Device/ST/STM32F0xx/Source/Templates/system_stm32f0xx.c **** 
  84:Drivers/CMSIS/Device/ST/STM32F0xx/Source/Templates/system_stm32f0xx.c **** #include "stm32f0xx.h"
  85:Drivers/CMSIS/Device/ST/STM32F0xx/Source/Templates/system_stm32f0xx.c **** 
  86:Drivers/CMSIS/Device/ST/STM32F0xx/Source/Templates/system_stm32f0xx.c **** /**
  87:Drivers/CMSIS/Device/ST/STM32F0xx/Source/Templates/system_stm32f0xx.c ****   * @}
  88:Drivers/CMSIS/Device/ST/STM32F0xx/Source/Templates/system_stm32f0xx.c ****   */
  89:Drivers/CMSIS/Device/ST/STM32F0xx/Source/Templates/system_stm32f0xx.c **** 
  90:Drivers/CMSIS/Device/ST/STM32F0xx/Source/Templates/system_stm32f0xx.c **** /** @addtogroup STM32F0xx_System_Private_TypesDefinitions
ARM GAS  /tmp/ccCWZn8b.s 			page 3


  91:Drivers/CMSIS/Device/ST/STM32F0xx/Source/Templates/system_stm32f0xx.c ****   * @{
  92:Drivers/CMSIS/Device/ST/STM32F0xx/Source/Templates/system_stm32f0xx.c ****   */
  93:Drivers/CMSIS/Device/ST/STM32F0xx/Source/Templates/system_stm32f0xx.c **** 
  94:Drivers/CMSIS/Device/ST/STM32F0xx/Source/Templates/system_stm32f0xx.c **** /**
  95:Drivers/CMSIS/Device/ST/STM32F0xx/Source/Templates/system_stm32f0xx.c ****   * @}
  96:Drivers/CMSIS/Device/ST/STM32F0xx/Source/Templates/system_stm32f0xx.c ****   */
  97:Drivers/CMSIS/Device/ST/STM32F0xx/Source/Templates/system_stm32f0xx.c **** 
  98:Drivers/CMSIS/Device/ST/STM32F0xx/Source/Templates/system_stm32f0xx.c **** /** @addtogroup STM32F0xx_System_Private_Defines
  99:Drivers/CMSIS/Device/ST/STM32F0xx/Source/Templates/system_stm32f0xx.c ****   * @{
 100:Drivers/CMSIS/Device/ST/STM32F0xx/Source/Templates/system_stm32f0xx.c ****   */
 101:Drivers/CMSIS/Device/ST/STM32F0xx/Source/Templates/system_stm32f0xx.c **** #if !defined  (HSE_VALUE) 
 102:Drivers/CMSIS/Device/ST/STM32F0xx/Source/Templates/system_stm32f0xx.c ****   #define HSE_VALUE    ((uint32_t)8000000) /*!< Default value of the External oscillator in Hz.
 103:Drivers/CMSIS/Device/ST/STM32F0xx/Source/Templates/system_stm32f0xx.c ****                                                 This value can be provided and adapted by the user 
 104:Drivers/CMSIS/Device/ST/STM32F0xx/Source/Templates/system_stm32f0xx.c **** #endif /* HSE_VALUE */
 105:Drivers/CMSIS/Device/ST/STM32F0xx/Source/Templates/system_stm32f0xx.c **** 
 106:Drivers/CMSIS/Device/ST/STM32F0xx/Source/Templates/system_stm32f0xx.c **** #if !defined  (HSI_VALUE)
 107:Drivers/CMSIS/Device/ST/STM32F0xx/Source/Templates/system_stm32f0xx.c ****   #define HSI_VALUE    ((uint32_t)8000000) /*!< Default value of the Internal oscillator in Hz.
 108:Drivers/CMSIS/Device/ST/STM32F0xx/Source/Templates/system_stm32f0xx.c ****                                                 This value can be provided and adapted by the user 
 109:Drivers/CMSIS/Device/ST/STM32F0xx/Source/Templates/system_stm32f0xx.c **** #endif /* HSI_VALUE */
 110:Drivers/CMSIS/Device/ST/STM32F0xx/Source/Templates/system_stm32f0xx.c **** 
 111:Drivers/CMSIS/Device/ST/STM32F0xx/Source/Templates/system_stm32f0xx.c **** #if !defined (HSI48_VALUE)
 112:Drivers/CMSIS/Device/ST/STM32F0xx/Source/Templates/system_stm32f0xx.c **** #define HSI48_VALUE    ((uint32_t)48000000) /*!< Default value of the HSI48 Internal oscillator in 
 113:Drivers/CMSIS/Device/ST/STM32F0xx/Source/Templates/system_stm32f0xx.c ****                                                  This value can be provided and adapted by the user
 114:Drivers/CMSIS/Device/ST/STM32F0xx/Source/Templates/system_stm32f0xx.c **** #endif /* HSI48_VALUE */
 115:Drivers/CMSIS/Device/ST/STM32F0xx/Source/Templates/system_stm32f0xx.c **** /**
 116:Drivers/CMSIS/Device/ST/STM32F0xx/Source/Templates/system_stm32f0xx.c ****   * @}
 117:Drivers/CMSIS/Device/ST/STM32F0xx/Source/Templates/system_stm32f0xx.c ****   */
 118:Drivers/CMSIS/Device/ST/STM32F0xx/Source/Templates/system_stm32f0xx.c **** 
 119:Drivers/CMSIS/Device/ST/STM32F0xx/Source/Templates/system_stm32f0xx.c **** /** @addtogroup STM32F0xx_System_Private_Macros
 120:Drivers/CMSIS/Device/ST/STM32F0xx/Source/Templates/system_stm32f0xx.c ****   * @{
 121:Drivers/CMSIS/Device/ST/STM32F0xx/Source/Templates/system_stm32f0xx.c ****   */
 122:Drivers/CMSIS/Device/ST/STM32F0xx/Source/Templates/system_stm32f0xx.c **** 
 123:Drivers/CMSIS/Device/ST/STM32F0xx/Source/Templates/system_stm32f0xx.c **** /**
 124:Drivers/CMSIS/Device/ST/STM32F0xx/Source/Templates/system_stm32f0xx.c ****   * @}
 125:Drivers/CMSIS/Device/ST/STM32F0xx/Source/Templates/system_stm32f0xx.c ****   */
 126:Drivers/CMSIS/Device/ST/STM32F0xx/Source/Templates/system_stm32f0xx.c **** 
 127:Drivers/CMSIS/Device/ST/STM32F0xx/Source/Templates/system_stm32f0xx.c **** /** @addtogroup STM32F0xx_System_Private_Variables
 128:Drivers/CMSIS/Device/ST/STM32F0xx/Source/Templates/system_stm32f0xx.c ****   * @{
 129:Drivers/CMSIS/Device/ST/STM32F0xx/Source/Templates/system_stm32f0xx.c ****   */
 130:Drivers/CMSIS/Device/ST/STM32F0xx/Source/Templates/system_stm32f0xx.c ****   /* This variable is updated in three ways:
 131:Drivers/CMSIS/Device/ST/STM32F0xx/Source/Templates/system_stm32f0xx.c ****       1) by calling CMSIS function SystemCoreClockUpdate()
 132:Drivers/CMSIS/Device/ST/STM32F0xx/Source/Templates/system_stm32f0xx.c ****       2) by calling HAL API function HAL_RCC_GetHCLKFreq()
 133:Drivers/CMSIS/Device/ST/STM32F0xx/Source/Templates/system_stm32f0xx.c ****       3) each time HAL_RCC_ClockConfig() is called to configure the system clock frequency
 134:Drivers/CMSIS/Device/ST/STM32F0xx/Source/Templates/system_stm32f0xx.c ****          Note: If you use this function to configure the system clock there is no need to
 135:Drivers/CMSIS/Device/ST/STM32F0xx/Source/Templates/system_stm32f0xx.c ****                call the 2 first functions listed above, since SystemCoreClock variable is 
 136:Drivers/CMSIS/Device/ST/STM32F0xx/Source/Templates/system_stm32f0xx.c ****                updated automatically.
 137:Drivers/CMSIS/Device/ST/STM32F0xx/Source/Templates/system_stm32f0xx.c ****   */
 138:Drivers/CMSIS/Device/ST/STM32F0xx/Source/Templates/system_stm32f0xx.c **** uint32_t SystemCoreClock = 8000000;
 139:Drivers/CMSIS/Device/ST/STM32F0xx/Source/Templates/system_stm32f0xx.c **** 
 140:Drivers/CMSIS/Device/ST/STM32F0xx/Source/Templates/system_stm32f0xx.c **** const uint8_t AHBPrescTable[16] = {0, 0, 0, 0, 0, 0, 0, 0, 1, 2, 3, 4, 6, 7, 8, 9};
 141:Drivers/CMSIS/Device/ST/STM32F0xx/Source/Templates/system_stm32f0xx.c **** const uint8_t APBPrescTable[8]  = {0, 0, 0, 0, 1, 2, 3, 4};
 142:Drivers/CMSIS/Device/ST/STM32F0xx/Source/Templates/system_stm32f0xx.c **** 
 143:Drivers/CMSIS/Device/ST/STM32F0xx/Source/Templates/system_stm32f0xx.c **** /**
 144:Drivers/CMSIS/Device/ST/STM32F0xx/Source/Templates/system_stm32f0xx.c ****   * @}
 145:Drivers/CMSIS/Device/ST/STM32F0xx/Source/Templates/system_stm32f0xx.c ****   */
 146:Drivers/CMSIS/Device/ST/STM32F0xx/Source/Templates/system_stm32f0xx.c **** 
 147:Drivers/CMSIS/Device/ST/STM32F0xx/Source/Templates/system_stm32f0xx.c **** /** @addtogroup STM32F0xx_System_Private_FunctionPrototypes
ARM GAS  /tmp/ccCWZn8b.s 			page 4


 148:Drivers/CMSIS/Device/ST/STM32F0xx/Source/Templates/system_stm32f0xx.c ****   * @{
 149:Drivers/CMSIS/Device/ST/STM32F0xx/Source/Templates/system_stm32f0xx.c ****   */
 150:Drivers/CMSIS/Device/ST/STM32F0xx/Source/Templates/system_stm32f0xx.c **** 
 151:Drivers/CMSIS/Device/ST/STM32F0xx/Source/Templates/system_stm32f0xx.c **** /**
 152:Drivers/CMSIS/Device/ST/STM32F0xx/Source/Templates/system_stm32f0xx.c ****   * @}
 153:Drivers/CMSIS/Device/ST/STM32F0xx/Source/Templates/system_stm32f0xx.c ****   */
 154:Drivers/CMSIS/Device/ST/STM32F0xx/Source/Templates/system_stm32f0xx.c **** 
 155:Drivers/CMSIS/Device/ST/STM32F0xx/Source/Templates/system_stm32f0xx.c **** /** @addtogroup STM32F0xx_System_Private_Functions
 156:Drivers/CMSIS/Device/ST/STM32F0xx/Source/Templates/system_stm32f0xx.c ****   * @{
 157:Drivers/CMSIS/Device/ST/STM32F0xx/Source/Templates/system_stm32f0xx.c ****   */
 158:Drivers/CMSIS/Device/ST/STM32F0xx/Source/Templates/system_stm32f0xx.c **** 
 159:Drivers/CMSIS/Device/ST/STM32F0xx/Source/Templates/system_stm32f0xx.c **** /**
 160:Drivers/CMSIS/Device/ST/STM32F0xx/Source/Templates/system_stm32f0xx.c ****   * @brief  Setup the microcontroller system.
 161:Drivers/CMSIS/Device/ST/STM32F0xx/Source/Templates/system_stm32f0xx.c ****   *         Initialize the default HSI clock source, vector table location and the PLL configuratio
 162:Drivers/CMSIS/Device/ST/STM32F0xx/Source/Templates/system_stm32f0xx.c ****   * @param  None
 163:Drivers/CMSIS/Device/ST/STM32F0xx/Source/Templates/system_stm32f0xx.c ****   * @retval None
 164:Drivers/CMSIS/Device/ST/STM32F0xx/Source/Templates/system_stm32f0xx.c ****   */
 165:Drivers/CMSIS/Device/ST/STM32F0xx/Source/Templates/system_stm32f0xx.c **** void SystemInit(void)
 166:Drivers/CMSIS/Device/ST/STM32F0xx/Source/Templates/system_stm32f0xx.c **** {
  26              		.loc 1 166 0
  27              		.cfi_startproc
 167:Drivers/CMSIS/Device/ST/STM32F0xx/Source/Templates/system_stm32f0xx.c ****   /* Reset the RCC clock configuration to the default reset state ------------*/
 168:Drivers/CMSIS/Device/ST/STM32F0xx/Source/Templates/system_stm32f0xx.c ****   /* Set HSION bit */
 169:Drivers/CMSIS/Device/ST/STM32F0xx/Source/Templates/system_stm32f0xx.c ****   RCC->CR |= (uint32_t)0x00000001U;
  28              		.loc 1 169 0
  29 0000 0121     		movs	r1, #1
  30 0002 114B     		ldr	r3, .L2
 170:Drivers/CMSIS/Device/ST/STM32F0xx/Source/Templates/system_stm32f0xx.c **** 
 171:Drivers/CMSIS/Device/ST/STM32F0xx/Source/Templates/system_stm32f0xx.c **** #if defined (STM32F051x8) || defined (STM32F058x8)
 172:Drivers/CMSIS/Device/ST/STM32F0xx/Source/Templates/system_stm32f0xx.c ****   /* Reset SW[1:0], HPRE[3:0], PPRE[2:0], ADCPRE and MCOSEL[2:0] bits */
 173:Drivers/CMSIS/Device/ST/STM32F0xx/Source/Templates/system_stm32f0xx.c ****   RCC->CFGR &= (uint32_t)0xF8FFB80CU;
 174:Drivers/CMSIS/Device/ST/STM32F0xx/Source/Templates/system_stm32f0xx.c **** #else
 175:Drivers/CMSIS/Device/ST/STM32F0xx/Source/Templates/system_stm32f0xx.c ****   /* Reset SW[1:0], HPRE[3:0], PPRE[2:0], ADCPRE, MCOSEL[2:0], MCOPRE[2:0] and PLLNODIV bits */
 176:Drivers/CMSIS/Device/ST/STM32F0xx/Source/Templates/system_stm32f0xx.c ****   RCC->CFGR &= (uint32_t)0x08FFB80CU;
  31              		.loc 1 176 0
  32 0004 1148     		ldr	r0, .L2+4
 169:Drivers/CMSIS/Device/ST/STM32F0xx/Source/Templates/system_stm32f0xx.c **** 
  33              		.loc 1 169 0
  34 0006 1A68     		ldr	r2, [r3]
 177:Drivers/CMSIS/Device/ST/STM32F0xx/Source/Templates/system_stm32f0xx.c **** #endif /* STM32F051x8 or STM32F058x8 */
 178:Drivers/CMSIS/Device/ST/STM32F0xx/Source/Templates/system_stm32f0xx.c ****   
 179:Drivers/CMSIS/Device/ST/STM32F0xx/Source/Templates/system_stm32f0xx.c ****   /* Reset HSEON, CSSON and PLLON bits */
 180:Drivers/CMSIS/Device/ST/STM32F0xx/Source/Templates/system_stm32f0xx.c ****   RCC->CR &= (uint32_t)0xFEF6FFFFU;
 181:Drivers/CMSIS/Device/ST/STM32F0xx/Source/Templates/system_stm32f0xx.c **** 
 182:Drivers/CMSIS/Device/ST/STM32F0xx/Source/Templates/system_stm32f0xx.c ****   /* Reset HSEBYP bit */
 183:Drivers/CMSIS/Device/ST/STM32F0xx/Source/Templates/system_stm32f0xx.c ****   RCC->CR &= (uint32_t)0xFFFBFFFFU;
 184:Drivers/CMSIS/Device/ST/STM32F0xx/Source/Templates/system_stm32f0xx.c **** 
 185:Drivers/CMSIS/Device/ST/STM32F0xx/Source/Templates/system_stm32f0xx.c ****   /* Reset PLLSRC, PLLXTPRE and PLLMUL[3:0] bits */
 186:Drivers/CMSIS/Device/ST/STM32F0xx/Source/Templates/system_stm32f0xx.c ****   RCC->CFGR &= (uint32_t)0xFFC0FFFFU;
 187:Drivers/CMSIS/Device/ST/STM32F0xx/Source/Templates/system_stm32f0xx.c **** 
 188:Drivers/CMSIS/Device/ST/STM32F0xx/Source/Templates/system_stm32f0xx.c ****   /* Reset PREDIV[3:0] bits */
 189:Drivers/CMSIS/Device/ST/STM32F0xx/Source/Templates/system_stm32f0xx.c ****   RCC->CFGR2 &= (uint32_t)0xFFFFFFF0U;
 190:Drivers/CMSIS/Device/ST/STM32F0xx/Source/Templates/system_stm32f0xx.c **** 
 191:Drivers/CMSIS/Device/ST/STM32F0xx/Source/Templates/system_stm32f0xx.c **** #if defined (STM32F072xB) || defined (STM32F078xx)
 192:Drivers/CMSIS/Device/ST/STM32F0xx/Source/Templates/system_stm32f0xx.c ****   /* Reset USART2SW[1:0], USART1SW[1:0], I2C1SW, CECSW, USBSW and ADCSW bits */
 193:Drivers/CMSIS/Device/ST/STM32F0xx/Source/Templates/system_stm32f0xx.c ****   RCC->CFGR3 &= (uint32_t)0xFFFCFE2CU;
 194:Drivers/CMSIS/Device/ST/STM32F0xx/Source/Templates/system_stm32f0xx.c **** #elif defined (STM32F071xB)
ARM GAS  /tmp/ccCWZn8b.s 			page 5


 195:Drivers/CMSIS/Device/ST/STM32F0xx/Source/Templates/system_stm32f0xx.c ****   /* Reset USART2SW[1:0], USART1SW[1:0], I2C1SW, CECSW and ADCSW bits */
 196:Drivers/CMSIS/Device/ST/STM32F0xx/Source/Templates/system_stm32f0xx.c ****   RCC->CFGR3 &= (uint32_t)0xFFFFCEACU;
 197:Drivers/CMSIS/Device/ST/STM32F0xx/Source/Templates/system_stm32f0xx.c **** #elif defined (STM32F091xC) || defined (STM32F098xx)
 198:Drivers/CMSIS/Device/ST/STM32F0xx/Source/Templates/system_stm32f0xx.c ****   /* Reset USART3SW[1:0], USART2SW[1:0], USART1SW[1:0], I2C1SW, CECSW and ADCSW bits */
 199:Drivers/CMSIS/Device/ST/STM32F0xx/Source/Templates/system_stm32f0xx.c ****   RCC->CFGR3 &= (uint32_t)0xFFF0FEACU;
 200:Drivers/CMSIS/Device/ST/STM32F0xx/Source/Templates/system_stm32f0xx.c **** #elif defined (STM32F030x6) || defined (STM32F030x8) || defined (STM32F031x6) || defined (STM32F038
 201:Drivers/CMSIS/Device/ST/STM32F0xx/Source/Templates/system_stm32f0xx.c ****   /* Reset USART1SW[1:0], I2C1SW and ADCSW bits */
 202:Drivers/CMSIS/Device/ST/STM32F0xx/Source/Templates/system_stm32f0xx.c ****   RCC->CFGR3 &= (uint32_t)0xFFFFFEECU;
 203:Drivers/CMSIS/Device/ST/STM32F0xx/Source/Templates/system_stm32f0xx.c **** #elif defined (STM32F051x8) || defined (STM32F058xx)
 204:Drivers/CMSIS/Device/ST/STM32F0xx/Source/Templates/system_stm32f0xx.c ****   /* Reset USART1SW[1:0], I2C1SW, CECSW and ADCSW bits */
 205:Drivers/CMSIS/Device/ST/STM32F0xx/Source/Templates/system_stm32f0xx.c ****   RCC->CFGR3 &= (uint32_t)0xFFFFFEACU;
 206:Drivers/CMSIS/Device/ST/STM32F0xx/Source/Templates/system_stm32f0xx.c **** #elif defined (STM32F042x6) || defined (STM32F048xx)
 207:Drivers/CMSIS/Device/ST/STM32F0xx/Source/Templates/system_stm32f0xx.c ****   /* Reset USART1SW[1:0], I2C1SW, CECSW, USBSW and ADCSW bits */
 208:Drivers/CMSIS/Device/ST/STM32F0xx/Source/Templates/system_stm32f0xx.c ****   RCC->CFGR3 &= (uint32_t)0xFFFFFE2CU;
 209:Drivers/CMSIS/Device/ST/STM32F0xx/Source/Templates/system_stm32f0xx.c **** #elif defined (STM32F070x6) || defined (STM32F070xB)
 210:Drivers/CMSIS/Device/ST/STM32F0xx/Source/Templates/system_stm32f0xx.c ****   /* Reset USART1SW[1:0], I2C1SW, USBSW and ADCSW bits */
 211:Drivers/CMSIS/Device/ST/STM32F0xx/Source/Templates/system_stm32f0xx.c ****   RCC->CFGR3 &= (uint32_t)0xFFFFFE6CU;
 212:Drivers/CMSIS/Device/ST/STM32F0xx/Source/Templates/system_stm32f0xx.c ****   /* Set default USB clock to PLLCLK, since there is no HSI48 */
 213:Drivers/CMSIS/Device/ST/STM32F0xx/Source/Templates/system_stm32f0xx.c ****   RCC->CFGR3 |= (uint32_t)0x00000080U;  
 214:Drivers/CMSIS/Device/ST/STM32F0xx/Source/Templates/system_stm32f0xx.c **** #else
 215:Drivers/CMSIS/Device/ST/STM32F0xx/Source/Templates/system_stm32f0xx.c ****  #warning "No target selected"
 216:Drivers/CMSIS/Device/ST/STM32F0xx/Source/Templates/system_stm32f0xx.c **** #endif
 217:Drivers/CMSIS/Device/ST/STM32F0xx/Source/Templates/system_stm32f0xx.c **** 
 218:Drivers/CMSIS/Device/ST/STM32F0xx/Source/Templates/system_stm32f0xx.c ****   /* Reset HSI14 bit */
 219:Drivers/CMSIS/Device/ST/STM32F0xx/Source/Templates/system_stm32f0xx.c ****   RCC->CR2 &= (uint32_t)0xFFFFFFFEU;
 220:Drivers/CMSIS/Device/ST/STM32F0xx/Source/Templates/system_stm32f0xx.c **** 
 221:Drivers/CMSIS/Device/ST/STM32F0xx/Source/Templates/system_stm32f0xx.c ****   /* Disable all interrupts */
 222:Drivers/CMSIS/Device/ST/STM32F0xx/Source/Templates/system_stm32f0xx.c ****   RCC->CIR = 0x00000000U;
 223:Drivers/CMSIS/Device/ST/STM32F0xx/Source/Templates/system_stm32f0xx.c **** 
 224:Drivers/CMSIS/Device/ST/STM32F0xx/Source/Templates/system_stm32f0xx.c **** }
  35              		.loc 1 224 0
  36              		@ sp needed
 169:Drivers/CMSIS/Device/ST/STM32F0xx/Source/Templates/system_stm32f0xx.c **** 
  37              		.loc 1 169 0
  38 0008 0A43     		orrs	r2, r1
  39 000a 1A60     		str	r2, [r3]
 176:Drivers/CMSIS/Device/ST/STM32F0xx/Source/Templates/system_stm32f0xx.c **** #endif /* STM32F051x8 or STM32F058x8 */
  40              		.loc 1 176 0
  41 000c 5A68     		ldr	r2, [r3, #4]
  42 000e 0240     		ands	r2, r0
  43 0010 5A60     		str	r2, [r3, #4]
 180:Drivers/CMSIS/Device/ST/STM32F0xx/Source/Templates/system_stm32f0xx.c **** 
  44              		.loc 1 180 0
  45 0012 1A68     		ldr	r2, [r3]
  46 0014 0E48     		ldr	r0, .L2+8
  47 0016 0240     		ands	r2, r0
  48 0018 1A60     		str	r2, [r3]
 183:Drivers/CMSIS/Device/ST/STM32F0xx/Source/Templates/system_stm32f0xx.c **** 
  49              		.loc 1 183 0
  50 001a 1A68     		ldr	r2, [r3]
  51 001c 0D48     		ldr	r0, .L2+12
  52 001e 0240     		ands	r2, r0
  53 0020 1A60     		str	r2, [r3]
 186:Drivers/CMSIS/Device/ST/STM32F0xx/Source/Templates/system_stm32f0xx.c **** 
  54              		.loc 1 186 0
  55 0022 5A68     		ldr	r2, [r3, #4]
  56 0024 0C48     		ldr	r0, .L2+16
ARM GAS  /tmp/ccCWZn8b.s 			page 6


  57 0026 0240     		ands	r2, r0
 189:Drivers/CMSIS/Device/ST/STM32F0xx/Source/Templates/system_stm32f0xx.c **** 
  58              		.loc 1 189 0
  59 0028 0F20     		movs	r0, #15
 186:Drivers/CMSIS/Device/ST/STM32F0xx/Source/Templates/system_stm32f0xx.c **** 
  60              		.loc 1 186 0
  61 002a 5A60     		str	r2, [r3, #4]
 189:Drivers/CMSIS/Device/ST/STM32F0xx/Source/Templates/system_stm32f0xx.c **** 
  62              		.loc 1 189 0
  63 002c DA6A     		ldr	r2, [r3, #44]
  64 002e 8243     		bics	r2, r0
  65 0030 DA62     		str	r2, [r3, #44]
 193:Drivers/CMSIS/Device/ST/STM32F0xx/Source/Templates/system_stm32f0xx.c **** #elif defined (STM32F071xB)
  66              		.loc 1 193 0
  67 0032 1A6B     		ldr	r2, [r3, #48]
  68 0034 0948     		ldr	r0, .L2+20
  69 0036 0240     		ands	r2, r0
  70 0038 1A63     		str	r2, [r3, #48]
 219:Drivers/CMSIS/Device/ST/STM32F0xx/Source/Templates/system_stm32f0xx.c **** 
  71              		.loc 1 219 0
  72 003a 5A6B     		ldr	r2, [r3, #52]
  73 003c 8A43     		bics	r2, r1
  74 003e 5A63     		str	r2, [r3, #52]
 222:Drivers/CMSIS/Device/ST/STM32F0xx/Source/Templates/system_stm32f0xx.c **** 
  75              		.loc 1 222 0
  76 0040 0022     		movs	r2, #0
  77 0042 9A60     		str	r2, [r3, #8]
  78              		.loc 1 224 0
  79 0044 7047     		bx	lr
  80              	.L3:
  81 0046 C046     		.align	2
  82              	.L2:
  83 0048 00100240 		.word	1073876992
  84 004c 0CB8FF08 		.word	150976524
  85 0050 FFFFF6FE 		.word	-17367041
  86 0054 FFFFFBFF 		.word	-262145
  87 0058 FFFFC0FF 		.word	-4128769
  88 005c 2CFEFCFF 		.word	-197076
  89              		.cfi_endproc
  90              	.LFE35:
  92              		.global	__aeabi_uidiv
  93              		.section	.text.SystemCoreClockUpdate,"ax",%progbits
  94              		.align	1
  95              		.global	SystemCoreClockUpdate
  96              		.syntax unified
  97              		.code	16
  98              		.thumb_func
  99              		.fpu softvfp
 101              	SystemCoreClockUpdate:
 102              	.LFB36:
 225:Drivers/CMSIS/Device/ST/STM32F0xx/Source/Templates/system_stm32f0xx.c **** 
 226:Drivers/CMSIS/Device/ST/STM32F0xx/Source/Templates/system_stm32f0xx.c **** /**
 227:Drivers/CMSIS/Device/ST/STM32F0xx/Source/Templates/system_stm32f0xx.c ****    * @brief  Update SystemCoreClock variable according to Clock Register Values.
 228:Drivers/CMSIS/Device/ST/STM32F0xx/Source/Templates/system_stm32f0xx.c ****   *         The SystemCoreClock variable contains the core clock (HCLK), it can
 229:Drivers/CMSIS/Device/ST/STM32F0xx/Source/Templates/system_stm32f0xx.c ****   *         be used by the user application to setup the SysTick timer or configure
 230:Drivers/CMSIS/Device/ST/STM32F0xx/Source/Templates/system_stm32f0xx.c ****   *         other parameters.
 231:Drivers/CMSIS/Device/ST/STM32F0xx/Source/Templates/system_stm32f0xx.c ****   *
ARM GAS  /tmp/ccCWZn8b.s 			page 7


 232:Drivers/CMSIS/Device/ST/STM32F0xx/Source/Templates/system_stm32f0xx.c ****   * @note   Each time the core clock (HCLK) changes, this function must be called
 233:Drivers/CMSIS/Device/ST/STM32F0xx/Source/Templates/system_stm32f0xx.c ****   *         to update SystemCoreClock variable value. Otherwise, any configuration
 234:Drivers/CMSIS/Device/ST/STM32F0xx/Source/Templates/system_stm32f0xx.c ****   *         based on this variable will be incorrect.
 235:Drivers/CMSIS/Device/ST/STM32F0xx/Source/Templates/system_stm32f0xx.c ****   *
 236:Drivers/CMSIS/Device/ST/STM32F0xx/Source/Templates/system_stm32f0xx.c ****   * @note   - The system frequency computed by this function is not the real
 237:Drivers/CMSIS/Device/ST/STM32F0xx/Source/Templates/system_stm32f0xx.c ****   *           frequency in the chip. It is calculated based on the predefined
 238:Drivers/CMSIS/Device/ST/STM32F0xx/Source/Templates/system_stm32f0xx.c ****   *           constant and the selected clock source:
 239:Drivers/CMSIS/Device/ST/STM32F0xx/Source/Templates/system_stm32f0xx.c ****   *
 240:Drivers/CMSIS/Device/ST/STM32F0xx/Source/Templates/system_stm32f0xx.c ****   *           - If SYSCLK source is HSI, SystemCoreClock will contain the HSI_VALUE(*)
 241:Drivers/CMSIS/Device/ST/STM32F0xx/Source/Templates/system_stm32f0xx.c ****   *
 242:Drivers/CMSIS/Device/ST/STM32F0xx/Source/Templates/system_stm32f0xx.c ****   *           - If SYSCLK source is HSE, SystemCoreClock will contain the HSE_VALUE(**)
 243:Drivers/CMSIS/Device/ST/STM32F0xx/Source/Templates/system_stm32f0xx.c ****   *
 244:Drivers/CMSIS/Device/ST/STM32F0xx/Source/Templates/system_stm32f0xx.c ****   *           - If SYSCLK source is PLL, SystemCoreClock will contain the HSE_VALUE(**)
 245:Drivers/CMSIS/Device/ST/STM32F0xx/Source/Templates/system_stm32f0xx.c ****   *             or HSI_VALUE(*) multiplied/divided by the PLL factors.
 246:Drivers/CMSIS/Device/ST/STM32F0xx/Source/Templates/system_stm32f0xx.c ****   *
 247:Drivers/CMSIS/Device/ST/STM32F0xx/Source/Templates/system_stm32f0xx.c ****   *         (*) HSI_VALUE is a constant defined in stm32f0xx_hal.h file (default value
 248:Drivers/CMSIS/Device/ST/STM32F0xx/Source/Templates/system_stm32f0xx.c ****   *             8 MHz) but the real value may vary depending on the variations
 249:Drivers/CMSIS/Device/ST/STM32F0xx/Source/Templates/system_stm32f0xx.c ****   *             in voltage and temperature.
 250:Drivers/CMSIS/Device/ST/STM32F0xx/Source/Templates/system_stm32f0xx.c ****   *
 251:Drivers/CMSIS/Device/ST/STM32F0xx/Source/Templates/system_stm32f0xx.c ****   *         (**) HSE_VALUE is a constant defined in stm32f0xx_hal.h file (default value
 252:Drivers/CMSIS/Device/ST/STM32F0xx/Source/Templates/system_stm32f0xx.c ****   *              8 MHz), user has to ensure that HSE_VALUE is same as the real
 253:Drivers/CMSIS/Device/ST/STM32F0xx/Source/Templates/system_stm32f0xx.c ****   *              frequency of the crystal used. Otherwise, this function may
 254:Drivers/CMSIS/Device/ST/STM32F0xx/Source/Templates/system_stm32f0xx.c ****   *              have wrong result.
 255:Drivers/CMSIS/Device/ST/STM32F0xx/Source/Templates/system_stm32f0xx.c ****   *
 256:Drivers/CMSIS/Device/ST/STM32F0xx/Source/Templates/system_stm32f0xx.c ****   *         - The result of this function could be not correct when using fractional
 257:Drivers/CMSIS/Device/ST/STM32F0xx/Source/Templates/system_stm32f0xx.c ****   *           value for HSE crystal.
 258:Drivers/CMSIS/Device/ST/STM32F0xx/Source/Templates/system_stm32f0xx.c ****   *
 259:Drivers/CMSIS/Device/ST/STM32F0xx/Source/Templates/system_stm32f0xx.c ****   * @param  None
 260:Drivers/CMSIS/Device/ST/STM32F0xx/Source/Templates/system_stm32f0xx.c ****   * @retval None
 261:Drivers/CMSIS/Device/ST/STM32F0xx/Source/Templates/system_stm32f0xx.c ****   */
 262:Drivers/CMSIS/Device/ST/STM32F0xx/Source/Templates/system_stm32f0xx.c **** void SystemCoreClockUpdate (void)
 263:Drivers/CMSIS/Device/ST/STM32F0xx/Source/Templates/system_stm32f0xx.c **** {
 103              		.loc 1 263 0
 104              		.cfi_startproc
 105              	.LVL0:
 264:Drivers/CMSIS/Device/ST/STM32F0xx/Source/Templates/system_stm32f0xx.c ****   uint32_t tmp = 0, pllmull = 0, pllsource = 0, predivfactor = 0;
 265:Drivers/CMSIS/Device/ST/STM32F0xx/Source/Templates/system_stm32f0xx.c **** 
 266:Drivers/CMSIS/Device/ST/STM32F0xx/Source/Templates/system_stm32f0xx.c ****   /* Get SYSCLK source -------------------------------------------------------*/
 267:Drivers/CMSIS/Device/ST/STM32F0xx/Source/Templates/system_stm32f0xx.c ****   tmp = RCC->CFGR & RCC_CFGR_SWS;
 106              		.loc 1 267 0
 107 0000 0C22     		movs	r2, #12
 263:Drivers/CMSIS/Device/ST/STM32F0xx/Source/Templates/system_stm32f0xx.c ****   uint32_t tmp = 0, pllmull = 0, pllsource = 0, predivfactor = 0;
 108              		.loc 1 263 0
 109 0002 70B5     		push	{r4, r5, r6, lr}
 110              	.LCFI0:
 111              		.cfi_def_cfa_offset 16
 112              		.cfi_offset 4, -16
 113              		.cfi_offset 5, -12
 114              		.cfi_offset 6, -8
 115              		.cfi_offset 14, -4
 116              		.loc 1 267 0
 117 0004 164E     		ldr	r6, .L13
 118 0006 174D     		ldr	r5, .L13+4
 119 0008 7368     		ldr	r3, [r6, #4]
 120              	.LVL1:
 121 000a 1340     		ands	r3, r2
 122              	.LVL2:
ARM GAS  /tmp/ccCWZn8b.s 			page 8


 268:Drivers/CMSIS/Device/ST/STM32F0xx/Source/Templates/system_stm32f0xx.c **** 
 269:Drivers/CMSIS/Device/ST/STM32F0xx/Source/Templates/system_stm32f0xx.c ****   switch (tmp)
 123              		.loc 1 269 0
 124 000c 042B     		cmp	r3, #4
 125 000e 01D0     		beq	.L6
 126 0010 082B     		cmp	r3, #8
 127 0012 0AD0     		beq	.L7
 128              	.L6:
 270:Drivers/CMSIS/Device/ST/STM32F0xx/Source/Templates/system_stm32f0xx.c ****   {
 271:Drivers/CMSIS/Device/ST/STM32F0xx/Source/Templates/system_stm32f0xx.c ****     case RCC_CFGR_SWS_HSI:  /* HSI used as system clock */
 272:Drivers/CMSIS/Device/ST/STM32F0xx/Source/Templates/system_stm32f0xx.c ****       SystemCoreClock = HSI_VALUE;
 273:Drivers/CMSIS/Device/ST/STM32F0xx/Source/Templates/system_stm32f0xx.c ****       break;
 274:Drivers/CMSIS/Device/ST/STM32F0xx/Source/Templates/system_stm32f0xx.c ****     case RCC_CFGR_SWS_HSE:  /* HSE used as system clock */
 275:Drivers/CMSIS/Device/ST/STM32F0xx/Source/Templates/system_stm32f0xx.c ****       SystemCoreClock = HSE_VALUE;
 129              		.loc 1 275 0
 130 0014 144B     		ldr	r3, .L13+8
 131              	.LVL3:
 132 0016 2B60     		str	r3, [r5]
 133              	.LVL4:
 134              	.L9:
 276:Drivers/CMSIS/Device/ST/STM32F0xx/Source/Templates/system_stm32f0xx.c ****       break;
 277:Drivers/CMSIS/Device/ST/STM32F0xx/Source/Templates/system_stm32f0xx.c ****     case RCC_CFGR_SWS_PLL:  /* PLL used as system clock */
 278:Drivers/CMSIS/Device/ST/STM32F0xx/Source/Templates/system_stm32f0xx.c ****       /* Get PLL clock source and multiplication factor ----------------------*/
 279:Drivers/CMSIS/Device/ST/STM32F0xx/Source/Templates/system_stm32f0xx.c ****       pllmull = RCC->CFGR & RCC_CFGR_PLLMUL;
 280:Drivers/CMSIS/Device/ST/STM32F0xx/Source/Templates/system_stm32f0xx.c ****       pllsource = RCC->CFGR & RCC_CFGR_PLLSRC;
 281:Drivers/CMSIS/Device/ST/STM32F0xx/Source/Templates/system_stm32f0xx.c ****       pllmull = ( pllmull >> 18) + 2;
 282:Drivers/CMSIS/Device/ST/STM32F0xx/Source/Templates/system_stm32f0xx.c ****       predivfactor = (RCC->CFGR2 & RCC_CFGR2_PREDIV) + 1;
 283:Drivers/CMSIS/Device/ST/STM32F0xx/Source/Templates/system_stm32f0xx.c **** 
 284:Drivers/CMSIS/Device/ST/STM32F0xx/Source/Templates/system_stm32f0xx.c ****       if (pllsource == RCC_CFGR_PLLSRC_HSE_PREDIV)
 285:Drivers/CMSIS/Device/ST/STM32F0xx/Source/Templates/system_stm32f0xx.c ****       {
 286:Drivers/CMSIS/Device/ST/STM32F0xx/Source/Templates/system_stm32f0xx.c ****         /* HSE used as PLL clock source : SystemCoreClock = HSE/PREDIV * PLLMUL */
 287:Drivers/CMSIS/Device/ST/STM32F0xx/Source/Templates/system_stm32f0xx.c ****         SystemCoreClock = (HSE_VALUE/predivfactor) * pllmull;
 288:Drivers/CMSIS/Device/ST/STM32F0xx/Source/Templates/system_stm32f0xx.c ****       }
 289:Drivers/CMSIS/Device/ST/STM32F0xx/Source/Templates/system_stm32f0xx.c **** #if defined(STM32F042x6) || defined(STM32F048xx) || defined(STM32F072xB) || defined(STM32F078xx) ||
 290:Drivers/CMSIS/Device/ST/STM32F0xx/Source/Templates/system_stm32f0xx.c ****       else if (pllsource == RCC_CFGR_PLLSRC_HSI48_PREDIV)
 291:Drivers/CMSIS/Device/ST/STM32F0xx/Source/Templates/system_stm32f0xx.c ****       {
 292:Drivers/CMSIS/Device/ST/STM32F0xx/Source/Templates/system_stm32f0xx.c ****         /* HSI48 used as PLL clock source : SystemCoreClock = HSI48/PREDIV * PLLMUL */
 293:Drivers/CMSIS/Device/ST/STM32F0xx/Source/Templates/system_stm32f0xx.c ****         SystemCoreClock = (HSI48_VALUE/predivfactor) * pllmull;
 294:Drivers/CMSIS/Device/ST/STM32F0xx/Source/Templates/system_stm32f0xx.c ****       }
 295:Drivers/CMSIS/Device/ST/STM32F0xx/Source/Templates/system_stm32f0xx.c **** #endif /* STM32F042x6 || STM32F048xx || STM32F072xB || STM32F078xx || STM32F091xC || STM32F098xx */
 296:Drivers/CMSIS/Device/ST/STM32F0xx/Source/Templates/system_stm32f0xx.c ****       else
 297:Drivers/CMSIS/Device/ST/STM32F0xx/Source/Templates/system_stm32f0xx.c ****       {
 298:Drivers/CMSIS/Device/ST/STM32F0xx/Source/Templates/system_stm32f0xx.c **** #if defined(STM32F042x6) || defined(STM32F048xx)  || defined(STM32F070x6) \
 299:Drivers/CMSIS/Device/ST/STM32F0xx/Source/Templates/system_stm32f0xx.c ****  || defined(STM32F078xx) || defined(STM32F071xB)  || defined(STM32F072xB) \
 300:Drivers/CMSIS/Device/ST/STM32F0xx/Source/Templates/system_stm32f0xx.c ****  || defined(STM32F070xB) || defined(STM32F091xC) || defined(STM32F098xx)  || defined(STM32F030xC)
 301:Drivers/CMSIS/Device/ST/STM32F0xx/Source/Templates/system_stm32f0xx.c ****         /* HSI used as PLL clock source : SystemCoreClock = HSI/PREDIV * PLLMUL */
 302:Drivers/CMSIS/Device/ST/STM32F0xx/Source/Templates/system_stm32f0xx.c ****         SystemCoreClock = (HSI_VALUE/predivfactor) * pllmull;
 303:Drivers/CMSIS/Device/ST/STM32F0xx/Source/Templates/system_stm32f0xx.c **** #else
 304:Drivers/CMSIS/Device/ST/STM32F0xx/Source/Templates/system_stm32f0xx.c ****         /* HSI used as PLL clock source : SystemCoreClock = HSI/2 * PLLMUL */
 305:Drivers/CMSIS/Device/ST/STM32F0xx/Source/Templates/system_stm32f0xx.c ****         SystemCoreClock = (HSI_VALUE >> 1) * pllmull;
 306:Drivers/CMSIS/Device/ST/STM32F0xx/Source/Templates/system_stm32f0xx.c **** #endif /* STM32F042x6 || STM32F048xx || STM32F070x6 || 
 307:Drivers/CMSIS/Device/ST/STM32F0xx/Source/Templates/system_stm32f0xx.c ****           STM32F071xB || STM32F072xB || STM32F078xx || STM32F070xB ||
 308:Drivers/CMSIS/Device/ST/STM32F0xx/Source/Templates/system_stm32f0xx.c ****           STM32F091xC || STM32F098xx || STM32F030xC */
 309:Drivers/CMSIS/Device/ST/STM32F0xx/Source/Templates/system_stm32f0xx.c ****       }
 310:Drivers/CMSIS/Device/ST/STM32F0xx/Source/Templates/system_stm32f0xx.c ****       break;
 311:Drivers/CMSIS/Device/ST/STM32F0xx/Source/Templates/system_stm32f0xx.c ****     default: /* HSI used as system clock */
 312:Drivers/CMSIS/Device/ST/STM32F0xx/Source/Templates/system_stm32f0xx.c ****       SystemCoreClock = HSI_VALUE;
ARM GAS  /tmp/ccCWZn8b.s 			page 9


 313:Drivers/CMSIS/Device/ST/STM32F0xx/Source/Templates/system_stm32f0xx.c ****       break;
 314:Drivers/CMSIS/Device/ST/STM32F0xx/Source/Templates/system_stm32f0xx.c ****   }
 315:Drivers/CMSIS/Device/ST/STM32F0xx/Source/Templates/system_stm32f0xx.c ****   /* Compute HCLK clock frequency ----------------*/
 316:Drivers/CMSIS/Device/ST/STM32F0xx/Source/Templates/system_stm32f0xx.c ****   /* Get HCLK prescaler */
 317:Drivers/CMSIS/Device/ST/STM32F0xx/Source/Templates/system_stm32f0xx.c ****   tmp = AHBPrescTable[((RCC->CFGR & RCC_CFGR_HPRE) >> 4)];
 135              		.loc 1 317 0
 136 0018 7368     		ldr	r3, [r6, #4]
 137              	.LVL5:
 138 001a 144A     		ldr	r2, .L13+12
 139 001c 1B06     		lsls	r3, r3, #24
 140              	.LVL6:
 141 001e 1B0F     		lsrs	r3, r3, #28
 142 0020 D35C     		ldrb	r3, [r2, r3]
 318:Drivers/CMSIS/Device/ST/STM32F0xx/Source/Templates/system_stm32f0xx.c ****   /* HCLK clock frequency */
 319:Drivers/CMSIS/Device/ST/STM32F0xx/Source/Templates/system_stm32f0xx.c ****   SystemCoreClock >>= tmp;
 143              		.loc 1 319 0
 144 0022 2A68     		ldr	r2, [r5]
 320:Drivers/CMSIS/Device/ST/STM32F0xx/Source/Templates/system_stm32f0xx.c **** }
 145              		.loc 1 320 0
 146              		@ sp needed
 319:Drivers/CMSIS/Device/ST/STM32F0xx/Source/Templates/system_stm32f0xx.c **** }
 147              		.loc 1 319 0
 148 0024 DA40     		lsrs	r2, r2, r3
 149 0026 2A60     		str	r2, [r5]
 150              		.loc 1 320 0
 151 0028 70BD     		pop	{r4, r5, r6, pc}
 152              	.LVL7:
 153              	.L7:
 281:Drivers/CMSIS/Device/ST/STM32F0xx/Source/Templates/system_stm32f0xx.c ****       predivfactor = (RCC->CFGR2 & RCC_CFGR2_PREDIV) + 1;
 154              		.loc 1 281 0
 155 002a 0F20     		movs	r0, #15
 279:Drivers/CMSIS/Device/ST/STM32F0xx/Source/Templates/system_stm32f0xx.c ****       pllsource = RCC->CFGR & RCC_CFGR_PLLSRC;
 156              		.loc 1 279 0
 157 002c 7468     		ldr	r4, [r6, #4]
 158              	.LVL8:
 280:Drivers/CMSIS/Device/ST/STM32F0xx/Source/Templates/system_stm32f0xx.c ****       pllmull = ( pllmull >> 18) + 2;
 159              		.loc 1 280 0
 160 002e 7368     		ldr	r3, [r6, #4]
 161              	.LVL9:
 282:Drivers/CMSIS/Device/ST/STM32F0xx/Source/Templates/system_stm32f0xx.c **** 
 162              		.loc 1 282 0
 163 0030 F16A     		ldr	r1, [r6, #44]
 280:Drivers/CMSIS/Device/ST/STM32F0xx/Source/Templates/system_stm32f0xx.c ****       pllmull = ( pllmull >> 18) + 2;
 164              		.loc 1 280 0
 165 0032 C022     		movs	r2, #192
 281:Drivers/CMSIS/Device/ST/STM32F0xx/Source/Templates/system_stm32f0xx.c ****       predivfactor = (RCC->CFGR2 & RCC_CFGR2_PREDIV) + 1;
 166              		.loc 1 281 0
 167 0034 A40C     		lsrs	r4, r4, #18
 168              	.LVL10:
 169 0036 0440     		ands	r4, r0
 282:Drivers/CMSIS/Device/ST/STM32F0xx/Source/Templates/system_stm32f0xx.c **** 
 170              		.loc 1 282 0
 171 0038 0140     		ands	r1, r0
 284:Drivers/CMSIS/Device/ST/STM32F0xx/Source/Templates/system_stm32f0xx.c ****       {
 172              		.loc 1 284 0
 173 003a 8020     		movs	r0, #128
 280:Drivers/CMSIS/Device/ST/STM32F0xx/Source/Templates/system_stm32f0xx.c ****       pllmull = ( pllmull >> 18) + 2;
ARM GAS  /tmp/ccCWZn8b.s 			page 10


 174              		.loc 1 280 0
 175 003c 5202     		lsls	r2, r2, #9
 176 003e 1340     		ands	r3, r2
 177              	.LVL11:
 281:Drivers/CMSIS/Device/ST/STM32F0xx/Source/Templates/system_stm32f0xx.c ****       predivfactor = (RCC->CFGR2 & RCC_CFGR2_PREDIV) + 1;
 178              		.loc 1 281 0
 179 0040 0234     		adds	r4, r4, #2
 180              	.LVL12:
 282:Drivers/CMSIS/Device/ST/STM32F0xx/Source/Templates/system_stm32f0xx.c **** 
 181              		.loc 1 282 0
 182 0042 0131     		adds	r1, r1, #1
 183              	.LVL13:
 284:Drivers/CMSIS/Device/ST/STM32F0xx/Source/Templates/system_stm32f0xx.c ****       {
 184              		.loc 1 284 0
 185 0044 4002     		lsls	r0, r0, #9
 186 0046 8342     		cmp	r3, r0
 187 0048 01D1     		bne	.L10
 188              	.L11:
 302:Drivers/CMSIS/Device/ST/STM32F0xx/Source/Templates/system_stm32f0xx.c **** #else
 189              		.loc 1 302 0
 190 004a 0748     		ldr	r0, .L13+8
 191 004c 02E0     		b	.L12
 192              	.L10:
 290:Drivers/CMSIS/Device/ST/STM32F0xx/Source/Templates/system_stm32f0xx.c ****       {
 193              		.loc 1 290 0
 194 004e 9342     		cmp	r3, r2
 195 0050 FBD1     		bne	.L11
 293:Drivers/CMSIS/Device/ST/STM32F0xx/Source/Templates/system_stm32f0xx.c ****       }
 196              		.loc 1 293 0
 197 0052 0748     		ldr	r0, .L13+16
 198              	.L12:
 302:Drivers/CMSIS/Device/ST/STM32F0xx/Source/Templates/system_stm32f0xx.c **** #else
 199              		.loc 1 302 0
 200 0054 FFF7FEFF 		bl	__aeabi_uidiv
 201              	.LVL14:
 202 0058 4443     		muls	r4, r0
 203              	.LVL15:
 204 005a 2C60     		str	r4, [r5]
 205 005c DCE7     		b	.L9
 206              	.L14:
 207 005e C046     		.align	2
 208              	.L13:
 209 0060 00100240 		.word	1073876992
 210 0064 00000000 		.word	.LANCHOR0
 211 0068 00127A00 		.word	8000000
 212 006c 00000000 		.word	.LANCHOR1
 213 0070 006CDC02 		.word	48000000
 214              		.cfi_endproc
 215              	.LFE36:
 217              		.global	APBPrescTable
 218              		.global	AHBPrescTable
 219              		.global	SystemCoreClock
 220              		.section	.data.SystemCoreClock,"aw",%progbits
 221              		.align	2
 222              		.set	.LANCHOR0,. + 0
 225              	SystemCoreClock:
 226 0000 00127A00 		.word	8000000
ARM GAS  /tmp/ccCWZn8b.s 			page 11


 227              		.section	.rodata.AHBPrescTable,"a",%progbits
 228              		.set	.LANCHOR1,. + 0
 231              	AHBPrescTable:
 232 0000 00       		.byte	0
 233 0001 00       		.byte	0
 234 0002 00       		.byte	0
 235 0003 00       		.byte	0
 236 0004 00       		.byte	0
 237 0005 00       		.byte	0
 238 0006 00       		.byte	0
 239 0007 00       		.byte	0
 240 0008 01       		.byte	1
 241 0009 02       		.byte	2
 242 000a 03       		.byte	3
 243 000b 04       		.byte	4
 244 000c 06       		.byte	6
 245 000d 07       		.byte	7
 246 000e 08       		.byte	8
 247 000f 09       		.byte	9
 248              		.section	.rodata.APBPrescTable,"a",%progbits
 251              	APBPrescTable:
 252 0000 00       		.byte	0
 253 0001 00       		.byte	0
 254 0002 00       		.byte	0
 255 0003 00       		.byte	0
 256 0004 01       		.byte	1
 257 0005 02       		.byte	2
 258 0006 03       		.byte	3
 259 0007 04       		.byte	4
 260              		.text
 261              	.Letext0:
 262              		.file 2 "/usr/arm-none-eabi/include/machine/_default_types.h"
 263              		.file 3 "/usr/arm-none-eabi/include/sys/_stdint.h"
 264              		.file 4 "Drivers/CMSIS/Device/ST/STM32F0xx/Include/system_stm32f0xx.h"
 265              		.file 5 "Drivers/CMSIS/Device/ST/STM32F0xx/Include/stm32f072xb.h"
 266              		.file 6 "/usr/arm-none-eabi/include/sys/lock.h"
 267              		.file 7 "/usr/arm-none-eabi/include/sys/_types.h"
 268              		.file 8 "/usr/lib/gcc/arm-none-eabi/6.2.0/include/stddef.h"
 269              		.file 9 "/usr/arm-none-eabi/include/sys/reent.h"
ARM GAS  /tmp/ccCWZn8b.s 			page 12

