ARM GAS  /tmp/ccixZJxv.s 			page 1


   1              		.cpu cortex-m0
   2              		.eabi_attribute 20, 1
   3              		.eabi_attribute 21, 1
   4              		.eabi_attribute 23, 3
   5              		.eabi_attribute 24, 1
   6              		.eabi_attribute 25, 1
   7              		.eabi_attribute 26, 1
   8              		.eabi_attribute 30, 6
   9              		.eabi_attribute 34, 0
  10              		.eabi_attribute 18, 4
  11              		.file	"utils.c"
  12              		.text
  13              	.Ltext0:
  14              		.cfi_sections	.debug_frame
  15              		.section	.text.uart_printf,"ax",%progbits
  16              		.align	1
  17              		.global	uart_printf
  18              		.syntax unified
  19              		.code	16
  20              		.thumb_func
  21              		.fpu softvfp
  23              	uart_printf:
  24              	.LFB35:
  25              		.file 1 "Src/utils.c"
   1:Src/utils.c   **** #include "main.h"
   2:Src/utils.c   **** #include "stm32f0xx_hal.h"
   3:Src/utils.c   **** #include <stdio.h>      /* vsprintf */
   4:Src/utils.c   **** #include <stdarg.h>     /* va_list, va_start, va_end */
   5:Src/utils.c   **** 
   6:Src/utils.c   **** extern UART_HandleTypeDef huart1;
   7:Src/utils.c   **** 
   8:Src/utils.c   **** void uart_printf(const char* format, ...) {
  26              		.loc 1 8 0
  27              		.cfi_startproc
  28 0000 0FB4     		push	{r0, r1, r2, r3}
  29              	.LCFI0:
  30              		.cfi_def_cfa_offset 16
  31 0002 80B5     		push	{r7, lr}
  32              	.LCFI1:
  33              		.cfi_def_cfa_offset 24
  34              		.cfi_offset 7, -24
  35              		.cfi_offset 14, -20
  36 0004 A2B0     		sub	sp, sp, #136
  37              	.LCFI2:
  38              		.cfi_def_cfa_offset 160
  39 0006 00AF     		add	r7, sp, #0
  40              	.LCFI3:
  41              		.cfi_def_cfa_register 7
   9:Src/utils.c   ****     va_list arglist;
  10:Src/utils.c   ****     va_start(arglist, format);
  42              		.loc 1 10 0
  43 0008 9423     		movs	r3, #148
  44 000a FB18     		adds	r3, r7, r3
  45 000c 8022     		movs	r2, #128
  46 000e BA18     		adds	r2, r7, r2
  47 0010 1360     		str	r3, [r2]
  11:Src/utils.c   ****     char data[128];
ARM GAS  /tmp/ccixZJxv.s 			page 2


  12:Src/utils.c   ****     int len = vsprintf(data, format, arglist);
  48              		.loc 1 12 0
  49 0012 8023     		movs	r3, #128
  50 0014 FB18     		adds	r3, r7, r3
  51 0016 1A68     		ldr	r2, [r3]
  52 0018 9023     		movs	r3, #144
  53 001a FB18     		adds	r3, r7, r3
  54 001c 1968     		ldr	r1, [r3]
  55 001e 3B00     		movs	r3, r7
  56 0020 1800     		movs	r0, r3
  57 0022 FFF7FEFF 		bl	vsprintf
  58 0026 0300     		movs	r3, r0
  59 0028 8422     		movs	r2, #132
  60 002a BA18     		adds	r2, r7, r2
  61 002c 1360     		str	r3, [r2]
  13:Src/utils.c   ****     va_end(arglist);
  14:Src/utils.c   ****     HAL_UART_Transmit(&huart1, (uint8_t*) data, len, 10);
  62              		.loc 1 14 0
  63 002e 8423     		movs	r3, #132
  64 0030 FB18     		adds	r3, r7, r3
  65 0032 1B68     		ldr	r3, [r3]
  66 0034 9AB2     		uxth	r2, r3
  67 0036 3900     		movs	r1, r7
  68 0038 0548     		ldr	r0, .L2
  69 003a 0A23     		movs	r3, #10
  70 003c FFF7FEFF 		bl	HAL_UART_Transmit
  15:Src/utils.c   **** }
  71              		.loc 1 15 0
  72 0040 C046     		nop
  73 0042 BD46     		mov	sp, r7
  74 0044 22B0     		add	sp, sp, #136
  75              		@ sp needed
  76 0046 80BC     		pop	{r7}
  77 0048 08BC     		pop	{r3}
  78 004a 04B0     		add	sp, sp, #16
  79 004c 1847     		bx	r3
  80              	.L3:
  81 004e C046     		.align	2
  82              	.L2:
  83 0050 00000000 		.word	huart1
  84              		.cfi_endproc
  85              	.LFE35:
  87              		.text
  88              	.Letext0:
  89              		.file 2 "/usr/arm-none-eabi/include/machine/_default_types.h"
  90              		.file 3 "/usr/arm-none-eabi/include/sys/_stdint.h"
  91              		.file 4 "Drivers/CMSIS/Device/ST/STM32F0xx/Include/system_stm32f0xx.h"
  92              		.file 5 "Drivers/CMSIS/Device/ST/STM32F0xx/Include/stm32f072xb.h"
  93              		.file 6 "/usr/lib/gcc/arm-none-eabi/6.2.0/include/stdarg.h"
  94              		.file 7 "/usr/arm-none-eabi/include/sys/lock.h"
  95              		.file 8 "/usr/arm-none-eabi/include/sys/_types.h"
  96              		.file 9 "/usr/lib/gcc/arm-none-eabi/6.2.0/include/stddef.h"
  97              		.file 10 "/usr/arm-none-eabi/include/sys/reent.h"
  98              		.file 11 "<built-in>"
  99              		.file 12 "Drivers/STM32F0xx_HAL_Driver/Inc/stm32f0xx_hal_def.h"
 100              		.file 13 "Drivers/STM32F0xx_HAL_Driver/Inc/stm32f0xx_hal_dma.h"
 101              		.file 14 "Drivers/STM32F0xx_HAL_Driver/Inc/stm32f0xx_hal_uart.h"
ARM GAS  /tmp/ccixZJxv.s 			page 3


ARM GAS  /tmp/ccixZJxv.s 			page 4

